Certificate:
    Data:
        Version: 3 (0x2)
        Serial Number:
            6e:3a:c5:24:13:eb:41:29:e3:9c:9e:ed:99:ce:3b:de
        Signature Algorithm: sha256WithRSAEncryption
        Issuer: CN=team230-net
        Validity
            Not Before: Aug 14 14:26:56 2023 GMT
            Not After : Jul 29 14:26:56 2026 GMT
        Subject: CN=team230-server
        Subject Public Key Info:
            Public Key Algorithm: rsaEncryption
                RSA Public-Key: (2048 bit)
                Modulus:
                    00:bc:4e:3a:c4:3a:ff:c8:c4:a7:b1:f4:be:48:1e:
                    ec:bb:33:a2:8f:86:3c:50:ba:64:bc:f6:d4:55:be:
                    d4:0d:ff:c2:2d:e3:b5:b8:45:07:b0:cc:ff:a8:6c:
                    4d:c5:9f:8e:56:88:d4:a8:32:a7:cc:ea:a9:b8:13:
                    50:cf:ee:a0:94:1f:92:a3:7d:46:21:4d:0f:8f:ca:
                    e2:0e:2d:e1:7b:a5:2e:df:11:85:ee:2c:99:d9:82:
                    ad:57:f6:65:af:b2:12:1e:fc:97:e3:34:da:d6:8f:
                    4f:7f:74:48:3c:6c:4d:fb:d2:b9:c6:08:df:e0:5d:
                    54:44:d4:f0:be:9d:21:87:be:c6:4d:04:76:6a:95:
                    64:28:ca:c6:7f:51:36:49:36:92:70:c5:da:a8:52:
                    87:44:33:29:99:77:72:fb:f1:35:3e:05:b5:62:e4:
                    6f:8b:ab:da:f8:20:24:7e:51:23:c2:ff:b5:b6:d1:
                    c8:68:a4:49:79:b4:e0:40:4e:40:7e:96:f9:71:24:
                    b3:a3:be:85:aa:6d:39:fa:52:73:bf:91:89:6d:7a:
                    67:60:d9:6d:80:fb:34:7c:0d:f7:27:f8:6e:8d:77:
                    2f:29:c6:6b:1d:51:c8:10:25:e7:c8:6e:dd:9c:4b:
                    1e:3a:7a:4b:7d:94:92:95:79:59:64:fa:40:3b:19:
                    c3:3f
                Exponent: 65537 (0x10001)
        X509v3 extensions:
            X509v3 Basic Constraints: 
                CA:FALSE
            X509v3 Subject Key Identifier: 
                26:E1:06:12:B3:6C:43:D5:DD:84:49:8D:CC:8E:B9:1C:D3:8E:C6:7B
            X509v3 Authority Key Identifier: 
                keyid:FF:8D:04:E7:45:F2:A4:94:23:D3:56:68:9B:C2:1C:C4:AE:E8:84:17
                DirName:/CN=team230-net
                serial:77:FB:08:01:C2:23:45:EA:CB:C3:57:0E:06:03:90:2F:78:64:7E:11

            X509v3 Extended Key Usage: 
                TLS Web Server Authentication
            X509v3 Key Usage: 
                Digital Signature, Key Encipherment
            X509v3 Subject Alternative Name: 
                DNS:team230-server
    Signature Algorithm: sha256WithRSAEncryption
         45:a5:05:56:6f:d9:63:20:c0:9a:aa:40:a5:6e:1e:3b:6c:29:
         56:43:8b:5c:93:46:0e:02:c6:42:1f:a1:c3:cd:59:72:8c:b3:
         f7:83:8c:be:92:4e:74:00:32:20:57:eb:d5:13:65:e9:4e:4d:
         6e:f5:69:47:89:fd:32:49:68:2b:bc:fa:43:d8:04:53:29:5c:
         b4:95:11:2c:4f:9e:99:f0:92:92:65:12:a4:36:f8:83:d7:16:
         7a:2a:53:fa:35:18:5e:e7:39:9f:d2:00:9c:5e:2c:aa:9a:35:
         61:8f:b4:8d:f5:cf:4f:7e:dc:5a:f9:4e:87:51:f9:36:34:35:
         df:05:8d:4e:ba:5a:6f:48:dd:91:35:ef:db:d7:4e:df:5b:5e:
         8e:71:a4:61:e6:c8:2d:e3:d5:5c:9e:67:3f:d0:1b:fb:83:b5:
         e0:7d:2d:d2:f0:94:c9:c2:52:e8:af:92:30:bb:2e:f0:57:3b:
         02:40:9e:fb:10:b6:95:a3:15:7e:85:99:1e:b7:9f:ea:dc:92:
         e4:25:7a:d3:51:7f:6a:1d:37:5e:af:93:db:76:c2:a3:6b:71:
         6e:33:9d:9d:69:4e:b1:4f:11:65:d3:8b:e8:ff:7a:a1:38:53:
         bd:e6:b2:be:d8:4e:b7:d0:bd:69:b3:ae:12:6a:db:34:26:f2:
         fb:48:19:6d
-----BEGIN CERTIFICATE-----
MIIDdzCCAl+gAwIBAgIQbjrFJBPrQSnjnJ7tmc473jANBgkqhkiG9w0BAQsFADAW
MRQwEgYDVQQDDAt0ZWFtMjMwLW5ldDAeFw0yMzA4MTQxNDI2NTZaFw0yNjA3Mjkx
NDI2NTZaMBkxFzAVBgNVBAMMDnRlYW0yMzAtc2VydmVyMIIBIjANBgkqhkiG9w0B
AQEFAAOCAQ8AMIIBCgKCAQEAvE46xDr/yMSnsfS+SB7suzOij4Y8ULpkvPbUVb7U
Df/CLeO1uEUHsMz/qGxNxZ+OVojUqDKnzOqpuBNQz+6glB+So31GIU0Pj8riDi3h
e6Uu3xGF7iyZ2YKtV/Zlr7ISHvyX4zTa1o9Pf3RIPGxN+9K5xgjf4F1URNTwvp0h
h77GTQR2apVkKMrGf1E2STaScMXaqFKHRDMpmXdy+/E1PgW1YuRvi6va+CAkflEj
wv+1ttHIaKRJebTgQE5Afpb5cSSzo76Fqm05+lJzv5GJbXpnYNltgPs0fA33J/hu
jXcvKcZrHVHIECXnyG7dnEseOnpLfZSSlXlZZPpAOxnDPwIDAQABo4G9MIG6MAkG
A1UdEwQCMAAwHQYDVR0OBBYEFCbhBhKzbEPV3YRJjcyOuRzTjsZ7MFEGA1UdIwRK
MEiAFP+NBOdF8qSUI9NWaJvCHMSu6IQXoRqkGDAWMRQwEgYDVQQDDAt0ZWFtMjMw
LW5ldIIUd/sIAcIjRerLw1cOBgOQL3hkfhEwEwYDVR0lBAwwCgYIKwYBBQUHAwEw
CwYDVR0PBAQDAgWgMBkGA1UdEQQSMBCCDnRlYW0yMzAtc2VydmVyMA0GCSqGSIb3
DQEBCwUAA4IBAQBFpQVWb9ljIMCaqkClbh47bClWQ4tck0YOAsZCH6HDzVlyjLP3
g4y+kk50ADIgV+vVE2XpTk1u9WlHif0ySWgrvPpD2ARTKVy0lREsT56Z8JKSZRKk
NviD1xZ6KlP6NRhe5zmf0gCcXiyqmjVhj7SN9c9Pftxa+U6HUfk2NDXfBY1Oulpv
SN2RNe/b107fW16OcaRh5sgt49Vcnmc/0Bv7g7XgfS3S8JTJwlLor5Iwuy7wVzsC
QJ77ELaVoxV+hZket5/q3JLkJXrTUX9qHTder5PbdsKja3FuM52daU6xTxFl04vo
/3qhOFO95rK+2E630L1ps64Sats0JvL7SBlt
-----END CERTIFICATE-----
