Certificate:
    Data:
        Version: 3 (0x2)
        Serial Number:
            73:07:a1:3a:68:c7:1a:41:99:fe:99:90:86:fa:0a:69
        Signature Algorithm: sha256WithRSAEncryption
        Issuer: CN=team230-net
        Validity
            Not Before: Aug 14 14:26:56 2023 GMT
            Not After : Jul 29 14:26:56 2026 GMT
        Subject: CN=team230-client
        Subject Public Key Info:
            Public Key Algorithm: rsaEncryption
                RSA Public-Key: (2048 bit)
                Modulus:
                    00:a2:ef:e3:ef:16:9b:a3:92:4f:b3:fa:1f:e6:5f:
                    00:74:cf:ac:34:37:28:47:38:80:79:86:38:64:d6:
                    18:4b:d4:d4:96:3c:c1:4c:a1:90:e8:22:96:89:39:
                    7a:61:60:a8:3f:1e:bd:9e:d2:bd:8c:f9:15:d8:d3:
                    6b:a6:0e:31:e7:1d:a0:6c:bd:f8:11:44:ab:7c:95:
                    38:c4:d9:b6:81:42:c2:ef:88:33:35:89:e1:4e:5b:
                    59:95:c1:00:c0:7c:87:20:c1:08:b5:2a:cc:e7:a3:
                    bb:c4:2b:c7:83:f4:e0:be:f4:64:c7:5e:11:35:7c:
                    87:a1:bb:e0:ff:5c:32:fb:73:66:ff:ef:8f:ea:ec:
                    de:be:74:61:68:c3:fe:6a:50:18:b9:c8:09:15:4c:
                    40:d9:75:c4:ee:80:db:b7:a7:14:40:50:8b:d7:85:
                    e2:66:ee:87:e3:3b:25:01:c2:71:ed:b6:04:13:f5:
                    b0:bb:41:dc:c0:03:6c:bf:67:15:d0:35:05:2e:76:
                    c7:57:eb:87:65:d0:32:5a:4a:b0:9f:ec:3d:01:aa:
                    66:71:3c:aa:4b:44:16:4d:86:39:4f:b2:6a:3d:40:
                    bb:d2:4a:af:e6:86:d3:93:77:f0:1a:c3:98:dc:3e:
                    24:d6:2f:04:c9:2d:b7:b1:8a:6d:ac:6f:98:df:92:
                    a1:db
                Exponent: 65537 (0x10001)
        X509v3 extensions:
            X509v3 Basic Constraints: 
                CA:FALSE
            X509v3 Subject Key Identifier: 
                68:8B:C7:B8:47:71:FA:97:7D:A9:E3:D9:5F:55:6D:96:41:0E:4D:44
            X509v3 Authority Key Identifier: 
                keyid:FF:8D:04:E7:45:F2:A4:94:23:D3:56:68:9B:C2:1C:C4:AE:E8:84:17
                DirName:/CN=team230-net
                serial:77:FB:08:01:C2:23:45:EA:CB:C3:57:0E:06:03:90:2F:78:64:7E:11

            X509v3 Extended Key Usage: 
                TLS Web Client Authentication
            X509v3 Key Usage: 
                Digital Signature
    Signature Algorithm: sha256WithRSAEncryption
         91:50:94:28:b4:22:5a:2b:b7:e5:6a:24:38:28:01:dc:ce:b1:
         41:ed:2f:ec:4b:bd:d3:10:47:91:57:09:bc:e6:73:b7:df:2a:
         c7:51:05:65:e8:9d:77:57:29:8f:83:27:91:be:5f:a4:ad:7b:
         48:bf:36:b2:98:27:92:65:8a:dc:08:c7:7f:2e:d4:16:80:42:
         30:7b:c8:e7:c1:cd:ab:f3:63:9b:87:0d:0f:a7:08:cb:1d:ff:
         15:51:cb:3f:47:ed:e0:d2:d6:3a:01:3e:bc:02:f7:3d:92:03:
         49:3b:a2:9d:d7:2d:9a:c0:31:01:20:b5:f8:62:5d:94:bf:89:
         f4:81:76:3f:0e:36:81:00:b1:7c:d8:bf:f5:97:de:24:a5:2d:
         5c:cc:0a:c8:04:0f:34:c7:1b:3c:28:ff:b1:9d:68:db:10:47:
         f8:7a:15:da:a4:a8:a7:6c:f0:ce:b4:b0:bd:fc:19:46:ec:dd:
         10:57:dc:21:9c:b4:b2:7a:9c:9a:cd:d8:47:24:95:2c:0a:cc:
         5f:04:f0:d8:c8:4c:cb:94:74:91:0e:f3:10:61:33:62:3f:4f:
         61:d5:fb:64:d4:fd:12:dd:36:cd:33:f4:9e:6b:84:65:65:21:
         90:fc:af:48:93:cb:a4:c6:88:d2:4e:c3:46:95:b2:72:b9:3f:
         61:45:26:fb
-----BEGIN CERTIFICATE-----
MIIDXDCCAkSgAwIBAgIQcwehOmjHGkGZ/pmQhvoKaTANBgkqhkiG9w0BAQsFADAW
MRQwEgYDVQQDDAt0ZWFtMjMwLW5ldDAeFw0yMzA4MTQxNDI2NTZaFw0yNjA3Mjkx
NDI2NTZaMBkxFzAVBgNVBAMMDnRlYW0yMzAtY2xpZW50MIIBIjANBgkqhkiG9w0B
AQEFAAOCAQ8AMIIBCgKCAQEAou/j7xabo5JPs/of5l8AdM+sNDcoRziAeYY4ZNYY
S9TUljzBTKGQ6CKWiTl6YWCoPx69ntK9jPkV2NNrpg4x5x2gbL34EUSrfJU4xNm2
gULC74gzNYnhTltZlcEAwHyHIMEItSrM56O7xCvHg/TgvvRkx14RNXyHobvg/1wy
+3Nm/++P6uzevnRhaMP+alAYucgJFUxA2XXE7oDbt6cUQFCL14XiZu6H4zslAcJx
7bYEE/Wwu0HcwANsv2cV0DUFLnbHV+uHZdAyWkqwn+w9AapmcTyqS0QWTYY5T7Jq
PUC70kqv5obTk3fwGsOY3D4k1i8EyS23sYptrG+Y35Kh2wIDAQABo4GiMIGfMAkG
A1UdEwQCMAAwHQYDVR0OBBYEFGiLx7hHcfqXfanj2V9VbZZBDk1EMFEGA1UdIwRK
MEiAFP+NBOdF8qSUI9NWaJvCHMSu6IQXoRqkGDAWMRQwEgYDVQQDDAt0ZWFtMjMw
LW5ldIIUd/sIAcIjRerLw1cOBgOQL3hkfhEwEwYDVR0lBAwwCgYIKwYBBQUHAwIw
CwYDVR0PBAQDAgeAMA0GCSqGSIb3DQEBCwUAA4IBAQCRUJQotCJaK7flaiQ4KAHc
zrFB7S/sS73TEEeRVwm85nO33yrHUQVl6J13VymPgyeRvl+krXtIvzaymCeSZYrc
CMd/LtQWgEIwe8jnwc2r82Obhw0PpwjLHf8VUcs/R+3g0tY6AT68Avc9kgNJO6Kd
1y2awDEBILX4Yl2Uv4n0gXY/DjaBALF82L/1l94kpS1czArIBA80xxs8KP+xnWjb
EEf4ehXapKinbPDOtLC9/BlG7N0QV9whnLSyepyazdhHJJUsCsxfBPDYyEzLlHSR
DvMQYTNiP09h1ftk1P0S3TbNM/Sea4RlZSGQ/K9Ik8ukxojSTsNGlbJyuT9hRSb7
-----END CERTIFICATE-----
