Certificate:
    Data:
        Version: 3 (0x2)
        Serial Number:
            d3:7d:64:3e:4c:d6:55:d2:0e:de:d6:38:7c:ce:0e:3c
        Signature Algorithm: sha256WithRSAEncryption
        Issuer: CN=team45-net
        Validity
            Not Before: Aug 14 14:23:06 2023 GMT
            Not After : Jul 29 14:23:06 2026 GMT
        Subject: CN=team45-client
        Subject Public Key Info:
            Public Key Algorithm: rsaEncryption
                RSA Public-Key: (2048 bit)
                Modulus:
                    00:b9:08:45:d3:6d:52:f9:ea:4b:68:ad:0d:51:58:
                    d2:d2:e4:6c:ad:11:4b:f6:54:ac:27:e9:70:cb:67:
                    f8:2b:3e:c8:a3:57:34:39:a0:0b:a3:2b:c7:89:61:
                    dc:67:fe:5b:29:32:3f:68:8b:3b:0e:2c:93:66:48:
                    ef:72:ce:71:27:1e:71:44:d0:c2:4f:2d:30:14:77:
                    0d:9e:62:71:5f:79:2f:fd:7d:02:5b:e9:95:b6:07:
                    cf:54:25:72:88:c2:18:8d:da:98:59:6c:14:df:7b:
                    9c:4b:bc:2e:32:ef:a6:fa:0c:de:e2:f9:e8:2b:eb:
                    8a:94:f3:8c:be:60:a5:9c:61:5f:d1:b1:81:5e:ae:
                    1f:27:fa:e8:54:a6:b5:bc:2d:53:eb:f6:5d:53:26:
                    7f:74:3c:c6:e7:85:bd:e4:aa:c1:49:10:f9:a0:1f:
                    1a:ac:94:a9:73:64:70:6a:39:e5:0f:31:1c:f3:fb:
                    d5:a0:96:f1:2f:a5:4a:3d:e4:1f:e5:08:2f:06:b9:
                    62:1b:7e:6b:1d:6e:6e:d6:0a:e7:97:1b:f8:55:f6:
                    d9:5e:2c:7d:e2:3d:de:5a:24:d1:5c:fc:16:02:8f:
                    58:dc:39:6c:3c:e1:e6:68:89:45:b4:79:80:14:d5:
                    4a:f7:a5:12:d4:b2:f9:33:5f:ec:dd:ee:52:14:83:
                    44:fd
                Exponent: 65537 (0x10001)
        X509v3 extensions:
            X509v3 Basic Constraints: 
                CA:FALSE
            X509v3 Subject Key Identifier: 
                F7:5B:DE:83:4E:54:B0:4B:51:7E:0B:C9:F9:2F:83:3C:9F:E3:6C:F0
            X509v3 Authority Key Identifier: 
                keyid:01:50:A5:45:0F:E8:17:CF:7F:A7:5F:D4:D7:CF:95:E7:AC:AE:EF:C0
                DirName:/CN=team45-net
                serial:2E:52:D0:0F:C9:64:04:32:54:B3:2A:98:6F:07:BD:AD:E7:BC:94:18

            X509v3 Extended Key Usage: 
                TLS Web Client Authentication
            X509v3 Key Usage: 
                Digital Signature
    Signature Algorithm: sha256WithRSAEncryption
         51:a3:32:ae:e7:8b:bc:f0:78:7b:0b:57:dd:15:12:a2:be:dc:
         9b:14:fb:0e:0b:20:76:94:e0:57:0c:d5:60:fd:e2:30:0b:99:
         69:f0:c2:67:b4:ce:6a:a0:a2:fa:7b:3d:7a:8a:d5:0f:74:fc:
         f0:2b:f2:60:77:df:d7:5d:e2:c7:aa:47:46:9a:44:3f:a8:ae:
         6b:31:c6:f8:7c:c2:9e:78:18:e6:0f:46:33:fb:a1:5f:bc:88:
         11:3c:59:c6:bb:ba:c5:52:8f:cb:2b:85:4e:7b:b2:d5:28:03:
         28:02:46:b8:6e:2d:7f:f6:ff:f2:19:be:e1:fe:14:9c:25:6f:
         6e:65:bc:f5:e4:12:eb:c5:17:a6:80:a0:f8:26:13:b2:2e:42:
         43:fb:18:e1:c2:b4:05:24:c4:da:2b:05:76:eb:b8:a6:73:a0:
         9a:ca:f9:50:e3:91:71:ee:c7:37:b3:8c:e3:cc:d6:88:41:d3:
         af:e3:61:e3:aa:48:b3:0f:ce:c3:06:f0:e7:c1:7d:8c:10:01:
         71:f5:e4:72:b2:4a:f4:ac:6d:98:16:ba:8e:6f:8b:e0:26:6f:
         14:81:2c:de:ae:ae:ad:73:d0:03:a5:e9:6b:9b:c5:1c:52:7f:
         62:fa:dd:6b:fb:0b:55:e3:6f:e1:71:10:99:86:de:5c:38:16:
         71:f5:6b:d2
-----BEGIN CERTIFICATE-----
MIIDWjCCAkKgAwIBAgIRANN9ZD5M1lXSDt7WOHzODjwwDQYJKoZIhvcNAQELBQAw
FTETMBEGA1UEAwwKdGVhbTQ1LW5ldDAeFw0yMzA4MTQxNDIzMDZaFw0yNjA3Mjkx
NDIzMDZaMBgxFjAUBgNVBAMMDXRlYW00NS1jbGllbnQwggEiMA0GCSqGSIb3DQEB
AQUAA4IBDwAwggEKAoIBAQC5CEXTbVL56ktorQ1RWNLS5GytEUv2VKwn6XDLZ/gr
PsijVzQ5oAujK8eJYdxn/lspMj9oizsOLJNmSO9yznEnHnFE0MJPLTAUdw2eYnFf
eS/9fQJb6ZW2B89UJXKIwhiN2phZbBTfe5xLvC4y76b6DN7i+egr64qU84y+YKWc
YV/RsYFerh8n+uhUprW8LVPr9l1TJn90PMbnhb3kqsFJEPmgHxqslKlzZHBqOeUP
MRzz+9WglvEvpUo95B/lCC8GuWIbfmsdbm7WCueXG/hV9tleLH3iPd5aJNFc/BYC
j1jcOWw84eZoiUW0eYAU1Ur3pRLUsvkzX+zd7lIUg0T9AgMBAAGjgaEwgZ4wCQYD
VR0TBAIwADAdBgNVHQ4EFgQU91veg05UsEtRfgvJ+S+DPJ/jbPAwUAYDVR0jBEkw
R4AUAVClRQ/oF89/p1/U18+V56yu78ChGaQXMBUxEzARBgNVBAMMCnRlYW00NS1u
ZXSCFC5S0A/JZAQyVLMqmG8Hva3nvJQYMBMGA1UdJQQMMAoGCCsGAQUFBwMCMAsG
A1UdDwQEAwIHgDANBgkqhkiG9w0BAQsFAAOCAQEAUaMyrueLvPB4ewtX3RUSor7c
mxT7DgsgdpTgVwzVYP3iMAuZafDCZ7TOaqCi+ns9eorVD3T88CvyYHff113ix6pH
RppEP6iuazHG+HzCnngY5g9GM/uhX7yIETxZxru6xVKPyyuFTnuy1SgDKAJGuG4t
f/b/8hm+4f4UnCVvbmW89eQS68UXpoCg+CYTsi5CQ/sY4cK0BSTE2isFduu4pnOg
msr5UOORce7HN7OM48zWiEHTr+Nh46pIsw/Owwbw58F9jBABcfXkcrJK9KxtmBa6
jm+L4CZvFIEs3q6urXPQA6Xpa5vFHFJ/Yvrda/sLVeNv4XEQmYbeXDgWcfVr0g==
-----END CERTIFICATE-----
