Certificate:
    Data:
        Version: 3 (0x2)
        Serial Number:
            db:e2:48:00:e5:ed:e2:05:95:4c:1b:40:f4:fb:22:7c
        Signature Algorithm: sha256WithRSAEncryption
        Issuer: CN=team65-net
        Validity
            Not Before: Aug 14 14:23:32 2023 GMT
            Not After : Jul 29 14:23:32 2026 GMT
        Subject: CN=team65-server
        Subject Public Key Info:
            Public Key Algorithm: rsaEncryption
                RSA Public-Key: (2048 bit)
                Modulus:
                    00:b6:58:a8:7e:db:ee:13:23:f3:b8:b6:3b:35:d5:
                    03:b2:c8:7d:da:7c:ec:8b:35:68:17:3c:5a:73:61:
                    2c:7e:3b:f0:19:94:da:47:20:c1:a3:6d:c4:88:18:
                    7e:61:92:54:c3:4b:4a:ec:be:0b:bd:06:e8:1e:b6:
                    59:08:6d:ad:c1:55:2d:d6:1a:c1:96:95:e7:42:af:
                    18:58:9b:1e:ad:fd:10:0d:fd:16:94:ad:2c:19:81:
                    0f:6b:ac:8d:dd:c7:42:a6:cc:da:c7:bf:a1:3c:a6:
                    9d:36:39:a4:18:1c:1f:d3:d1:a4:2e:72:86:e2:42:
                    df:12:ae:90:73:e3:af:b4:20:02:e5:e7:9a:51:20:
                    5f:ae:83:d5:95:9c:3d:52:8d:12:95:29:8e:f0:ca:
                    19:45:39:52:07:0e:57:7d:e1:f6:90:80:f5:b9:ec:
                    e9:f2:b9:93:fb:17:f1:da:c5:df:e7:1c:ce:76:b5:
                    3e:c4:67:b0:e3:0d:d6:5a:5c:88:45:3a:8e:b1:5f:
                    68:dd:b2:20:76:53:fe:ff:63:f7:31:e7:cf:87:2b:
                    bf:6c:b7:a0:7c:78:15:c2:5d:49:6b:5f:d4:96:9a:
                    7d:5b:33:7a:4e:1c:4d:fd:cd:8f:39:ec:2b:db:64:
                    a0:1a:3c:c5:54:d9:c8:2c:42:71:f0:15:8f:db:92:
                    9c:a9
                Exponent: 65537 (0x10001)
        X509v3 extensions:
            X509v3 Basic Constraints: 
                CA:FALSE
            X509v3 Subject Key Identifier: 
                B6:E1:9D:F2:38:E6:38:21:90:79:A9:90:EF:40:EE:95:0B:DC:6D:5B
            X509v3 Authority Key Identifier: 
                keyid:35:A0:DE:DE:A6:8F:50:31:3A:B2:18:B8:87:7C:F2:EA:DE:59:1A:76
                DirName:/CN=team65-net
                serial:09:B4:BD:E2:F5:64:42:5F:EF:AD:14:81:6E:2C:1A:EE:54:D9:83:B2

            X509v3 Extended Key Usage: 
                TLS Web Server Authentication
            X509v3 Key Usage: 
                Digital Signature, Key Encipherment
            X509v3 Subject Alternative Name: 
                DNS:team65-server
    Signature Algorithm: sha256WithRSAEncryption
         19:f0:13:dc:51:1e:7f:a7:43:c7:9d:4a:7d:01:c0:27:81:58:
         b3:aa:73:2c:0f:0f:cf:43:ef:f2:96:73:d4:10:ff:6e:e6:f3:
         83:d3:a1:47:71:04:cd:7b:b1:89:9a:9e:58:02:96:06:4b:3f:
         de:63:b0:a0:d4:5b:24:31:6e:5d:ff:1e:90:f5:f4:af:ea:48:
         76:a3:67:dc:d5:2a:58:d4:92:48:23:d0:4e:f3:56:12:52:49:
         43:10:d2:f9:7a:04:21:bc:68:5c:50:f5:07:70:80:08:e1:12:
         6d:f8:93:79:84:eb:a2:bc:06:ed:ad:31:d6:6e:74:50:53:7e:
         f5:4b:e9:5e:d9:ff:7f:c0:81:ae:99:bc:fc:ef:10:cc:1e:76:
         c4:d3:3b:82:c4:c5:fb:32:cf:f2:43:3b:b7:65:40:3e:7e:60:
         50:e1:48:0d:88:e3:77:6f:a4:ce:2f:e6:d1:e8:73:2f:bf:c9:
         b1:34:9d:d9:8c:f3:7f:1a:db:55:98:3a:51:cb:78:93:ab:25:
         a9:fb:fe:c7:4b:27:1c:bf:c9:1d:c4:e1:ce:13:ed:c8:32:f5:
         4a:95:dc:e4:6d:ca:5d:cd:38:2f:bb:fa:98:79:7d:8f:fb:cf:
         d3:e5:9e:10:f0:8c:49:32:8d:ed:7b:eb:7e:0c:1f:26:c3:00:
         34:d9:19:3e
-----BEGIN CERTIFICATE-----
MIIDdDCCAlygAwIBAgIRANviSADl7eIFlUwbQPT7InwwDQYJKoZIhvcNAQELBQAw
FTETMBEGA1UEAwwKdGVhbTY1LW5ldDAeFw0yMzA4MTQxNDIzMzJaFw0yNjA3Mjkx
NDIzMzJaMBgxFjAUBgNVBAMMDXRlYW02NS1zZXJ2ZXIwggEiMA0GCSqGSIb3DQEB
AQUAA4IBDwAwggEKAoIBAQC2WKh+2+4TI/O4tjs11QOyyH3afOyLNWgXPFpzYSx+
O/AZlNpHIMGjbcSIGH5hklTDS0rsvgu9BugetlkIba3BVS3WGsGWledCrxhYmx6t
/RAN/RaUrSwZgQ9rrI3dx0KmzNrHv6E8pp02OaQYHB/T0aQucobiQt8SrpBz46+0
IALl55pRIF+ug9WVnD1SjRKVKY7wyhlFOVIHDld94faQgPW57OnyuZP7F/Haxd/n
HM52tT7EZ7DjDdZaXIhFOo6xX2jdsiB2U/7/Y/cx58+HK79st6B8eBXCXUlrX9SW
mn1bM3pOHE39zY857CvbZKAaPMVU2cgsQnHwFY/bkpypAgMBAAGjgbswgbgwCQYD
VR0TBAIwADAdBgNVHQ4EFgQUtuGd8jjmOCGQeamQ70DulQvcbVswUAYDVR0jBEkw
R4AUNaDe3qaPUDE6shi4h3zy6t5ZGnahGaQXMBUxEzARBgNVBAMMCnRlYW02NS1u
ZXSCFAm0veL1ZEJf760UgW4sGu5U2YOyMBMGA1UdJQQMMAoGCCsGAQUFBwMBMAsG
A1UdDwQEAwIFoDAYBgNVHREEETAPgg10ZWFtNjUtc2VydmVyMA0GCSqGSIb3DQEB
CwUAA4IBAQAZ8BPcUR5/p0PHnUp9AcAngVizqnMsDw/PQ+/ylnPUEP9u5vOD06FH
cQTNe7GJmp5YApYGSz/eY7Cg1FskMW5d/x6Q9fSv6kh2o2fc1SpY1JJII9BO81YS
UklDENL5egQhvGhcUPUHcIAI4RJt+JN5hOuivAbtrTHWbnRQU371S+le2f9/wIGu
mbz87xDMHnbE0zuCxMX7Ms/yQzu3ZUA+fmBQ4UgNiON3b6TOL+bR6HMvv8mxNJ3Z
jPN/GttVmDpRy3iTqyWp+/7HSyccv8kdxOHOE+3IMvVKldzkbcpdzTgvu/qYeX2P
+8/T5Z4Q8IxJMo3te+t+DB8mwwA02Rk+
-----END CERTIFICATE-----
