Certificate:
    Data:
        Version: 3 (0x2)
        Serial Number:
            2e:25:7f:c7:f7:35:eb:f4:86:86:0e:6e:0d:69:a8:81
        Signature Algorithm: sha256WithRSAEncryption
        Issuer: CN=team151-net
        Validity
            Not Before: Aug 14 14:25:24 2023 GMT
            Not After : Jul 29 14:25:24 2026 GMT
        Subject: CN=team151-server
        Subject Public Key Info:
            Public Key Algorithm: rsaEncryption
                RSA Public-Key: (2048 bit)
                Modulus:
                    00:b7:ed:35:cf:38:25:26:46:dc:1c:fd:00:82:f7:
                    51:e0:fe:1d:be:83:57:0c:b9:d6:e2:92:b4:09:c3:
                    01:42:77:91:fb:6d:75:60:9a:3e:8b:46:c0:9c:8f:
                    68:43:c2:5d:06:bc:ed:91:9d:47:73:f0:6b:98:75:
                    0d:cf:db:f2:c2:61:d1:c2:e3:dd:7d:0d:ae:0a:65:
                    d8:12:16:c5:e5:47:b3:2c:f7:50:0c:42:55:38:4b:
                    6f:aa:7c:d6:0e:fa:62:2d:62:51:ad:d0:1a:62:df:
                    28:7d:2d:f7:2b:da:ae:84:11:21:c4:83:bf:41:75:
                    38:24:6d:05:ec:22:6b:cb:6c:9c:90:b4:c4:48:bb:
                    33:aa:7c:d9:e8:81:68:69:d5:6a:e9:14:4e:f2:39:
                    a7:80:03:e9:60:09:ce:e7:5f:23:53:4b:d1:10:b8:
                    f9:96:b9:cb:32:e1:37:b6:1c:23:94:c0:19:73:a5:
                    e6:70:36:0b:21:72:df:1d:1f:3e:21:6a:14:10:08:
                    9c:e2:9f:77:cb:35:83:16:05:40:d6:ab:6d:8f:6d:
                    7a:62:dc:c7:e0:7e:68:1b:1f:fd:80:24:b8:49:f0:
                    16:d7:b9:af:62:fb:6d:73:53:db:41:eb:38:69:f7:
                    c5:81:c5:c6:9e:b7:36:a9:14:ba:88:99:73:28:c9:
                    61:39
                Exponent: 65537 (0x10001)
        X509v3 extensions:
            X509v3 Basic Constraints: 
                CA:FALSE
            X509v3 Subject Key Identifier: 
                81:CF:96:38:82:64:78:91:11:81:AB:55:30:4B:CD:19:E1:2D:94:41
            X509v3 Authority Key Identifier: 
                keyid:78:57:7B:4A:D0:F3:52:EC:B0:71:CB:6E:2B:76:7A:DF:7C:E5:13:A4
                DirName:/CN=team151-net
                serial:2A:8F:7A:E8:66:80:B8:0C:6B:24:81:7B:A8:59:DF:EF:53:F4:AB:64

            X509v3 Extended Key Usage: 
                TLS Web Server Authentication
            X509v3 Key Usage: 
                Digital Signature, Key Encipherment
            X509v3 Subject Alternative Name: 
                DNS:team151-server
    Signature Algorithm: sha256WithRSAEncryption
         b3:21:f4:e6:7d:c1:4f:c1:3f:8b:08:2b:7b:84:6d:b8:d9:2d:
         cf:32:0c:d3:c2:12:3c:22:38:9c:77:69:8f:83:66:91:c7:7c:
         95:57:67:99:ad:df:6b:5e:7a:b3:dc:d3:09:8b:99:d7:bc:7c:
         d3:ac:ce:02:4e:0d:e6:37:7c:9e:13:2e:ba:8e:e2:50:84:39:
         fd:7d:3c:17:f9:44:9b:1a:fc:dc:da:24:61:ae:4a:6e:be:1f:
         d3:ef:41:f6:2a:50:87:c1:6f:c6:39:7c:05:53:34:60:10:84:
         10:68:90:a6:d2:42:b0:b5:33:f6:f3:0f:f0:78:a9:c4:9d:c2:
         34:df:ac:39:f1:91:2e:18:da:f1:cc:f7:0d:36:c0:dc:b5:b8:
         17:d5:2d:4a:78:cb:a2:4f:90:f7:33:ad:6d:55:bf:53:ae:b4:
         48:f4:e7:3a:ff:6a:e2:53:bb:8a:bf:1a:fe:bc:ae:60:6f:26:
         fb:57:0e:78:82:b9:49:00:29:1e:8b:b4:ec:3e:3b:61:62:5c:
         90:db:f3:01:d7:b1:6b:21:be:09:2a:69:a7:74:8d:2c:2b:76:
         44:cf:e6:2b:38:b1:62:aa:43:8d:03:d7:ef:eb:f2:76:d4:ac:
         70:c2:57:e9:1c:dc:77:32:29:58:5b:32:e7:ac:e6:75:98:9c:
         56:48:41:95
-----BEGIN CERTIFICATE-----
MIIDdzCCAl+gAwIBAgIQLiV/x/c16/SGhg5uDWmogTANBgkqhkiG9w0BAQsFADAW
MRQwEgYDVQQDDAt0ZWFtMTUxLW5ldDAeFw0yMzA4MTQxNDI1MjRaFw0yNjA3Mjkx
NDI1MjRaMBkxFzAVBgNVBAMMDnRlYW0xNTEtc2VydmVyMIIBIjANBgkqhkiG9w0B
AQEFAAOCAQ8AMIIBCgKCAQEAt+01zzglJkbcHP0AgvdR4P4dvoNXDLnW4pK0CcMB
QneR+211YJo+i0bAnI9oQ8JdBrztkZ1Hc/BrmHUNz9vywmHRwuPdfQ2uCmXYEhbF
5UezLPdQDEJVOEtvqnzWDvpiLWJRrdAaYt8ofS33K9quhBEhxIO/QXU4JG0F7CJr
y2yckLTESLszqnzZ6IFoadVq6RRO8jmngAPpYAnO518jU0vRELj5lrnLMuE3thwj
lMAZc6XmcDYLIXLfHR8+IWoUEAic4p93yzWDFgVA1qttj216YtzH4H5oGx/9gCS4
SfAW17mvYvttc1PbQes4affFgcXGnrc2qRS6iJlzKMlhOQIDAQABo4G9MIG6MAkG
A1UdEwQCMAAwHQYDVR0OBBYEFIHPljiCZHiREYGrVTBLzRnhLZRBMFEGA1UdIwRK
MEiAFHhXe0rQ81LssHHLbit2et985ROkoRqkGDAWMRQwEgYDVQQDDAt0ZWFtMTUx
LW5ldIIUKo966GaAuAxrJIF7qFnf71P0q2QwEwYDVR0lBAwwCgYIKwYBBQUHAwEw
CwYDVR0PBAQDAgWgMBkGA1UdEQQSMBCCDnRlYW0xNTEtc2VydmVyMA0GCSqGSIb3
DQEBCwUAA4IBAQCzIfTmfcFPwT+LCCt7hG242S3PMgzTwhI8Ijicd2mPg2aRx3yV
V2eZrd9rXnqz3NMJi5nXvHzTrM4CTg3mN3yeEy66juJQhDn9fTwX+USbGvzc2iRh
rkpuvh/T70H2KlCHwW/GOXwFUzRgEIQQaJCm0kKwtTP28w/weKnEncI036w58ZEu
GNrxzPcNNsDctbgX1S1KeMuiT5D3M61tVb9TrrRI9Oc6/2riU7uKvxr+vK5gbyb7
Vw54grlJACkei7TsPjthYlyQ2/MB17FrIb4JKmmndI0sK3ZEz+YrOLFiqkONA9fv
6/J21KxwwlfpHNx3MilYWzLnrOZ1mJxWSEGV
-----END CERTIFICATE-----
