Certificate:
    Data:
        Version: 3 (0x2)
        Serial Number:
            19:f9:5f:8e:b4:6a:6f:2c:4f:3b:fd:4b:52:45:99:78
        Signature Algorithm: sha256WithRSAEncryption
        Issuer: CN=team274-net
        Validity
            Not Before: Aug 14 14:27:52 2023 GMT
            Not After : Jul 29 14:27:52 2026 GMT
        Subject: CN=team274-client
        Subject Public Key Info:
            Public Key Algorithm: rsaEncryption
                RSA Public-Key: (2048 bit)
                Modulus:
                    00:fd:68:46:c2:f3:ee:fe:57:3b:8f:27:8f:51:2d:
                    07:84:8e:f8:23:f6:41:a2:cf:0d:70:cf:7f:df:a2:
                    22:56:59:3c:a6:c3:a1:88:19:19:b2:c9:bc:f9:c2:
                    21:8a:3c:51:36:17:fa:05:f4:03:74:bb:2e:43:55:
                    76:fc:75:9e:a9:b7:f3:55:3d:52:c3:0c:b8:72:58:
                    8d:8a:bb:f2:6d:cf:9b:f2:7f:b6:f9:5c:d0:04:e1:
                    4e:4a:c5:d3:0f:85:b9:76:ec:ba:d5:e2:0e:5f:7f:
                    57:1d:15:17:ac:20:0f:9a:2d:3a:9f:61:c0:b1:e7:
                    d6:e9:65:c2:44:fa:27:cd:e6:6e:2f:59:dc:34:dc:
                    2e:12:ca:b2:c2:1f:1a:91:94:d5:d6:76:e1:61:49:
                    94:10:b7:5e:63:1f:0e:d6:84:9c:5f:cf:cb:13:35:
                    20:8c:fe:53:0d:67:c3:95:00:14:5b:94:a7:f9:0d:
                    82:61:c0:01:99:4a:91:74:47:1e:de:e4:af:32:75:
                    da:8b:0b:a6:11:70:b5:a1:64:53:3b:3e:6c:9a:2a:
                    5e:e4:de:9f:98:2a:1f:cf:cc:ef:eb:90:a7:a2:f1:
                    80:6e:a5:06:71:66:bb:81:ce:05:3d:30:ab:8c:75:
                    c6:b2:11:6f:98:8b:5d:2e:56:ab:48:d2:bb:a5:eb:
                    dd:e3
                Exponent: 65537 (0x10001)
        X509v3 extensions:
            X509v3 Basic Constraints: 
                CA:FALSE
            X509v3 Subject Key Identifier: 
                F8:92:18:C6:FA:10:5B:D0:A2:39:EE:08:C3:93:40:2F:43:74:86:9F
            X509v3 Authority Key Identifier: 
                keyid:DD:81:BF:1C:5B:E3:FC:04:5D:10:8E:34:2E:F8:9F:43:70:E6:31:DD
                DirName:/CN=team274-net
                serial:68:20:F9:D4:F6:25:8D:52:68:9F:E5:41:2E:74:8F:26:98:E7:C6:56

            X509v3 Extended Key Usage: 
                TLS Web Client Authentication
            X509v3 Key Usage: 
                Digital Signature
    Signature Algorithm: sha256WithRSAEncryption
         0c:79:3e:0f:6d:2f:ee:2c:88:3d:e4:1b:6c:7d:80:d0:55:1a:
         42:fe:b9:6b:78:9f:88:14:df:e7:f1:ba:5f:33:a1:ce:a0:96:
         3b:28:2a:38:da:5e:45:7e:91:ea:1f:b5:7d:6f:e9:0d:28:b6:
         82:e1:61:34:2d:5e:dd:af:67:e1:1a:9a:2d:14:63:42:09:45:
         ff:ab:9c:f7:5a:a5:69:3c:3a:7d:9e:e8:6d:4d:dd:ad:71:ca:
         65:db:11:8a:c9:0b:27:03:f3:a8:15:3b:14:2e:85:7c:17:c9:
         32:5d:17:d1:77:04:e9:02:3e:5f:3c:f6:9b:f1:4e:34:84:73:
         65:92:aa:3d:e6:24:40:49:51:ad:c6:de:15:22:98:8e:1f:c7:
         c5:f0:54:4e:16:7d:a1:6e:64:72:c5:e4:ff:56:54:d0:14:49:
         d7:ab:5a:2d:00:0e:ca:f2:51:65:78:b7:ca:59:01:99:e4:f0:
         87:1f:4d:af:8c:b8:f2:7f:10:36:e5:d0:ac:ee:40:fd:0f:63:
         52:89:0b:13:53:6f:72:92:98:cd:20:db:21:94:c5:fa:b9:c6:
         1f:18:8e:1b:5b:4e:18:ed:58:d6:23:64:d8:66:e7:79:27:c1:
         c9:f1:06:b9:e5:c6:83:81:47:b7:8c:06:37:5e:f0:7f:d8:c6:
         6f:b1:ec:aa
-----BEGIN CERTIFICATE-----
MIIDXDCCAkSgAwIBAgIQGflfjrRqbyxPO/1LUkWZeDANBgkqhkiG9w0BAQsFADAW
MRQwEgYDVQQDDAt0ZWFtMjc0LW5ldDAeFw0yMzA4MTQxNDI3NTJaFw0yNjA3Mjkx
NDI3NTJaMBkxFzAVBgNVBAMMDnRlYW0yNzQtY2xpZW50MIIBIjANBgkqhkiG9w0B
AQEFAAOCAQ8AMIIBCgKCAQEA/WhGwvPu/lc7jyePUS0HhI74I/ZBos8NcM9/36Ii
Vlk8psOhiBkZssm8+cIhijxRNhf6BfQDdLsuQ1V2/HWeqbfzVT1Swwy4cliNirvy
bc+b8n+2+VzQBOFOSsXTD4W5duy61eIOX39XHRUXrCAPmi06n2HAsefW6WXCRPon
zeZuL1ncNNwuEsqywh8akZTV1nbhYUmUELdeYx8O1oScX8/LEzUgjP5TDWfDlQAU
W5Sn+Q2CYcABmUqRdEce3uSvMnXaiwumEXC1oWRTOz5smipe5N6fmCofz8zv65Cn
ovGAbqUGcWa7gc4FPTCrjHXGshFvmItdLlarSNK7pevd4wIDAQABo4GiMIGfMAkG
A1UdEwQCMAAwHQYDVR0OBBYEFPiSGMb6EFvQojnuCMOTQC9DdIafMFEGA1UdIwRK
MEiAFN2Bvxxb4/wEXRCONC74n0Nw5jHdoRqkGDAWMRQwEgYDVQQDDAt0ZWFtMjc0
LW5ldIIUaCD51PYljVJon+VBLnSPJpjnxlYwEwYDVR0lBAwwCgYIKwYBBQUHAwIw
CwYDVR0PBAQDAgeAMA0GCSqGSIb3DQEBCwUAA4IBAQAMeT4PbS/uLIg95BtsfYDQ
VRpC/rlreJ+IFN/n8bpfM6HOoJY7KCo42l5FfpHqH7V9b+kNKLaC4WE0LV7dr2fh
GpotFGNCCUX/q5z3WqVpPDp9nuhtTd2tccpl2xGKyQsnA/OoFTsULoV8F8kyXRfR
dwTpAj5fPPab8U40hHNlkqo95iRASVGtxt4VIpiOH8fF8FROFn2hbmRyxeT/VlTQ
FEnXq1otAA7K8lFleLfKWQGZ5PCHH02vjLjyfxA25dCs7kD9D2NSiQsTU29ykpjN
INshlMX6ucYfGI4bW04Y7VjWI2TYZud5J8HJ8Qa55caDgUe3jAY3XvB/2MZvseyq
-----END CERTIFICATE-----
