Certificate:
    Data:
        Version: 3 (0x2)
        Serial Number:
            46:ff:6a:14:2f:2f:c4:ec:a9:e7:64:61:7a:aa:74:79
        Signature Algorithm: sha256WithRSAEncryption
        Issuer: CN=team274-net
        Validity
            Not Before: Aug 14 14:27:53 2023 GMT
            Not After : Jul 29 14:27:53 2026 GMT
        Subject: CN=team274-server
        Subject Public Key Info:
            Public Key Algorithm: rsaEncryption
                RSA Public-Key: (2048 bit)
                Modulus:
                    00:ad:d8:f5:1f:cd:df:c2:8e:b0:53:0c:99:74:d4:
                    62:88:73:a8:aa:6a:a9:a9:fe:f0:b6:6e:64:33:2c:
                    05:93:af:7e:e3:ff:ac:2c:98:83:24:33:61:ed:0c:
                    ec:73:ba:84:dd:78:9a:d5:24:b5:87:1d:35:63:f8:
                    ae:4f:34:88:be:31:75:55:2b:e7:1b:1e:5b:5f:94:
                    ce:41:bb:97:d8:c6:f6:ed:ef:32:53:89:f6:f8:ec:
                    7b:23:b2:3b:2f:bf:00:51:81:09:47:0f:fd:f3:48:
                    30:b7:23:6c:23:13:dc:33:5b:1a:9a:dc:4b:d9:b8:
                    47:10:e5:fa:4d:ec:7e:01:3c:fd:31:f6:41:84:8e:
                    2c:63:aa:2b:52:70:1c:13:07:73:e1:80:6f:60:f9:
                    13:10:27:96:fb:28:cd:e2:77:2e:19:d2:9c:a2:d1:
                    51:24:67:3b:ec:25:51:f5:17:6d:88:ef:5b:4c:a9:
                    e8:9c:6b:c8:17:93:ed:4e:dc:83:2b:8d:64:16:54:
                    46:b0:f3:1d:0f:15:fa:7d:99:5a:cd:e7:10:16:d3:
                    c6:73:06:f1:d3:4b:80:16:91:06:1a:46:0c:5c:8f:
                    91:7c:1b:0c:a1:91:e8:a4:41:19:7c:9e:1a:f9:f4:
                    31:cb:b9:ab:f4:26:b6:02:d9:aa:a2:63:4c:bf:88:
                    8e:df
                Exponent: 65537 (0x10001)
        X509v3 extensions:
            X509v3 Basic Constraints: 
                CA:FALSE
            X509v3 Subject Key Identifier: 
                60:95:EC:D4:01:14:EF:6E:62:1D:B7:B7:BB:9B:DD:79:41:32:C8:24
            X509v3 Authority Key Identifier: 
                keyid:DD:81:BF:1C:5B:E3:FC:04:5D:10:8E:34:2E:F8:9F:43:70:E6:31:DD
                DirName:/CN=team274-net
                serial:68:20:F9:D4:F6:25:8D:52:68:9F:E5:41:2E:74:8F:26:98:E7:C6:56

            X509v3 Extended Key Usage: 
                TLS Web Server Authentication
            X509v3 Key Usage: 
                Digital Signature, Key Encipherment
            X509v3 Subject Alternative Name: 
                DNS:team274-server
    Signature Algorithm: sha256WithRSAEncryption
         3f:ed:4b:61:05:d7:be:f6:fa:27:2c:c6:d2:d9:7b:4e:77:a2:
         3e:3d:ad:65:41:d6:04:ce:c3:ef:d0:c0:af:2b:23:5c:4d:86:
         28:8e:fe:15:c5:76:d9:aa:0a:74:38:ce:89:55:26:5a:0f:8b:
         7d:9e:a7:d5:98:ea:2a:81:82:47:c1:9e:91:37:97:dd:5b:e4:
         3f:2f:d4:8b:03:2e:2d:d1:36:c0:a5:2f:be:45:c4:de:28:14:
         cc:07:be:97:f8:6d:3d:8c:ca:65:c6:27:1f:30:c2:ec:9c:36:
         91:b8:08:08:77:ad:7c:84:f9:9a:59:f0:d6:eb:28:46:59:6c:
         4b:26:b7:5d:7b:f8:34:66:dc:5a:64:1b:24:47:dd:9e:67:36:
         b5:ed:55:80:59:c3:b7:d7:f3:83:33:29:29:1c:34:a8:57:1d:
         a8:de:29:4d:87:da:f2:eb:cf:28:68:17:2a:c8:bb:8e:4e:c6:
         21:50:ef:ca:02:5b:e1:a9:fa:19:af:cc:d5:38:0a:a2:78:56:
         2b:ce:53:2d:2a:0c:f0:ad:6b:0b:59:40:a3:af:c3:42:3c:cb:
         59:fd:eb:01:dc:9f:81:ae:fd:72:43:52:d8:44:01:11:ac:e0:
         67:90:9a:58:ef:20:51:06:78:4c:08:f0:24:b5:b4:10:0d:c5:
         eb:26:c9:ca
-----BEGIN CERTIFICATE-----
MIIDdzCCAl+gAwIBAgIQRv9qFC8vxOyp52Rheqp0eTANBgkqhkiG9w0BAQsFADAW
MRQwEgYDVQQDDAt0ZWFtMjc0LW5ldDAeFw0yMzA4MTQxNDI3NTNaFw0yNjA3Mjkx
NDI3NTNaMBkxFzAVBgNVBAMMDnRlYW0yNzQtc2VydmVyMIIBIjANBgkqhkiG9w0B
AQEFAAOCAQ8AMIIBCgKCAQEArdj1H83fwo6wUwyZdNRiiHOoqmqpqf7wtm5kMywF
k69+4/+sLJiDJDNh7Qzsc7qE3Xia1SS1hx01Y/iuTzSIvjF1VSvnGx5bX5TOQbuX
2Mb27e8yU4n2+Ox7I7I7L78AUYEJRw/980gwtyNsIxPcM1samtxL2bhHEOX6Tex+
ATz9MfZBhI4sY6orUnAcEwdz4YBvYPkTECeW+yjN4ncuGdKcotFRJGc77CVR9Rdt
iO9bTKnonGvIF5PtTtyDK41kFlRGsPMdDxX6fZlazecQFtPGcwbx00uAFpEGGkYM
XI+RfBsMoZHopEEZfJ4a+fQxy7mr9Ca2AtmqomNMv4iO3wIDAQABo4G9MIG6MAkG
A1UdEwQCMAAwHQYDVR0OBBYEFGCV7NQBFO9uYh23t7ub3XlBMsgkMFEGA1UdIwRK
MEiAFN2Bvxxb4/wEXRCONC74n0Nw5jHdoRqkGDAWMRQwEgYDVQQDDAt0ZWFtMjc0
LW5ldIIUaCD51PYljVJon+VBLnSPJpjnxlYwEwYDVR0lBAwwCgYIKwYBBQUHAwEw
CwYDVR0PBAQDAgWgMBkGA1UdEQQSMBCCDnRlYW0yNzQtc2VydmVyMA0GCSqGSIb3
DQEBCwUAA4IBAQA/7UthBde+9vonLMbS2XtOd6I+Pa1lQdYEzsPv0MCvKyNcTYYo
jv4VxXbZqgp0OM6JVSZaD4t9nqfVmOoqgYJHwZ6RN5fdW+Q/L9SLAy4t0TbApS++
RcTeKBTMB76X+G09jMplxicfMMLsnDaRuAgId618hPmaWfDW6yhGWWxLJrdde/g0
ZtxaZBskR92eZza17VWAWcO31/ODMykpHDSoVx2o3ilNh9ry688oaBcqyLuOTsYh
UO/KAlvhqfoZr8zVOAqieFYrzlMtKgzwrWsLWUCjr8NCPMtZ/esB3J+Brv1yQ1LY
RAERrOBnkJpY7yBRBnhMCPAktbQQDcXrJsnK
-----END CERTIFICATE-----
