Certificate:
    Data:
        Version: 3 (0x2)
        Serial Number:
            5d:d0:6d:80:cf:de:d3:80:36:49:86:86:1f:cb:bb:f6
        Signature Algorithm: sha256WithRSAEncryption
        Issuer: CN=team42-net
        Validity
            Not Before: Aug 14 14:23:02 2023 GMT
            Not After : Jul 29 14:23:02 2026 GMT
        Subject: CN=team42-server
        Subject Public Key Info:
            Public Key Algorithm: rsaEncryption
                RSA Public-Key: (2048 bit)
                Modulus:
                    00:be:1a:59:b6:ec:79:7d:8d:c2:8f:7c:d1:a0:77:
                    28:d0:c8:28:2d:c7:96:eb:cf:f5:f6:df:cd:4a:58:
                    ed:8e:3a:b3:5f:e6:85:34:eb:a2:1f:d5:f2:e7:06:
                    ba:9f:41:c9:96:73:15:71:2d:7f:84:94:41:34:e2:
                    00:2e:02:fc:13:5f:b2:c5:ea:49:80:ec:bb:9d:c9:
                    e0:c3:09:81:6e:52:87:45:da:5d:11:f0:ac:e7:12:
                    30:9e:97:31:21:43:ca:19:ad:42:dd:77:f3:06:84:
                    d2:92:cc:d9:0c:84:f0:41:08:39:ea:aa:40:74:52:
                    7a:22:fc:6f:c9:7d:97:47:4b:d1:57:31:e0:cc:a3:
                    a7:f9:d7:88:00:7c:3f:3f:59:71:1d:a7:07:e2:de:
                    3f:ca:49:43:85:97:7f:47:27:8e:86:54:50:27:41:
                    a7:32:ec:c0:56:80:83:16:a5:1e:97:c1:b5:35:8c:
                    52:f6:61:50:48:e2:c0:ae:46:0b:91:1c:98:37:fc:
                    9c:99:2a:f2:0b:9e:72:e4:5a:2d:14:92:9a:52:96:
                    bc:bd:ee:63:0f:05:ec:90:0e:e5:52:43:56:1e:fa:
                    b1:b0:d7:45:2c:9b:ee:35:c2:b0:b9:b7:95:ca:02:
                    c4:95:6b:07:62:d3:fa:75:31:03:1c:09:a7:e8:4c:
                    db:3d
                Exponent: 65537 (0x10001)
        X509v3 extensions:
            X509v3 Basic Constraints: 
                CA:FALSE
            X509v3 Subject Key Identifier: 
                4B:FB:2F:15:5D:2C:28:F2:BA:07:33:EE:A1:14:E9:F6:E2:07:D3:25
            X509v3 Authority Key Identifier: 
                keyid:E7:29:12:5B:5C:C9:D7:A3:5E:1A:30:C1:E9:8A:76:D0:1E:13:82:08
                DirName:/CN=team42-net
                serial:4E:8D:3D:02:F4:05:A8:17:C3:C3:45:83:8B:60:AB:09:8F:80:67:D1

            X509v3 Extended Key Usage: 
                TLS Web Server Authentication
            X509v3 Key Usage: 
                Digital Signature, Key Encipherment
            X509v3 Subject Alternative Name: 
                DNS:team42-server
    Signature Algorithm: sha256WithRSAEncryption
         84:71:3d:39:53:e3:ca:0b:e1:30:b5:e2:4c:32:21:50:3d:89:
         32:80:aa:f4:68:a4:1e:e7:c8:b8:89:63:36:62:1b:90:ce:28:
         09:81:24:72:6b:77:91:88:34:43:a9:9c:f8:27:fd:5a:b1:fd:
         cc:00:ee:b8:15:ce:cb:ce:ba:37:66:58:20:12:1d:62:cb:7e:
         72:ae:37:cb:b6:0b:a9:56:07:e5:85:32:60:7d:01:1f:aa:5f:
         66:ee:39:94:8e:4a:3e:4c:05:8f:38:f1:ca:a8:32:20:8b:dd:
         16:65:b2:e4:e4:c0:f0:f1:c1:a3:8c:b5:61:22:f5:1e:bc:3d:
         57:43:0a:e3:45:51:fb:3c:1c:6f:c5:e5:33:bf:54:b1:ba:cc:
         41:7e:7e:6c:a6:95:f0:f4:a5:71:aa:b8:a0:67:96:40:f1:39:
         bc:96:d6:05:7c:c9:4c:c1:f8:31:2a:ea:aa:e3:f5:2f:f9:51:
         bf:07:a1:53:27:a3:60:d1:11:31:45:8f:df:5a:10:36:68:01:
         fa:e4:7f:f8:de:72:2a:20:8d:c1:ea:56:85:e1:09:e2:9d:14:
         ad:61:a2:c0:e1:aa:c9:57:d3:46:e2:9d:6f:54:89:e8:27:a7:
         37:dd:96:61:5c:22:f6:50:89:51:ee:6a:72:2a:9c:01:16:15:
         b1:5e:cc:b0
-----BEGIN CERTIFICATE-----
MIIDczCCAlugAwIBAgIQXdBtgM/e04A2SYaGH8u79jANBgkqhkiG9w0BAQsFADAV
MRMwEQYDVQQDDAp0ZWFtNDItbmV0MB4XDTIzMDgxNDE0MjMwMloXDTI2MDcyOTE0
MjMwMlowGDEWMBQGA1UEAwwNdGVhbTQyLXNlcnZlcjCCASIwDQYJKoZIhvcNAQEB
BQADggEPADCCAQoCggEBAL4aWbbseX2Nwo980aB3KNDIKC3HluvP9fbfzUpY7Y46
s1/mhTTroh/V8ucGup9ByZZzFXEtf4SUQTTiAC4C/BNfssXqSYDsu53J4MMJgW5S
h0XaXRHwrOcSMJ6XMSFDyhmtQt138waE0pLM2QyE8EEIOeqqQHRSeiL8b8l9l0dL
0Vcx4Myjp/nXiAB8Pz9ZcR2nB+LeP8pJQ4WXf0cnjoZUUCdBpzLswFaAgxalHpfB
tTWMUvZhUEjiwK5GC5EcmDf8nJkq8guecuRaLRSSmlKWvL3uYw8F7JAO5VJDVh76
sbDXRSyb7jXCsLm3lcoCxJVrB2LT+nUxAxwJp+hM2z0CAwEAAaOBuzCBuDAJBgNV
HRMEAjAAMB0GA1UdDgQWBBRL+y8VXSwo8roHM+6hFOn24gfTJTBQBgNVHSMESTBH
gBTnKRJbXMnXo14aMMHpinbQHhOCCKEZpBcwFTETMBEGA1UEAwwKdGVhbTQyLW5l
dIIUTo09AvQFqBfDw0WDi2CrCY+AZ9EwEwYDVR0lBAwwCgYIKwYBBQUHAwEwCwYD
VR0PBAQDAgWgMBgGA1UdEQQRMA+CDXRlYW00Mi1zZXJ2ZXIwDQYJKoZIhvcNAQEL
BQADggEBAIRxPTlT48oL4TC14kwyIVA9iTKAqvRopB7nyLiJYzZiG5DOKAmBJHJr
d5GINEOpnPgn/Vqx/cwA7rgVzsvOujdmWCASHWLLfnKuN8u2C6lWB+WFMmB9AR+q
X2buOZSOSj5MBY848cqoMiCL3RZlsuTkwPDxwaOMtWEi9R68PVdDCuNFUfs8HG/F
5TO/VLG6zEF+fmymlfD0pXGquKBnlkDxObyW1gV8yUzB+DEq6qrj9S/5Ub8HoVMn
o2DRETFFj99aEDZoAfrkf/jeciogjcHqVoXhCeKdFK1hosDhqslX00binW9Uiegn
pzfdlmFcIvZQiVHuanIqnAEWFbFezLA=
-----END CERTIFICATE-----
