Certificate:
    Data:
        Version: 3 (0x2)
        Serial Number:
            da:b6:33:79:88:f8:d2:23:4d:5f:be:a6:f7:b7:26:5f
        Signature Algorithm: sha256WithRSAEncryption
        Issuer: CN=team42-net
        Validity
            Not Before: Aug 14 14:23:01 2023 GMT
            Not After : Jul 29 14:23:01 2026 GMT
        Subject: CN=team42-client
        Subject Public Key Info:
            Public Key Algorithm: rsaEncryption
                RSA Public-Key: (2048 bit)
                Modulus:
                    00:b3:dd:8e:2d:0e:bc:9f:ca:92:ec:e0:2a:f8:14:
                    24:9c:dd:7a:04:70:cf:13:1d:61:ed:0b:5b:d4:99:
                    96:38:80:db:09:ad:b1:43:2b:18:8d:ce:86:ac:80:
                    64:3f:e4:94:2a:c2:8b:87:33:40:ca:77:5c:a6:f3:
                    e6:75:8a:11:47:ee:7e:2a:39:4e:5e:14:01:62:fe:
                    4c:51:cc:b7:25:12:39:fb:85:a5:13:27:45:60:c6:
                    ad:af:26:9e:fd:24:f2:73:26:4d:32:74:73:ae:b4:
                    eb:04:45:55:2e:88:62:7d:cf:4d:14:4b:0f:47:ea:
                    70:00:13:82:b6:c1:7a:bb:93:1c:20:db:6b:03:e1:
                    f0:63:f2:df:7d:2b:a2:3e:ed:9b:e7:ac:2d:a2:8b:
                    15:a0:b1:64:57:29:44:e5:1c:6a:90:3e:43:9c:a5:
                    bb:30:bd:ac:c9:b5:8d:7d:e9:68:50:3b:fa:0d:f4:
                    c6:ec:f3:75:a8:ec:f7:8c:d1:33:b0:79:a2:19:9d:
                    21:de:98:a3:31:9e:9b:90:75:c4:26:c4:3c:6e:5a:
                    bf:60:cc:df:c8:07:61:7e:5a:fb:42:30:03:25:fb:
                    7e:ab:fd:06:76:59:81:30:e3:69:92:51:d6:b7:23:
                    6e:f5:90:1b:64:49:e3:1c:72:b9:26:5e:92:33:f1:
                    9e:33
                Exponent: 65537 (0x10001)
        X509v3 extensions:
            X509v3 Basic Constraints: 
                CA:FALSE
            X509v3 Subject Key Identifier: 
                07:50:96:20:1D:E3:82:CA:8A:00:C6:F9:9C:A1:AD:BA:0C:0F:EC:72
            X509v3 Authority Key Identifier: 
                keyid:E7:29:12:5B:5C:C9:D7:A3:5E:1A:30:C1:E9:8A:76:D0:1E:13:82:08
                DirName:/CN=team42-net
                serial:4E:8D:3D:02:F4:05:A8:17:C3:C3:45:83:8B:60:AB:09:8F:80:67:D1

            X509v3 Extended Key Usage: 
                TLS Web Client Authentication
            X509v3 Key Usage: 
                Digital Signature
    Signature Algorithm: sha256WithRSAEncryption
         22:1f:2c:3c:79:c1:c0:fc:7d:b9:8a:d3:87:eb:df:14:5d:99:
         94:3f:de:00:b1:e5:88:9f:f3:b5:75:e1:75:0e:20:2f:1c:2c:
         63:ac:94:5b:e3:5b:94:53:ae:c9:fd:9b:c6:69:e8:47:2c:c5:
         ca:5d:68:a8:be:b0:71:95:60:ec:16:02:7f:2e:4c:9d:dd:61:
         b0:09:0f:95:79:b4:d0:ec:8f:b5:39:a9:da:5b:67:62:b0:a4:
         e4:95:ee:ec:c0:12:d3:3a:25:25:a8:7c:35:d3:d2:88:39:29:
         f9:aa:d2:b8:29:fe:b1:38:06:05:f5:bb:11:53:c8:ae:6c:a3:
         1a:9d:f4:66:f3:68:ee:56:68:b4:bb:d4:6e:e9:27:f2:94:52:
         56:ae:e3:ad:d0:e4:15:51:b9:99:14:76:2b:b4:6e:6a:9f:ed:
         8c:e5:bb:73:f2:a1:65:72:51:6e:f4:c9:0f:cb:5e:05:24:e3:
         84:33:88:74:84:0f:27:14:e9:e9:6d:27:cc:d8:e2:0b:3c:d7:
         31:b1:14:3e:e6:ac:61:45:06:5f:1a:65:b3:e2:8a:42:2a:23:
         eb:3d:0e:cf:0a:da:59:1e:85:c9:7f:37:4f:01:53:7f:17:12:
         1e:d6:bc:3f:ab:73:0e:e9:a9:22:fd:a1:8d:52:33:11:f9:e0:
         5e:ee:54:4d
-----BEGIN CERTIFICATE-----
MIIDWjCCAkKgAwIBAgIRANq2M3mI+NIjTV++pve3Jl8wDQYJKoZIhvcNAQELBQAw
FTETMBEGA1UEAwwKdGVhbTQyLW5ldDAeFw0yMzA4MTQxNDIzMDFaFw0yNjA3Mjkx
NDIzMDFaMBgxFjAUBgNVBAMMDXRlYW00Mi1jbGllbnQwggEiMA0GCSqGSIb3DQEB
AQUAA4IBDwAwggEKAoIBAQCz3Y4tDryfypLs4Cr4FCSc3XoEcM8THWHtC1vUmZY4
gNsJrbFDKxiNzoasgGQ/5JQqwouHM0DKd1ym8+Z1ihFH7n4qOU5eFAFi/kxRzLcl
Ejn7haUTJ0Vgxq2vJp79JPJzJk0ydHOutOsERVUuiGJ9z00USw9H6nAAE4K2wXq7
kxwg22sD4fBj8t99K6I+7ZvnrC2iixWgsWRXKUTlHGqQPkOcpbswvazJtY196WhQ
O/oN9Mbs83Wo7PeM0TOweaIZnSHemKMxnpuQdcQmxDxuWr9gzN/IB2F+WvtCMAMl
+36r/QZ2WYEw42mSUda3I271kBtkSeMccrkmXpIz8Z4zAgMBAAGjgaEwgZ4wCQYD
VR0TBAIwADAdBgNVHQ4EFgQUB1CWIB3jgsqKAMb5nKGtugwP7HIwUAYDVR0jBEkw
R4AU5ykSW1zJ16NeGjDB6Yp20B4TggihGaQXMBUxEzARBgNVBAMMCnRlYW00Mi1u
ZXSCFE6NPQL0BagXw8NFg4tgqwmPgGfRMBMGA1UdJQQMMAoGCCsGAQUFBwMCMAsG
A1UdDwQEAwIHgDANBgkqhkiG9w0BAQsFAAOCAQEAIh8sPHnBwPx9uYrTh+vfFF2Z
lD/eALHliJ/ztXXhdQ4gLxwsY6yUW+NblFOuyf2bxmnoRyzFyl1oqL6wcZVg7BYC
fy5Mnd1hsAkPlXm00OyPtTmp2ltnYrCk5JXu7MAS0zolJah8NdPSiDkp+arSuCn+
sTgGBfW7EVPIrmyjGp30ZvNo7lZotLvUbukn8pRSVq7jrdDkFVG5mRR2K7Ruap/t
jOW7c/KhZXJRbvTJD8teBSTjhDOIdIQPJxTp6W0nzNjiCzzXMbEUPuasYUUGXxpl
s+KKQioj6z0OzwraWR6FyX83TwFTfxcSHta8P6tzDumpIv2hjVIzEfngXu5UTQ==
-----END CERTIFICATE-----
