Certificate:
    Data:
        Version: 3 (0x2)
        Serial Number:
            47:a0:89:e1:db:9e:74:90:81:52:68:a7:3a:c4:58:15
        Signature Algorithm: sha256WithRSAEncryption
        Issuer: CN=team234-net
        Validity
            Not Before: Aug 14 14:27:01 2023 GMT
            Not After : Jul 29 14:27:01 2026 GMT
        Subject: CN=team234-client
        Subject Public Key Info:
            Public Key Algorithm: rsaEncryption
                RSA Public-Key: (2048 bit)
                Modulus:
                    00:b9:2c:d9:7a:ac:c2:e3:7e:2e:16:c6:15:22:af:
                    d5:57:83:8c:48:72:68:33:5a:69:8b:3e:e0:92:eb:
                    7c:40:9a:3c:c8:bf:84:52:f0:d9:d9:48:b5:6e:d3:
                    bf:44:25:fd:f5:ad:67:52:e4:b8:82:82:ec:61:be:
                    d0:f5:d2:a2:17:e1:70:fc:5d:88:5c:77:58:20:46:
                    7b:80:d9:2d:1c:b7:cf:25:81:90:8c:11:27:46:52:
                    4c:ba:fb:eb:d8:c1:ac:28:79:b6:13:7e:11:e5:e9:
                    2d:41:27:a1:ce:22:16:08:62:18:0c:0b:f4:6f:a3:
                    05:74:e5:2c:f8:3c:2a:a6:cf:d8:8a:89:fe:06:6b:
                    d6:72:cd:d0:28:e5:b0:8e:dd:f2:40:4f:43:41:f6:
                    c1:31:bc:65:78:18:81:73:34:d8:61:20:4b:96:2d:
                    7f:de:f8:9e:fc:ca:b5:82:d7:12:ae:b0:68:74:dd:
                    e1:51:18:3f:10:23:df:d7:78:23:a8:10:57:f6:da:
                    1a:6c:e7:6e:ec:38:e6:0c:59:6d:00:ef:52:fc:41:
                    59:bd:2c:cb:b2:a1:91:13:35:9f:5d:a0:8e:0b:da:
                    45:50:2b:b9:81:6e:37:d8:7a:e2:ca:4a:bf:92:30:
                    a3:09:7b:98:11:1a:81:3e:42:a1:7b:3f:05:d0:02:
                    06:63
                Exponent: 65537 (0x10001)
        X509v3 extensions:
            X509v3 Basic Constraints: 
                CA:FALSE
            X509v3 Subject Key Identifier: 
                55:8A:8D:F3:9F:46:06:9A:93:7A:B9:E6:2C:B1:5D:F4:D0:45:6D:BD
            X509v3 Authority Key Identifier: 
                keyid:AE:43:0F:9E:B0:64:99:ED:0B:62:01:56:90:4D:28:60:77:8D:2F:74
                DirName:/CN=team234-net
                serial:5D:F6:4A:3C:20:1D:0D:57:A5:06:22:45:C2:22:4D:11:05:7C:9A:3C

            X509v3 Extended Key Usage: 
                TLS Web Client Authentication
            X509v3 Key Usage: 
                Digital Signature
    Signature Algorithm: sha256WithRSAEncryption
         ab:36:3c:e8:bc:14:c0:3f:ee:14:82:c1:6a:6a:52:a6:55:4d:
         4b:c2:5e:81:38:2a:1d:2d:94:37:21:f4:49:04:70:20:23:84:
         23:1f:99:5a:14:9c:79:7e:b7:22:ec:b8:80:51:90:ba:2f:c8:
         09:07:e7:93:e5:ab:e2:6c:d7:75:1c:13:33:df:a3:44:53:5e:
         3d:05:8f:2c:02:28:cc:9d:f8:77:60:2f:d0:da:93:53:6c:f2:
         89:13:b7:d0:de:94:e4:b6:e9:08:86:c4:2e:18:a2:64:8a:40:
         b0:64:36:98:61:1d:4e:d2:42:8a:e9:f6:25:94:05:67:a2:a1:
         ed:75:29:9f:4a:c0:c5:ac:dc:9c:21:c4:35:2b:52:fa:40:70:
         f0:8d:66:32:35:5e:7c:e9:0e:79:09:3b:d7:51:a6:cb:c9:85:
         ae:00:54:db:88:cf:d3:1f:76:23:1c:31:95:2d:c9:40:c3:08:
         a4:5f:e5:c0:c5:22:45:92:f9:8d:36:05:54:c4:07:b4:b1:fd:
         4c:24:14:9f:78:28:4f:b8:f3:4d:68:d3:d2:28:36:96:dc:9c:
         82:a0:10:8b:bd:12:c5:51:84:ef:83:df:f8:c0:78:68:bf:4f:
         84:a5:85:46:11:79:45:3a:8b:c4:d5:f1:56:6c:c0:dc:c8:50:
         63:ca:5a:79
-----BEGIN CERTIFICATE-----
MIIDXDCCAkSgAwIBAgIQR6CJ4duedJCBUminOsRYFTANBgkqhkiG9w0BAQsFADAW
MRQwEgYDVQQDDAt0ZWFtMjM0LW5ldDAeFw0yMzA4MTQxNDI3MDFaFw0yNjA3Mjkx
NDI3MDFaMBkxFzAVBgNVBAMMDnRlYW0yMzQtY2xpZW50MIIBIjANBgkqhkiG9w0B
AQEFAAOCAQ8AMIIBCgKCAQEAuSzZeqzC434uFsYVIq/VV4OMSHJoM1ppiz7gkut8
QJo8yL+EUvDZ2Ui1btO/RCX99a1nUuS4goLsYb7Q9dKiF+Fw/F2IXHdYIEZ7gNkt
HLfPJYGQjBEnRlJMuvvr2MGsKHm2E34R5ektQSehziIWCGIYDAv0b6MFdOUs+Dwq
ps/Yion+BmvWcs3QKOWwjt3yQE9DQfbBMbxleBiBczTYYSBLli1/3vie/Mq1gtcS
rrBodN3hURg/ECPf13gjqBBX9toabOdu7DjmDFltAO9S/EFZvSzLsqGREzWfXaCO
C9pFUCu5gW432Hriykq/kjCjCXuYERqBPkKhez8F0AIGYwIDAQABo4GiMIGfMAkG
A1UdEwQCMAAwHQYDVR0OBBYEFFWKjfOfRgaak3q55iyxXfTQRW29MFEGA1UdIwRK
MEiAFK5DD56wZJntC2IBVpBNKGB3jS90oRqkGDAWMRQwEgYDVQQDDAt0ZWFtMjM0
LW5ldIIUXfZKPCAdDVelBiJFwiJNEQV8mjwwEwYDVR0lBAwwCgYIKwYBBQUHAwIw
CwYDVR0PBAQDAgeAMA0GCSqGSIb3DQEBCwUAA4IBAQCrNjzovBTAP+4UgsFqalKm
VU1Lwl6BOCodLZQ3IfRJBHAgI4QjH5laFJx5frci7LiAUZC6L8gJB+eT5avibNd1
HBMz36NEU149BY8sAijMnfh3YC/Q2pNTbPKJE7fQ3pTktukIhsQuGKJkikCwZDaY
YR1O0kKK6fYllAVnoqHtdSmfSsDFrNycIcQ1K1L6QHDwjWYyNV586Q55CTvXUabL
yYWuAFTbiM/TH3YjHDGVLclAwwikX+XAxSJFkvmNNgVUxAe0sf1MJBSfeChPuPNN
aNPSKDaW3JyCoBCLvRLFUYTvg9/4wHhov0+EpYVGEXlFOovE1fFWbMDcyFBjylp5
-----END CERTIFICATE-----
