Certificate:
    Data:
        Version: 3 (0x2)
        Serial Number:
            07:f3:68:f2:93:68:f7:31:f9:89:9c:89:e0:94:07:93
        Signature Algorithm: sha256WithRSAEncryption
        Issuer: CN=team184-net
        Validity
            Not Before: Aug 14 14:26:02 2023 GMT
            Not After : Jul 29 14:26:02 2026 GMT
        Subject: CN=team184-server
        Subject Public Key Info:
            Public Key Algorithm: rsaEncryption
                RSA Public-Key: (2048 bit)
                Modulus:
                    00:ef:2c:ad:d7:27:14:38:49:35:ee:a7:0d:23:f6:
                    ba:d7:ff:0e:41:66:f3:94:58:06:94:67:16:9c:55:
                    fa:f3:43:3b:46:4e:c4:70:ae:0b:7e:2c:89:ae:73:
                    39:58:3e:2e:29:bf:ad:56:da:52:bd:8c:2e:38:a7:
                    ac:09:c9:b3:22:12:cd:48:60:15:05:98:a8:37:75:
                    6e:78:50:46:b8:36:37:42:18:60:7d:a1:e5:23:d6:
                    0f:83:cc:c6:4d:23:80:8f:bc:26:02:ba:12:80:5f:
                    24:9f:23:9d:e4:2f:a7:71:e9:bc:0f:09:b1:60:2c:
                    2b:db:bc:de:55:90:28:94:ce:a6:7c:13:c1:a1:b1:
                    69:93:2d:1a:48:12:aa:d0:95:b5:6f:c0:53:e1:f9:
                    c7:67:c2:3c:77:7c:d8:e2:cc:42:31:69:a8:8e:c6:
                    5b:1b:ca:68:64:c2:eb:9c:f9:c6:e6:82:bd:28:22:
                    5d:41:02:dd:b8:fd:ab:7c:28:8e:b3:19:56:a8:99:
                    ed:f6:7a:cf:50:ef:bb:2b:8f:9c:d7:52:a7:76:c8:
                    3c:91:e0:89:49:b6:e7:76:c2:1b:63:17:f3:94:1e:
                    b9:44:ba:21:e4:a0:cc:4d:2f:8b:29:e3:aa:5d:b4:
                    20:08:ab:b0:b4:e3:e2:08:99:9e:91:05:4b:92:0b:
                    60:05
                Exponent: 65537 (0x10001)
        X509v3 extensions:
            X509v3 Basic Constraints: 
                CA:FALSE
            X509v3 Subject Key Identifier: 
                D7:B6:D0:EA:26:E7:D3:77:66:47:ED:B0:8D:A5:A6:B6:33:22:D2:9A
            X509v3 Authority Key Identifier: 
                keyid:68:58:D4:79:03:49:31:CD:2A:46:84:13:48:2F:1A:9F:50:CD:56:52
                DirName:/CN=team184-net
                serial:0F:92:D7:1F:2D:5D:F1:D6:E6:B9:67:E4:33:23:C0:FC:53:A1:50:53

            X509v3 Extended Key Usage: 
                TLS Web Server Authentication
            X509v3 Key Usage: 
                Digital Signature, Key Encipherment
            X509v3 Subject Alternative Name: 
                DNS:team184-server
    Signature Algorithm: sha256WithRSAEncryption
         5a:dd:7d:06:5c:37:bb:95:fc:b3:cf:e1:fb:a9:7d:7a:72:82:
         30:72:b9:47:e8:f1:80:f8:f4:1c:b7:66:14:ee:d9:5f:bc:df:
         e5:eb:6c:4f:eb:83:47:17:4d:4b:23:fc:87:7b:43:f9:ef:ed:
         0f:ff:77:62:c0:67:fa:79:4f:64:53:46:c7:73:a1:04:84:4b:
         1e:63:8f:74:71:cc:fd:b4:2b:66:7c:b1:53:1d:35:e2:96:a1:
         b8:cd:e8:2d:c2:8a:49:40:61:11:2d:1d:91:8a:bb:1a:74:0b:
         95:9d:fe:89:b5:99:ab:e0:02:0c:ac:fb:4c:06:d9:e0:2f:50:
         95:ba:51:3a:6e:6f:11:ff:24:d3:08:62:2c:5f:c5:dc:12:76:
         4e:e7:25:b4:b7:73:74:cf:90:5d:68:93:13:79:03:dd:54:3a:
         46:3c:8c:96:00:25:0f:dd:82:e8:7a:4a:83:ab:fd:3b:18:6b:
         ab:8e:f9:4a:a9:af:bd:5e:8f:ce:18:99:61:2e:f2:47:e5:99:
         5b:d9:30:48:55:0b:20:4a:d0:02:11:b3:94:99:71:59:30:3c:
         da:18:49:54:6a:4e:4f:e4:c1:db:66:a2:12:dc:31:fc:8e:53:
         4b:ec:ca:85:0e:c2:e3:e3:e7:5c:92:5c:93:84:84:ce:ec:e8:
         4d:32:f4:20
-----BEGIN CERTIFICATE-----
MIIDdzCCAl+gAwIBAgIQB/No8pNo9zH5iZyJ4JQHkzANBgkqhkiG9w0BAQsFADAW
MRQwEgYDVQQDDAt0ZWFtMTg0LW5ldDAeFw0yMzA4MTQxNDI2MDJaFw0yNjA3Mjkx
NDI2MDJaMBkxFzAVBgNVBAMMDnRlYW0xODQtc2VydmVyMIIBIjANBgkqhkiG9w0B
AQEFAAOCAQ8AMIIBCgKCAQEA7yyt1ycUOEk17qcNI/a61/8OQWbzlFgGlGcWnFX6
80M7Rk7EcK4LfiyJrnM5WD4uKb+tVtpSvYwuOKesCcmzIhLNSGAVBZioN3VueFBG
uDY3QhhgfaHlI9YPg8zGTSOAj7wmAroSgF8knyOd5C+ncem8DwmxYCwr27zeVZAo
lM6mfBPBobFpky0aSBKq0JW1b8BT4fnHZ8I8d3zY4sxCMWmojsZbG8poZMLrnPnG
5oK9KCJdQQLduP2rfCiOsxlWqJnt9nrPUO+7K4+c11Kndsg8keCJSbbndsIbYxfz
lB65RLoh5KDMTS+LKeOqXbQgCKuwtOPiCJmekQVLkgtgBQIDAQABo4G9MIG6MAkG
A1UdEwQCMAAwHQYDVR0OBBYEFNe20Oom59N3ZkftsI2lprYzItKaMFEGA1UdIwRK
MEiAFGhY1HkDSTHNKkaEE0gvGp9QzVZSoRqkGDAWMRQwEgYDVQQDDAt0ZWFtMTg0
LW5ldIIUD5LXHy1d8dbmuWfkMyPA/FOhUFMwEwYDVR0lBAwwCgYIKwYBBQUHAwEw
CwYDVR0PBAQDAgWgMBkGA1UdEQQSMBCCDnRlYW0xODQtc2VydmVyMA0GCSqGSIb3
DQEBCwUAA4IBAQBa3X0GXDe7lfyzz+H7qX16coIwcrlH6PGA+PQct2YU7tlfvN/l
62xP64NHF01LI/yHe0P57+0P/3diwGf6eU9kU0bHc6EEhEseY490ccz9tCtmfLFT
HTXilqG4zegtwopJQGERLR2RirsadAuVnf6JtZmr4AIMrPtMBtngL1CVulE6bm8R
/yTTCGIsX8XcEnZO5yW0t3N0z5BdaJMTeQPdVDpGPIyWACUP3YLoekqDq/07GGur
jvlKqa+9Xo/OGJlhLvJH5Zlb2TBIVQsgStACEbOUmXFZMDzaGElUak5P5MHbZqIS
3DH8jlNL7MqFDsLj4+dcklyThITO7OhNMvQg
-----END CERTIFICATE-----
