Certificate:
    Data:
        Version: 3 (0x2)
        Serial Number:
            fd:50:be:24:0f:c6:ac:74:69:43:61:1f:be:01:d7:03
        Signature Algorithm: sha256WithRSAEncryption
        Issuer: CN=team205-net
        Validity
            Not Before: Aug 14 14:26:25 2023 GMT
            Not After : Jul 29 14:26:25 2026 GMT
        Subject: CN=team205-client
        Subject Public Key Info:
            Public Key Algorithm: rsaEncryption
                RSA Public-Key: (2048 bit)
                Modulus:
                    00:ec:41:da:75:02:51:37:8c:e2:b9:91:26:6e:86:
                    d9:69:43:f3:8c:3c:22:ba:44:b5:93:6c:8a:50:e8:
                    ec:96:18:ae:6c:d4:25:54:d1:52:33:5d:2f:32:45:
                    b3:aa:76:5b:fe:ac:e1:a7:aa:b1:b8:ae:ec:58:45:
                    0b:39:ef:29:0f:8f:8b:65:9d:c2:a7:ae:48:eb:9a:
                    66:6e:e8:84:3f:45:b4:9a:3c:89:2d:ac:7f:52:62:
                    49:74:42:1b:a6:8c:bc:9b:a0:fc:24:ce:32:b0:d7:
                    95:4f:d7:04:43:37:94:52:ac:49:49:54:12:29:1c:
                    a5:59:93:90:2b:f8:39:7b:28:3f:49:91:4b:aa:ed:
                    42:1a:61:48:77:40:2a:24:83:3b:f1:fd:23:10:a6:
                    2f:56:0e:4f:87:85:0b:72:fc:f3:e9:c0:2f:24:66:
                    d7:03:4e:82:04:75:cf:de:81:91:8e:f8:f7:e7:2d:
                    c9:e2:c6:7a:a5:bc:d6:73:30:39:40:7a:d8:f6:52:
                    84:c1:87:63:cb:25:c6:e4:0e:06:84:0a:23:fd:d4:
                    50:8a:96:b3:7e:4e:64:9e:6d:de:cd:6d:87:63:89:
                    07:4f:64:de:ab:bf:89:3d:aa:f7:a1:98:8c:67:b4:
                    5a:91:3f:e1:fd:ad:40:39:ff:13:94:85:ab:76:cc:
                    94:cb
                Exponent: 65537 (0x10001)
        X509v3 extensions:
            X509v3 Basic Constraints: 
                CA:FALSE
            X509v3 Subject Key Identifier: 
                13:02:0E:75:CA:64:44:97:BD:DC:84:10:9B:9C:D4:20:75:51:30:19
            X509v3 Authority Key Identifier: 
                keyid:74:86:6F:B0:F6:54:9C:10:CF:49:2F:3E:7F:56:B2:58:35:2F:0A:28
                DirName:/CN=team205-net
                serial:2B:EA:DB:51:0F:D9:1A:CD:91:11:95:48:FC:2E:2C:54:18:95:D0:30

            X509v3 Extended Key Usage: 
                TLS Web Client Authentication
            X509v3 Key Usage: 
                Digital Signature
    Signature Algorithm: sha256WithRSAEncryption
         c9:56:73:80:2d:70:e0:d3:40:6a:5b:dd:42:b7:94:0c:bc:8a:
         d5:4c:3d:9d:36:cd:77:c0:2b:ef:6e:90:98:cd:1b:6e:05:53:
         ca:10:2a:7e:6a:62:2d:33:6a:64:ab:13:6f:2f:1d:ad:c8:d6:
         0b:22:c2:6b:12:ba:1a:fa:69:91:28:13:56:07:d7:34:5e:90:
         2f:b4:77:f6:29:db:aa:be:e2:f4:80:f7:76:31:f7:e6:bf:01:
         3f:5c:21:35:8e:b3:cd:a8:fe:f9:a9:26:cd:74:f7:97:6f:b2:
         cf:ce:64:d5:c5:d6:3a:d3:de:2c:ce:a4:01:05:e6:b9:e3:60:
         8b:49:dc:ed:f4:28:8b:49:eb:35:e9:fb:fc:37:54:e1:7d:6f:
         db:80:63:cc:ab:fb:da:1c:3a:33:01:96:7c:24:66:ad:ce:9b:
         5e:f1:b5:67:18:53:b0:f8:89:43:4f:4d:7c:1e:77:86:e7:16:
         52:7d:ab:3e:17:e2:5b:9f:83:39:bf:f6:63:af:ba:a0:cd:be:
         3d:e9:d3:84:7b:7b:e1:53:a8:f8:22:2a:0b:e4:af:63:e1:f8:
         bf:6e:be:7f:82:b9:6b:9c:79:d1:94:76:5f:61:14:9b:ed:54:
         5a:36:8f:8f:cd:e3:46:ab:3c:83:e3:12:d2:1a:17:e3:e1:2a:
         bf:fb:eb:e8
-----BEGIN CERTIFICATE-----
MIIDXTCCAkWgAwIBAgIRAP1QviQPxqx0aUNhH74B1wMwDQYJKoZIhvcNAQELBQAw
FjEUMBIGA1UEAwwLdGVhbTIwNS1uZXQwHhcNMjMwODE0MTQyNjI1WhcNMjYwNzI5
MTQyNjI1WjAZMRcwFQYDVQQDDA50ZWFtMjA1LWNsaWVudDCCASIwDQYJKoZIhvcN
AQEBBQADggEPADCCAQoCggEBAOxB2nUCUTeM4rmRJm6G2WlD84w8IrpEtZNsilDo
7JYYrmzUJVTRUjNdLzJFs6p2W/6s4aeqsbiu7FhFCznvKQ+Pi2WdwqeuSOuaZm7o
hD9FtJo8iS2sf1JiSXRCG6aMvJug/CTOMrDXlU/XBEM3lFKsSUlUEikcpVmTkCv4
OXsoP0mRS6rtQhphSHdAKiSDO/H9IxCmL1YOT4eFC3L88+nALyRm1wNOggR1z96B
kY749+ctyeLGeqW81nMwOUB62PZShMGHY8slxuQOBoQKI/3UUIqWs35OZJ5t3s1t
h2OJB09k3qu/iT2q96GYjGe0WpE/4f2tQDn/E5SFq3bMlMsCAwEAAaOBojCBnzAJ
BgNVHRMEAjAAMB0GA1UdDgQWBBQTAg51ymREl73chBCbnNQgdVEwGTBRBgNVHSME
SjBIgBR0hm+w9lScEM9JLz5/VrJYNS8KKKEapBgwFjEUMBIGA1UEAwwLdGVhbTIw
NS1uZXSCFCvq21EP2RrNkRGVSPwuLFQYldAwMBMGA1UdJQQMMAoGCCsGAQUFBwMC
MAsGA1UdDwQEAwIHgDANBgkqhkiG9w0BAQsFAAOCAQEAyVZzgC1w4NNAalvdQreU
DLyK1Uw9nTbNd8Ar726QmM0bbgVTyhAqfmpiLTNqZKsTby8drcjWCyLCaxK6Gvpp
kSgTVgfXNF6QL7R39inbqr7i9ID3djH35r8BP1whNY6zzaj++akmzXT3l2+yz85k
1cXWOtPeLM6kAQXmueNgi0nc7fQoi0nrNen7/DdU4X1v24BjzKv72hw6MwGWfCRm
rc6bXvG1ZxhTsPiJQ09NfB53hucWUn2rPhfiW5+DOb/2Y6+6oM2+PenThHt74VOo
+CIqC+SvY+H4v26+f4K5a5x50ZR2X2EUm+1UWjaPj83jRqs8g+MS0hoX4+Eqv/vr
6A==
-----END CERTIFICATE-----
