Certificate:
    Data:
        Version: 3 (0x2)
        Serial Number:
            4e:c8:cb:40:c1:51:38:ef:6c:14:57:ed:b8:7d:05:b8
        Signature Algorithm: sha256WithRSAEncryption
        Issuer: CN=team14-net
        Validity
            Not Before: Aug 14 14:22:19 2023 GMT
            Not After : Jul 29 14:22:19 2026 GMT
        Subject: CN=team14-server
        Subject Public Key Info:
            Public Key Algorithm: rsaEncryption
                RSA Public-Key: (2048 bit)
                Modulus:
                    00:d8:0b:33:da:76:b8:5c:65:b0:f6:68:a8:c5:97:
                    8e:31:3a:30:0a:2b:b1:12:9d:42:f0:4c:fe:1b:28:
                    1f:ff:b7:f6:cc:3a:85:fd:86:b3:ce:f2:5b:24:69:
                    1e:8d:51:ac:da:e2:25:3f:f1:63:0e:a7:41:13:2f:
                    81:11:61:ff:8a:54:a3:d6:da:d4:f6:01:ab:ed:69:
                    35:5e:d1:24:e8:5a:39:9b:64:50:f0:9d:b1:8a:3c:
                    d3:06:29:14:ad:26:56:12:bf:32:a8:8d:0f:e6:ba:
                    45:d4:93:b4:e0:e7:d3:5c:49:cb:fb:b8:5d:87:2e:
                    e9:3d:2b:ac:0f:71:6c:2b:13:f1:ff:df:08:66:65:
                    57:26:7f:7a:9c:f7:44:2f:72:95:d3:9c:e4:3e:57:
                    86:81:eb:19:a6:d9:af:4e:87:dd:23:54:73:a4:0b:
                    51:2e:bb:3f:4f:22:5c:21:eb:e2:d8:bf:5d:4f:68:
                    c5:32:b2:18:2e:5f:e3:03:89:bc:ba:70:14:54:b7:
                    55:86:2c:c6:b0:c5:80:02:16:d1:b9:cb:55:b1:f1:
                    e0:0d:01:2f:32:7c:fa:ea:c8:ab:a8:0e:45:19:98:
                    a4:65:fd:77:a3:c6:5d:36:9c:93:19:62:76:2f:c9:
                    44:96:ec:2b:4f:17:6b:e0:27:a0:b2:a1:c6:b8:33:
                    3a:73
                Exponent: 65537 (0x10001)
        X509v3 extensions:
            X509v3 Basic Constraints: 
                CA:FALSE
            X509v3 Subject Key Identifier: 
                7C:75:2C:37:F4:08:E9:BD:9F:29:12:96:CF:7A:58:71:EE:CD:23:3B
            X509v3 Authority Key Identifier: 
                keyid:26:49:0A:2C:67:90:37:FD:A9:73:12:03:6B:85:26:72:90:F6:63:D2
                DirName:/CN=team14-net
                serial:7A:09:DA:29:AA:5F:B9:F6:4D:D1:AE:93:1C:00:73:6D:BF:07:BD:95

            X509v3 Extended Key Usage: 
                TLS Web Server Authentication
            X509v3 Key Usage: 
                Digital Signature, Key Encipherment
            X509v3 Subject Alternative Name: 
                DNS:team14-server
    Signature Algorithm: sha256WithRSAEncryption
         28:ea:58:89:c7:75:37:43:69:85:d7:0c:39:ad:94:10:92:b1:
         92:c6:fb:a3:71:3f:37:cb:76:aa:18:15:31:3b:86:f0:72:28:
         40:07:4e:50:2a:fd:b0:4b:60:50:57:d8:d7:34:fb:7d:c4:d1:
         2d:39:c6:50:9e:0c:1c:e3:26:30:b9:28:83:ec:a0:ea:72:95:
         cc:30:78:b2:d8:0d:7e:6f:f3:cd:cd:c6:de:02:b2:74:6b:3f:
         34:c8:db:df:c9:b4:43:4e:5e:cb:06:29:3c:b7:bd:42:1e:4e:
         3c:3a:da:4f:35:b3:74:1b:db:17:7d:7b:11:76:d4:fb:46:5a:
         d2:45:15:79:c1:63:02:21:89:a7:1b:3a:c2:d5:4d:34:bd:16:
         81:6e:21:42:e0:a6:1b:10:68:c4:80:08:8d:b5:dd:44:58:5c:
         79:64:a7:9f:f5:e4:5f:e5:a1:d5:86:ae:0c:05:66:a3:9a:6e:
         63:b4:bf:a6:88:00:d5:05:e4:ab:7a:e2:bd:6a:2a:91:ac:91:
         5e:08:3c:a3:bf:91:07:9b:74:94:3a:f9:6a:56:4e:87:20:73:
         9a:d7:bb:83:76:4c:60:a6:61:1b:93:4a:8a:70:06:8f:09:ee:
         a7:10:6f:63:b9:ee:fa:75:89:73:65:63:32:3b:8d:96:11:74:
         d3:a9:62:d2
-----BEGIN CERTIFICATE-----
MIIDczCCAlugAwIBAgIQTsjLQMFROO9sFFftuH0FuDANBgkqhkiG9w0BAQsFADAV
MRMwEQYDVQQDDAp0ZWFtMTQtbmV0MB4XDTIzMDgxNDE0MjIxOVoXDTI2MDcyOTE0
MjIxOVowGDEWMBQGA1UEAwwNdGVhbTE0LXNlcnZlcjCCASIwDQYJKoZIhvcNAQEB
BQADggEPADCCAQoCggEBANgLM9p2uFxlsPZoqMWXjjE6MAorsRKdQvBM/hsoH/+3
9sw6hf2Gs87yWyRpHo1RrNriJT/xYw6nQRMvgRFh/4pUo9ba1PYBq+1pNV7RJOha
OZtkUPCdsYo80wYpFK0mVhK/MqiND+a6RdSTtODn01xJy/u4XYcu6T0rrA9xbCsT
8f/fCGZlVyZ/epz3RC9yldOc5D5XhoHrGabZr06H3SNUc6QLUS67P08iXCHr4ti/
XU9oxTKyGC5f4wOJvLpwFFS3VYYsxrDFgAIW0bnLVbHx4A0BLzJ8+urIq6gORRmY
pGX9d6PGXTackxlidi/JRJbsK08Xa+AnoLKhxrgzOnMCAwEAAaOBuzCBuDAJBgNV
HRMEAjAAMB0GA1UdDgQWBBR8dSw39AjpvZ8pEpbPelhx7s0jOzBQBgNVHSMESTBH
gBQmSQosZ5A3/alzEgNrhSZykPZj0qEZpBcwFTETMBEGA1UEAwwKdGVhbTE0LW5l
dIIUegnaKapfufZN0a6THABzbb8HvZUwEwYDVR0lBAwwCgYIKwYBBQUHAwEwCwYD
VR0PBAQDAgWgMBgGA1UdEQQRMA+CDXRlYW0xNC1zZXJ2ZXIwDQYJKoZIhvcNAQEL
BQADggEBACjqWInHdTdDaYXXDDmtlBCSsZLG+6NxPzfLdqoYFTE7hvByKEAHTlAq
/bBLYFBX2Nc0+33E0S05xlCeDBzjJjC5KIPsoOpylcwweLLYDX5v883Nxt4CsnRr
PzTI29/JtENOXssGKTy3vUIeTjw62k81s3Qb2xd9exF21PtGWtJFFXnBYwIhiacb
OsLVTTS9FoFuIULgphsQaMSACI213URYXHlkp5/15F/lodWGrgwFZqOabmO0v6aI
ANUF5Kt64r1qKpGskV4IPKO/kQebdJQ6+WpWTocgc5rXu4N2TGCmYRuTSopwBo8J
7qcQb2O57vp1iXNlYzI7jZYRdNOpYtI=
-----END CERTIFICATE-----
