Certificate:
    Data:
        Version: 3 (0x2)
        Serial Number:
            c0:40:d8:6a:0e:e4:31:95:78:0a:6b:a8:38:02:d6:80
        Signature Algorithm: sha256WithRSAEncryption
        Issuer: CN=team14-net
        Validity
            Not Before: Aug 14 14:22:19 2023 GMT
            Not After : Jul 29 14:22:19 2026 GMT
        Subject: CN=team14-client
        Subject Public Key Info:
            Public Key Algorithm: rsaEncryption
                RSA Public-Key: (2048 bit)
                Modulus:
                    00:b0:3a:31:04:74:18:61:a5:fe:2c:5d:f6:94:bc:
                    3c:ae:f1:86:e7:1e:09:c0:d8:f2:9d:ce:7d:8b:1a:
                    a9:f1:ba:a0:66:43:23:e4:06:5c:e0:68:8f:8a:34:
                    40:7b:3d:66:2c:b3:3e:10:8a:55:f8:d0:df:7e:af:
                    1d:8d:63:fe:f2:33:02:eb:fa:32:0c:68:ac:35:3c:
                    7a:0b:03:34:2a:33:14:50:ca:51:bd:cd:e6:be:26:
                    71:78:2a:27:4a:7d:6e:f2:de:2b:3d:bd:b6:2d:30:
                    dd:fc:c3:01:30:6a:31:ef:4d:d4:45:db:ef:16:9a:
                    e3:74:be:85:a1:c2:cb:3f:3d:9a:f2:be:74:10:58:
                    91:cb:e0:24:56:f8:83:5f:a7:a8:12:d4:bf:38:34:
                    a0:e6:21:b6:94:d4:85:cc:24:40:82:bc:12:b8:d5:
                    27:79:a5:35:60:78:24:67:b8:09:7b:3b:6c:7a:06:
                    c0:77:97:6b:b7:ad:b2:cc:f8:07:0c:89:e7:4e:6f:
                    c5:b4:62:d9:f0:b9:74:6f:fb:db:0a:17:16:f0:f7:
                    bb:33:eb:35:0e:86:94:c6:44:94:00:ca:57:2e:8f:
                    e6:2b:0f:73:1e:a4:07:b5:b2:e1:c5:ac:b7:13:3e:
                    9e:3c:3e:9c:c6:71:23:ab:40:28:4f:83:8a:1b:6e:
                    3f:8f
                Exponent: 65537 (0x10001)
        X509v3 extensions:
            X509v3 Basic Constraints: 
                CA:FALSE
            X509v3 Subject Key Identifier: 
                00:6A:76:A7:12:EE:B7:54:3A:91:42:C4:21:7C:A2:70:E0:2E:96:75
            X509v3 Authority Key Identifier: 
                keyid:26:49:0A:2C:67:90:37:FD:A9:73:12:03:6B:85:26:72:90:F6:63:D2
                DirName:/CN=team14-net
                serial:7A:09:DA:29:AA:5F:B9:F6:4D:D1:AE:93:1C:00:73:6D:BF:07:BD:95

            X509v3 Extended Key Usage: 
                TLS Web Client Authentication
            X509v3 Key Usage: 
                Digital Signature
    Signature Algorithm: sha256WithRSAEncryption
         d5:cc:d5:a5:e7:5e:42:f2:f4:8d:62:48:b1:41:15:ab:73:f3:
         55:25:56:55:8c:7b:d2:87:c7:4b:c4:e4:14:f1:3d:ff:ee:21:
         46:28:69:af:9a:c9:2d:55:57:6c:d9:77:a6:44:45:b2:85:c5:
         71:1b:c9:98:25:8e:e1:5c:00:b7:c2:47:a4:36:ce:57:ae:8d:
         39:b9:be:c1:96:8e:b9:5d:1a:b2:d3:05:b2:f8:51:df:30:b4:
         1d:7b:00:b0:73:b9:7e:34:fd:7e:d9:4e:3c:98:f0:88:a1:e4:
         c7:3a:9e:66:22:38:e6:d1:8f:43:ce:00:e6:86:92:86:41:34:
         05:d9:89:50:98:f2:bb:c7:cd:fe:ef:e4:a1:89:b8:10:b0:bd:
         2b:a2:13:f5:40:ef:2d:e2:8c:84:d4:2c:d8:7f:9f:dd:35:e8:
         30:ff:17:46:3c:e6:d4:54:8d:fe:c7:9b:fd:f8:e4:e9:b8:62:
         c6:ed:ec:74:b3:64:72:64:57:eb:8f:14:4f:d6:64:08:34:8d:
         fb:66:e2:4f:3e:e5:8a:ad:1f:f8:9a:da:c5:d8:2b:09:06:3c:
         e8:d1:88:88:cc:23:48:96:cd:18:54:03:96:e6:35:0f:7b:02:
         ae:4b:25:aa:0c:bb:41:6e:5b:5a:41:bb:70:08:6b:95:a6:74:
         09:67:1d:25
-----BEGIN CERTIFICATE-----
MIIDWjCCAkKgAwIBAgIRAMBA2GoO5DGVeAprqDgC1oAwDQYJKoZIhvcNAQELBQAw
FTETMBEGA1UEAwwKdGVhbTE0LW5ldDAeFw0yMzA4MTQxNDIyMTlaFw0yNjA3Mjkx
NDIyMTlaMBgxFjAUBgNVBAMMDXRlYW0xNC1jbGllbnQwggEiMA0GCSqGSIb3DQEB
AQUAA4IBDwAwggEKAoIBAQCwOjEEdBhhpf4sXfaUvDyu8YbnHgnA2PKdzn2LGqnx
uqBmQyPkBlzgaI+KNEB7PWYssz4QilX40N9+rx2NY/7yMwLr+jIMaKw1PHoLAzQq
MxRQylG9zea+JnF4KidKfW7y3is9vbYtMN38wwEwajHvTdRF2+8WmuN0voWhwss/
PZryvnQQWJHL4CRW+INfp6gS1L84NKDmIbaU1IXMJECCvBK41Sd5pTVgeCRnuAl7
O2x6BsB3l2u3rbLM+AcMiedOb8W0YtnwuXRv+9sKFxbw97sz6zUOhpTGRJQAylcu
j+YrD3MepAe1suHFrLcTPp48PpzGcSOrQChPg4obbj+PAgMBAAGjgaEwgZ4wCQYD
VR0TBAIwADAdBgNVHQ4EFgQUAGp2pxLut1Q6kULEIXyicOAulnUwUAYDVR0jBEkw
R4AUJkkKLGeQN/2pcxIDa4UmcpD2Y9KhGaQXMBUxEzARBgNVBAMMCnRlYW0xNC1u
ZXSCFHoJ2imqX7n2TdGukxwAc22/B72VMBMGA1UdJQQMMAoGCCsGAQUFBwMCMAsG
A1UdDwQEAwIHgDANBgkqhkiG9w0BAQsFAAOCAQEA1czVpedeQvL0jWJIsUEVq3Pz
VSVWVYx70ofHS8TkFPE9/+4hRihpr5rJLVVXbNl3pkRFsoXFcRvJmCWO4VwAt8JH
pDbOV66NObm+wZaOuV0astMFsvhR3zC0HXsAsHO5fjT9ftlOPJjwiKHkxzqeZiI4
5tGPQ84A5oaShkE0BdmJUJjyu8fN/u/koYm4ELC9K6IT9UDvLeKMhNQs2H+f3TXo
MP8XRjzm1FSN/seb/fjk6bhixu3sdLNkcmRX648UT9ZkCDSN+2biTz7liq0f+Jra
xdgrCQY86NGIiMwjSJbNGFQDluY1D3sCrkslqgy7QW5bWkG7cAhrlaZ0CWcdJQ==
-----END CERTIFICATE-----
