Certificate:
    Data:
        Version: 3 (0x2)
        Serial Number:
            48:70:76:d0:a9:e1:00:fb:c6:c8:75:8e:6b:e1:a0:30
        Signature Algorithm: sha256WithRSAEncryption
        Issuer: CN=team202-net
        Validity
            Not Before: Aug 14 14:26:22 2023 GMT
            Not After : Jul 29 14:26:22 2026 GMT
        Subject: CN=team202-server
        Subject Public Key Info:
            Public Key Algorithm: rsaEncryption
                RSA Public-Key: (2048 bit)
                Modulus:
                    00:ad:64:91:47:6c:a0:18:08:2a:76:ac:06:3a:f7:
                    11:f5:95:1f:07:cc:fc:43:dc:f8:9a:f2:06:45:a5:
                    db:5b:a4:3a:d0:e9:b6:fb:c6:6e:8a:1d:81:54:24:
                    aa:5c:99:50:38:03:9c:ef:ba:ec:f1:2b:d2:8d:f5:
                    3b:28:15:87:e4:c9:57:6b:f6:42:e1:6d:0a:af:25:
                    dc:d4:82:ac:ed:95:a8:49:61:da:df:4c:af:48:65:
                    60:2b:a9:f0:5b:6a:c6:c8:24:5d:6e:db:f0:16:31:
                    09:d2:f6:dc:32:ec:f0:a2:c9:e4:b1:d5:6a:55:f3:
                    ff:da:2c:98:2c:cf:a6:ef:f6:19:07:12:f7:6a:31:
                    4f:6e:48:fe:45:02:45:3e:c8:4e:69:2e:6c:82:64:
                    60:bb:0c:0f:74:bd:09:0a:b6:7c:ef:ae:a8:24:30:
                    4a:f6:ba:49:e9:5f:79:0c:ce:d4:d8:64:89:15:a5:
                    11:d8:dc:19:94:6e:9b:0a:83:da:88:81:6d:e4:d5:
                    a3:d7:d8:61:67:a6:45:bc:54:33:c5:7f:61:f6:65:
                    58:f6:76:44:be:7d:0c:53:61:bf:03:b2:d4:07:24:
                    b0:b7:db:1b:2e:31:aa:a2:1c:00:54:0c:ee:0d:33:
                    59:d2:7b:34:aa:17:40:a6:8b:52:6c:3e:da:a5:fc:
                    4e:73
                Exponent: 65537 (0x10001)
        X509v3 extensions:
            X509v3 Basic Constraints: 
                CA:FALSE
            X509v3 Subject Key Identifier: 
                BF:80:4A:99:A6:22:A0:AD:54:DE:48:D2:D0:C3:46:11:D6:56:67:F6
            X509v3 Authority Key Identifier: 
                keyid:B7:49:4A:3D:1F:B5:A0:81:2A:F0:A1:2D:72:38:F7:5F:7F:68:40:09
                DirName:/CN=team202-net
                serial:2C:C9:6B:61:95:46:45:61:FF:08:0E:68:1F:35:49:49:CC:F9:BD:19

            X509v3 Extended Key Usage: 
                TLS Web Server Authentication
            X509v3 Key Usage: 
                Digital Signature, Key Encipherment
            X509v3 Subject Alternative Name: 
                DNS:team202-server
    Signature Algorithm: sha256WithRSAEncryption
         21:84:bd:d7:de:fb:85:68:90:2d:9e:d0:03:4b:2d:ee:05:97:
         c3:ff:49:dd:df:e3:39:a1:12:e6:73:4b:ee:21:07:14:e3:c9:
         c7:c2:62:49:f3:83:5c:9a:06:3b:1b:ea:50:db:80:03:1b:2c:
         8d:c5:2f:37:fe:5c:3e:a6:13:7c:bd:1a:56:f7:b1:6b:54:a0:
         dd:c4:08:9e:4d:99:d7:c8:c3:8d:8d:7e:a5:8c:41:ee:0a:f1:
         21:f0:ff:cc:ef:32:59:03:2c:fa:46:f6:ab:25:d4:0a:77:aa:
         72:bc:c4:d2:ac:92:14:08:c4:05:30:4b:71:3b:ef:ec:c2:c8:
         a1:5e:60:65:37:10:f5:ce:03:c6:ab:b0:1f:d4:61:31:0f:e0:
         ce:7b:cf:2a:5b:b5:8d:86:e3:6c:b6:bc:71:be:01:d3:c5:61:
         00:59:92:e1:70:f8:58:77:20:30:e1:47:bc:93:d7:4e:71:d2:
         e0:37:eb:95:a0:4c:1e:c7:20:e7:cf:f5:09:c8:a0:70:71:83:
         5c:0a:2b:f5:de:5d:d2:51:f0:a6:5d:f1:ef:42:68:4b:5c:0c:
         2a:ea:63:c5:c1:9d:44:67:f5:83:1e:5d:ab:8c:c0:15:15:03:
         0b:db:d6:59:c7:e8:da:9f:92:78:ca:61:8c:2b:28:4d:b7:22:
         13:82:65:35
-----BEGIN CERTIFICATE-----
MIIDdzCCAl+gAwIBAgIQSHB20KnhAPvGyHWOa+GgMDANBgkqhkiG9w0BAQsFADAW
MRQwEgYDVQQDDAt0ZWFtMjAyLW5ldDAeFw0yMzA4MTQxNDI2MjJaFw0yNjA3Mjkx
NDI2MjJaMBkxFzAVBgNVBAMMDnRlYW0yMDItc2VydmVyMIIBIjANBgkqhkiG9w0B
AQEFAAOCAQ8AMIIBCgKCAQEArWSRR2ygGAgqdqwGOvcR9ZUfB8z8Q9z4mvIGRaXb
W6Q60Om2+8Zuih2BVCSqXJlQOAOc77rs8SvSjfU7KBWH5MlXa/ZC4W0KryXc1IKs
7ZWoSWHa30yvSGVgK6nwW2rGyCRdbtvwFjEJ0vbcMuzwosnksdVqVfP/2iyYLM+m
7/YZBxL3ajFPbkj+RQJFPshOaS5sgmRguwwPdL0JCrZ8766oJDBK9rpJ6V95DM7U
2GSJFaUR2NwZlG6bCoPaiIFt5NWj19hhZ6ZFvFQzxX9h9mVY9nZEvn0MU2G/A7LU
BySwt9sbLjGqohwAVAzuDTNZ0ns0qhdApotSbD7apfxOcwIDAQABo4G9MIG6MAkG
A1UdEwQCMAAwHQYDVR0OBBYEFL+ASpmmIqCtVN5I0tDDRhHWVmf2MFEGA1UdIwRK
MEiAFLdJSj0ftaCBKvChLXI4919/aEAJoRqkGDAWMRQwEgYDVQQDDAt0ZWFtMjAy
LW5ldIIULMlrYZVGRWH/CA5oHzVJScz5vRkwEwYDVR0lBAwwCgYIKwYBBQUHAwEw
CwYDVR0PBAQDAgWgMBkGA1UdEQQSMBCCDnRlYW0yMDItc2VydmVyMA0GCSqGSIb3
DQEBCwUAA4IBAQAhhL3X3vuFaJAtntADSy3uBZfD/0nd3+M5oRLmc0vuIQcU48nH
wmJJ84NcmgY7G+pQ24ADGyyNxS83/lw+phN8vRpW97FrVKDdxAieTZnXyMONjX6l
jEHuCvEh8P/M7zJZAyz6RvarJdQKd6pyvMTSrJIUCMQFMEtxO+/swsihXmBlNxD1
zgPGq7Af1GExD+DOe88qW7WNhuNstrxxvgHTxWEAWZLhcPhYdyAw4Ue8k9dOcdLg
N+uVoEwexyDnz/UJyKBwcYNcCiv13l3SUfCmXfHvQmhLXAwq6mPFwZ1EZ/WDHl2r
jMAVFQML29ZZx+jan5J4ymGMKyhNtyITgmU1
-----END CERTIFICATE-----
