Certificate:
    Data:
        Version: 3 (0x2)
        Serial Number:
            8f:66:a3:88:f3:04:e4:54:05:03:b5:89:82:4b:69:d7
        Signature Algorithm: sha256WithRSAEncryption
        Issuer: CN=team208-net
        Validity
            Not Before: Aug 14 14:26:29 2023 GMT
            Not After : Jul 29 14:26:29 2026 GMT
        Subject: CN=team208-server
        Subject Public Key Info:
            Public Key Algorithm: rsaEncryption
                RSA Public-Key: (2048 bit)
                Modulus:
                    00:b6:cd:a3:c4:a3:d1:b1:68:34:5d:fe:76:d9:3d:
                    8f:0f:28:20:74:5d:18:40:3e:df:7e:01:67:d1:7c:
                    1d:4b:7f:35:ca:47:80:c5:8b:fc:c4:b2:84:e6:68:
                    13:b3:92:7a:5b:db:17:d1:f7:0a:d5:06:5d:29:dc:
                    16:b4:17:16:2e:1f:2f:b1:2c:32:35:8b:c6:a1:c8:
                    75:c1:6f:15:07:91:f0:f5:ad:f9:46:0b:bb:7d:ed:
                    77:a5:1e:53:ae:22:71:bb:b1:80:eb:c3:d4:19:d9:
                    d9:90:f7:92:19:33:64:60:93:64:8e:de:36:d1:9b:
                    7f:b1:05:70:70:fa:3c:88:7e:a6:08:ca:28:66:51:
                    78:dd:8b:0a:d3:62:1c:a3:6d:15:28:0d:e0:e2:7e:
                    5a:6f:db:d1:a2:b6:b0:5c:b0:b5:03:df:b3:72:f0:
                    b4:71:8d:e0:f4:7d:fc:03:4b:33:b5:1e:cd:0a:09:
                    5d:9f:51:1b:eb:c9:ef:37:8f:16:55:54:0f:b4:12:
                    75:12:c8:10:ce:00:10:56:93:a4:8f:f7:60:ea:fe:
                    a6:83:ec:c4:4f:70:f2:9a:f7:64:9c:e8:71:f3:6e:
                    ca:ae:12:b7:22:ec:49:e9:3d:d0:c3:5c:30:22:b1:
                    65:8c:cd:1a:e3:3a:7b:dd:d9:e9:29:2a:37:e8:8e:
                    fc:47
                Exponent: 65537 (0x10001)
        X509v3 extensions:
            X509v3 Basic Constraints: 
                CA:FALSE
            X509v3 Subject Key Identifier: 
                2B:54:4E:94:00:95:2A:EB:2E:19:DA:1A:62:10:CC:D0:A3:48:95:AC
            X509v3 Authority Key Identifier: 
                keyid:C4:88:89:34:0B:99:66:EA:4E:BC:D0:09:B8:62:DE:5A:40:26:6F:A7
                DirName:/CN=team208-net
                serial:4C:A8:BA:4D:42:10:98:10:EA:62:3A:3A:83:5E:5F:47:CD:EE:3F:34

            X509v3 Extended Key Usage: 
                TLS Web Server Authentication
            X509v3 Key Usage: 
                Digital Signature, Key Encipherment
            X509v3 Subject Alternative Name: 
                DNS:team208-server
    Signature Algorithm: sha256WithRSAEncryption
         64:22:8b:e0:2b:9f:72:a0:cb:db:39:4b:96:b1:c5:bd:d7:59:
         9f:5f:39:66:98:ab:1f:8c:cc:1a:8b:31:e6:d7:71:b6:a6:ab:
         6c:b3:3d:80:13:6d:1a:2f:60:ed:6a:bb:e7:db:00:25:83:73:
         69:99:b0:21:8a:18:4c:b3:7c:b1:34:52:c6:35:08:4e:2c:2e:
         72:56:c4:a0:2e:c9:82:fc:ed:e3:db:5e:59:30:50:b6:92:e1:
         7a:bf:bf:b5:77:fc:20:fa:9c:3a:71:19:f4:1d:f7:55:08:0b:
         f1:7a:58:85:7f:b9:72:9c:ca:0f:c2:65:5d:74:e0:85:c7:fa:
         6a:e7:9f:9a:c9:76:7d:bc:df:80:a4:93:f4:eb:71:b7:cb:bc:
         b4:19:b5:d7:81:11:7d:05:8b:eb:69:06:60:2b:04:66:76:6e:
         e6:25:4b:25:16:cc:5c:ea:5d:eb:6b:69:ee:4c:19:ed:8f:42:
         b0:0f:af:d1:12:6a:a3:31:9e:c6:38:ab:dc:6d:1c:d5:75:ea:
         16:e0:f3:a6:66:26:5b:87:82:db:59:33:9f:85:ed:9c:39:92:
         cd:07:24:70:5c:27:1e:6e:02:bd:20:da:12:06:d9:48:94:b5:
         bf:c1:58:18:86:01:f4:0e:7f:8e:c7:89:f7:80:d4:ab:3c:d7:
         10:5d:0b:20
-----BEGIN CERTIFICATE-----
MIIDeDCCAmCgAwIBAgIRAI9mo4jzBORUBQO1iYJLadcwDQYJKoZIhvcNAQELBQAw
FjEUMBIGA1UEAwwLdGVhbTIwOC1uZXQwHhcNMjMwODE0MTQyNjI5WhcNMjYwNzI5
MTQyNjI5WjAZMRcwFQYDVQQDDA50ZWFtMjA4LXNlcnZlcjCCASIwDQYJKoZIhvcN
AQEBBQADggEPADCCAQoCggEBALbNo8Sj0bFoNF3+dtk9jw8oIHRdGEA+334BZ9F8
HUt/NcpHgMWL/MSyhOZoE7OSelvbF9H3CtUGXSncFrQXFi4fL7EsMjWLxqHIdcFv
FQeR8PWt+UYLu33td6UeU64icbuxgOvD1BnZ2ZD3khkzZGCTZI7eNtGbf7EFcHD6
PIh+pgjKKGZReN2LCtNiHKNtFSgN4OJ+Wm/b0aK2sFywtQPfs3LwtHGN4PR9/ANL
M7UezQoJXZ9RG+vJ7zePFlVUD7QSdRLIEM4AEFaTpI/3YOr+poPsxE9w8pr3ZJzo
cfNuyq4StyLsSek90MNcMCKxZYzNGuM6e93Z6SkqN+iO/EcCAwEAAaOBvTCBujAJ
BgNVHRMEAjAAMB0GA1UdDgQWBBQrVE6UAJUq6y4Z2hpiEMzQo0iVrDBRBgNVHSME
SjBIgBTEiIk0C5lm6k680Am4Yt5aQCZvp6EapBgwFjEUMBIGA1UEAwwLdGVhbTIw
OC1uZXSCFEyouk1CEJgQ6mI6OoNeX0fN7j80MBMGA1UdJQQMMAoGCCsGAQUFBwMB
MAsGA1UdDwQEAwIFoDAZBgNVHREEEjAQgg50ZWFtMjA4LXNlcnZlcjANBgkqhkiG
9w0BAQsFAAOCAQEAZCKL4CufcqDL2zlLlrHFvddZn185ZpirH4zMGosx5tdxtqar
bLM9gBNtGi9g7Wq759sAJYNzaZmwIYoYTLN8sTRSxjUITiwuclbEoC7Jgvzt49te
WTBQtpLher+/tXf8IPqcOnEZ9B33VQgL8XpYhX+5cpzKD8JlXXTghcf6auefmsl2
fbzfgKST9Otxt8u8tBm114ERfQWL62kGYCsEZnZu5iVLJRbMXOpd62tp7kwZ7Y9C
sA+v0RJqozGexjir3G0c1XXqFuDzpmYmW4eC21kzn4XtnDmSzQckcFwnHm4CvSDa
EgbZSJS1v8FYGIYB9A5/jseJ94DUqzzXEF0LIA==
-----END CERTIFICATE-----
