Certificate:
    Data:
        Version: 3 (0x2)
        Serial Number:
            88:ed:7f:ea:3f:8c:25:ff:07:ef:91:65:13:6e:9e:d4
        Signature Algorithm: sha256WithRSAEncryption
        Issuer: CN=team203-net
        Validity
            Not Before: Aug 14 14:26:24 2023 GMT
            Not After : Jul 29 14:26:24 2026 GMT
        Subject: CN=team203-server
        Subject Public Key Info:
            Public Key Algorithm: rsaEncryption
                RSA Public-Key: (2048 bit)
                Modulus:
                    00:af:8f:81:7f:d5:2c:53:c7:6b:bb:27:26:d9:00:
                    72:ab:84:8a:a2:8d:a7:4d:26:fa:c7:b8:50:eb:5c:
                    0e:d6:6f:50:f0:af:59:80:06:3b:e0:47:60:5d:3f:
                    d3:04:74:9a:63:5d:3a:63:f2:a6:a5:ea:22:68:f7:
                    51:94:be:11:e1:28:e9:ba:ee:3d:2c:e8:d3:0a:13:
                    bb:42:05:87:f4:28:14:af:7b:6a:ca:32:37:47:07:
                    f6:38:fc:40:ab:60:7e:82:9b:82:fd:56:9c:8a:2d:
                    22:f4:1b:8f:e1:64:ed:ec:bf:31:cd:d9:ee:fb:4c:
                    c5:04:72:51:05:db:f1:07:3b:6c:7e:85:0b:ce:8e:
                    6a:3a:07:f8:bd:84:55:3e:41:cd:d6:1b:49:df:13:
                    99:84:73:93:eb:de:a0:9a:ba:de:70:3e:c5:e1:fa:
                    cc:64:6d:f0:5b:e5:40:50:3a:e7:fe:a0:23:33:17:
                    e1:1a:8a:c7:77:ce:c6:71:15:3d:44:fa:51:2a:2d:
                    2c:4f:d8:bc:1c:06:b8:dd:ad:a2:c5:be:ae:87:fb:
                    e6:1a:e7:d5:8f:86:64:5b:11:e5:cc:c8:97:12:e8:
                    6a:eb:c7:c6:cf:8e:7a:43:aa:81:f2:5d:d9:69:2a:
                    e2:4d:19:79:c3:67:24:6e:98:54:0a:2b:c9:45:96:
                    7d:c9
                Exponent: 65537 (0x10001)
        X509v3 extensions:
            X509v3 Basic Constraints: 
                CA:FALSE
            X509v3 Subject Key Identifier: 
                F3:AD:7B:04:5A:15:25:DE:68:51:4B:D4:13:FD:5D:12:91:FC:64:FE
            X509v3 Authority Key Identifier: 
                keyid:D7:7F:6E:90:77:F9:6E:51:87:BE:3F:B0:96:12:9A:43:1E:47:22:1F
                DirName:/CN=team203-net
                serial:33:94:9F:08:6D:5B:1E:4E:C2:46:D1:0C:EA:A0:B8:72:A6:B1:EF:77

            X509v3 Extended Key Usage: 
                TLS Web Server Authentication
            X509v3 Key Usage: 
                Digital Signature, Key Encipherment
            X509v3 Subject Alternative Name: 
                DNS:team203-server
    Signature Algorithm: sha256WithRSAEncryption
         a9:f7:60:25:41:4d:1c:5f:c3:75:1f:f9:f0:67:5f:d7:71:44:
         b1:90:ac:f2:01:03:27:62:db:57:bf:e2:90:5d:8e:ee:e9:8f:
         06:17:7c:30:d7:bf:9f:c8:63:e9:08:1f:51:ec:7d:14:87:ef:
         77:ba:bf:ca:f4:43:12:ab:1f:45:6f:c3:cc:00:76:ab:1f:15:
         18:8f:f2:0f:96:31:4a:1a:75:2b:93:b8:7a:b9:12:15:2f:1b:
         be:48:39:29:28:89:58:72:30:bc:6b:57:cb:39:e6:24:39:32:
         56:8d:cf:60:d6:1d:09:28:cd:24:2d:26:51:9e:36:08:3a:9b:
         50:7e:76:b9:a7:95:bf:5b:42:0d:ef:40:90:9d:8f:72:e8:7e:
         d0:37:b2:f8:9e:79:d8:ad:a2:00:b3:6d:0d:e0:c0:f6:f3:cf:
         5f:f2:8d:c6:9e:31:ba:b7:13:18:7e:73:07:cc:42:f1:dc:fc:
         c0:a6:14:29:94:7e:e5:fe:26:0f:b8:73:51:71:f1:7e:c3:80:
         5e:ca:58:4c:f3:77:1f:aa:d8:7e:4f:67:5a:77:b0:45:97:9a:
         62:55:05:08:76:20:2e:87:cd:13:a1:7d:74:00:29:ac:ed:58:
         6f:54:47:b3:6f:1b:17:cd:38:a7:56:5d:d8:3e:93:1a:6e:3b:
         63:78:8c:be
-----BEGIN CERTIFICATE-----
MIIDeDCCAmCgAwIBAgIRAIjtf+o/jCX/B++RZRNuntQwDQYJKoZIhvcNAQELBQAw
FjEUMBIGA1UEAwwLdGVhbTIwMy1uZXQwHhcNMjMwODE0MTQyNjI0WhcNMjYwNzI5
MTQyNjI0WjAZMRcwFQYDVQQDDA50ZWFtMjAzLXNlcnZlcjCCASIwDQYJKoZIhvcN
AQEBBQADggEPADCCAQoCggEBAK+PgX/VLFPHa7snJtkAcquEiqKNp00m+se4UOtc
DtZvUPCvWYAGO+BHYF0/0wR0mmNdOmPypqXqImj3UZS+EeEo6bruPSzo0woTu0IF
h/QoFK97asoyN0cH9jj8QKtgfoKbgv1WnIotIvQbj+Fk7ey/Mc3Z7vtMxQRyUQXb
8Qc7bH6FC86OajoH+L2EVT5BzdYbSd8TmYRzk+veoJq63nA+xeH6zGRt8FvlQFA6
5/6gIzMX4RqKx3fOxnEVPUT6USotLE/YvBwGuN2tosW+rof75hrn1Y+GZFsR5czI
lxLoauvHxs+OekOqgfJd2Wkq4k0ZecNnJG6YVAoryUWWfckCAwEAAaOBvTCBujAJ
BgNVHRMEAjAAMB0GA1UdDgQWBBTzrXsEWhUl3mhRS9QT/V0Skfxk/jBRBgNVHSME
SjBIgBTXf26Qd/luUYe+P7CWEppDHkciH6EapBgwFjEUMBIGA1UEAwwLdGVhbTIw
My1uZXSCFDOUnwhtWx5OwkbRDOqguHKmse93MBMGA1UdJQQMMAoGCCsGAQUFBwMB
MAsGA1UdDwQEAwIFoDAZBgNVHREEEjAQgg50ZWFtMjAzLXNlcnZlcjANBgkqhkiG
9w0BAQsFAAOCAQEAqfdgJUFNHF/DdR/58Gdf13FEsZCs8gEDJ2LbV7/ikF2O7umP
Bhd8MNe/n8hj6QgfUex9FIfvd7q/yvRDEqsfRW/DzAB2qx8VGI/yD5YxShp1K5O4
erkSFS8bvkg5KSiJWHIwvGtXyznmJDkyVo3PYNYdCSjNJC0mUZ42CDqbUH52uaeV
v1tCDe9AkJ2Pcuh+0Dey+J552K2iALNtDeDA9vPPX/KNxp4xurcTGH5zB8xC8dz8
wKYUKZR+5f4mD7hzUXHxfsOAXspYTPN3H6rYfk9nWnewRZeaYlUFCHYgLofNE6F9
dAAprO1Yb1RHs28bF804p1Zd2D6TGm47Y3iMvg==
-----END CERTIFICATE-----
