Certificate:
    Data:
        Version: 3 (0x2)
        Serial Number:
            82:e4:25:80:42:bf:85:ba:16:7b:b7:28:3d:09:6f:5a
        Signature Algorithm: sha256WithRSAEncryption
        Issuer: CN=team294-net
        Validity
            Not Before: Aug 14 14:28:17 2023 GMT
            Not After : Jul 29 14:28:17 2026 GMT
        Subject: CN=team294-client
        Subject Public Key Info:
            Public Key Algorithm: rsaEncryption
                RSA Public-Key: (2048 bit)
                Modulus:
                    00:c6:bc:d8:ee:06:49:16:ff:e4:9a:2c:e0:9c:9d:
                    4b:8b:07:a3:84:c9:3b:13:fd:86:a1:09:11:9d:ac:
                    ab:b4:81:7e:09:51:3c:f1:62:5c:96:40:02:08:85:
                    1d:d5:1a:2a:ec:15:a4:ba:5f:8c:9c:c9:d4:d2:9d:
                    cf:51:09:3f:cc:6a:14:ae:0b:81:83:e5:d2:c4:93:
                    80:a3:c5:ea:b4:fc:f2:f8:58:48:96:9f:50:60:f7:
                    e9:7e:12:4c:6b:fa:46:be:7e:ae:65:a0:41:42:96:
                    98:49:9c:11:80:dd:f6:86:c5:e8:f0:0f:43:44:54:
                    68:d6:95:b5:c7:22:85:ce:2c:cc:0c:61:a4:d4:a5:
                    9e:ba:58:fe:f5:6f:19:c4:9a:aa:b1:ef:8a:aa:0f:
                    f2:74:55:45:8c:28:93:d8:65:ff:87:5a:7e:88:4a:
                    6d:b4:59:7d:f7:71:28:6b:4b:4f:0f:6f:27:e5:27:
                    d1:15:09:d7:2e:f1:a0:9c:aa:59:ca:61:43:b0:2f:
                    58:3b:bb:a3:28:10:21:51:03:65:24:5c:0f:b9:21:
                    b4:4f:18:eb:35:3d:0e:4a:24:52:7a:0c:75:21:1c:
                    05:27:70:07:65:52:66:48:9a:6e:f4:1e:92:10:ea:
                    db:2f:04:b3:9c:49:17:c4:87:37:30:cf:16:62:57:
                    e6:b3
                Exponent: 65537 (0x10001)
        X509v3 extensions:
            X509v3 Basic Constraints: 
                CA:FALSE
            X509v3 Subject Key Identifier: 
                EC:0D:68:69:51:E1:E5:80:14:92:80:16:2C:C1:65:EA:41:F9:A1:6E
            X509v3 Authority Key Identifier: 
                keyid:EB:47:12:39:EB:1A:22:E0:C0:7A:90:44:02:E7:2B:9F:21:0A:94:0C
                DirName:/CN=team294-net
                serial:62:46:F7:CB:4D:E2:C7:9B:1C:3C:A1:47:1F:92:11:72:80:E2:D7:6C

            X509v3 Extended Key Usage: 
                TLS Web Client Authentication
            X509v3 Key Usage: 
                Digital Signature
    Signature Algorithm: sha256WithRSAEncryption
         82:66:60:ce:fe:28:39:5d:62:b4:38:a2:b8:81:bb:6b:92:e6:
         a3:91:84:24:d9:20:87:ad:08:54:96:4a:8c:1b:2a:76:5a:7d:
         0d:90:18:30:f9:6e:5c:53:12:25:11:64:d2:e5:6f:88:73:e2:
         54:6c:70:99:0f:b0:7a:6a:5d:f6:24:4f:db:dc:b8:ed:fd:23:
         ef:ba:05:67:21:83:f5:c0:77:73:57:41:78:62:0e:40:01:34:
         e4:d8:7f:3d:6b:be:e1:e8:cf:18:be:39:4f:83:66:10:61:12:
         02:8e:89:09:9e:fb:1c:28:1d:56:7f:6b:20:de:94:6b:33:01:
         80:d8:44:1f:ac:2e:4f:ea:68:8d:d8:de:a0:56:71:c4:98:27:
         94:ed:2a:90:c4:13:d1:8c:46:f7:f6:30:f0:9e:d3:ed:bf:2c:
         4d:db:6c:14:62:f3:ba:d7:13:fb:f5:1d:fa:ec:14:e6:b9:ef:
         c9:c6:67:20:72:6d:10:2c:17:af:db:28:07:8d:90:e3:ac:47:
         9a:2c:c0:d0:bb:f5:52:f3:fa:cf:88:eb:94:ef:f1:ea:15:1d:
         28:20:3c:16:8f:33:f2:3c:73:aa:27:cf:f1:44:6a:75:32:ce:
         60:56:cc:fa:0c:2a:6d:3a:ac:99:98:b2:b6:91:ae:28:42:cf:
         98:4e:65:74
-----BEGIN CERTIFICATE-----
MIIDXTCCAkWgAwIBAgIRAILkJYBCv4W6Fnu3KD0Jb1owDQYJKoZIhvcNAQELBQAw
FjEUMBIGA1UEAwwLdGVhbTI5NC1uZXQwHhcNMjMwODE0MTQyODE3WhcNMjYwNzI5
MTQyODE3WjAZMRcwFQYDVQQDDA50ZWFtMjk0LWNsaWVudDCCASIwDQYJKoZIhvcN
AQEBBQADggEPADCCAQoCggEBAMa82O4GSRb/5Jos4JydS4sHo4TJOxP9hqEJEZ2s
q7SBfglRPPFiXJZAAgiFHdUaKuwVpLpfjJzJ1NKdz1EJP8xqFK4LgYPl0sSTgKPF
6rT88vhYSJafUGD36X4STGv6Rr5+rmWgQUKWmEmcEYDd9obF6PAPQ0RUaNaVtcci
hc4szAxhpNSlnrpY/vVvGcSaqrHviqoP8nRVRYwok9hl/4dafohKbbRZffdxKGtL
Tw9vJ+Un0RUJ1y7xoJyqWcphQ7AvWDu7oygQIVEDZSRcD7khtE8Y6zU9DkokUnoM
dSEcBSdwB2VSZkiabvQekhDq2y8Es5xJF8SHNzDPFmJX5rMCAwEAAaOBojCBnzAJ
BgNVHRMEAjAAMB0GA1UdDgQWBBTsDWhpUeHlgBSSgBYswWXqQfmhbjBRBgNVHSME
SjBIgBTrRxI56xoi4MB6kEQC5yufIQqUDKEapBgwFjEUMBIGA1UEAwwLdGVhbTI5
NC1uZXSCFGJG98tN4sebHDyhRx+SEXKA4tdsMBMGA1UdJQQMMAoGCCsGAQUFBwMC
MAsGA1UdDwQEAwIHgDANBgkqhkiG9w0BAQsFAAOCAQEAgmZgzv4oOV1itDiiuIG7
a5Lmo5GEJNkgh60IVJZKjBsqdlp9DZAYMPluXFMSJRFk0uVviHPiVGxwmQ+wempd
9iRP29y47f0j77oFZyGD9cB3c1dBeGIOQAE05Nh/PWu+4ejPGL45T4NmEGESAo6J
CZ77HCgdVn9rIN6UazMBgNhEH6wuT+pojdjeoFZxxJgnlO0qkMQT0YxG9/Yw8J7T
7b8sTdtsFGLzutcT+/Ud+uwU5rnvycZnIHJtECwXr9soB42Q46xHmizA0Lv1UvP6
z4jrlO/x6hUdKCA8Fo8z8jxzqifP8URqdTLOYFbM+gwqbTqsmZiytpGuKELPmE5l
dA==
-----END CERTIFICATE-----
