Certificate:
    Data:
        Version: 3 (0x2)
        Serial Number:
            30:f8:d8:3f:99:c3:12:e1:21:fe:87:81:5a:46:0e:93
        Signature Algorithm: sha256WithRSAEncryption
        Issuer: CN=team248-net
        Validity
            Not Before: Aug 14 14:27:17 2023 GMT
            Not After : Jul 29 14:27:17 2026 GMT
        Subject: CN=team248-client
        Subject Public Key Info:
            Public Key Algorithm: rsaEncryption
                RSA Public-Key: (2048 bit)
                Modulus:
                    00:e3:90:7d:a3:7c:bc:7f:90:73:bf:00:aa:8d:ae:
                    73:8b:99:0a:7e:8d:7d:1f:d4:5c:49:ab:a6:5b:d6:
                    20:dc:96:6a:94:c0:a4:d8:30:95:90:3a:bc:46:6f:
                    f1:f7:bf:fc:85:2a:ed:29:31:dd:f8:70:00:f3:b7:
                    95:eb:e7:38:5e:a4:53:fc:61:c0:fd:8e:40:64:7d:
                    a6:ad:ce:4d:45:91:db:90:38:21:c5:60:38:ae:be:
                    67:66:a1:44:8a:be:87:b4:b2:f2:75:ee:f0:af:b5:
                    c1:fb:2b:18:21:f5:11:be:cf:41:47:4d:6d:14:4a:
                    2f:30:ad:9f:24:f1:4c:e4:1c:8a:e6:db:6f:02:d5:
                    c7:3e:47:22:a5:e9:25:a3:81:15:4a:83:69:24:99:
                    5b:f2:12:42:e8:17:83:66:d3:cb:da:9a:5c:af:57:
                    c8:be:f4:b6:da:e6:dc:73:b4:5e:d7:0d:5e:5a:ca:
                    6a:4a:8b:ca:65:14:b2:90:64:50:4d:91:9d:4f:b5:
                    c2:c9:4e:0b:bb:1d:18:83:b8:3b:81:9b:e6:1f:77:
                    76:70:88:46:e0:3b:26:d6:49:af:f1:d8:1c:97:ab:
                    49:af:6d:2c:15:f1:34:b6:e9:4c:b5:90:9a:64:03:
                    e8:a0:9b:83:af:72:4a:04:6f:27:3b:1d:7e:d9:5f:
                    59:2f
                Exponent: 65537 (0x10001)
        X509v3 extensions:
            X509v3 Basic Constraints: 
                CA:FALSE
            X509v3 Subject Key Identifier: 
                68:8D:86:69:47:E5:56:69:1A:F7:3C:77:9B:32:74:5C:9B:72:68:A5
            X509v3 Authority Key Identifier: 
                keyid:8A:03:75:FA:DC:3B:02:8A:FB:07:CF:4F:0A:CE:11:A1:E2:52:54:8F
                DirName:/CN=team248-net
                serial:66:CB:92:D2:C5:2F:FF:4D:11:E4:4B:B2:A8:BA:96:89:DE:D6:5B:EF

            X509v3 Extended Key Usage: 
                TLS Web Client Authentication
            X509v3 Key Usage: 
                Digital Signature
    Signature Algorithm: sha256WithRSAEncryption
         5f:2f:b2:28:c1:60:2b:a5:2b:89:7d:be:f0:6f:40:19:a5:ee:
         93:95:85:1e:d2:43:fb:88:b5:aa:f4:45:71:ec:fa:5f:d6:0f:
         bd:67:fd:b3:a4:45:27:0a:42:1c:5b:72:aa:b8:bd:55:a1:8b:
         f3:da:53:8e:b3:af:c0:4a:0e:f2:bc:40:9b:7a:6c:ce:8c:d8:
         92:b5:67:57:de:f6:6e:3a:4c:d7:5b:6e:38:4b:6d:24:5a:eb:
         89:a5:9c:c3:4a:9d:05:83:cb:8e:b3:3e:14:09:2b:41:8a:87:
         b9:61:a7:00:1c:97:1d:b9:d4:7f:b9:c3:d5:f9:05:28:58:78:
         19:6f:b6:4d:b9:4a:05:9d:d6:a9:ad:bc:a0:ab:14:ab:8c:30:
         63:74:2d:d5:2d:5d:9e:0d:f1:b0:70:f7:ba:f4:da:d4:b0:db:
         4a:41:63:ef:d4:e7:98:ea:4a:71:61:bc:90:db:15:7a:46:f9:
         73:76:3b:d2:b7:fd:d1:89:7f:a0:36:21:ff:ff:7e:20:99:7d:
         2a:aa:ef:4c:fa:a4:bc:eb:2a:dc:f5:a5:de:8a:1d:92:2e:ea:
         2f:32:81:41:4b:e2:04:d0:9a:a1:82:8d:37:d2:ad:b8:3d:76:
         6d:61:c0:bd:51:f3:44:42:64:e1:f9:a3:14:fe:81:5a:82:85:
         18:bd:ed:35
-----BEGIN CERTIFICATE-----
MIIDXDCCAkSgAwIBAgIQMPjYP5nDEuEh/oeBWkYOkzANBgkqhkiG9w0BAQsFADAW
MRQwEgYDVQQDDAt0ZWFtMjQ4LW5ldDAeFw0yMzA4MTQxNDI3MTdaFw0yNjA3Mjkx
NDI3MTdaMBkxFzAVBgNVBAMMDnRlYW0yNDgtY2xpZW50MIIBIjANBgkqhkiG9w0B
AQEFAAOCAQ8AMIIBCgKCAQEA45B9o3y8f5BzvwCqja5zi5kKfo19H9RcSaumW9Yg
3JZqlMCk2DCVkDq8Rm/x97/8hSrtKTHd+HAA87eV6+c4XqRT/GHA/Y5AZH2mrc5N
RZHbkDghxWA4rr5nZqFEir6HtLLyde7wr7XB+ysYIfURvs9BR01tFEovMK2fJPFM
5ByK5ttvAtXHPkcipeklo4EVSoNpJJlb8hJC6BeDZtPL2ppcr1fIvvS22ubcc7Re
1w1eWspqSovKZRSykGRQTZGdT7XCyU4Lux0Yg7g7gZvmH3d2cIhG4Dsm1kmv8dgc
l6tJr20sFfE0tulMtZCaZAPooJuDr3JKBG8nOx1+2V9ZLwIDAQABo4GiMIGfMAkG
A1UdEwQCMAAwHQYDVR0OBBYEFGiNhmlH5VZpGvc8d5sydFybcmilMFEGA1UdIwRK
MEiAFIoDdfrcOwKK+wfPTwrOEaHiUlSPoRqkGDAWMRQwEgYDVQQDDAt0ZWFtMjQ4
LW5ldIIUZsuS0sUv/00R5EuyqLqWid7WW+8wEwYDVR0lBAwwCgYIKwYBBQUHAwIw
CwYDVR0PBAQDAgeAMA0GCSqGSIb3DQEBCwUAA4IBAQBfL7IowWArpSuJfb7wb0AZ
pe6TlYUe0kP7iLWq9EVx7Ppf1g+9Z/2zpEUnCkIcW3KquL1VoYvz2lOOs6/ASg7y
vECbemzOjNiStWdX3vZuOkzXW244S20kWuuJpZzDSp0Fg8uOsz4UCStBioe5YacA
HJcdudR/ucPV+QUoWHgZb7ZNuUoFndaprbygqxSrjDBjdC3VLV2eDfGwcPe69NrU
sNtKQWPv1OeY6kpxYbyQ2xV6RvlzdjvSt/3RiX+gNiH//34gmX0qqu9M+qS86yrc
9aXeih2SLuovMoFBS+IE0Jqhgo030q24PXZtYcC9UfNEQmTh+aMU/oFagoUYve01
-----END CERTIFICATE-----
