Certificate:
    Data:
        Version: 3 (0x2)
        Serial Number:
            c5:a9:b9:b3:f8:4d:a0:6a:a4:2c:46:e8:08:c4:3e:aa
        Signature Algorithm: sha256WithRSAEncryption
        Issuer: CN=team248-net
        Validity
            Not Before: Aug 14 14:27:18 2023 GMT
            Not After : Jul 29 14:27:18 2026 GMT
        Subject: CN=team248-server
        Subject Public Key Info:
            Public Key Algorithm: rsaEncryption
                RSA Public-Key: (2048 bit)
                Modulus:
                    00:a7:b0:cd:47:ad:e8:5e:74:0a:31:3c:de:d8:ec:
                    1a:e8:6e:dc:63:04:47:21:b8:30:92:71:03:6f:f0:
                    19:73:30:8a:6c:86:a7:32:12:1c:de:6b:9c:fc:c4:
                    a3:1e:ce:98:c5:a8:a4:3f:5c:db:aa:8a:ec:13:61:
                    bb:3c:6f:22:7d:aa:45:83:7a:d9:17:e9:89:fd:6f:
                    36:fd:28:44:43:65:76:e1:01:f2:0e:45:6b:d0:35:
                    2f:cf:3c:d5:1a:6c:45:db:31:5d:be:2e:9e:95:e8:
                    7e:10:d3:2d:7b:d9:1d:35:9e:90:66:2a:74:af:33:
                    a4:91:40:2c:4e:0f:f1:b4:3c:c4:77:5e:75:77:65:
                    8f:da:23:72:90:cd:6c:26:0c:0d:fe:b3:9d:b9:fc:
                    b9:e5:44:5d:07:ca:7f:81:2a:d0:c9:31:55:03:4f:
                    55:e7:07:13:ef:68:a2:07:2a:bf:3a:ff:14:e8:7e:
                    7a:a5:e9:e5:2f:d0:01:47:9e:89:85:b0:90:96:7d:
                    b2:3d:6a:58:0a:bf:46:d3:3e:bd:80:cf:35:35:87:
                    75:da:75:a6:fc:35:26:20:d5:6e:6b:77:72:bf:a2:
                    15:f3:86:a1:69:23:b9:f8:14:b5:4c:c8:88:f3:88:
                    35:2b:fb:ef:2a:ff:b2:f8:31:97:b8:67:b8:32:4c:
                    c8:e3
                Exponent: 65537 (0x10001)
        X509v3 extensions:
            X509v3 Basic Constraints: 
                CA:FALSE
            X509v3 Subject Key Identifier: 
                8C:DD:78:D8:7B:6E:62:D9:11:2A:94:B6:16:11:68:6A:8F:29:B7:57
            X509v3 Authority Key Identifier: 
                keyid:8A:03:75:FA:DC:3B:02:8A:FB:07:CF:4F:0A:CE:11:A1:E2:52:54:8F
                DirName:/CN=team248-net
                serial:66:CB:92:D2:C5:2F:FF:4D:11:E4:4B:B2:A8:BA:96:89:DE:D6:5B:EF

            X509v3 Extended Key Usage: 
                TLS Web Server Authentication
            X509v3 Key Usage: 
                Digital Signature, Key Encipherment
            X509v3 Subject Alternative Name: 
                DNS:team248-server
    Signature Algorithm: sha256WithRSAEncryption
         db:a4:ad:0c:ac:43:c6:d7:8d:1b:c5:31:94:1b:6b:73:97:91:
         47:5d:e7:cc:e0:7b:8e:44:6a:b6:eb:0d:a5:76:b5:fe:ae:23:
         1e:5c:f3:8f:1f:a8:6d:e7:d4:cd:78:72:8f:e6:77:68:86:dc:
         6f:3d:b0:55:cb:a9:43:26:f9:a1:4c:45:f1:04:c7:1a:d7:4f:
         bf:17:7c:c9:dd:f0:b8:e3:d0:28:0b:6f:e3:1a:f0:1d:99:bd:
         7b:c4:e6:ce:d8:97:33:70:9f:d2:b6:05:8d:e8:dd:56:9c:50:
         80:71:e6:58:54:6e:f9:68:f4:1e:c4:0d:dc:65:e6:00:11:e5:
         fe:8c:c8:79:a6:de:17:63:7b:24:c3:21:df:1b:75:37:e0:c8:
         9f:4d:2b:b0:0c:0f:3b:c1:d6:aa:f7:9e:79:20:5a:1d:28:a7:
         cd:b7:fd:a0:a9:ac:86:39:e1:e0:c5:6d:34:51:15:1d:ae:41:
         a6:95:91:5d:18:91:d2:a2:96:78:79:c3:f1:8e:4c:08:55:d6:
         b7:8a:14:98:d0:82:03:c4:74:33:98:4e:5f:9d:3b:d2:ac:7b:
         83:28:7b:94:df:30:52:54:a1:fa:3b:c3:3a:13:8f:2a:53:0c:
         4a:30:06:57:84:7c:17:ea:c2:ea:a9:7f:83:55:c7:20:b4:45:
         96:6d:84:dd
-----BEGIN CERTIFICATE-----
MIIDeDCCAmCgAwIBAgIRAMWpubP4TaBqpCxG6AjEPqowDQYJKoZIhvcNAQELBQAw
FjEUMBIGA1UEAwwLdGVhbTI0OC1uZXQwHhcNMjMwODE0MTQyNzE4WhcNMjYwNzI5
MTQyNzE4WjAZMRcwFQYDVQQDDA50ZWFtMjQ4LXNlcnZlcjCCASIwDQYJKoZIhvcN
AQEBBQADggEPADCCAQoCggEBAKewzUet6F50CjE83tjsGuhu3GMERyG4MJJxA2/w
GXMwimyGpzISHN5rnPzEox7OmMWopD9c26qK7BNhuzxvIn2qRYN62Rfpif1vNv0o
RENlduEB8g5Fa9A1L8881RpsRdsxXb4unpXofhDTLXvZHTWekGYqdK8zpJFALE4P
8bQ8xHdedXdlj9ojcpDNbCYMDf6znbn8ueVEXQfKf4Eq0MkxVQNPVecHE+9oogcq
vzr/FOh+eqXp5S/QAUeeiYWwkJZ9sj1qWAq/RtM+vYDPNTWHddp1pvw1JiDVbmt3
cr+iFfOGoWkjufgUtUzIiPOINSv77yr/svgxl7hnuDJMyOMCAwEAAaOBvTCBujAJ
BgNVHRMEAjAAMB0GA1UdDgQWBBSM3XjYe25i2REqlLYWEWhqjym3VzBRBgNVHSME
SjBIgBSKA3X63DsCivsHz08KzhGh4lJUj6EapBgwFjEUMBIGA1UEAwwLdGVhbTI0
OC1uZXSCFGbLktLFL/9NEeRLsqi6lone1lvvMBMGA1UdJQQMMAoGCCsGAQUFBwMB
MAsGA1UdDwQEAwIFoDAZBgNVHREEEjAQgg50ZWFtMjQ4LXNlcnZlcjANBgkqhkiG
9w0BAQsFAAOCAQEA26StDKxDxteNG8UxlBtrc5eRR13nzOB7jkRqtusNpXa1/q4j
Hlzzjx+obefUzXhyj+Z3aIbcbz2wVcupQyb5oUxF8QTHGtdPvxd8yd3wuOPQKAtv
4xrwHZm9e8TmztiXM3Cf0rYFjejdVpxQgHHmWFRu+Wj0HsQN3GXmABHl/ozIeabe
F2N7JMMh3xt1N+DIn00rsAwPO8HWqveeeSBaHSinzbf9oKmshjnh4MVtNFEVHa5B
ppWRXRiR0qKWeHnD8Y5MCFXWt4oUmNCCA8R0M5hOX5070qx7gyh7lN8wUlSh+jvD
OhOPKlMMSjAGV4R8F+rC6ql/g1XHILRFlm2E3Q==
-----END CERTIFICATE-----
