Certificate:
    Data:
        Version: 3 (0x2)
        Serial Number:
            9d:bc:2a:6b:c3:70:fb:b2:73:98:e4:e8:1d:4e:cf:34
        Signature Algorithm: sha256WithRSAEncryption
        Issuer: CN=team260-net
        Validity
            Not Before: Aug 14 14:27:31 2023 GMT
            Not After : Jul 29 14:27:31 2026 GMT
        Subject: CN=team260-client
        Subject Public Key Info:
            Public Key Algorithm: rsaEncryption
                RSA Public-Key: (2048 bit)
                Modulus:
                    00:ce:76:9a:52:65:fa:ab:c5:2a:7a:b7:c7:a9:de:
                    22:82:1d:09:f2:c2:a3:34:e6:f2:a0:02:8a:11:96:
                    cf:19:e2:39:9a:f2:a0:48:56:90:5a:f4:52:20:38:
                    f2:d0:f4:36:92:3a:fa:20:ff:e5:8e:01:cf:51:e1:
                    94:89:57:0f:a6:1d:cb:a7:5b:db:26:77:bc:7a:42:
                    0a:23:1d:e5:b4:48:fc:31:03:bc:26:45:47:f6:04:
                    22:ce:ba:c0:3e:47:e5:40:76:2a:6e:a6:b9:ce:69:
                    b6:1d:5e:b1:c8:ae:b2:47:0e:02:1d:8f:ec:69:c7:
                    db:f9:a4:e6:fa:0a:2d:d2:83:bf:d9:96:70:64:bc:
                    f2:a6:dc:b5:af:8f:4e:f5:d6:10:70:f5:9b:61:a5:
                    2a:cd:98:93:a9:65:03:ab:f3:04:03:ef:d3:33:64:
                    49:b7:f2:36:18:9e:d8:b6:0f:dc:6c:10:bc:7f:ec:
                    35:db:d6:0a:a0:bd:fc:28:5e:5c:a0:9f:b2:be:fc:
                    50:d6:81:5d:35:67:33:45:ef:6c:1a:37:3b:3f:08:
                    9a:5b:47:96:b0:6e:77:33:be:16:bf:ad:83:1d:ac:
                    48:12:ec:b6:f6:ec:de:af:74:c5:13:c4:0f:8b:bb:
                    73:6a:a5:12:9b:16:42:50:04:df:ed:17:e0:bc:dc:
                    3d:99
                Exponent: 65537 (0x10001)
        X509v3 extensions:
            X509v3 Basic Constraints: 
                CA:FALSE
            X509v3 Subject Key Identifier: 
                CF:86:20:10:04:9A:27:74:04:9E:BA:6A:5C:49:13:0A:AB:C2:19:EA
            X509v3 Authority Key Identifier: 
                keyid:9D:B3:A4:F3:2F:89:3C:47:0A:F7:ED:16:26:51:56:05:39:BC:99:38
                DirName:/CN=team260-net
                serial:50:15:43:C6:D9:F9:E1:33:BA:7C:15:8A:38:BD:86:71:59:87:2D:C8

            X509v3 Extended Key Usage: 
                TLS Web Client Authentication
            X509v3 Key Usage: 
                Digital Signature
    Signature Algorithm: sha256WithRSAEncryption
         2c:13:fb:14:ad:41:13:3f:6f:e0:74:42:c9:29:75:5b:56:0d:
         20:da:c7:58:da:9e:2b:24:de:19:94:8d:ee:a2:bc:16:c1:35:
         4d:fa:04:66:df:1e:1b:67:42:77:c9:44:7d:c2:fc:a8:99:25:
         d2:a3:97:48:e0:87:d0:55:58:d1:8d:c9:b3:85:0a:82:4e:ed:
         a1:cb:2d:ef:ee:bb:5d:43:2d:e8:af:82:75:58:4e:0a:ca:18:
         e5:ed:9d:81:7c:61:3e:91:8e:75:3a:8b:a9:dc:cc:68:4c:b4:
         9b:48:fe:84:b4:40:2e:3e:ac:26:43:8e:07:5e:c8:3d:bf:2f:
         a3:be:e4:6f:96:3f:2b:56:ab:d7:c7:06:10:93:26:05:0a:7e:
         06:32:67:b8:00:59:14:be:6e:a7:d1:eb:d0:31:3c:e6:cb:27:
         93:b3:2d:95:40:fe:32:d9:1e:96:eb:39:48:8e:b2:4a:e4:10:
         42:6c:bb:21:05:d7:cb:54:f0:b9:61:a2:60:a0:9d:5c:44:dd:
         3c:99:3b:75:2e:50:75:5a:f0:b3:76:f2:17:37:92:9b:d5:71:
         eb:9c:50:e8:a1:ea:47:8b:fc:50:7c:bf:f6:93:c0:85:7b:fe:
         43:fd:a7:3f:6b:fc:78:1f:dd:6c:76:91:18:d4:8a:13:ec:dd:
         41:e3:d3:2c
-----BEGIN CERTIFICATE-----
MIIDXTCCAkWgAwIBAgIRAJ28KmvDcPuyc5jk6B1OzzQwDQYJKoZIhvcNAQELBQAw
FjEUMBIGA1UEAwwLdGVhbTI2MC1uZXQwHhcNMjMwODE0MTQyNzMxWhcNMjYwNzI5
MTQyNzMxWjAZMRcwFQYDVQQDDA50ZWFtMjYwLWNsaWVudDCCASIwDQYJKoZIhvcN
AQEBBQADggEPADCCAQoCggEBAM52mlJl+qvFKnq3x6neIoIdCfLCozTm8qACihGW
zxniOZryoEhWkFr0UiA48tD0NpI6+iD/5Y4Bz1HhlIlXD6Ydy6db2yZ3vHpCCiMd
5bRI/DEDvCZFR/YEIs66wD5H5UB2Km6muc5pth1esciuskcOAh2P7GnH2/mk5voK
LdKDv9mWcGS88qbcta+PTvXWEHD1m2GlKs2Yk6llA6vzBAPv0zNkSbfyNhie2LYP
3GwQvH/sNdvWCqC9/CheXKCfsr78UNaBXTVnM0XvbBo3Oz8ImltHlrBudzO+Fr+t
gx2sSBLstvbs3q90xRPED4u7c2qlEpsWQlAE3+0X4LzcPZkCAwEAAaOBojCBnzAJ
BgNVHRMEAjAAMB0GA1UdDgQWBBTPhiAQBJondASeumpcSRMKq8IZ6jBRBgNVHSME
SjBIgBSds6TzL4k8Rwr37RYmUVYFObyZOKEapBgwFjEUMBIGA1UEAwwLdGVhbTI2
MC1uZXSCFFAVQ8bZ+eEzunwViji9hnFZhy3IMBMGA1UdJQQMMAoGCCsGAQUFBwMC
MAsGA1UdDwQEAwIHgDANBgkqhkiG9w0BAQsFAAOCAQEALBP7FK1BEz9v4HRCySl1
W1YNINrHWNqeKyTeGZSN7qK8FsE1TfoEZt8eG2dCd8lEfcL8qJkl0qOXSOCH0FVY
0Y3Js4UKgk7tocst7+67XUMt6K+CdVhOCsoY5e2dgXxhPpGOdTqLqdzMaEy0m0j+
hLRALj6sJkOOB17IPb8vo77kb5Y/K1ar18cGEJMmBQp+BjJnuABZFL5up9Hr0DE8
5ssnk7MtlUD+Mtkelus5SI6ySuQQQmy7IQXXy1TwuWGiYKCdXETdPJk7dS5QdVrw
s3byFzeSm9Vx65xQ6KHqR4v8UHy/9pPAhXv+Q/2nP2v8eB/dbHaRGNSKE+zdQePT
LA==
-----END CERTIFICATE-----
