Certificate:
    Data:
        Version: 3 (0x2)
        Serial Number:
            46:9c:39:f8:09:8c:d6:4f:60:2c:35:23:91:c4:75:3f
        Signature Algorithm: sha256WithRSAEncryption
        Issuer: CN=team57-net
        Validity
            Not Before: Aug 14 14:23:23 2023 GMT
            Not After : Jul 29 14:23:23 2026 GMT
        Subject: CN=team57-client
        Subject Public Key Info:
            Public Key Algorithm: rsaEncryption
                RSA Public-Key: (2048 bit)
                Modulus:
                    00:b3:15:dc:7d:1e:8e:34:22:9a:61:8a:b2:5c:04:
                    bd:79:56:3f:41:db:c4:51:5c:73:6a:be:21:eb:17:
                    9e:0f:54:cb:ae:b6:c0:fd:36:28:07:12:7b:a5:7a:
                    71:e5:ec:cc:4d:e6:70:d8:5e:ca:3d:6b:17:10:e9:
                    9d:09:4c:4f:4b:b3:a8:4f:29:d7:9d:b5:56:b5:9a:
                    61:90:8f:3f:9e:1d:36:ff:a4:fc:49:ff:71:69:e0:
                    fa:dc:97:fe:01:8e:fd:15:78:39:cd:c0:a9:c8:20:
                    8d:76:a2:65:02:5b:54:f1:56:28:d3:6d:4d:e2:5a:
                    97:0b:f8:56:ba:e2:b0:a7:e4:b2:b8:f4:48:ec:2f:
                    71:15:da:b1:01:62:a7:80:bf:d0:a5:02:ba:10:81:
                    dd:8c:36:d4:8c:6e:c3:2e:c4:51:dd:d8:fd:b1:dd:
                    48:6c:27:62:8a:f4:42:b5:c7:6e:07:a2:49:6a:75:
                    87:16:6b:c6:4a:b9:a0:fb:5f:9d:f5:7d:e0:88:f3:
                    dd:2a:12:ab:6d:40:c9:da:ac:80:11:af:63:f6:77:
                    d8:bf:f1:25:26:85:70:51:82:4b:ae:bc:65:5c:3a:
                    3d:0b:90:d9:9d:df:97:9a:63:a3:cb:d7:fb:9c:27:
                    cf:8c:f8:a1:f4:d3:e6:89:9e:f5:b4:77:cf:c2:98:
                    3c:fd
                Exponent: 65537 (0x10001)
        X509v3 extensions:
            X509v3 Basic Constraints: 
                CA:FALSE
            X509v3 Subject Key Identifier: 
                0B:41:31:52:3E:05:E4:5B:15:E5:F8:A9:A5:5B:72:9F:5D:6A:41:AD
            X509v3 Authority Key Identifier: 
                keyid:C6:76:FE:BE:E5:14:59:89:94:6D:BB:DE:E9:81:85:C5:9E:16:81:EF
                DirName:/CN=team57-net
                serial:54:92:AC:B2:FD:FE:30:8A:10:8F:0F:3A:E1:01:7E:C2:39:CB:C4:A6

            X509v3 Extended Key Usage: 
                TLS Web Client Authentication
            X509v3 Key Usage: 
                Digital Signature
    Signature Algorithm: sha256WithRSAEncryption
         49:f2:67:1b:e2:e9:f2:b2:84:05:7d:83:17:87:c3:8c:ea:f8:
         40:61:20:e8:34:07:8d:6e:c8:51:4e:91:67:90:8a:70:27:45:
         c1:66:6b:80:47:54:6a:45:55:d7:89:63:3f:a7:6c:88:12:7a:
         dd:42:a4:0b:c9:a7:c9:2b:f1:d0:9f:27:fc:32:97:af:4c:d8:
         2c:e6:76:c2:16:bf:b3:00:2b:a3:3d:21:6f:51:e0:a1:46:37:
         c2:35:a1:eb:bb:2a:21:bf:49:c8:c4:44:83:67:0b:58:f0:94:
         a3:df:ce:ed:b6:17:12:04:2f:24:52:95:60:76:3c:70:e9:8d:
         83:5a:72:ad:0a:fc:7a:fe:0f:d8:84:ed:b7:d3:d0:24:54:3e:
         4d:cc:71:28:92:88:e3:7a:f9:18:9a:f9:ee:ea:15:b9:09:10:
         24:4e:ef:e9:a0:52:52:8e:e3:ab:b6:33:c9:c3:46:95:14:cd:
         54:bb:35:5d:bc:c2:54:e3:66:b4:2a:7b:38:3d:db:61:ac:6a:
         b0:7d:49:60:e5:ed:a8:cf:0b:f9:83:98:d8:73:a5:92:7f:c6:
         12:c3:51:9d:91:97:6e:53:62:8e:8e:8d:05:2f:c7:a5:1f:0d:
         c6:27:0b:27:99:1a:6a:42:b0:b7:ec:d5:f1:ee:b6:a5:48:ae:
         25:09:94:5c
-----BEGIN CERTIFICATE-----
MIIDWTCCAkGgAwIBAgIQRpw5+AmM1k9gLDUjkcR1PzANBgkqhkiG9w0BAQsFADAV
MRMwEQYDVQQDDAp0ZWFtNTctbmV0MB4XDTIzMDgxNDE0MjMyM1oXDTI2MDcyOTE0
MjMyM1owGDEWMBQGA1UEAwwNdGVhbTU3LWNsaWVudDCCASIwDQYJKoZIhvcNAQEB
BQADggEPADCCAQoCggEBALMV3H0ejjQimmGKslwEvXlWP0HbxFFcc2q+IesXng9U
y662wP02KAcSe6V6ceXszE3mcNheyj1rFxDpnQlMT0uzqE8p1521VrWaYZCPP54d
Nv+k/En/cWng+tyX/gGO/RV4Oc3AqcggjXaiZQJbVPFWKNNtTeJalwv4VrrisKfk
srj0SOwvcRXasQFip4C/0KUCuhCB3Yw21Ixuwy7EUd3Y/bHdSGwnYor0QrXHbgei
SWp1hxZrxkq5oPtfnfV94Ijz3SoSq21AydqsgBGvY/Z32L/xJSaFcFGCS668ZVw6
PQuQ2Z3fl5pjo8vX+5wnz4z4ofTT5ome9bR3z8KYPP0CAwEAAaOBoTCBnjAJBgNV
HRMEAjAAMB0GA1UdDgQWBBQLQTFSPgXkWxXl+KmlW3KfXWpBrTBQBgNVHSMESTBH
gBTGdv6+5RRZiZRtu97pgYXFnhaB76EZpBcwFTETMBEGA1UEAwwKdGVhbTU3LW5l
dIIUVJKssv3+MIoQjw864QF+wjnLxKYwEwYDVR0lBAwwCgYIKwYBBQUHAwIwCwYD
VR0PBAQDAgeAMA0GCSqGSIb3DQEBCwUAA4IBAQBJ8mcb4unysoQFfYMXh8OM6vhA
YSDoNAeNbshRTpFnkIpwJ0XBZmuAR1RqRVXXiWM/p2yIEnrdQqQLyafJK/HQnyf8
MpevTNgs5nbCFr+zACujPSFvUeChRjfCNaHruyohv0nIxESDZwtY8JSj387tthcS
BC8kUpVgdjxw6Y2DWnKtCvx6/g/YhO2309AkVD5NzHEokojjevkYmvnu6hW5CRAk
Tu/poFJSjuOrtjPJw0aVFM1UuzVdvMJU42a0Kns4PdthrGqwfUlg5e2ozwv5g5jY
c6WSf8YSw1GdkZduU2KOjo0FL8elHw3GJwsnmRpqQrC37NXx7ralSK4lCZRc
-----END CERTIFICATE-----
