Certificate:
    Data:
        Version: 3 (0x2)
        Serial Number:
            73:1f:d7:6c:2e:24:b7:c4:ac:e9:12:54:fb:bd:23:2e
        Signature Algorithm: sha256WithRSAEncryption
        Issuer: CN=team76-net
        Validity
            Not Before: Aug 14 14:23:44 2023 GMT
            Not After : Jul 29 14:23:44 2026 GMT
        Subject: CN=team76-client
        Subject Public Key Info:
            Public Key Algorithm: rsaEncryption
                RSA Public-Key: (2048 bit)
                Modulus:
                    00:cf:01:82:2f:71:c9:13:b2:7f:21:99:9e:a0:90:
                    d1:be:23:6e:07:6c:27:e5:a6:17:7b:6d:a7:c9:d5:
                    5f:54:3e:66:29:5a:56:1b:c5:6b:ee:31:10:89:6c:
                    95:60:c2:27:e6:66:a0:96:7f:fa:d9:52:e6:a1:83:
                    90:cc:b0:3c:8a:aa:bc:74:e6:9b:55:d2:9d:e2:16:
                    8e:de:42:72:5d:f3:ca:fc:51:f9:d2:f2:37:d9:fb:
                    ca:6e:4d:b0:12:81:4b:43:04:20:7f:e7:eb:67:ec:
                    5b:8a:bb:57:33:15:83:e1:d8:45:41:46:17:8b:49:
                    99:5b:40:eb:bc:d9:38:72:b9:d1:30:bb:7d:c5:cf:
                    71:b0:8f:0a:8f:b7:9d:82:b5:47:e7:aa:c4:a6:54:
                    5f:96:5f:82:01:45:8f:7e:71:c6:ac:df:a0:5b:71:
                    5e:ce:22:cb:45:49:c4:b0:08:c1:81:17:90:48:ff:
                    a3:d8:ce:9d:92:5f:6f:f3:dc:fc:06:8d:b3:15:88:
                    12:98:dc:4b:84:c3:ac:09:86:95:a9:a4:d5:cf:dc:
                    f5:92:11:56:70:b2:d4:a0:7c:a9:eb:cc:ee:ad:ef:
                    d3:df:d4:a0:9a:25:a6:7a:38:09:3a:6a:8c:5f:c4:
                    0e:12:5c:53:b9:8a:10:cd:83:f8:4c:c4:b7:13:f4:
                    93:b3
                Exponent: 65537 (0x10001)
        X509v3 extensions:
            X509v3 Basic Constraints: 
                CA:FALSE
            X509v3 Subject Key Identifier: 
                97:9A:70:53:74:8C:3A:5F:09:43:24:19:5E:85:41:91:BB:A8:38:86
            X509v3 Authority Key Identifier: 
                keyid:3E:5A:D6:98:92:D7:2E:F4:4E:B7:0A:8C:66:4B:3B:4A:9A:AF:F2:0A
                DirName:/CN=team76-net
                serial:78:21:D8:1A:9D:3B:C9:9E:77:0B:23:B5:F7:C9:99:F4:66:DC:E0:2F

            X509v3 Extended Key Usage: 
                TLS Web Client Authentication
            X509v3 Key Usage: 
                Digital Signature
    Signature Algorithm: sha256WithRSAEncryption
         69:09:ab:77:d7:10:25:a5:f4:d6:6e:d4:26:26:77:cd:71:47:
         9e:db:22:28:16:f8:27:a7:ef:82:9e:2b:5e:30:c7:10:eb:67:
         72:4a:0b:49:0b:ec:a7:3c:b4:12:51:ec:58:b2:91:cd:b4:f6:
         55:11:91:dc:9a:9f:a1:e9:fe:f5:d2:79:c1:44:d7:fe:d5:10:
         12:96:38:96:4d:e2:df:7e:6c:fb:69:d7:36:f0:2d:cf:6e:94:
         96:d4:fd:7c:b8:07:84:6a:21:f9:cb:3a:71:07:4d:50:e2:4c:
         96:7e:21:6b:49:7f:77:8d:b7:6a:6a:e0:14:e4:2e:b5:fe:9d:
         63:40:52:65:0d:ac:05:42:d9:f4:76:e0:63:24:5a:6c:e5:42:
         11:f0:65:0e:3f:ee:34:6d:67:d7:5a:5b:cc:4d:98:68:b4:1c:
         8a:91:a6:ed:28:9b:75:ab:c8:59:bb:dd:6f:af:15:a9:87:68:
         66:f5:90:e3:7b:f0:83:f7:fe:b9:35:cb:db:b5:c2:6a:18:83:
         9f:99:e2:86:29:6e:10:26:85:39:d3:ad:da:c5:5d:d4:c4:68:
         5d:17:4c:ad:85:43:17:00:eb:b7:65:b8:02:0c:c3:12:0a:24:
         32:57:52:9b:11:cf:36:04:d1:a0:cb:5a:2a:38:21:95:38:28:
         9e:c8:49:37
-----BEGIN CERTIFICATE-----
MIIDWTCCAkGgAwIBAgIQcx/XbC4kt8Ss6RJU+70jLjANBgkqhkiG9w0BAQsFADAV
MRMwEQYDVQQDDAp0ZWFtNzYtbmV0MB4XDTIzMDgxNDE0MjM0NFoXDTI2MDcyOTE0
MjM0NFowGDEWMBQGA1UEAwwNdGVhbTc2LWNsaWVudDCCASIwDQYJKoZIhvcNAQEB
BQADggEPADCCAQoCggEBAM8Bgi9xyROyfyGZnqCQ0b4jbgdsJ+WmF3ttp8nVX1Q+
ZilaVhvFa+4xEIlslWDCJ+ZmoJZ/+tlS5qGDkMywPIqqvHTmm1XSneIWjt5Ccl3z
yvxR+dLyN9n7ym5NsBKBS0MEIH/n62fsW4q7VzMVg+HYRUFGF4tJmVtA67zZOHK5
0TC7fcXPcbCPCo+3nYK1R+eqxKZUX5ZfggFFj35xxqzfoFtxXs4iy0VJxLAIwYEX
kEj/o9jOnZJfb/Pc/AaNsxWIEpjcS4TDrAmGlamk1c/c9ZIRVnCy1KB8qevM7q3v
09/UoJolpno4CTpqjF/EDhJcU7mKEM2D+EzEtxP0k7MCAwEAAaOBoTCBnjAJBgNV
HRMEAjAAMB0GA1UdDgQWBBSXmnBTdIw6XwlDJBlehUGRu6g4hjBQBgNVHSMESTBH
gBQ+WtaYktcu9E63CoxmSztKmq/yCqEZpBcwFTETMBEGA1UEAwwKdGVhbTc2LW5l
dIIUeCHYGp07yZ53CyO198mZ9Gbc4C8wEwYDVR0lBAwwCgYIKwYBBQUHAwIwCwYD
VR0PBAQDAgeAMA0GCSqGSIb3DQEBCwUAA4IBAQBpCat31xAlpfTWbtQmJnfNcUee
2yIoFvgnp++CniteMMcQ62dySgtJC+ynPLQSUexYspHNtPZVEZHcmp+h6f710nnB
RNf+1RASljiWTeLffmz7adc28C3PbpSW1P18uAeEaiH5yzpxB01Q4kyWfiFrSX93
jbdqauAU5C61/p1jQFJlDawFQtn0duBjJFps5UIR8GUOP+40bWfXWlvMTZhotByK
kabtKJt1q8hZu91vrxWph2hm9ZDje/CD9/65NcvbtcJqGIOfmeKGKW4QJoU5063a
xV3UxGhdF0ythUMXAOu3ZbgCDMMSCiQyV1KbEc82BNGgy1oqOCGVOCieyEk3
-----END CERTIFICATE-----
