Certificate:
    Data:
        Version: 3 (0x2)
        Serial Number:
            ac:5e:96:52:66:b0:dc:9a:3e:4f:5e:e9:57:f2:57:2d
        Signature Algorithm: sha256WithRSAEncryption
        Issuer: CN=team167-net
        Validity
            Not Before: Aug 14 14:25:43 2023 GMT
            Not After : Jul 29 14:25:43 2026 GMT
        Subject: CN=team167-server
        Subject Public Key Info:
            Public Key Algorithm: rsaEncryption
                RSA Public-Key: (2048 bit)
                Modulus:
                    00:c7:39:c9:83:a1:d7:3a:13:97:df:02:fd:3d:50:
                    ed:6d:30:44:d7:35:f2:bb:1a:3f:40:d4:23:68:dd:
                    62:74:02:99:0c:f4:e8:27:af:1a:07:72:74:fc:95:
                    00:36:e5:76:4d:ba:a2:6b:df:de:c7:04:bf:9f:e1:
                    94:4c:72:8a:43:72:b1:bb:0a:6e:c0:23:62:09:6a:
                    e8:06:b7:64:f7:ce:72:02:df:6a:21:7e:f2:b1:fb:
                    8a:c7:cd:1a:91:da:c9:74:7e:a9:d5:35:c0:ca:a9:
                    ad:d5:fc:18:59:16:3f:76:e7:ef:60:c7:68:8e:4d:
                    0c:9c:85:39:fd:3b:5d:4d:70:a2:10:d8:94:7e:e0:
                    93:49:8e:3b:6a:e4:22:89:ea:4d:87:50:ed:cd:4e:
                    92:6e:38:68:03:02:dd:45:09:b6:6a:47:cb:ce:d8:
                    3f:8c:0f:b1:fe:ad:df:9f:01:06:0f:8d:7e:2f:f1:
                    b5:53:cc:24:c8:1f:f2:65:b6:db:c8:d0:1f:f5:86:
                    a6:3b:6a:cf:d6:65:0e:9e:47:c8:64:ae:9f:87:88:
                    60:62:13:0e:b7:60:d4:e5:68:28:a3:52:02:09:a8:
                    7b:5a:77:b5:c1:71:1c:5c:51:21:60:e3:19:9a:c5:
                    38:f0:4a:96:81:8c:6f:97:61:88:5a:d2:51:dd:52:
                    8e:89
                Exponent: 65537 (0x10001)
        X509v3 extensions:
            X509v3 Basic Constraints: 
                CA:FALSE
            X509v3 Subject Key Identifier: 
                6E:D6:CC:DB:ED:5F:9C:66:96:DF:48:80:D4:95:34:E3:BD:CC:33:EB
            X509v3 Authority Key Identifier: 
                keyid:D3:5F:54:44:5F:EA:1B:42:AA:57:0C:12:DB:4E:1A:FF:26:AC:0D:97
                DirName:/CN=team167-net
                serial:5A:59:80:34:88:DA:81:CB:15:7A:6B:D5:97:71:16:F9:B5:21:08:58

            X509v3 Extended Key Usage: 
                TLS Web Server Authentication
            X509v3 Key Usage: 
                Digital Signature, Key Encipherment
            X509v3 Subject Alternative Name: 
                DNS:team167-server
    Signature Algorithm: sha256WithRSAEncryption
         1f:b1:37:08:7a:04:19:b6:9f:07:84:92:da:40:f0:06:5a:fc:
         e0:f1:87:f8:f3:11:9a:93:33:ee:ef:88:96:76:5d:85:b4:6d:
         e1:3c:4f:8b:ad:69:66:e8:b7:fc:7c:ea:87:44:de:4c:6f:74:
         c0:e8:b1:82:5d:77:ae:59:2f:9b:8a:5e:53:04:15:59:0c:b0:
         a3:57:33:0e:54:a6:23:f3:c1:23:37:e4:3c:ca:77:b9:73:3b:
         d0:eb:e0:fa:a1:1f:f5:cb:c9:da:18:3b:ea:c5:af:84:f1:07:
         cf:04:e4:30:ef:9f:af:86:11:e5:d2:89:71:b2:97:54:2b:2f:
         99:6c:b2:d4:ee:d8:b5:d4:53:d7:95:c5:e2:73:b2:67:31:36:
         c9:9f:38:dd:33:11:ed:e5:b1:ef:44:2d:76:e0:77:be:fc:f7:
         64:46:41:88:f0:ca:0e:57:c3:d9:ea:70:f0:b2:b6:a5:7f:b5:
         95:34:4e:65:2a:a7:22:37:d5:1e:1b:df:97:b1:6b:28:e2:12:
         1b:ec:8c:71:e6:55:98:a5:1c:5b:c0:2b:13:ed:64:c8:14:bb:
         10:59:08:a4:11:ab:84:dd:d0:05:69:f0:b9:a4:35:91:46:ba:
         88:f6:4d:74:1f:5a:27:73:1f:3c:5d:9e:d7:71:2e:67:41:f4:
         6a:6d:d5:92
-----BEGIN CERTIFICATE-----
MIIDeDCCAmCgAwIBAgIRAKxellJmsNyaPk9e6VfyVy0wDQYJKoZIhvcNAQELBQAw
FjEUMBIGA1UEAwwLdGVhbTE2Ny1uZXQwHhcNMjMwODE0MTQyNTQzWhcNMjYwNzI5
MTQyNTQzWjAZMRcwFQYDVQQDDA50ZWFtMTY3LXNlcnZlcjCCASIwDQYJKoZIhvcN
AQEBBQADggEPADCCAQoCggEBAMc5yYOh1zoTl98C/T1Q7W0wRNc18rsaP0DUI2jd
YnQCmQz06CevGgdydPyVADbldk26omvf3scEv5/hlExyikNysbsKbsAjYglq6Aa3
ZPfOcgLfaiF+8rH7isfNGpHayXR+qdU1wMqprdX8GFkWP3bn72DHaI5NDJyFOf07
XU1wohDYlH7gk0mOO2rkIonqTYdQ7c1Okm44aAMC3UUJtmpHy87YP4wPsf6t358B
Bg+Nfi/xtVPMJMgf8mW228jQH/WGpjtqz9ZlDp5HyGSun4eIYGITDrdg1OVoKKNS
Agmoe1p3tcFxHFxRIWDjGZrFOPBKloGMb5dhiFrSUd1SjokCAwEAAaOBvTCBujAJ
BgNVHRMEAjAAMB0GA1UdDgQWBBRu1szb7V+cZpbfSIDUlTTjvcwz6zBRBgNVHSME
SjBIgBTTX1REX+obQqpXDBLbThr/JqwNl6EapBgwFjEUMBIGA1UEAwwLdGVhbTE2
Ny1uZXSCFFpZgDSI2oHLFXpr1ZdxFvm1IQhYMBMGA1UdJQQMMAoGCCsGAQUFBwMB
MAsGA1UdDwQEAwIFoDAZBgNVHREEEjAQgg50ZWFtMTY3LXNlcnZlcjANBgkqhkiG
9w0BAQsFAAOCAQEAH7E3CHoEGbafB4SS2kDwBlr84PGH+PMRmpMz7u+IlnZdhbRt
4TxPi61pZui3/Hzqh0TeTG90wOixgl13rlkvm4peUwQVWQywo1czDlSmI/PBIzfk
PMp3uXM70Ovg+qEf9cvJ2hg76sWvhPEHzwTkMO+fr4YR5dKJcbKXVCsvmWyy1O7Y
tdRT15XF4nOyZzE2yZ843TMR7eWx70QtduB3vvz3ZEZBiPDKDlfD2epw8LK2pX+1
lTROZSqnIjfVHhvfl7FrKOISG+yMceZVmKUcW8ArE+1kyBS7EFkIpBGrhN3QBWnw
uaQ1kUa6iPZNdB9aJ3MfPF2e13EuZ0H0am3Vkg==
-----END CERTIFICATE-----
