Certificate:
    Data:
        Version: 3 (0x2)
        Serial Number:
            a0:be:13:82:5f:c7:ee:ec:cd:bc:78:77:e2:30:cf:1f
        Signature Algorithm: sha256WithRSAEncryption
        Issuer: CN=team247-net
        Validity
            Not Before: Aug 14 14:27:16 2023 GMT
            Not After : Jul 29 14:27:16 2026 GMT
        Subject: CN=team247-client
        Subject Public Key Info:
            Public Key Algorithm: rsaEncryption
                RSA Public-Key: (2048 bit)
                Modulus:
                    00:c2:b2:1e:f8:9a:24:e2:13:e0:92:43:03:4d:95:
                    c2:0e:ce:7d:ca:43:65:99:f1:e8:67:65:b2:c5:0d:
                    78:3e:92:e8:43:5d:02:7f:24:59:7a:d6:47:54:5e:
                    26:20:79:a1:0b:91:63:88:1b:09:27:1b:3c:19:fa:
                    d2:b7:58:c6:82:f4:b0:e9:a4:10:88:42:6f:ee:69:
                    ba:28:0f:0d:42:61:f6:17:27:fa:10:d0:f2:7f:43:
                    42:a2:45:b4:14:9a:51:7f:3c:d8:ed:82:d6:ed:b3:
                    0e:3d:b7:e4:81:de:29:10:88:43:c5:ad:c9:0b:d7:
                    00:a7:e2:5a:33:62:05:0d:96:98:99:d1:63:7a:cb:
                    05:cc:fb:79:37:09:a7:24:ea:6d:94:a7:7c:c9:66:
                    25:ca:71:93:dd:2b:f8:dd:6e:2c:65:82:fc:9d:60:
                    d9:46:5e:5e:d4:39:cf:f0:87:2b:3b:03:b1:c5:b8:
                    ac:3b:93:60:76:95:b8:d1:5b:24:f2:c1:0c:d2:a1:
                    6b:f9:2c:63:e3:bb:b1:5a:a2:9b:c2:85:2a:1d:36:
                    76:36:3c:6f:aa:f6:b1:16:44:23:06:c5:9b:e0:d1:
                    3a:3b:6c:14:37:74:b8:4a:67:df:84:1b:d5:ab:43:
                    b5:2a:55:f1:45:a1:db:7c:5c:48:35:f3:21:39:42:
                    a5:d5
                Exponent: 65537 (0x10001)
        X509v3 extensions:
            X509v3 Basic Constraints: 
                CA:FALSE
            X509v3 Subject Key Identifier: 
                22:15:BA:0D:CB:6D:64:93:E6:70:3C:11:63:93:4A:0C:D6:0C:7B:6E
            X509v3 Authority Key Identifier: 
                keyid:BA:7D:C2:90:2E:08:51:CD:6E:42:EC:48:9E:19:CE:7E:16:27:8B:30
                DirName:/CN=team247-net
                serial:5A:AC:34:DA:92:A5:1B:B5:E2:7D:C3:76:A4:DB:5C:49:22:4E:1F:70

            X509v3 Extended Key Usage: 
                TLS Web Client Authentication
            X509v3 Key Usage: 
                Digital Signature
    Signature Algorithm: sha256WithRSAEncryption
         4c:8c:ba:6c:70:14:d2:b6:3c:7b:1d:c5:df:b4:95:ae:6d:a0:
         f8:c0:70:83:59:06:6c:5f:e5:db:96:10:df:bf:5a:94:e0:0f:
         6a:df:35:ca:9c:b1:a9:5b:52:44:96:de:86:2f:6e:57:d5:98:
         38:67:50:bd:75:80:2f:b7:4f:55:44:4e:76:6a:b9:44:08:3c:
         c3:f9:5f:45:a6:f7:94:1b:af:bc:c3:5e:75:63:55:f7:f5:d2:
         e9:ce:2f:e8:31:38:2a:55:16:61:99:95:28:f5:02:eb:be:1e:
         bd:50:4b:61:e5:d0:66:be:cb:4b:4e:3b:cc:7f:db:50:a4:d4:
         76:98:eb:f3:15:78:79:70:57:b0:19:a1:8a:48:06:16:a1:91:
         1d:0a:3a:c0:6e:37:64:72:bf:1a:24:9a:a9:9c:b9:89:25:97:
         5b:cd:8b:85:37:f3:ca:eb:5f:d2:0c:66:57:37:b6:30:c0:ad:
         39:2e:29:1e:e1:7f:55:53:b9:3b:80:60:4e:2f:2a:dd:ea:e7:
         5d:71:d7:bd:24:07:bc:3a:68:46:17:05:fc:d9:aa:cb:fd:8b:
         93:ba:f9:7f:16:8d:ba:a2:d1:ce:97:d4:ca:1f:c9:ed:07:1f:
         83:6a:e8:74:7c:f0:a4:fa:b2:82:3d:03:c1:1b:6f:79:33:eb:
         87:e2:c6:ab
-----BEGIN CERTIFICATE-----
MIIDXTCCAkWgAwIBAgIRAKC+E4Jfx+7szbx4d+Iwzx8wDQYJKoZIhvcNAQELBQAw
FjEUMBIGA1UEAwwLdGVhbTI0Ny1uZXQwHhcNMjMwODE0MTQyNzE2WhcNMjYwNzI5
MTQyNzE2WjAZMRcwFQYDVQQDDA50ZWFtMjQ3LWNsaWVudDCCASIwDQYJKoZIhvcN
AQEBBQADggEPADCCAQoCggEBAMKyHviaJOIT4JJDA02Vwg7OfcpDZZnx6GdlssUN
eD6S6ENdAn8kWXrWR1ReJiB5oQuRY4gbCScbPBn60rdYxoL0sOmkEIhCb+5puigP
DUJh9hcn+hDQ8n9DQqJFtBSaUX882O2C1u2zDj235IHeKRCIQ8WtyQvXAKfiWjNi
BQ2WmJnRY3rLBcz7eTcJpyTqbZSnfMlmJcpxk90r+N1uLGWC/J1g2UZeXtQ5z/CH
KzsDscW4rDuTYHaVuNFbJPLBDNKha/ksY+O7sVqim8KFKh02djY8b6r2sRZEIwbF
m+DROjtsFDd0uEpn34Qb1atDtSpV8UWh23xcSDXzITlCpdUCAwEAAaOBojCBnzAJ
BgNVHRMEAjAAMB0GA1UdDgQWBBQiFboNy21kk+ZwPBFjk0oM1gx7bjBRBgNVHSME
SjBIgBS6fcKQLghRzW5C7EieGc5+FieLMKEapBgwFjEUMBIGA1UEAwwLdGVhbTI0
Ny1uZXSCFFqsNNqSpRu14n3DdqTbXEkiTh9wMBMGA1UdJQQMMAoGCCsGAQUFBwMC
MAsGA1UdDwQEAwIHgDANBgkqhkiG9w0BAQsFAAOCAQEATIy6bHAU0rY8ex3F37SV
rm2g+MBwg1kGbF/l25YQ379alOAPat81ypyxqVtSRJbehi9uV9WYOGdQvXWAL7dP
VUROdmq5RAg8w/lfRab3lBuvvMNedWNV9/XS6c4v6DE4KlUWYZmVKPUC674evVBL
YeXQZr7LS047zH/bUKTUdpjr8xV4eXBXsBmhikgGFqGRHQo6wG43ZHK/GiSaqZy5
iSWXW82LhTfzyutf0gxmVze2MMCtOS4pHuF/VVO5O4BgTi8q3ernXXHXvSQHvDpo
RhcF/Nmqy/2Lk7r5fxaNuqLRzpfUyh/J7Qcfg2rodHzwpPqygj0DwRtveTPrh+LG
qw==
-----END CERTIFICATE-----
