Certificate:
    Data:
        Version: 3 (0x2)
        Serial Number:
            d9:4a:37:5f:c7:d0:36:09:55:27:39:e7:3d:af:17:a3
        Signature Algorithm: sha256WithRSAEncryption
        Issuer: CN=team175-net
        Validity
            Not Before: Aug 14 14:25:52 2023 GMT
            Not After : Jul 29 14:25:52 2026 GMT
        Subject: CN=team175-client
        Subject Public Key Info:
            Public Key Algorithm: rsaEncryption
                RSA Public-Key: (2048 bit)
                Modulus:
                    00:ba:c5:7d:0b:1f:86:26:ef:43:54:31:57:3a:20:
                    d2:68:1b:39:b5:43:aa:b7:5c:9c:a1:13:cc:47:be:
                    cd:4f:e1:6e:a7:b8:65:72:b7:66:ce:3c:8a:2f:3b:
                    37:6e:78:ab:bd:75:34:85:ac:13:06:2e:cf:2a:e8:
                    77:53:5f:b4:ac:62:eb:7d:13:92:ba:bc:6d:95:08:
                    15:2c:0c:4c:45:6d:78:c4:03:c3:b1:0d:d2:be:6a:
                    10:4b:ba:eb:6d:b2:60:92:b0:28:00:6b:22:ba:12:
                    92:81:fa:44:e4:02:3c:69:0a:69:a8:c1:22:6b:84:
                    20:22:61:cf:63:ee:3b:3c:07:7e:19:77:da:20:88:
                    25:d8:40:10:82:17:eb:fe:74:6e:6d:1d:16:0d:f0:
                    f6:84:58:28:74:a4:88:e1:48:5b:a2:e9:ab:16:2a:
                    02:e0:7b:49:c3:3c:c1:37:c1:8d:74:ed:ba:74:26:
                    8f:5c:6a:dc:5d:30:ca:df:73:b4:7a:4d:c8:a5:f2:
                    5a:a0:d9:b2:9e:00:13:82:c5:22:30:20:45:e1:f5:
                    98:7e:f4:33:4c:a4:fa:12:14:6d:41:db:5c:8a:9b:
                    cb:24:ef:42:a2:97:a6:93:53:90:c8:43:46:ba:c0:
                    f3:59:60:91:e3:41:90:05:2e:4d:d3:2b:1d:07:f1:
                    32:33
                Exponent: 65537 (0x10001)
        X509v3 extensions:
            X509v3 Basic Constraints: 
                CA:FALSE
            X509v3 Subject Key Identifier: 
                98:FE:27:97:BD:9C:DA:06:D7:60:49:D8:EF:22:84:B2:78:B3:86:69
            X509v3 Authority Key Identifier: 
                keyid:10:94:D0:8E:7B:CE:30:60:C2:7D:5D:EA:65:22:CB:74:D6:F3:A6:A5
                DirName:/CN=team175-net
                serial:70:F3:70:72:F7:ED:48:7A:2F:50:B7:D1:18:23:13:3C:1F:A7:44:57

            X509v3 Extended Key Usage: 
                TLS Web Client Authentication
            X509v3 Key Usage: 
                Digital Signature
    Signature Algorithm: sha256WithRSAEncryption
         05:d8:b3:d4:30:9e:e6:b0:77:d3:b5:48:ec:89:bd:12:89:90:
         ef:3c:2c:11:42:e2:88:1c:30:a6:d0:02:b4:c1:09:25:72:d6:
         0a:ab:b1:44:f8:1f:99:47:09:03:fc:86:a3:25:8c:41:c6:fd:
         36:e3:f9:80:17:e4:56:5d:26:fb:58:54:d4:2a:f3:6c:22:7b:
         73:3a:a1:f9:57:a4:1d:8b:72:ee:6e:51:5c:f3:56:41:d9:9a:
         ce:d7:c5:98:50:c7:68:fe:8a:63:b3:05:99:3d:74:2e:12:d7:
         fe:82:ad:9b:30:1c:53:f6:fb:a3:9c:10:a2:d2:2e:a4:07:8e:
         39:24:0f:a6:47:ca:9b:8b:62:a2:0e:83:c0:e8:37:84:56:e9:
         b1:90:9a:c4:43:50:51:36:18:a7:45:96:e8:1b:c7:ff:cb:c5:
         08:88:f7:f6:58:4c:47:e6:f9:31:0b:9f:67:1d:ab:10:51:28:
         98:75:8c:86:44:75:ca:5c:29:5e:47:8f:15:2d:ca:e6:3c:ed:
         38:d7:84:2b:95:7f:19:b1:c2:87:2f:9e:92:13:61:6c:c4:0c:
         6f:05:83:cf:d4:a9:16:dd:40:3e:f5:af:27:4e:82:47:63:5d:
         a8:9b:a7:4d:cf:00:af:d5:0b:c9:84:5c:6b:ee:15:0a:ed:6a:
         90:83:d1:38
-----BEGIN CERTIFICATE-----
MIIDXTCCAkWgAwIBAgIRANlKN1/H0DYJVSc55z2vF6MwDQYJKoZIhvcNAQELBQAw
FjEUMBIGA1UEAwwLdGVhbTE3NS1uZXQwHhcNMjMwODE0MTQyNTUyWhcNMjYwNzI5
MTQyNTUyWjAZMRcwFQYDVQQDDA50ZWFtMTc1LWNsaWVudDCCASIwDQYJKoZIhvcN
AQEBBQADggEPADCCAQoCggEBALrFfQsfhibvQ1QxVzog0mgbObVDqrdcnKETzEe+
zU/hbqe4ZXK3Zs48ii87N254q711NIWsEwYuzyrod1NftKxi630Tkrq8bZUIFSwM
TEVteMQDw7EN0r5qEEu6622yYJKwKABrIroSkoH6ROQCPGkKaajBImuEICJhz2Pu
OzwHfhl32iCIJdhAEIIX6/50bm0dFg3w9oRYKHSkiOFIW6LpqxYqAuB7ScM8wTfB
jXTtunQmj1xq3F0wyt9ztHpNyKXyWqDZsp4AE4LFIjAgReH1mH70M0yk+hIUbUHb
XIqbyyTvQqKXppNTkMhDRrrA81lgkeNBkAUuTdMrHQfxMjMCAwEAAaOBojCBnzAJ
BgNVHRMEAjAAMB0GA1UdDgQWBBSY/ieXvZzaBtdgSdjvIoSyeLOGaTBRBgNVHSME
SjBIgBQQlNCOe84wYMJ9XeplIst01vOmpaEapBgwFjEUMBIGA1UEAwwLdGVhbTE3
NS1uZXSCFHDzcHL37Uh6L1C30RgjEzwfp0RXMBMGA1UdJQQMMAoGCCsGAQUFBwMC
MAsGA1UdDwQEAwIHgDANBgkqhkiG9w0BAQsFAAOCAQEABdiz1DCe5rB307VI7Im9
EomQ7zwsEULiiBwwptACtMEJJXLWCquxRPgfmUcJA/yGoyWMQcb9NuP5gBfkVl0m
+1hU1CrzbCJ7czqh+VekHYty7m5RXPNWQdmaztfFmFDHaP6KY7MFmT10LhLX/oKt
mzAcU/b7o5wQotIupAeOOSQPpkfKm4tiog6DwOg3hFbpsZCaxENQUTYYp0WW6BvH
/8vFCIj39lhMR+b5MQufZx2rEFEomHWMhkR1ylwpXkePFS3K5jztONeEK5V/GbHC
hy+ekhNhbMQMbwWDz9SpFt1APvWvJ06CR2NdqJunTc8Ar9ULyYRca+4VCu1qkIPR
OA==
-----END CERTIFICATE-----
