Certificate:
    Data:
        Version: 3 (0x2)
        Serial Number:
            5d:5b:78:fe:35:82:a2:72:1c:bb:c1:e9:81:63:a8:ae
        Signature Algorithm: sha256WithRSAEncryption
        Issuer: CN=team58-net
        Validity
            Not Before: Aug 14 14:23:24 2023 GMT
            Not After : Jul 29 14:23:24 2026 GMT
        Subject: CN=team58-server
        Subject Public Key Info:
            Public Key Algorithm: rsaEncryption
                RSA Public-Key: (2048 bit)
                Modulus:
                    00:ca:2a:62:06:ce:d4:94:42:36:47:06:3c:87:ea:
                    7d:88:64:40:44:05:c3:8c:d1:24:b4:2c:93:0d:38:
                    e8:5d:21:27:c4:15:be:6b:b0:e1:b0:1e:94:0a:a8:
                    57:50:b5:05:88:0f:64:c1:fb:0c:e8:37:af:fd:08:
                    58:89:2a:38:1a:bb:04:ee:ca:c3:5d:f6:d2:89:7a:
                    38:89:e4:10:06:5e:75:5f:65:ce:1e:3a:a4:f5:0a:
                    64:7f:2c:e1:44:27:0f:7d:13:da:cd:37:0d:80:da:
                    70:16:db:63:21:c8:77:13:2e:28:a7:51:a2:15:87:
                    ba:6e:20:c1:08:20:e3:1c:47:3c:24:d0:39:e1:34:
                    e4:23:4e:d6:ba:81:4e:7b:8d:ed:97:13:08:34:00:
                    4d:2b:d4:4f:53:d6:ef:ce:78:28:4a:44:2f:07:67:
                    7a:14:1f:bc:e8:43:ca:53:46:cd:79:1e:d9:a8:29:
                    11:35:4a:14:0f:dc:71:f6:18:b0:99:0f:8d:8b:14:
                    54:df:3c:24:db:33:29:13:e6:7b:65:67:a4:b7:84:
                    2e:2b:52:fe:31:a4:a2:d8:7d:4f:3e:2e:a0:dd:a6:
                    84:c7:aa:9d:e8:57:a1:c0:e3:de:0b:2e:d6:ee:99:
                    f1:23:d3:5d:1f:df:ce:6e:0c:3f:47:21:6e:75:6a:
                    38:57
                Exponent: 65537 (0x10001)
        X509v3 extensions:
            X509v3 Basic Constraints: 
                CA:FALSE
            X509v3 Subject Key Identifier: 
                73:77:87:CC:03:0B:B5:12:1A:20:CC:6B:31:DA:E0:EA:84:4F:65:38
            X509v3 Authority Key Identifier: 
                keyid:33:ED:C9:29:A3:73:69:FC:1C:EE:CB:13:3B:C1:87:FE:B0:18:3B:3B
                DirName:/CN=team58-net
                serial:3C:60:D7:7D:FC:5A:13:50:99:BD:34:BE:5C:58:13:33:80:C5:7D:7D

            X509v3 Extended Key Usage: 
                TLS Web Server Authentication
            X509v3 Key Usage: 
                Digital Signature, Key Encipherment
            X509v3 Subject Alternative Name: 
                DNS:team58-server
    Signature Algorithm: sha256WithRSAEncryption
         91:c4:07:7a:16:aa:a2:f7:8f:cf:c7:85:c4:7b:89:9e:20:ef:
         54:cf:a2:6a:94:3c:eb:75:5d:85:1b:bf:e5:1d:88:48:99:7b:
         7d:86:f4:66:6f:cb:48:3d:46:cf:95:2a:6e:fd:1d:32:14:b1:
         44:a0:3a:59:a2:c1:0d:40:cb:12:43:3e:ab:49:00:4b:29:95:
         0b:ad:d8:b1:ec:6e:e6:73:1d:a6:90:28:9f:c0:ce:a4:f3:03:
         e1:b8:8f:6c:f3:52:50:59:c2:e6:6e:b7:b7:f0:63:95:0c:44:
         84:c8:92:c8:9a:bb:37:0e:8d:4f:24:c5:82:61:ff:10:13:06:
         7c:9b:50:56:6a:1f:fc:f7:40:60:87:2a:6c:7f:17:79:93:4d:
         44:2d:ce:48:86:4f:76:92:e5:88:f5:59:35:08:7f:92:16:27:
         a6:e9:b5:cb:24:ba:21:53:89:6f:ee:10:a1:0c:2a:04:fd:b0:
         25:26:bc:76:0e:de:5a:0e:53:4a:0a:a2:b0:59:67:ca:05:eb:
         17:0c:64:dc:3c:b1:b3:85:12:5f:74:37:ff:75:52:ff:a7:59:
         a2:e3:19:a2:d5:b5:fd:f5:ca:a2:ba:2b:cd:26:34:81:6b:16:
         ee:ce:d1:21:79:cd:8d:59:09:fc:d1:15:a4:bd:0d:38:61:3b:
         a6:43:59:ed
-----BEGIN CERTIFICATE-----
MIIDczCCAlugAwIBAgIQXVt4/jWConIcu8HpgWOorjANBgkqhkiG9w0BAQsFADAV
MRMwEQYDVQQDDAp0ZWFtNTgtbmV0MB4XDTIzMDgxNDE0MjMyNFoXDTI2MDcyOTE0
MjMyNFowGDEWMBQGA1UEAwwNdGVhbTU4LXNlcnZlcjCCASIwDQYJKoZIhvcNAQEB
BQADggEPADCCAQoCggEBAMoqYgbO1JRCNkcGPIfqfYhkQEQFw4zRJLQskw046F0h
J8QVvmuw4bAelAqoV1C1BYgPZMH7DOg3r/0IWIkqOBq7BO7Kw1320ol6OInkEAZe
dV9lzh46pPUKZH8s4UQnD30T2s03DYDacBbbYyHIdxMuKKdRohWHum4gwQgg4xxH
PCTQOeE05CNO1rqBTnuN7ZcTCDQATSvUT1PW7854KEpELwdnehQfvOhDylNGzXke
2agpETVKFA/ccfYYsJkPjYsUVN88JNszKRPme2VnpLeELitS/jGkoth9Tz4uoN2m
hMeqnehXocDj3gsu1u6Z8SPTXR/fzm4MP0chbnVqOFcCAwEAAaOBuzCBuDAJBgNV
HRMEAjAAMB0GA1UdDgQWBBRzd4fMAwu1EhogzGsx2uDqhE9lODBQBgNVHSMESTBH
gBQz7ckpo3Np/BzuyxM7wYf+sBg7O6EZpBcwFTETMBEGA1UEAwwKdGVhbTU4LW5l
dIIUPGDXffxaE1CZvTS+XFgTM4DFfX0wEwYDVR0lBAwwCgYIKwYBBQUHAwEwCwYD
VR0PBAQDAgWgMBgGA1UdEQQRMA+CDXRlYW01OC1zZXJ2ZXIwDQYJKoZIhvcNAQEL
BQADggEBAJHEB3oWqqL3j8/HhcR7iZ4g71TPomqUPOt1XYUbv+UdiEiZe32G9GZv
y0g9Rs+VKm79HTIUsUSgOlmiwQ1AyxJDPqtJAEsplQut2LHsbuZzHaaQKJ/AzqTz
A+G4j2zzUlBZwuZut7fwY5UMRITIksiauzcOjU8kxYJh/xATBnybUFZqH/z3QGCH
Kmx/F3mTTUQtzkiGT3aS5Yj1WTUIf5IWJ6bptcskuiFTiW/uEKEMKgT9sCUmvHYO
3loOU0oKorBZZ8oF6xcMZNw8sbOFEl90N/91Uv+nWaLjGaLVtf31yqK6K80mNIFr
Fu7O0SF5zY1ZCfzRFaS9DThhO6ZDWe0=
-----END CERTIFICATE-----
