Certificate:
    Data:
        Version: 3 (0x2)
        Serial Number:
            ca:7d:97:7d:51:4d:87:14:81:01:7b:d0:f7:6d:e3:48
        Signature Algorithm: sha256WithRSAEncryption
        Issuer: CN=team58-net
        Validity
            Not Before: Aug 14 14:23:24 2023 GMT
            Not After : Jul 29 14:23:24 2026 GMT
        Subject: CN=team58-client
        Subject Public Key Info:
            Public Key Algorithm: rsaEncryption
                RSA Public-Key: (2048 bit)
                Modulus:
                    00:e0:f4:65:14:40:2e:d1:3e:34:2b:6d:b0:59:0a:
                    4a:b7:7b:4c:00:6e:18:8d:e9:4e:68:d6:50:58:d3:
                    0e:35:15:4d:d4:8a:25:17:a7:ce:bd:f7:92:c6:38:
                    8a:69:4b:77:af:99:aa:84:bd:14:16:9d:9d:e7:f5:
                    6d:da:82:c6:d7:7c:73:2c:a2:91:a9:19:73:22:df:
                    6d:c4:08:b6:59:66:a6:04:40:62:25:cc:35:c2:e3:
                    4a:d8:93:16:0e:07:49:a5:cb:32:12:e0:af:18:82:
                    0e:48:b0:26:f7:6f:30:4d:7d:31:8d:d7:1d:82:8a:
                    7b:8a:66:56:1e:f7:1c:60:08:36:70:08:bc:f7:af:
                    9a:ca:1f:c8:51:bc:98:2c:3a:0a:a9:f2:85:bd:93:
                    10:42:45:2f:f8:2e:a1:90:13:0a:c5:4e:60:bf:6b:
                    05:50:82:8f:06:3b:3b:0e:4f:49:a8:31:83:fc:ee:
                    7d:d8:6b:4e:84:96:21:fa:ec:ab:64:ba:ee:89:45:
                    a4:96:c5:30:26:1c:d2:22:f0:ea:9a:92:9f:c5:0d:
                    04:bd:95:c6:c5:c8:98:8b:98:9e:ea:37:3e:67:98:
                    7f:b4:23:50:d5:5c:88:8f:23:b8:36:ed:a5:42:dd:
                    9d:39:8d:2f:71:7e:81:f2:1e:44:c7:46:11:31:20:
                    f7:f7
                Exponent: 65537 (0x10001)
        X509v3 extensions:
            X509v3 Basic Constraints: 
                CA:FALSE
            X509v3 Subject Key Identifier: 
                96:1A:C6:71:E2:4C:B7:1F:6D:9A:1B:7E:7B:5C:6A:52:7D:00:4D:5F
            X509v3 Authority Key Identifier: 
                keyid:33:ED:C9:29:A3:73:69:FC:1C:EE:CB:13:3B:C1:87:FE:B0:18:3B:3B
                DirName:/CN=team58-net
                serial:3C:60:D7:7D:FC:5A:13:50:99:BD:34:BE:5C:58:13:33:80:C5:7D:7D

            X509v3 Extended Key Usage: 
                TLS Web Client Authentication
            X509v3 Key Usage: 
                Digital Signature
    Signature Algorithm: sha256WithRSAEncryption
         12:40:f8:97:67:2a:10:c6:8e:07:22:86:9d:69:0d:6b:51:66:
         76:39:50:a6:e6:22:7c:a5:2c:3f:97:61:e4:61:ec:e9:f4:b3:
         2c:a0:fa:10:0b:4d:6a:55:7a:46:38:dd:ac:d6:0d:0e:f7:8f:
         72:f2:ef:64:8a:96:74:42:dc:ff:b0:f8:d3:43:4c:28:1a:18:
         5c:a5:9c:2d:4b:d9:4c:c8:c3:8b:84:26:83:d3:9c:7f:20:e3:
         e8:7e:9d:c8:9e:a5:6a:e4:06:b6:11:28:45:f1:a4:0c:2c:1c:
         0e:61:5b:87:db:ae:c9:d5:1d:d0:b2:11:a1:52:85:fa:1f:91:
         77:c2:5d:9c:83:87:8f:c8:b3:1d:36:05:88:37:09:2c:8f:ae:
         83:05:2d:c0:cf:fd:38:9c:3b:ad:15:87:d0:1e:ba:81:5e:1b:
         f7:3c:a8:03:08:de:33:d8:b8:bd:cc:35:80:82:69:31:19:d3:
         a6:f0:e5:46:80:41:07:7f:eb:20:c3:3a:29:ee:3a:46:9b:41:
         4a:dd:d9:b0:14:79:ac:17:3d:cc:bc:7f:be:87:00:e6:27:2e:
         3c:75:be:83:71:f8:30:6a:94:d5:15:3b:22:c5:95:2d:68:ac:
         13:6c:6f:12:6b:7c:ce:ea:74:a9:1f:da:85:90:b3:b0:51:36:
         c0:d4:ac:b3
-----BEGIN CERTIFICATE-----
MIIDWjCCAkKgAwIBAgIRAMp9l31RTYcUgQF70Pdt40gwDQYJKoZIhvcNAQELBQAw
FTETMBEGA1UEAwwKdGVhbTU4LW5ldDAeFw0yMzA4MTQxNDIzMjRaFw0yNjA3Mjkx
NDIzMjRaMBgxFjAUBgNVBAMMDXRlYW01OC1jbGllbnQwggEiMA0GCSqGSIb3DQEB
AQUAA4IBDwAwggEKAoIBAQDg9GUUQC7RPjQrbbBZCkq3e0wAbhiN6U5o1lBY0w41
FU3UiiUXp86995LGOIppS3evmaqEvRQWnZ3n9W3agsbXfHMsopGpGXMi323ECLZZ
ZqYEQGIlzDXC40rYkxYOB0mlyzIS4K8Ygg5IsCb3bzBNfTGN1x2CinuKZlYe9xxg
CDZwCLz3r5rKH8hRvJgsOgqp8oW9kxBCRS/4LqGQEwrFTmC/awVQgo8GOzsOT0mo
MYP87n3Ya06EliH67Ktkuu6JRaSWxTAmHNIi8Oqakp/FDQS9lcbFyJiLmJ7qNz5n
mH+0I1DVXIiPI7g27aVC3Z05jS9xfoHyHkTHRhExIPf3AgMBAAGjgaEwgZ4wCQYD
VR0TBAIwADAdBgNVHQ4EFgQUlhrGceJMtx9tmht+e1xqUn0ATV8wUAYDVR0jBEkw
R4AUM+3JKaNzafwc7ssTO8GH/rAYOzuhGaQXMBUxEzARBgNVBAMMCnRlYW01OC1u
ZXSCFDxg1338WhNQmb00vlxYEzOAxX19MBMGA1UdJQQMMAoGCCsGAQUFBwMCMAsG
A1UdDwQEAwIHgDANBgkqhkiG9w0BAQsFAAOCAQEAEkD4l2cqEMaOByKGnWkNa1Fm
djlQpuYifKUsP5dh5GHs6fSzLKD6EAtNalV6RjjdrNYNDvePcvLvZIqWdELc/7D4
00NMKBoYXKWcLUvZTMjDi4Qmg9OcfyDj6H6dyJ6lauQGthEoRfGkDCwcDmFbh9uu
ydUd0LIRoVKF+h+Rd8JdnIOHj8izHTYFiDcJLI+ugwUtwM/9OJw7rRWH0B66gV4b
9zyoAwjeM9i4vcw1gIJpMRnTpvDlRoBBB3/rIMM6Ke46RptBSt3ZsBR5rBc9zLx/
vocA5icuPHW+g3H4MGqU1RU7IsWVLWisE2xvEmt8zup0qR/ahZCzsFE2wNSssw==
-----END CERTIFICATE-----
