Certificate:
    Data:
        Version: 3 (0x2)
        Serial Number:
            4f:75:a5:4e:5d:dd:f4:5e:2c:9d:d9:3e:43:d9:13:0f
        Signature Algorithm: sha256WithRSAEncryption
        Issuer: CN=team63-net
        Validity
            Not Before: Aug 14 14:23:29 2023 GMT
            Not After : Jul 29 14:23:29 2026 GMT
        Subject: CN=team63-client
        Subject Public Key Info:
            Public Key Algorithm: rsaEncryption
                RSA Public-Key: (2048 bit)
                Modulus:
                    00:db:b7:17:3f:d3:61:65:21:d6:2d:ff:f2:04:e2:
                    98:f1:bc:b9:73:d6:75:e3:a0:56:f6:3d:61:01:32:
                    a1:b8:cf:55:1e:a6:37:b2:cb:e4:56:f7:b1:ad:ec:
                    72:f2:b0:d6:e5:13:dd:3f:24:9c:eb:5d:b5:f3:c3:
                    e2:eb:d1:82:6a:9b:ca:cf:30:94:0c:e8:99:66:b8:
                    42:3c:5a:9d:c3:d9:9c:c0:a6:84:ee:d6:0e:39:49:
                    36:45:d6:30:bf:81:3f:a1:f1:8f:00:88:3d:33:9e:
                    9e:11:b6:93:1f:cb:f1:e4:22:62:6f:78:f4:d0:1b:
                    22:fd:24:d9:60:53:5a:96:b5:03:a8:92:48:62:13:
                    57:a7:7d:c4:9c:75:c4:19:f9:5f:b0:a2:36:09:bf:
                    4f:73:55:55:c8:09:0a:4d:35:79:de:5c:98:2e:8b:
                    b2:6b:1c:da:9b:7b:a2:02:c7:8e:7a:04:55:40:5c:
                    ef:f2:43:d0:6c:aa:66:01:ec:67:52:29:47:01:eb:
                    08:69:29:18:c0:06:e1:32:96:87:97:3d:8f:5b:a6:
                    c7:3b:de:1b:cb:17:54:c3:a7:e3:b9:a5:ac:48:b5:
                    42:04:2a:44:14:d2:43:3e:8e:f2:94:ba:a2:95:7f:
                    0e:3d:a6:1e:7f:23:91:61:06:4e:5c:c6:d6:2f:f3:
                    c6:a7
                Exponent: 65537 (0x10001)
        X509v3 extensions:
            X509v3 Basic Constraints: 
                CA:FALSE
            X509v3 Subject Key Identifier: 
                16:5D:D9:AB:A6:BD:E0:37:EF:EB:20:D1:1B:E5:DF:67:87:71:24:04
            X509v3 Authority Key Identifier: 
                keyid:A9:5A:D6:6A:B5:04:57:24:30:33:56:72:48:62:70:E1:65:84:5B:E1
                DirName:/CN=team63-net
                serial:6D:C9:CF:88:BC:A5:A8:2F:BF:BF:34:E8:23:6C:C6:28:B4:17:F3:FB

            X509v3 Extended Key Usage: 
                TLS Web Client Authentication
            X509v3 Key Usage: 
                Digital Signature
    Signature Algorithm: sha256WithRSAEncryption
         60:b6:d7:22:a2:bb:06:38:74:af:af:53:a6:32:72:a3:99:bd:
         b4:70:27:b9:96:5e:e5:e4:b9:24:72:2d:60:17:38:4b:f6:61:
         91:4a:89:6a:2c:91:aa:c3:f9:27:36:72:7c:4e:fe:b9:ca:72:
         bf:15:c0:41:53:c1:84:3d:5e:39:f0:4b:30:29:ad:c4:9b:cb:
         3f:79:01:58:48:1c:2b:85:53:71:fe:00:8c:0c:30:5e:23:b6:
         71:cc:af:66:86:1e:05:bd:2e:fa:60:a2:ca:40:e7:11:1b:ed:
         f3:64:c8:f8:e3:33:8b:93:30:e6:37:67:82:dc:1e:86:ee:73:
         84:e2:57:fb:b2:26:78:b1:67:d8:60:2c:26:32:9c:e3:f6:3b:
         43:6c:f4:e3:bc:2b:42:2a:10:da:57:f6:98:2d:0d:36:da:8d:
         ce:aa:2f:80:c0:bf:c7:d1:56:06:73:f7:86:bd:2a:0d:7b:62:
         73:fc:ff:57:ea:4e:69:26:59:6b:5f:88:b2:e8:5e:32:7a:14:
         07:f7:48:be:95:bb:de:68:ea:3b:88:72:23:6f:46:04:95:90:
         72:da:93:32:69:89:83:8b:d3:48:68:62:a9:55:3b:dd:28:67:
         e0:e1:d4:1c:96:2e:9d:15:8e:1f:8f:4b:57:97:70:67:15:2b:
         ba:c9:36:24
-----BEGIN CERTIFICATE-----
MIIDWTCCAkGgAwIBAgIQT3WlTl3d9F4sndk+Q9kTDzANBgkqhkiG9w0BAQsFADAV
MRMwEQYDVQQDDAp0ZWFtNjMtbmV0MB4XDTIzMDgxNDE0MjMyOVoXDTI2MDcyOTE0
MjMyOVowGDEWMBQGA1UEAwwNdGVhbTYzLWNsaWVudDCCASIwDQYJKoZIhvcNAQEB
BQADggEPADCCAQoCggEBANu3Fz/TYWUh1i3/8gTimPG8uXPWdeOgVvY9YQEyobjP
VR6mN7LL5Fb3sa3scvKw1uUT3T8knOtdtfPD4uvRgmqbys8wlAzomWa4QjxancPZ
nMCmhO7WDjlJNkXWML+BP6HxjwCIPTOenhG2kx/L8eQiYm949NAbIv0k2WBTWpa1
A6iSSGITV6d9xJx1xBn5X7CiNgm/T3NVVcgJCk01ed5cmC6Lsmsc2pt7ogLHjnoE
VUBc7/JD0GyqZgHsZ1IpRwHrCGkpGMAG4TKWh5c9j1umxzveG8sXVMOn47mlrEi1
QgQqRBTSQz6O8pS6opV/Dj2mHn8jkWEGTlzG1i/zxqcCAwEAAaOBoTCBnjAJBgNV
HRMEAjAAMB0GA1UdDgQWBBQWXdmrpr3gN+/rINEb5d9nh3EkBDBQBgNVHSMESTBH
gBSpWtZqtQRXJDAzVnJIYnDhZYRb4aEZpBcwFTETMBEGA1UEAwwKdGVhbTYzLW5l
dIIUbcnPiLylqC+/vzToI2zGKLQX8/swEwYDVR0lBAwwCgYIKwYBBQUHAwIwCwYD
VR0PBAQDAgeAMA0GCSqGSIb3DQEBCwUAA4IBAQBgttciorsGOHSvr1OmMnKjmb20
cCe5ll7l5Lkkci1gFzhL9mGRSolqLJGqw/knNnJ8Tv65ynK/FcBBU8GEPV458Esw
Ka3Em8s/eQFYSBwrhVNx/gCMDDBeI7ZxzK9mhh4FvS76YKLKQOcRG+3zZMj44zOL
kzDmN2eC3B6G7nOE4lf7siZ4sWfYYCwmMpzj9jtDbPTjvCtCKhDaV/aYLQ022o3O
qi+AwL/H0VYGc/eGvSoNe2Jz/P9X6k5pJllrX4iy6F4yehQH90i+lbveaOo7iHIj
b0YElZBy2pMyaYmDi9NIaGKpVTvdKGfg4dQcli6dFY4fj0tXl3BnFSu6yTYk
-----END CERTIFICATE-----
