Certificate:
    Data:
        Version: 3 (0x2)
        Serial Number:
            a0:2d:f1:05:9e:3a:b6:28:e1:d7:02:38:74:22:27:ef
        Signature Algorithm: sha256WithRSAEncryption
        Issuer: CN=team63-net
        Validity
            Not Before: Aug 14 14:23:30 2023 GMT
            Not After : Jul 29 14:23:30 2026 GMT
        Subject: CN=team63-server
        Subject Public Key Info:
            Public Key Algorithm: rsaEncryption
                RSA Public-Key: (2048 bit)
                Modulus:
                    00:94:c7:6a:6b:49:31:d7:a8:b0:03:78:33:52:ab:
                    53:a0:35:8b:d7:86:74:ae:32:3a:20:08:38:ad:0e:
                    6a:64:67:f4:5d:b0:6c:e3:25:92:c6:58:18:37:14:
                    38:0d:58:05:e6:8f:2e:21:cd:44:84:2a:27:6d:b8:
                    56:c5:d4:11:37:76:c1:a8:3c:93:b6:0c:d9:9f:df:
                    03:fb:8b:a3:c5:b7:49:f6:a7:76:fc:b9:9c:50:5b:
                    34:6e:31:62:5e:bb:df:f3:1f:a2:61:4e:14:89:6e:
                    9d:e0:bb:aa:b6:4b:13:6b:29:f0:0e:59:65:e3:3a:
                    95:fc:a0:1d:98:5b:2c:05:46:69:31:7a:36:01:75:
                    fc:36:0c:a8:38:65:83:36:a1:38:7c:1f:7d:3c:c0:
                    2c:46:f4:12:ca:a3:6b:f5:a4:e6:e0:89:90:12:68:
                    89:4a:d7:00:71:0c:ab:c3:da:e0:86:d2:2d:18:00:
                    ec:f7:dc:13:eb:a4:f9:40:35:9e:57:40:34:2d:0c:
                    b7:f1:31:7e:68:03:dc:5a:19:ac:99:01:51:13:59:
                    4d:5d:4b:59:5d:ab:df:3f:07:78:39:04:da:bf:90:
                    63:53:a0:7a:09:19:f2:8f:ef:cc:40:46:86:dd:66:
                    2c:1e:4c:f9:da:39:70:08:f2:e4:da:5e:0d:4f:6a:
                    32:23
                Exponent: 65537 (0x10001)
        X509v3 extensions:
            X509v3 Basic Constraints: 
                CA:FALSE
            X509v3 Subject Key Identifier: 
                13:31:35:62:91:47:B5:F2:E1:86:E0:12:2C:5B:FD:28:E3:E9:83:AC
            X509v3 Authority Key Identifier: 
                keyid:A9:5A:D6:6A:B5:04:57:24:30:33:56:72:48:62:70:E1:65:84:5B:E1
                DirName:/CN=team63-net
                serial:6D:C9:CF:88:BC:A5:A8:2F:BF:BF:34:E8:23:6C:C6:28:B4:17:F3:FB

            X509v3 Extended Key Usage: 
                TLS Web Server Authentication
            X509v3 Key Usage: 
                Digital Signature, Key Encipherment
            X509v3 Subject Alternative Name: 
                DNS:team63-server
    Signature Algorithm: sha256WithRSAEncryption
         76:8e:e7:fd:7d:2a:81:76:49:34:1f:c5:9f:f0:26:ca:84:09:
         04:36:37:7d:a0:16:76:fc:ed:48:bc:10:27:0f:89:fc:e9:01:
         60:40:0b:28:d2:3b:1c:18:2b:ff:f1:af:ef:5d:2a:08:cf:e5:
         2a:31:d7:2c:54:ed:5f:9f:0b:5f:30:dd:de:92:c0:f9:f4:53:
         58:a0:c9:8d:c1:0b:8e:f9:96:2a:83:81:2d:2b:91:fd:fa:55:
         c1:0b:c6:51:86:73:ed:c0:0c:3c:8d:63:31:f5:27:e5:b3:70:
         7f:9f:82:fe:48:22:31:0a:35:0e:24:b2:06:66:20:0c:b9:fb:
         b0:cb:c0:2e:0a:23:cc:80:d8:5f:f3:d7:a9:cd:34:f6:a4:7a:
         cb:33:6f:33:b4:9e:30:d5:ea:20:2d:a2:3b:88:10:90:cc:c8:
         07:8e:84:63:d6:d9:ec:61:d5:8f:b7:ef:34:14:59:a1:5b:88:
         18:a7:1b:fd:3c:d6:4d:91:c5:af:a4:0a:07:4d:b5:70:53:e4:
         05:1c:36:07:04:29:4f:6c:63:cc:b1:46:a3:a3:c2:e1:aa:47:
         64:9a:f0:c1:9a:02:20:2d:a6:2d:16:92:6f:81:85:43:2a:03:
         4e:86:bd:47:a3:d2:33:9c:fb:20:0e:e1:e5:65:04:4b:17:7a:
         c8:82:78:5b
-----BEGIN CERTIFICATE-----
MIIDdDCCAlygAwIBAgIRAKAt8QWeOrYo4dcCOHQiJ+8wDQYJKoZIhvcNAQELBQAw
FTETMBEGA1UEAwwKdGVhbTYzLW5ldDAeFw0yMzA4MTQxNDIzMzBaFw0yNjA3Mjkx
NDIzMzBaMBgxFjAUBgNVBAMMDXRlYW02My1zZXJ2ZXIwggEiMA0GCSqGSIb3DQEB
AQUAA4IBDwAwggEKAoIBAQCUx2prSTHXqLADeDNSq1OgNYvXhnSuMjogCDitDmpk
Z/RdsGzjJZLGWBg3FDgNWAXmjy4hzUSEKidtuFbF1BE3dsGoPJO2DNmf3wP7i6PF
t0n2p3b8uZxQWzRuMWJeu9/zH6JhThSJbp3gu6q2SxNrKfAOWWXjOpX8oB2YWywF
RmkxejYBdfw2DKg4ZYM2oTh8H308wCxG9BLKo2v1pObgiZASaIlK1wBxDKvD2uCG
0i0YAOz33BPrpPlANZ5XQDQtDLfxMX5oA9xaGayZAVETWU1dS1ldq98/B3g5BNq/
kGNToHoJGfKP78xARobdZiweTPnaOXAI8uTaXg1PajIjAgMBAAGjgbswgbgwCQYD
VR0TBAIwADAdBgNVHQ4EFgQUEzE1YpFHtfLhhuASLFv9KOPpg6wwUAYDVR0jBEkw
R4AUqVrWarUEVyQwM1ZySGJw4WWEW+GhGaQXMBUxEzARBgNVBAMMCnRlYW02My1u
ZXSCFG3Jz4i8pagvv7806CNsxii0F/P7MBMGA1UdJQQMMAoGCCsGAQUFBwMBMAsG
A1UdDwQEAwIFoDAYBgNVHREEETAPgg10ZWFtNjMtc2VydmVyMA0GCSqGSIb3DQEB
CwUAA4IBAQB2juf9fSqBdkk0H8Wf8CbKhAkENjd9oBZ2/O1IvBAnD4n86QFgQAso
0jscGCv/8a/vXSoIz+UqMdcsVO1fnwtfMN3eksD59FNYoMmNwQuO+ZYqg4EtK5H9
+lXBC8ZRhnPtwAw8jWMx9Sfls3B/n4L+SCIxCjUOJLIGZiAMufuwy8AuCiPMgNhf
89epzTT2pHrLM28ztJ4w1eogLaI7iBCQzMgHjoRj1tnsYdWPt+80FFmhW4gYpxv9
PNZNkcWvpAoHTbVwU+QFHDYHBClPbGPMsUajo8LhqkdkmvDBmgIgLaYtFpJvgYVD
KgNOhr1Ho9IznPsgDuHlZQRLF3rIgnhb
-----END CERTIFICATE-----
