Certificate:
    Data:
        Version: 3 (0x2)
        Serial Number:
            95:46:2e:5e:2c:16:5f:34:a3:6c:a9:33:6b:fe:b6:d7
        Signature Algorithm: sha256WithRSAEncryption
        Issuer: CN=team28-net
        Validity
            Not Before: Aug 14 14:22:38 2023 GMT
            Not After : Jul 29 14:22:38 2026 GMT
        Subject: CN=team28-server
        Subject Public Key Info:
            Public Key Algorithm: rsaEncryption
                RSA Public-Key: (2048 bit)
                Modulus:
                    00:d8:99:91:25:e7:13:c1:67:51:e1:dc:c8:97:87:
                    98:0b:ba:df:95:1e:6e:ee:c5:b1:18:fc:ee:5b:7e:
                    f7:26:cb:50:e3:c5:25:a1:ce:f1:98:34:e6:a0:44:
                    9a:25:cb:9f:09:dc:2c:b5:cf:83:92:e9:16:2c:e2:
                    fc:99:8a:26:f3:ec:fc:34:85:31:f1:20:74:e3:3f:
                    42:19:08:93:c8:5b:26:30:64:41:7e:38:c8:06:f2:
                    d4:52:af:33:7f:b8:38:e0:a6:eb:98:ca:f5:ec:82:
                    aa:e8:e4:4c:ce:bf:7d:10:b8:5f:c3:af:bb:40:e9:
                    41:25:79:c8:75:df:29:a1:70:ee:12:ff:22:e5:9c:
                    d7:53:f2:0d:d2:82:50:f8:52:89:ea:f5:a0:1f:8f:
                    b7:5f:bf:98:03:6c:c8:eb:24:ab:7b:16:eb:f4:3a:
                    5c:c6:67:4f:c4:d9:cc:53:b3:c7:98:b8:84:bd:13:
                    de:88:b0:ac:ac:2f:3d:e8:23:9b:e3:ef:8e:19:ea:
                    2c:32:6d:d5:d6:0c:87:7c:d4:98:6e:8d:7e:c6:0c:
                    9c:27:13:d1:67:dd:5e:18:71:07:ae:f4:4d:74:50:
                    6d:6f:ac:53:33:52:2d:b2:8c:e8:c0:45:bd:f6:c9:
                    87:70:65:2d:e6:40:70:14:72:7e:94:86:af:80:a7:
                    e6:8d
                Exponent: 65537 (0x10001)
        X509v3 extensions:
            X509v3 Basic Constraints: 
                CA:FALSE
            X509v3 Subject Key Identifier: 
                19:D2:3C:A9:68:65:DF:D4:38:B8:DA:74:95:A0:42:FD:A4:93:D9:4A
            X509v3 Authority Key Identifier: 
                keyid:61:60:A1:E6:56:AB:47:A8:46:7F:09:17:3D:C3:38:65:1C:C4:49:FB
                DirName:/CN=team28-net
                serial:3B:33:6B:33:FB:B4:C6:B1:6D:79:31:F5:95:96:53:1A:E7:43:42:AA

            X509v3 Extended Key Usage: 
                TLS Web Server Authentication
            X509v3 Key Usage: 
                Digital Signature, Key Encipherment
            X509v3 Subject Alternative Name: 
                DNS:team28-server
    Signature Algorithm: sha256WithRSAEncryption
         5f:18:ad:8e:ba:f3:3a:2e:e7:47:3c:96:e0:01:3a:11:e6:dc:
         7f:53:19:9e:16:12:15:1b:d0:bc:65:00:67:4b:cf:98:5a:5c:
         11:a2:91:5a:7c:68:d5:e3:7a:7b:99:32:1e:d0:ef:a7:f3:b3:
         16:45:f2:fe:f1:19:c3:91:60:1b:03:4c:c1:15:51:75:9f:5a:
         a3:af:25:3b:b1:d6:ef:01:11:7c:8a:44:5d:5a:e9:b1:0a:59:
         10:1f:a0:da:72:6e:82:d8:60:f0:d1:d5:a5:e0:54:d1:44:3a:
         2d:41:30:8c:7f:ce:d6:ed:70:59:83:13:c3:48:a4:a4:20:d9:
         43:ec:98:13:22:cf:80:c0:c7:f5:09:05:7d:a2:0b:99:89:dd:
         ab:47:1c:5c:d2:c3:30:81:25:dd:40:93:46:3e:aa:61:bf:c7:
         0e:06:65:db:e8:77:1b:80:a6:12:ce:6e:cc:56:36:ea:87:1c:
         ac:fc:07:91:e0:36:ee:af:58:7a:85:b9:02:3c:bb:81:08:06:
         13:66:c5:c7:61:64:36:3a:03:12:ee:25:16:a2:29:9b:47:3c:
         f4:3e:d4:16:15:a1:79:a5:41:88:52:da:6d:d1:4f:c3:7c:87:
         b0:76:a2:09:07:d3:3b:13:07:17:f7:87:34:6d:18:51:88:21:
         98:79:d5:43
-----BEGIN CERTIFICATE-----
MIIDdDCCAlygAwIBAgIRAJVGLl4sFl80o2ypM2v+ttcwDQYJKoZIhvcNAQELBQAw
FTETMBEGA1UEAwwKdGVhbTI4LW5ldDAeFw0yMzA4MTQxNDIyMzhaFw0yNjA3Mjkx
NDIyMzhaMBgxFjAUBgNVBAMMDXRlYW0yOC1zZXJ2ZXIwggEiMA0GCSqGSIb3DQEB
AQUAA4IBDwAwggEKAoIBAQDYmZEl5xPBZ1Hh3MiXh5gLut+VHm7uxbEY/O5bfvcm
y1DjxSWhzvGYNOagRJoly58J3Cy1z4OS6RYs4vyZiibz7Pw0hTHxIHTjP0IZCJPI
WyYwZEF+OMgG8tRSrzN/uDjgpuuYyvXsgqro5EzOv30QuF/Dr7tA6UElech13ymh
cO4S/yLlnNdT8g3SglD4Uonq9aAfj7dfv5gDbMjrJKt7Fuv0OlzGZ0/E2cxTs8eY
uIS9E96IsKysLz3oI5vj744Z6iwybdXWDId81JhujX7GDJwnE9Fn3V4YcQeu9E10
UG1vrFMzUi2yjOjARb32yYdwZS3mQHAUcn6Uhq+Ap+aNAgMBAAGjgbswgbgwCQYD
VR0TBAIwADAdBgNVHQ4EFgQUGdI8qWhl39Q4uNp0laBC/aST2UowUAYDVR0jBEkw
R4AUYWCh5larR6hGfwkXPcM4ZRzESfuhGaQXMBUxEzARBgNVBAMMCnRlYW0yOC1u
ZXSCFDszazP7tMaxbXkx9ZWWUxrnQ0KqMBMGA1UdJQQMMAoGCCsGAQUFBwMBMAsG
A1UdDwQEAwIFoDAYBgNVHREEETAPgg10ZWFtMjgtc2VydmVyMA0GCSqGSIb3DQEB
CwUAA4IBAQBfGK2OuvM6LudHPJbgAToR5tx/UxmeFhIVG9C8ZQBnS8+YWlwRopFa
fGjV43p7mTIe0O+n87MWRfL+8RnDkWAbA0zBFVF1n1qjryU7sdbvARF8ikRdWumx
ClkQH6Dacm6C2GDw0dWl4FTRRDotQTCMf87W7XBZgxPDSKSkINlD7JgTIs+AwMf1
CQV9oguZid2rRxxc0sMwgSXdQJNGPqphv8cOBmXb6HcbgKYSzm7MVjbqhxys/AeR
4Dbur1h6hbkCPLuBCAYTZsXHYWQ2OgMS7iUWoimbRzz0PtQWFaF5pUGIUtpt0U/D
fIewdqIJB9M7EwcX94c0bRhRiCGYedVD
-----END CERTIFICATE-----
