Certificate:
    Data:
        Version: 3 (0x2)
        Serial Number:
            ad:4e:e3:04:c6:09:fe:d7:e2:2f:2b:3b:44:0a:d9:b8
        Signature Algorithm: sha256WithRSAEncryption
        Issuer: CN=team61-net
        Validity
            Not Before: Aug 14 14:23:28 2023 GMT
            Not After : Jul 29 14:23:28 2026 GMT
        Subject: CN=team61-client
        Subject Public Key Info:
            Public Key Algorithm: rsaEncryption
                RSA Public-Key: (2048 bit)
                Modulus:
                    00:c3:a0:af:f3:f1:7a:cf:f3:94:5b:00:c2:10:5a:
                    4c:5c:f1:7d:61:77:52:24:f5:12:1e:70:18:30:d1:
                    44:8f:a8:68:6d:69:06:b0:11:97:e1:f7:f0:1b:cb:
                    59:02:25:a3:a7:2d:79:56:70:ed:fb:5f:3d:22:78:
                    b0:60:12:f1:13:5a:fe:7b:db:53:55:f5:be:86:b9:
                    13:eb:5a:69:48:6d:f1:9d:3b:6f:ea:91:ce:49:da:
                    86:e1:a4:63:b5:e1:c4:46:50:42:08:f8:fd:6f:bf:
                    15:15:e6:71:ee:95:b0:7d:2b:78:1f:fc:74:e0:97:
                    ae:02:e5:66:e0:5b:f2:7c:cd:9c:c9:24:e8:3f:09:
                    0e:40:d9:e3:5b:3d:f3:62:84:45:55:9d:4d:cf:22:
                    56:97:5d:cb:cf:56:7b:37:66:71:58:f3:7b:20:f8:
                    41:10:57:56:85:d4:4c:27:02:59:39:ef:8d:75:bd:
                    21:31:37:2b:d3:dc:f9:dd:2e:ff:52:e4:fe:91:62:
                    67:24:d3:eb:10:a0:55:55:04:10:be:e0:3a:60:51:
                    e3:85:d1:79:9a:7a:bb:8b:94:5b:87:71:ef:8a:7d:
                    50:0f:4a:ac:18:09:f4:0d:18:65:d4:ef:53:9f:81:
                    b3:cd:89:cd:9d:c4:ce:08:88:91:39:37:3c:33:17:
                    f5:fb
                Exponent: 65537 (0x10001)
        X509v3 extensions:
            X509v3 Basic Constraints: 
                CA:FALSE
            X509v3 Subject Key Identifier: 
                82:D6:E7:F5:6B:1F:06:67:38:F6:30:88:27:90:1C:33:77:34:04:DB
            X509v3 Authority Key Identifier: 
                keyid:27:9E:55:A6:00:EF:35:FB:73:CC:C2:A0:73:76:2D:2F:A5:F3:98:72
                DirName:/CN=team61-net
                serial:77:BA:56:52:84:7F:19:80:D4:2E:9F:5F:B4:2E:A3:8B:41:BE:A2:52

            X509v3 Extended Key Usage: 
                TLS Web Client Authentication
            X509v3 Key Usage: 
                Digital Signature
    Signature Algorithm: sha256WithRSAEncryption
         48:97:4f:7b:4b:8c:08:6e:4c:f3:34:71:e8:8e:7b:14:e2:f4:
         aa:c8:88:6f:d1:06:61:fd:ce:46:58:3e:2f:32:8a:9a:07:c1:
         37:60:b6:e5:f6:b2:a3:67:5a:53:1b:c7:ab:0a:e2:73:86:f5:
         3b:61:71:83:3d:02:42:e3:05:44:8a:34:58:29:80:e2:0b:b4:
         3d:3b:ea:e3:0e:ae:8c:3c:0d:a1:7d:02:26:a9:c4:06:33:21:
         e1:60:0f:da:6d:d2:35:33:8a:53:64:6e:4f:97:75:05:1f:bd:
         88:ca:e4:ed:ec:57:fe:8a:3b:ee:c9:6a:68:b8:17:6d:c8:fe:
         30:44:2e:ea:18:2b:71:08:d4:dd:9b:3d:47:68:aa:72:e0:ba:
         98:b2:a4:6a:a1:36:cf:3d:80:79:67:26:ff:64:e5:48:ef:d8:
         f0:f3:d6:f2:24:33:03:52:07:fa:76:20:2f:a3:36:db:8b:cf:
         b8:26:51:33:13:1b:b5:71:b3:19:c8:90:6c:f4:e9:df:5c:27:
         46:e0:06:cb:bf:e1:c5:30:79:7c:58:04:a1:03:c2:d6:f2:54:
         ff:b9:4d:e4:aa:2a:17:67:6d:a7:2e:f1:d1:45:83:09:12:6f:
         d0:fc:8a:bb:f2:60:82:02:d2:98:be:73:62:57:0f:23:ac:83:
         9c:72:82:e7
-----BEGIN CERTIFICATE-----
MIIDWjCCAkKgAwIBAgIRAK1O4wTGCf7X4i8rO0QK2bgwDQYJKoZIhvcNAQELBQAw
FTETMBEGA1UEAwwKdGVhbTYxLW5ldDAeFw0yMzA4MTQxNDIzMjhaFw0yNjA3Mjkx
NDIzMjhaMBgxFjAUBgNVBAMMDXRlYW02MS1jbGllbnQwggEiMA0GCSqGSIb3DQEB
AQUAA4IBDwAwggEKAoIBAQDDoK/z8XrP85RbAMIQWkxc8X1hd1Ik9RIecBgw0USP
qGhtaQawEZfh9/Aby1kCJaOnLXlWcO37Xz0ieLBgEvETWv5721NV9b6GuRPrWmlI
bfGdO2/qkc5J2obhpGO14cRGUEII+P1vvxUV5nHulbB9K3gf/HTgl64C5WbgW/J8
zZzJJOg/CQ5A2eNbPfNihEVVnU3PIlaXXcvPVns3ZnFY83sg+EEQV1aF1EwnAlk5
7411vSExNyvT3PndLv9S5P6RYmck0+sQoFVVBBC+4DpgUeOF0XmaeruLlFuHce+K
fVAPSqwYCfQNGGXU71OfgbPNic2dxM4IiJE5NzwzF/X7AgMBAAGjgaEwgZ4wCQYD
VR0TBAIwADAdBgNVHQ4EFgQUgtbn9WsfBmc49jCIJ5AcM3c0BNswUAYDVR0jBEkw
R4AUJ55VpgDvNftzzMKgc3YtL6XzmHKhGaQXMBUxEzARBgNVBAMMCnRlYW02MS1u
ZXSCFHe6VlKEfxmA1C6fX7Quo4tBvqJSMBMGA1UdJQQMMAoGCCsGAQUFBwMCMAsG
A1UdDwQEAwIHgDANBgkqhkiG9w0BAQsFAAOCAQEASJdPe0uMCG5M8zRx6I57FOL0
qsiIb9EGYf3ORlg+LzKKmgfBN2C25fayo2daUxvHqwric4b1O2Fxgz0CQuMFRIo0
WCmA4gu0PTvq4w6ujDwNoX0CJqnEBjMh4WAP2m3SNTOKU2RuT5d1BR+9iMrk7exX
/oo77slqaLgXbcj+MEQu6hgrcQjU3Zs9R2iqcuC6mLKkaqE2zz2AeWcm/2TlSO/Y
8PPW8iQzA1IH+nYgL6M224vPuCZRMxMbtXGzGciQbPTp31wnRuAGy7/hxTB5fFgE
oQPC1vJU/7lN5KoqF2dtpy7x0UWDCRJv0PyKu/JgggLSmL5zYlcPI6yDnHKC5w==
-----END CERTIFICATE-----
