Certificate:
    Data:
        Version: 3 (0x2)
        Serial Number:
            e7:eb:22:6f:68:56:f3:0e:ce:c0:0b:66:ff:6c:45:93
        Signature Algorithm: sha256WithRSAEncryption
        Issuer: CN=team46-net
        Validity
            Not Before: Aug 14 14:23:07 2023 GMT
            Not After : Jul 29 14:23:07 2026 GMT
        Subject: CN=team46-server
        Subject Public Key Info:
            Public Key Algorithm: rsaEncryption
                RSA Public-Key: (2048 bit)
                Modulus:
                    00:a5:9b:9d:52:3f:5f:3b:2d:92:2b:bd:7b:ce:97:
                    82:81:7e:6e:1b:a3:d6:26:20:73:ba:db:e7:74:34:
                    90:2c:c3:cf:f9:c1:08:c2:c3:28:d0:d9:fc:08:25:
                    0d:86:a1:1c:9e:53:b4:f1:e4:f5:82:75:f8:08:d5:
                    1a:13:d9:3c:8f:4f:18:34:b9:54:1a:c9:e3:ef:bc:
                    1c:8f:a8:d0:a9:01:3a:a3:7f:ce:5f:bb:a1:78:dd:
                    6c:95:8b:ce:48:a7:77:90:b5:06:f6:78:5d:15:9f:
                    25:d5:f5:ed:f0:3f:ff:61:64:1c:ea:3a:87:69:7d:
                    73:b0:61:76:a1:e8:18:6b:e0:d9:7e:60:58:9d:ab:
                    70:e8:17:8d:1a:3a:36:11:61:0f:b2:a4:c8:8c:3c:
                    ac:d7:dc:45:b7:23:82:d0:f7:0b:d9:f4:57:1c:5b:
                    1b:0d:3a:ac:c2:5e:11:07:32:ec:6a:2d:a0:55:e2:
                    ec:56:df:8a:58:7d:98:34:7b:92:47:b2:0b:01:20:
                    d7:c4:5c:18:09:17:b3:33:b2:f2:73:30:65:c0:da:
                    61:50:cc:c3:e2:52:55:31:c7:7b:45:f0:7c:00:8c:
                    f2:24:5a:da:64:6b:6b:08:a2:a9:31:82:be:05:68:
                    f5:78:5d:f9:48:b5:44:8b:d9:5e:df:da:45:6b:23:
                    ee:c7
                Exponent: 65537 (0x10001)
        X509v3 extensions:
            X509v3 Basic Constraints: 
                CA:FALSE
            X509v3 Subject Key Identifier: 
                16:B1:74:A5:76:78:80:77:16:87:57:6E:52:81:B2:21:7F:85:5A:E1
            X509v3 Authority Key Identifier: 
                keyid:77:0A:68:5A:B3:82:DA:BB:30:69:F1:51:3A:B1:5D:DA:57:63:41:98
                DirName:/CN=team46-net
                serial:3A:08:E7:AC:6E:FE:27:59:91:F7:C7:61:1E:DF:79:B0:AE:B0:58:52

            X509v3 Extended Key Usage: 
                TLS Web Server Authentication
            X509v3 Key Usage: 
                Digital Signature, Key Encipherment
            X509v3 Subject Alternative Name: 
                DNS:team46-server
    Signature Algorithm: sha256WithRSAEncryption
         24:13:86:44:23:da:ef:ae:dc:c6:f7:42:ef:c1:1a:3b:5c:8f:
         10:15:d9:9d:8a:d0:33:df:79:46:b2:a6:64:40:6d:85:61:fc:
         da:b2:d3:80:f6:f8:63:4c:41:31:9d:f9:be:be:86:e1:30:24:
         7d:2d:fd:87:29:45:b9:0c:c1:c2:ec:4e:82:b0:1c:e1:e6:9d:
         96:a5:7e:3c:34:f7:21:e8:c9:8b:51:df:14:c3:9c:53:cb:7c:
         8d:d5:5f:1d:4a:5a:3e:db:89:3b:e9:23:6c:19:cd:61:43:33:
         eb:b2:7a:be:e9:23:df:7e:f7:83:e2:26:bb:1e:1c:ff:36:43:
         5f:39:a3:3c:a8:b1:ed:5d:d4:cc:e7:6f:85:fb:03:db:29:0e:
         8a:08:ce:4e:9b:c9:9c:30:c1:4a:6c:31:3f:d4:9f:97:d3:6b:
         3b:e8:0c:5c:dd:ed:4e:dc:5a:90:3e:1c:57:94:d8:3e:11:f8:
         66:10:b8:bd:ea:8e:c1:bb:ca:cb:19:2b:c0:04:ed:44:3c:77:
         3d:39:4d:9f:95:a6:c9:b1:74:d6:be:84:f2:fd:77:2b:04:dd:
         43:80:8d:02:68:8c:7e:1d:90:2c:3b:f2:74:ee:3d:91:ea:32:
         e2:6e:57:a9:2d:62:27:0f:26:cf:92:ee:a3:57:4d:b1:c9:35:
         ba:a1:57:06
-----BEGIN CERTIFICATE-----
MIIDdDCCAlygAwIBAgIRAOfrIm9oVvMOzsALZv9sRZMwDQYJKoZIhvcNAQELBQAw
FTETMBEGA1UEAwwKdGVhbTQ2LW5ldDAeFw0yMzA4MTQxNDIzMDdaFw0yNjA3Mjkx
NDIzMDdaMBgxFjAUBgNVBAMMDXRlYW00Ni1zZXJ2ZXIwggEiMA0GCSqGSIb3DQEB
AQUAA4IBDwAwggEKAoIBAQClm51SP187LZIrvXvOl4KBfm4bo9YmIHO62+d0NJAs
w8/5wQjCwyjQ2fwIJQ2GoRyeU7Tx5PWCdfgI1RoT2TyPTxg0uVQayePvvByPqNCp
ATqjf85fu6F43WyVi85Ip3eQtQb2eF0VnyXV9e3wP/9hZBzqOodpfXOwYXah6Bhr
4Nl+YFidq3DoF40aOjYRYQ+ypMiMPKzX3EW3I4LQ9wvZ9FccWxsNOqzCXhEHMuxq
LaBV4uxW34pYfZg0e5JHsgsBINfEXBgJF7MzsvJzMGXA2mFQzMPiUlUxx3tF8HwA
jPIkWtpka2sIoqkxgr4FaPV4XflItUSL2V7f2kVrI+7HAgMBAAGjgbswgbgwCQYD
VR0TBAIwADAdBgNVHQ4EFgQUFrF0pXZ4gHcWh1duUoGyIX+FWuEwUAYDVR0jBEkw
R4AUdwpoWrOC2rswafFROrFd2ldjQZihGaQXMBUxEzARBgNVBAMMCnRlYW00Ni1u
ZXSCFDoI56xu/idZkffHYR7febCusFhSMBMGA1UdJQQMMAoGCCsGAQUFBwMBMAsG
A1UdDwQEAwIFoDAYBgNVHREEETAPgg10ZWFtNDYtc2VydmVyMA0GCSqGSIb3DQEB
CwUAA4IBAQAkE4ZEI9rvrtzG90LvwRo7XI8QFdmditAz33lGsqZkQG2FYfzastOA
9vhjTEExnfm+vobhMCR9Lf2HKUW5DMHC7E6CsBzh5p2WpX48NPch6MmLUd8Uw5xT
y3yN1V8dSlo+24k76SNsGc1hQzPrsnq+6SPffveD4ia7Hhz/NkNfOaM8qLHtXdTM
52+F+wPbKQ6KCM5Om8mcMMFKbDE/1J+X02s76Axc3e1O3FqQPhxXlNg+EfhmELi9
6o7Bu8rLGSvABO1EPHc9OU2flabJsXTWvoTy/XcrBN1DgI0CaIx+HZAsO/J07j2R
6jLiblepLWInDybPku6jV02xyTW6oVcG
-----END CERTIFICATE-----
