Certificate:
    Data:
        Version: 3 (0x2)
        Serial Number:
            3f:0c:4c:81:cf:d5:1f:db:01:1c:53:4e:dc:66:1f:14
        Signature Algorithm: sha256WithRSAEncryption
        Issuer: CN=team150-net
        Validity
            Not Before: Aug 14 14:25:23 2023 GMT
            Not After : Jul 29 14:25:23 2026 GMT
        Subject: CN=team150-client
        Subject Public Key Info:
            Public Key Algorithm: rsaEncryption
                RSA Public-Key: (2048 bit)
                Modulus:
                    00:b5:86:e9:e2:43:b9:8a:6c:06:7b:21:85:fc:58:
                    21:ac:fd:3e:f1:54:f3:a9:56:7a:20:e1:01:99:84:
                    a0:79:85:78:a3:94:a3:4c:0d:4b:b6:df:04:d9:32:
                    24:3e:90:cb:b3:b5:aa:ab:c2:34:60:66:1d:77:76:
                    e7:03:23:61:b3:95:71:17:f1:91:c3:95:4e:7e:8f:
                    4c:53:94:00:f8:03:07:5c:9d:29:27:4c:b5:48:22:
                    b4:bd:f9:dd:31:9d:2e:ab:3a:00:02:d3:28:82:1e:
                    65:30:a9:cd:20:36:a6:f3:d9:17:6d:d2:23:87:c8:
                    e8:25:5c:78:c0:d5:5a:09:03:e6:f7:50:f9:f3:44:
                    4b:2b:21:aa:f3:05:c0:f1:1c:67:01:26:40:ca:26:
                    6b:d1:44:09:fd:e4:4c:20:6d:aa:e6:b3:75:24:28:
                    df:1a:11:66:e7:21:b5:9e:b3:39:48:28:49:2d:38:
                    72:78:0f:a7:ac:56:d1:10:e0:85:d8:69:a6:8d:6a:
                    55:c4:24:09:a5:17:62:52:11:99:ab:d2:11:42:c8:
                    9f:c4:58:97:ec:56:02:c6:9b:40:a3:35:bf:6d:c4:
                    24:da:10:fb:a2:9e:b0:3c:f9:dc:ee:ef:86:b3:4a:
                    de:de:49:5c:74:ff:d6:76:c7:ce:e7:87:d8:20:54:
                    03:7b
                Exponent: 65537 (0x10001)
        X509v3 extensions:
            X509v3 Basic Constraints: 
                CA:FALSE
            X509v3 Subject Key Identifier: 
                33:50:AE:9F:2F:71:20:90:16:C4:27:D5:2A:A2:E8:DD:1F:72:41:F3
            X509v3 Authority Key Identifier: 
                keyid:23:01:A1:80:DA:5B:93:93:D1:D6:0F:3B:49:41:F4:A4:55:75:1F:B1
                DirName:/CN=team150-net
                serial:5D:B2:E0:30:DD:22:23:03:BB:37:84:90:71:B8:C9:AE:6D:1B:FF:91

            X509v3 Extended Key Usage: 
                TLS Web Client Authentication
            X509v3 Key Usage: 
                Digital Signature
    Signature Algorithm: sha256WithRSAEncryption
         68:a8:9c:6a:0e:a7:5a:b4:91:3b:94:bd:10:10:9a:ec:31:de:
         a3:b8:55:b1:55:16:64:93:a4:ed:f5:ee:96:e6:c1:96:bc:38:
         54:d2:3d:fe:a7:ac:a8:62:29:d0:2c:39:53:e7:e5:fc:10:1b:
         4a:13:b7:46:b6:64:9b:ae:88:82:4d:a7:45:48:08:2d:15:c0:
         ca:35:4a:ef:e1:77:65:8f:96:72:47:1a:c7:1b:35:cc:ca:97:
         6b:30:04:40:17:3f:91:fc:5c:ff:8a:f8:4f:4d:b9:74:fc:a2:
         ec:55:02:bd:33:fb:50:db:4b:33:7f:21:65:b1:a9:51:1d:04:
         8f:6c:06:f9:4f:46:d3:05:3f:6a:43:96:46:25:90:57:97:52:
         08:ad:c0:14:7d:45:21:72:d3:29:bd:6c:a9:a1:41:60:72:0e:
         06:db:1b:41:5a:e2:eb:72:72:bb:bc:14:1c:8c:73:97:7f:b0:
         3f:c2:62:55:0d:54:05:80:97:f5:76:ea:e7:ad:ab:21:37:02:
         02:43:00:53:4a:2c:20:b0:32:d3:10:14:83:23:db:e7:5a:04:
         60:c8:cd:62:d8:c0:b0:6d:00:f2:c6:1a:39:09:6d:ee:e8:f7:
         56:95:f0:bf:05:cb:0d:92:09:00:56:ad:3f:8d:55:86:92:3c:
         79:be:d1:8b
-----BEGIN CERTIFICATE-----
MIIDXDCCAkSgAwIBAgIQPwxMgc/VH9sBHFNO3GYfFDANBgkqhkiG9w0BAQsFADAW
MRQwEgYDVQQDDAt0ZWFtMTUwLW5ldDAeFw0yMzA4MTQxNDI1MjNaFw0yNjA3Mjkx
NDI1MjNaMBkxFzAVBgNVBAMMDnRlYW0xNTAtY2xpZW50MIIBIjANBgkqhkiG9w0B
AQEFAAOCAQ8AMIIBCgKCAQEAtYbp4kO5imwGeyGF/FghrP0+8VTzqVZ6IOEBmYSg
eYV4o5SjTA1Ltt8E2TIkPpDLs7Wqq8I0YGYdd3bnAyNhs5VxF/GRw5VOfo9MU5QA
+AMHXJ0pJ0y1SCK0vfndMZ0uqzoAAtMogh5lMKnNIDam89kXbdIjh8joJVx4wNVa
CQPm91D580RLKyGq8wXA8RxnASZAyiZr0UQJ/eRMIG2q5rN1JCjfGhFm5yG1nrM5
SChJLThyeA+nrFbREOCF2GmmjWpVxCQJpRdiUhGZq9IRQsifxFiX7FYCxptAozW/
bcQk2hD7op6wPPnc7u+Gs0re3klcdP/WdsfO54fYIFQDewIDAQABo4GiMIGfMAkG
A1UdEwQCMAAwHQYDVR0OBBYEFDNQrp8vcSCQFsQn1Sqi6N0fckHzMFEGA1UdIwRK
MEiAFCMBoYDaW5OT0dYPO0lB9KRVdR+xoRqkGDAWMRQwEgYDVQQDDAt0ZWFtMTUw
LW5ldIIUXbLgMN0iIwO7N4SQcbjJrm0b/5EwEwYDVR0lBAwwCgYIKwYBBQUHAwIw
CwYDVR0PBAQDAgeAMA0GCSqGSIb3DQEBCwUAA4IBAQBoqJxqDqdatJE7lL0QEJrs
Md6juFWxVRZkk6Tt9e6W5sGWvDhU0j3+p6yoYinQLDlT5+X8EBtKE7dGtmSbroiC
TadFSAgtFcDKNUrv4Xdlj5ZyRxrHGzXMypdrMARAFz+R/Fz/ivhPTbl0/KLsVQK9
M/tQ20szfyFlsalRHQSPbAb5T0bTBT9qQ5ZGJZBXl1IIrcAUfUUhctMpvWypoUFg
cg4G2xtBWuLrcnK7vBQcjHOXf7A/wmJVDVQFgJf1durnrashNwICQwBTSiwgsDLT
EBSDI9vnWgRgyM1i2MCwbQDyxho5CW3u6PdWlfC/BcsNkgkAVq0/jVWGkjx5vtGL
-----END CERTIFICATE-----
