Certificate:
    Data:
        Version: 3 (0x2)
        Serial Number:
            82:38:37:93:57:eb:c7:34:d8:fe:95:20:b2:9a:bf:7e
        Signature Algorithm: sha256WithRSAEncryption
        Issuer: CN=team258-net
        Validity
            Not Before: Aug 14 14:27:30 2023 GMT
            Not After : Jul 29 14:27:30 2026 GMT
        Subject: CN=team258-server
        Subject Public Key Info:
            Public Key Algorithm: rsaEncryption
                RSA Public-Key: (2048 bit)
                Modulus:
                    00:ac:24:9c:31:c4:40:41:4f:45:d1:f1:a2:08:71:
                    84:89:fd:6d:bb:8f:d2:39:0c:ef:e2:01:92:96:e9:
                    ba:8d:f3:24:16:08:77:1c:70:b7:bf:7f:8f:8e:9a:
                    b3:28:d3:11:0c:e9:e1:79:84:d3:a6:21:49:6b:b0:
                    a3:df:ad:e9:0f:8c:c7:c0:57:16:86:bb:20:ce:da:
                    f0:cd:2a:a4:e6:2c:18:55:4b:f6:a6:a9:43:66:fd:
                    10:77:ac:f9:d4:b2:82:35:9a:03:3b:6c:f3:7c:54:
                    eb:86:fd:01:12:cc:6f:1c:d7:6c:ec:b6:44:bc:65:
                    d5:ac:97:66:11:e6:e5:2b:51:d5:35:b4:0d:ad:4a:
                    23:b5:d2:84:bc:79:fc:f2:28:34:e0:f2:5d:09:c3:
                    f8:78:ae:e0:88:0e:78:a2:40:e6:05:a4:b4:02:cd:
                    9e:e8:af:3c:e9:0a:81:c3:a6:50:67:cd:e9:70:02:
                    86:78:07:cb:cd:1a:b0:8e:59:fe:b4:7d:8d:bf:30:
                    7f:9d:e8:4c:b2:76:23:40:2d:5d:e7:a8:e7:47:f7:
                    02:d2:63:82:08:40:75:e9:3f:a9:b9:b1:cd:23:37:
                    95:08:c6:07:72:47:66:e2:59:6a:c5:1b:30:67:2f:
                    dd:a8:27:f2:08:ad:bd:6b:09:13:81:d5:f7:e6:78:
                    1a:f5
                Exponent: 65537 (0x10001)
        X509v3 extensions:
            X509v3 Basic Constraints: 
                CA:FALSE
            X509v3 Subject Key Identifier: 
                15:02:D9:A6:00:C2:95:F4:F4:1F:8D:E6:02:85:4B:0C:9F:56:97:2F
            X509v3 Authority Key Identifier: 
                keyid:A1:99:78:22:CE:4E:39:87:3E:96:11:AA:05:3A:E7:79:5A:65:85:AB
                DirName:/CN=team258-net
                serial:6D:15:36:43:D6:FF:9F:39:EE:6E:2A:D8:34:5B:78:C0:99:12:56:4C

            X509v3 Extended Key Usage: 
                TLS Web Server Authentication
            X509v3 Key Usage: 
                Digital Signature, Key Encipherment
            X509v3 Subject Alternative Name: 
                DNS:team258-server
    Signature Algorithm: sha256WithRSAEncryption
         08:c4:cc:7e:05:d0:e3:a3:30:be:50:da:20:91:f5:db:c8:e3:
         18:b0:8c:56:ba:d4:80:a7:91:f8:02:0a:a9:e4:9b:ab:95:63:
         92:3f:3f:14:ab:44:d3:51:7c:ba:4a:ea:9b:34:15:84:61:2e:
         9b:fe:ad:f1:36:a1:ca:60:e9:62:0c:3b:e1:d4:d9:05:a0:4f:
         aa:62:e1:fa:a8:12:5d:79:3c:c3:cc:31:6d:36:72:28:8b:03:
         a0:70:d1:a3:00:8b:43:d3:42:15:4b:76:10:83:30:d9:4f:3b:
         de:27:5e:d2:53:d9:fb:70:7b:12:f3:16:f7:0a:53:6c:7b:e5:
         3f:c6:a8:ae:f8:c8:24:a8:85:6f:6b:a0:3d:2a:ea:61:cf:88:
         ce:28:ca:1e:40:42:3f:25:1f:a9:f2:8d:bc:04:f6:b5:32:8e:
         8e:b8:1c:16:1e:c0:7f:b0:d2:ec:8c:d8:6e:52:bc:ab:dd:65:
         fd:35:5a:1e:96:f5:8d:b3:dc:9c:87:9a:b1:2a:1d:55:f5:2e:
         27:10:80:67:c3:85:73:1c:28:a7:16:66:ca:40:06:76:fb:a9:
         2f:45:5e:ba:f3:11:eb:fa:81:84:ad:e5:bb:70:1b:d9:3d:2f:
         7c:13:28:36:5e:83:aa:16:2d:3c:3f:63:40:16:2d:53:39:66:
         93:1f:9f:00
-----BEGIN CERTIFICATE-----
MIIDeDCCAmCgAwIBAgIRAII4N5NX68c02P6VILKav34wDQYJKoZIhvcNAQELBQAw
FjEUMBIGA1UEAwwLdGVhbTI1OC1uZXQwHhcNMjMwODE0MTQyNzMwWhcNMjYwNzI5
MTQyNzMwWjAZMRcwFQYDVQQDDA50ZWFtMjU4LXNlcnZlcjCCASIwDQYJKoZIhvcN
AQEBBQADggEPADCCAQoCggEBAKwknDHEQEFPRdHxoghxhIn9bbuP0jkM7+IBkpbp
uo3zJBYIdxxwt79/j46asyjTEQzp4XmE06YhSWuwo9+t6Q+Mx8BXFoa7IM7a8M0q
pOYsGFVL9qapQ2b9EHes+dSygjWaAzts83xU64b9ARLMbxzXbOy2RLxl1ayXZhHm
5StR1TW0Da1KI7XShLx5/PIoNODyXQnD+Hiu4IgOeKJA5gWktALNnuivPOkKgcOm
UGfN6XAChngHy80asI5Z/rR9jb8wf53oTLJ2I0AtXeeo50f3AtJjgghAdek/qbmx
zSM3lQjGB3JHZuJZasUbMGcv3agn8gitvWsJE4HV9+Z4GvUCAwEAAaOBvTCBujAJ
BgNVHRMEAjAAMB0GA1UdDgQWBBQVAtmmAMKV9PQfjeYChUsMn1aXLzBRBgNVHSME
SjBIgBShmXgizk45hz6WEaoFOud5WmWFq6EapBgwFjEUMBIGA1UEAwwLdGVhbTI1
OC1uZXSCFG0VNkPW/5857m4q2DRbeMCZElZMMBMGA1UdJQQMMAoGCCsGAQUFBwMB
MAsGA1UdDwQEAwIFoDAZBgNVHREEEjAQgg50ZWFtMjU4LXNlcnZlcjANBgkqhkiG
9w0BAQsFAAOCAQEACMTMfgXQ46MwvlDaIJH128jjGLCMVrrUgKeR+AIKqeSbq5Vj
kj8/FKtE01F8ukrqmzQVhGEum/6t8TahymDpYgw74dTZBaBPqmLh+qgSXXk8w8wx
bTZyKIsDoHDRowCLQ9NCFUt2EIMw2U873ide0lPZ+3B7EvMW9wpTbHvlP8aorvjI
JKiFb2ugPSrqYc+IzijKHkBCPyUfqfKNvAT2tTKOjrgcFh7Af7DS7IzYblK8q91l
/TVaHpb1jbPcnIeasSodVfUuJxCAZ8OFcxwopxZmykAGdvupL0VeuvMR6/qBhK3l
u3Ab2T0vfBMoNl6DqhYtPD9jQBYtUzlmkx+fAA==
-----END CERTIFICATE-----
