Certificate:
    Data:
        Version: 3 (0x2)
        Serial Number:
            b3:56:39:9d:50:9c:30:86:f8:53:9d:1e:49:77:97:f2
        Signature Algorithm: sha256WithRSAEncryption
        Issuer: CN=team258-net
        Validity
            Not Before: Aug 14 14:27:30 2023 GMT
            Not After : Jul 29 14:27:30 2026 GMT
        Subject: CN=team258-client
        Subject Public Key Info:
            Public Key Algorithm: rsaEncryption
                RSA Public-Key: (2048 bit)
                Modulus:
                    00:bf:79:b7:2f:66:69:01:4b:96:eb:82:b4:0f:a7:
                    73:f4:00:40:9a:bb:34:e6:e0:e5:a4:a8:7f:3f:2c:
                    01:97:fd:49:6c:56:20:43:ab:b7:78:90:0b:5c:40:
                    fe:08:f0:12:db:a4:ef:a2:d5:bc:da:74:01:1c:ad:
                    49:ea:5e:68:30:fe:01:a1:13:5f:8a:cd:1b:a6:8a:
                    e0:ad:da:7f:97:d3:ec:79:64:27:b4:01:c9:07:96:
                    52:38:19:d4:10:d6:15:c9:4d:0c:1a:44:a8:7b:17:
                    48:cb:10:a8:9e:cb:88:53:60:f1:c3:f6:5d:b1:19:
                    ff:ea:a8:70:64:33:95:9a:5c:c3:b8:10:20:0f:7e:
                    c2:43:b3:2d:2e:ca:4b:9b:0d:4f:12:40:4d:f1:c4:
                    c9:1a:a7:67:62:11:39:bc:5f:96:2a:13:a5:ed:2f:
                    e6:08:d5:f6:84:5a:9d:98:8c:f7:10:27:da:20:c5:
                    6b:4f:83:7e:e5:55:09:5b:24:3c:38:24:8d:27:1a:
                    98:65:26:86:3b:bd:24:a6:60:ee:a1:f8:f0:dc:45:
                    5f:06:6a:fb:d6:bf:67:13:96:4b:13:ef:18:86:cd:
                    53:41:d5:9b:92:a2:bf:ff:7f:8a:31:ca:92:35:21:
                    8a:d7:ec:7b:df:7f:95:69:75:87:9b:cd:32:b2:2a:
                    1f:6d
                Exponent: 65537 (0x10001)
        X509v3 extensions:
            X509v3 Basic Constraints: 
                CA:FALSE
            X509v3 Subject Key Identifier: 
                C3:7E:ED:BC:6A:3E:43:D3:D5:71:F8:2F:80:6B:64:CD:CE:3D:0F:21
            X509v3 Authority Key Identifier: 
                keyid:A1:99:78:22:CE:4E:39:87:3E:96:11:AA:05:3A:E7:79:5A:65:85:AB
                DirName:/CN=team258-net
                serial:6D:15:36:43:D6:FF:9F:39:EE:6E:2A:D8:34:5B:78:C0:99:12:56:4C

            X509v3 Extended Key Usage: 
                TLS Web Client Authentication
            X509v3 Key Usage: 
                Digital Signature
    Signature Algorithm: sha256WithRSAEncryption
         88:1a:32:3d:05:da:8e:ce:a8:c9:b8:20:db:a1:f7:4a:86:02:
         0e:12:2b:b2:5b:a1:bb:2d:a4:f2:98:cc:20:f1:a5:64:ec:54:
         32:ec:83:11:0d:bd:7b:44:4e:83:92:23:41:cf:0e:3f:0e:50:
         88:48:18:0b:ae:b0:fe:0d:56:73:26:1e:67:6f:a5:54:d5:88:
         59:ed:08:3a:b7:e9:e8:c4:01:c7:5f:92:ed:2b:27:86:3c:75:
         cb:31:1e:f8:ae:f1:46:87:c7:d8:66:1d:e9:5f:e5:20:38:28:
         d7:36:f7:9a:90:78:7f:be:41:b5:74:d4:76:af:8c:e9:57:de:
         7b:01:42:91:0a:cb:aa:17:24:18:24:ca:36:0c:ef:1f:76:b2:
         69:c9:d8:1e:ca:4e:08:2d:41:e0:7d:64:f1:b8:42:c7:50:f5:
         f2:ac:1f:39:6c:6b:90:ee:b1:a5:2d:26:e6:8e:70:d6:2c:68:
         75:95:35:30:10:f8:d1:7e:2b:29:42:cb:e8:5b:6a:1c:84:99:
         5b:14:17:fd:ed:d1:92:97:a9:ea:7c:ae:48:99:bc:30:b9:b0:
         03:3d:87:b9:1d:1a:f6:56:00:97:e9:b6:08:bf:b8:6d:4b:70:
         18:bb:e2:4a:17:5e:f3:22:c3:4c:cc:84:57:89:cc:0f:d8:38:
         c2:4e:bf:93
-----BEGIN CERTIFICATE-----
MIIDXTCCAkWgAwIBAgIRALNWOZ1QnDCG+FOdHkl3l/IwDQYJKoZIhvcNAQELBQAw
FjEUMBIGA1UEAwwLdGVhbTI1OC1uZXQwHhcNMjMwODE0MTQyNzMwWhcNMjYwNzI5
MTQyNzMwWjAZMRcwFQYDVQQDDA50ZWFtMjU4LWNsaWVudDCCASIwDQYJKoZIhvcN
AQEBBQADggEPADCCAQoCggEBAL95ty9maQFLluuCtA+nc/QAQJq7NObg5aSofz8s
AZf9SWxWIEOrt3iQC1xA/gjwEtuk76LVvNp0ARytSepeaDD+AaETX4rNG6aK4K3a
f5fT7HlkJ7QByQeWUjgZ1BDWFclNDBpEqHsXSMsQqJ7LiFNg8cP2XbEZ/+qocGQz
lZpcw7gQIA9+wkOzLS7KS5sNTxJATfHEyRqnZ2IRObxflioTpe0v5gjV9oRanZiM
9xAn2iDFa0+DfuVVCVskPDgkjScamGUmhju9JKZg7qH48NxFXwZq+9a/ZxOWSxPv
GIbNU0HVm5Kiv/9/ijHKkjUhitfse99/lWl1h5vNMrIqH20CAwEAAaOBojCBnzAJ
BgNVHRMEAjAAMB0GA1UdDgQWBBTDfu28aj5D09Vx+C+Aa2TNzj0PITBRBgNVHSME
SjBIgBShmXgizk45hz6WEaoFOud5WmWFq6EapBgwFjEUMBIGA1UEAwwLdGVhbTI1
OC1uZXSCFG0VNkPW/5857m4q2DRbeMCZElZMMBMGA1UdJQQMMAoGCCsGAQUFBwMC
MAsGA1UdDwQEAwIHgDANBgkqhkiG9w0BAQsFAAOCAQEAiBoyPQXajs6oybgg26H3
SoYCDhIrsluhuy2k8pjMIPGlZOxUMuyDEQ29e0ROg5IjQc8OPw5QiEgYC66w/g1W
cyYeZ2+lVNWIWe0IOrfp6MQBx1+S7Ssnhjx1yzEe+K7xRofH2GYd6V/lIDgo1zb3
mpB4f75BtXTUdq+M6VfeewFCkQrLqhckGCTKNgzvH3ayacnYHspOCC1B4H1k8bhC
x1D18qwfOWxrkO6xpS0m5o5w1ixodZU1MBD40X4rKULL6FtqHISZWxQX/e3Rkpep
6nyuSJm8MLmwAz2HuR0a9lYAl+m2CL+4bUtwGLviShde8yLDTMyEV4nMD9g4wk6/
kw==
-----END CERTIFICATE-----
