Certificate:
    Data:
        Version: 3 (0x2)
        Serial Number:
            6e:9f:d7:c2:2c:94:b0:7b:e0:b0:15:12:4b:8b:e1:ec
        Signature Algorithm: sha256WithRSAEncryption
        Issuer: CN=team71-net
        Validity
            Not Before: Aug 14 14:23:38 2023 GMT
            Not After : Jul 29 14:23:38 2026 GMT
        Subject: CN=team71-client
        Subject Public Key Info:
            Public Key Algorithm: rsaEncryption
                RSA Public-Key: (2048 bit)
                Modulus:
                    00:97:f0:8e:3f:49:d7:b5:e0:f9:45:2b:7d:09:f2:
                    fe:cb:d7:87:20:b9:1e:94:fb:33:c1:40:0a:32:c3:
                    8d:a8:41:4d:68:df:69:66:10:eb:46:86:58:cf:f2:
                    57:9d:02:1e:f5:52:05:96:80:ec:0c:7a:5a:4b:0e:
                    00:1c:8c:bb:db:c4:74:99:2c:88:53:81:13:8b:47:
                    fe:a7:5f:05:71:d4:c9:13:36:bb:c9:37:ce:fc:3e:
                    47:40:79:3c:b2:86:26:2e:f4:9a:85:13:0f:59:35:
                    77:a1:c6:d3:c7:29:f2:ef:c9:11:2d:3d:f3:6b:9d:
                    44:94:8c:b1:56:a8:18:ee:2b:d2:8c:86:22:9e:e8:
                    9a:a2:2f:4c:ff:55:9a:a9:c6:65:53:77:21:b3:25:
                    ab:0b:b4:09:2b:4d:4a:3e:af:dc:8b:37:77:2b:8b:
                    e4:ed:4a:e0:96:82:d2:72:49:53:a1:85:db:bf:39:
                    1a:36:f8:27:ee:23:61:c0:a7:00:2b:aa:91:15:6f:
                    bf:df:73:aa:9a:9a:8c:f0:b4:6b:42:5a:63:de:c7:
                    45:48:c1:08:55:a0:6e:e4:0a:81:30:61:cf:5a:6b:
                    65:f3:05:5f:89:1e:b1:3d:74:2b:fa:35:11:42:07:
                    96:ca:83:05:2f:c1:18:1a:d2:0c:7c:8b:bd:1a:15:
                    d4:75
                Exponent: 65537 (0x10001)
        X509v3 extensions:
            X509v3 Basic Constraints: 
                CA:FALSE
            X509v3 Subject Key Identifier: 
                9B:36:C0:AB:0A:06:FC:B4:5D:E4:CA:9E:87:6A:94:C4:9B:08:AD:D7
            X509v3 Authority Key Identifier: 
                keyid:3E:01:19:30:9B:19:A3:F3:3D:2B:0B:E1:1E:3B:72:45:4E:58:CE:99
                DirName:/CN=team71-net
                serial:7E:80:30:16:0C:AF:46:88:4A:EF:69:39:25:F2:11:12:4D:A6:4B:C9

            X509v3 Extended Key Usage: 
                TLS Web Client Authentication
            X509v3 Key Usage: 
                Digital Signature
    Signature Algorithm: sha256WithRSAEncryption
         89:47:b1:2c:3b:fc:11:7d:84:6b:d9:f1:86:36:12:b8:62:4e:
         66:e7:f4:4a:92:e6:51:f5:b5:f6:e1:bd:bb:74:f7:a9:f0:77:
         29:68:98:d6:56:3d:a1:4d:14:ee:a8:6e:89:32:60:36:37:6a:
         a8:4e:e5:6f:5a:94:4d:15:17:5a:42:18:54:96:1b:73:9d:f3:
         a1:e4:56:7c:ad:04:cf:05:ed:84:42:70:9e:18:5c:04:25:60:
         a7:f6:53:75:91:bc:02:31:12:95:70:0d:e8:0d:65:f5:d3:b5:
         a0:37:a7:52:d3:5a:12:b8:79:48:24:33:56:be:94:67:ca:b0:
         e6:46:59:92:4a:0c:a8:81:86:5a:25:9f:69:6a:6f:90:04:cc:
         d0:da:cf:67:9b:12:f9:5a:61:8f:9c:42:dc:29:53:18:2f:2d:
         7b:ab:cc:7a:dd:34:84:e5:4e:cc:43:a5:13:0c:68:27:ee:2f:
         7d:a4:35:1a:9f:c6:10:02:72:43:2f:37:1a:cd:c2:21:b5:54:
         01:63:6f:40:22:c3:b5:0b:e4:d9:2a:b2:df:9f:e3:69:fe:b4:
         6c:d0:a2:b2:6f:5d:e7:59:08:42:06:99:f9:f4:21:cb:d5:2f:
         bc:8b:08:93:0f:70:03:c5:de:59:c8:ba:24:ca:56:d7:72:3c:
         5a:55:98:4d
-----BEGIN CERTIFICATE-----
MIIDWTCCAkGgAwIBAgIQbp/XwiyUsHvgsBUSS4vh7DANBgkqhkiG9w0BAQsFADAV
MRMwEQYDVQQDDAp0ZWFtNzEtbmV0MB4XDTIzMDgxNDE0MjMzOFoXDTI2MDcyOTE0
MjMzOFowGDEWMBQGA1UEAwwNdGVhbTcxLWNsaWVudDCCASIwDQYJKoZIhvcNAQEB
BQADggEPADCCAQoCggEBAJfwjj9J17Xg+UUrfQny/svXhyC5HpT7M8FACjLDjahB
TWjfaWYQ60aGWM/yV50CHvVSBZaA7Ax6WksOAByMu9vEdJksiFOBE4tH/qdfBXHU
yRM2u8k3zvw+R0B5PLKGJi70moUTD1k1d6HG08cp8u/JES0982udRJSMsVaoGO4r
0oyGIp7omqIvTP9VmqnGZVN3IbMlqwu0CStNSj6v3Is3dyuL5O1K4JaC0nJJU6GF
2785Gjb4J+4jYcCnACuqkRVvv99zqpqajPC0a0JaY97HRUjBCFWgbuQKgTBhz1pr
ZfMFX4kesT10K/o1EUIHlsqDBS/BGBrSDHyLvRoV1HUCAwEAAaOBoTCBnjAJBgNV
HRMEAjAAMB0GA1UdDgQWBBSbNsCrCgb8tF3kyp6HapTEmwit1zBQBgNVHSMESTBH
gBQ+ARkwmxmj8z0rC+EeO3JFTljOmaEZpBcwFTETMBEGA1UEAwwKdGVhbTcxLW5l
dIIUfoAwFgyvRohK72k5JfIREk2mS8kwEwYDVR0lBAwwCgYIKwYBBQUHAwIwCwYD
VR0PBAQDAgeAMA0GCSqGSIb3DQEBCwUAA4IBAQCJR7EsO/wRfYRr2fGGNhK4Yk5m
5/RKkuZR9bX24b27dPep8HcpaJjWVj2hTRTuqG6JMmA2N2qoTuVvWpRNFRdaQhhU
lhtznfOh5FZ8rQTPBe2EQnCeGFwEJWCn9lN1kbwCMRKVcA3oDWX107WgN6dS01oS
uHlIJDNWvpRnyrDmRlmSSgyogYZaJZ9pam+QBMzQ2s9nmxL5WmGPnELcKVMYLy17
q8x63TSE5U7MQ6UTDGgn7i99pDUan8YQAnJDLzcazcIhtVQBY29AIsO1C+TZKrLf
n+Np/rRs0KKyb13nWQhCBpn59CHL1S+8iwiTD3ADxd5ZyLokylbXcjxaVZhN
-----END CERTIFICATE-----
