Certificate:
    Data:
        Version: 3 (0x2)
        Serial Number:
            e0:41:91:e5:0d:86:81:5c:6f:9c:5a:88:77:48:f2:c7
        Signature Algorithm: sha256WithRSAEncryption
        Issuer: CN=team20-net
        Validity
            Not Before: Aug 14 14:22:26 2023 GMT
            Not After : Jul 29 14:22:26 2026 GMT
        Subject: CN=team20-client
        Subject Public Key Info:
            Public Key Algorithm: rsaEncryption
                RSA Public-Key: (2048 bit)
                Modulus:
                    00:d5:f4:3e:26:d0:b9:08:c1:ec:02:c4:ea:a0:6a:
                    af:ef:cf:92:26:82:c9:0e:07:82:ef:a7:a1:ce:49:
                    3c:da:90:13:01:33:cd:9e:e3:0c:55:1a:23:f1:32:
                    33:bd:9d:ee:e3:08:c9:c2:79:10:ac:b8:46:35:77:
                    57:f7:95:e6:bc:55:d8:0f:b0:20:7a:e9:52:d8:a2:
                    ce:67:97:e7:23:2b:d9:52:91:f1:1a:4f:f0:b9:05:
                    65:be:4b:b8:61:c0:0a:e7:1c:88:07:03:4f:13:d7:
                    33:45:1c:a4:59:3b:ff:90:e7:47:01:35:7d:54:16:
                    b1:bb:55:76:4d:87:cb:2c:f6:81:a8:c3:75:f0:ec:
                    0f:05:6f:4d:5a:a1:34:b8:2a:95:24:70:c4:79:e1:
                    96:a2:ba:95:d6:ce:1d:aa:7a:df:2d:9e:6e:58:49:
                    1a:95:ba:19:fd:98:7a:31:70:a2:96:14:eb:7a:94:
                    81:7b:98:01:e8:77:be:3d:57:1b:bb:b6:46:79:d3:
                    ea:e7:72:2d:92:26:65:d3:51:30:c3:6b:78:cd:09:
                    f4:ff:75:44:4c:e6:97:c5:83:85:99:20:8c:8a:1b:
                    13:3b:ea:2f:77:66:44:9d:4c:ad:9b:ec:34:16:af:
                    3e:c0:02:e7:28:ac:7b:a2:0a:59:e9:79:e6:b0:87:
                    f8:a9
                Exponent: 65537 (0x10001)
        X509v3 extensions:
            X509v3 Basic Constraints: 
                CA:FALSE
            X509v3 Subject Key Identifier: 
                C0:99:2B:AE:2E:9E:1E:19:7F:E9:47:02:61:AB:2A:F8:A0:00:3C:54
            X509v3 Authority Key Identifier: 
                keyid:56:C7:EE:3B:57:16:97:4A:86:3B:6A:7B:0F:B3:CF:CD:23:1B:C5:B2
                DirName:/CN=team20-net
                serial:78:88:48:F8:31:DC:B2:82:E7:2B:BE:D5:49:CD:DE:1B:B1:A0:81:C5

            X509v3 Extended Key Usage: 
                TLS Web Client Authentication
            X509v3 Key Usage: 
                Digital Signature
    Signature Algorithm: sha256WithRSAEncryption
         02:50:1e:5f:f3:74:7e:22:9f:00:6e:a5:92:18:02:18:02:38:
         02:eb:ec:af:02:a0:49:86:7d:2a:ee:0f:48:99:fc:08:62:ac:
         c9:69:91:d4:9a:1a:2d:1e:17:14:12:24:06:a0:06:ed:f3:4a:
         f6:17:82:9b:ae:34:3a:17:2d:8d:86:d0:3a:c5:6b:c5:ce:40:
         b4:2e:62:5d:2e:10:5d:d0:76:54:f1:5b:50:20:cc:a6:6a:6d:
         75:41:e5:e2:bc:2e:8b:63:09:7e:c7:67:1c:82:5a:8b:d4:19:
         3c:be:aa:b8:da:b3:a3:99:1c:31:2f:4d:02:83:0e:29:d1:be:
         cd:0f:91:46:7e:65:1e:27:4a:c9:bd:cf:9f:51:1a:be:45:ff:
         9c:b6:1a:dd:79:92:ed:38:e7:e9:87:fc:24:8d:b4:56:f6:aa:
         80:5d:13:3c:f0:1f:02:87:26:10:39:11:ea:cb:33:cb:e7:d0:
         cf:f6:83:0b:ee:66:d6:fd:40:04:31:1f:83:85:05:b0:eb:99:
         b4:ff:06:b7:f0:74:32:1d:08:72:11:45:b2:b1:89:96:2d:a2:
         9e:39:2a:f1:6e:84:89:2d:0a:6a:e6:f2:61:e4:e3:48:4d:93:
         0e:34:4f:32:f8:c5:42:59:f2:4b:50:63:36:3e:22:9b:09:8e:
         4f:a0:d5:76
-----BEGIN CERTIFICATE-----
MIIDWjCCAkKgAwIBAgIRAOBBkeUNhoFcb5xaiHdI8scwDQYJKoZIhvcNAQELBQAw
FTETMBEGA1UEAwwKdGVhbTIwLW5ldDAeFw0yMzA4MTQxNDIyMjZaFw0yNjA3Mjkx
NDIyMjZaMBgxFjAUBgNVBAMMDXRlYW0yMC1jbGllbnQwggEiMA0GCSqGSIb3DQEB
AQUAA4IBDwAwggEKAoIBAQDV9D4m0LkIwewCxOqgaq/vz5ImgskOB4Lvp6HOSTza
kBMBM82e4wxVGiPxMjO9ne7jCMnCeRCsuEY1d1f3lea8VdgPsCB66VLYos5nl+cj
K9lSkfEaT/C5BWW+S7hhwArnHIgHA08T1zNFHKRZO/+Q50cBNX1UFrG7VXZNh8ss
9oGow3Xw7A8Fb01aoTS4KpUkcMR54ZaiupXWzh2qet8tnm5YSRqVuhn9mHoxcKKW
FOt6lIF7mAHod749Vxu7tkZ50+rnci2SJmXTUTDDa3jNCfT/dURM5pfFg4WZIIyK
GxM76i93ZkSdTK2b7DQWrz7AAucorHuiClnpeeawh/ipAgMBAAGjgaEwgZ4wCQYD
VR0TBAIwADAdBgNVHQ4EFgQUwJkrri6eHhl/6UcCYasq+KAAPFQwUAYDVR0jBEkw
R4AUVsfuO1cWl0qGO2p7D7PPzSMbxbKhGaQXMBUxEzARBgNVBAMMCnRlYW0yMC1u
ZXSCFHiISPgx3LKC5yu+1UnN3huxoIHFMBMGA1UdJQQMMAoGCCsGAQUFBwMCMAsG
A1UdDwQEAwIHgDANBgkqhkiG9w0BAQsFAAOCAQEAAlAeX/N0fiKfAG6lkhgCGAI4
AuvsrwKgSYZ9Ku4PSJn8CGKsyWmR1JoaLR4XFBIkBqAG7fNK9heCm640OhctjYbQ
OsVrxc5AtC5iXS4QXdB2VPFbUCDMpmptdUHl4rwui2MJfsdnHIJai9QZPL6quNqz
o5kcMS9NAoMOKdG+zQ+RRn5lHidKyb3Pn1EavkX/nLYa3XmS7Tjn6Yf8JI20Vvaq
gF0TPPAfAocmEDkR6sszy+fQz/aDC+5m1v1ABDEfg4UFsOuZtP8Gt/B0Mh0IchFF
srGJli2injkq8W6EiS0KaubyYeTjSE2TDjRPMvjFQlnyS1BjNj4imwmOT6DVdg==
-----END CERTIFICATE-----
