Certificate:
    Data:
        Version: 3 (0x2)
        Serial Number:
            ce:a3:ef:22:52:16:88:3b:97:ed:b9:82:ae:93:4e:43
        Signature Algorithm: sha256WithRSAEncryption
        Issuer: CN=team77-net
        Validity
            Not Before: Aug 14 14:23:47 2023 GMT
            Not After : Jul 29 14:23:47 2026 GMT
        Subject: CN=team77-server
        Subject Public Key Info:
            Public Key Algorithm: rsaEncryption
                RSA Public-Key: (2048 bit)
                Modulus:
                    00:dd:51:3c:81:e0:1e:12:35:5a:79:6e:4e:f5:dd:
                    df:dd:a2:c4:ab:d0:51:a9:33:74:06:99:bf:0d:eb:
                    a6:7e:2c:d3:84:77:d0:58:0c:c7:4c:19:2e:ed:3a:
                    45:b9:44:0f:c8:ba:54:c2:73:3d:e2:6b:9f:c7:88:
                    fc:be:7a:b9:41:20:1e:3b:5e:3e:82:cd:9d:f4:1b:
                    79:ad:6b:75:0c:c7:d4:40:b1:fa:5c:82:36:30:29:
                    ba:13:0c:31:bd:c6:eb:6c:82:62:7f:9f:3c:a7:28:
                    78:d7:82:4c:37:ce:6d:2c:9c:69:89:03:c8:fc:5f:
                    8f:d8:dc:f1:41:38:df:cb:21:43:c1:fb:91:c2:a5:
                    ad:dc:89:11:9d:4d:88:ff:5b:cf:76:e7:5c:52:d3:
                    8f:fb:e1:1a:54:3c:07:67:6b:dd:ee:67:13:a9:63:
                    94:e6:cc:80:2f:69:81:02:a2:d6:bf:9b:29:a4:b6:
                    e2:1a:10:d4:ac:a0:2a:ec:6c:2c:c5:c3:a4:4f:0a:
                    07:5f:54:ee:81:3c:68:fe:f4:dc:89:f0:8f:d0:ec:
                    2b:14:5a:a0:d4:63:c1:70:6a:e4:a7:d7:5c:77:0a:
                    5e:a5:89:e1:53:ae:43:3b:15:31:c3:ba:33:af:1b:
                    14:92:41:5b:48:2b:be:9a:c2:34:03:45:d1:2a:2f:
                    9e:63
                Exponent: 65537 (0x10001)
        X509v3 extensions:
            X509v3 Basic Constraints: 
                CA:FALSE
            X509v3 Subject Key Identifier: 
                F1:D8:FA:7B:48:05:83:D2:AF:C0:FB:53:52:6F:A6:00:B6:82:37:F1
            X509v3 Authority Key Identifier: 
                keyid:37:CF:6A:26:6F:CF:91:B3:72:FC:E7:45:D2:93:4B:F7:02:94:56:6C
                DirName:/CN=team77-net
                serial:60:14:6C:C4:32:44:C9:4E:C3:5C:83:8D:03:0E:4A:74:B1:47:67:3E

            X509v3 Extended Key Usage: 
                TLS Web Server Authentication
            X509v3 Key Usage: 
                Digital Signature, Key Encipherment
            X509v3 Subject Alternative Name: 
                DNS:team77-server
    Signature Algorithm: sha256WithRSAEncryption
         69:67:e9:a7:dd:b1:15:13:60:fe:aa:10:85:be:c1:8f:82:df:
         8f:4b:2e:28:e8:fb:b1:36:e0:ff:f4:5c:40:f5:3b:aa:18:0b:
         3a:03:34:3d:8f:ca:4b:f5:ac:37:00:25:33:52:3d:d6:a9:f4:
         98:3e:50:06:1b:50:1c:89:8b:82:f1:d9:9f:fd:32:c9:a9:23:
         b2:0c:27:fa:5d:d3:c7:18:02:61:69:27:13:e9:5b:b1:bb:6b:
         a0:2b:4f:38:c4:ce:2c:e2:67:ae:93:0c:b7:cf:48:0f:41:05:
         be:e3:a1:f3:e0:b4:d6:63:25:9c:c8:2e:7f:e4:c8:52:95:e1:
         77:1a:2e:00:d6:d4:30:31:d1:f1:3d:22:ff:0c:78:30:94:e2:
         69:ee:79:93:e2:3d:eb:5b:70:e9:69:e1:25:28:c8:99:05:93:
         5b:23:d5:41:eb:aa:d1:22:63:f3:44:a0:96:3b:9d:ff:09:eb:
         73:3f:10:8c:6a:18:9c:ce:aa:ff:88:28:fc:32:e4:5c:11:3f:
         5f:03:7c:35:e0:a7:13:c3:23:fc:cc:1c:89:7e:18:7e:e8:4c:
         b2:c8:c2:f3:14:20:da:c6:a2:32:67:c4:e0:8c:90:47:cd:2f:
         a8:30:03:15:69:37:c6:94:30:e9:3c:06:82:4f:f0:f3:cf:1d:
         03:50:8e:a8
-----BEGIN CERTIFICATE-----
MIIDdDCCAlygAwIBAgIRAM6j7yJSFog7l+25gq6TTkMwDQYJKoZIhvcNAQELBQAw
FTETMBEGA1UEAwwKdGVhbTc3LW5ldDAeFw0yMzA4MTQxNDIzNDdaFw0yNjA3Mjkx
NDIzNDdaMBgxFjAUBgNVBAMMDXRlYW03Ny1zZXJ2ZXIwggEiMA0GCSqGSIb3DQEB
AQUAA4IBDwAwggEKAoIBAQDdUTyB4B4SNVp5bk713d/dosSr0FGpM3QGmb8N66Z+
LNOEd9BYDMdMGS7tOkW5RA/IulTCcz3ia5/HiPy+erlBIB47Xj6CzZ30G3mta3UM
x9RAsfpcgjYwKboTDDG9xutsgmJ/nzynKHjXgkw3zm0snGmJA8j8X4/Y3PFBON/L
IUPB+5HCpa3ciRGdTYj/W89251xS04/74RpUPAdna93uZxOpY5TmzIAvaYECota/
mymktuIaENSsoCrsbCzFw6RPCgdfVO6BPGj+9NyJ8I/Q7CsUWqDUY8FwauSn11x3
Cl6lieFTrkM7FTHDujOvGxSSQVtIK76awjQDRdEqL55jAgMBAAGjgbswgbgwCQYD
VR0TBAIwADAdBgNVHQ4EFgQU8dj6e0gFg9KvwPtTUm+mALaCN/EwUAYDVR0jBEkw
R4AUN89qJm/PkbNy/OdF0pNL9wKUVmyhGaQXMBUxEzARBgNVBAMMCnRlYW03Ny1u
ZXSCFGAUbMQyRMlOw1yDjQMOSnSxR2c+MBMGA1UdJQQMMAoGCCsGAQUFBwMBMAsG
A1UdDwQEAwIFoDAYBgNVHREEETAPgg10ZWFtNzctc2VydmVyMA0GCSqGSIb3DQEB
CwUAA4IBAQBpZ+mn3bEVE2D+qhCFvsGPgt+PSy4o6PuxNuD/9FxA9TuqGAs6AzQ9
j8pL9aw3ACUzUj3WqfSYPlAGG1AciYuC8dmf/TLJqSOyDCf6XdPHGAJhaScT6Vux
u2ugK084xM4s4meukwy3z0gPQQW+46Hz4LTWYyWcyC5/5MhSleF3Gi4A1tQwMdHx
PSL/DHgwlOJp7nmT4j3rW3DpaeElKMiZBZNbI9VB66rRImPzRKCWO53/CetzPxCM
ahiczqr/iCj8MuRcET9fA3w14KcTwyP8zByJfhh+6EyyyMLzFCDaxqIyZ8TgjJBH
zS+oMAMVaTfGlDDpPAaCT/Dzzx0DUI6o
-----END CERTIFICATE-----
