Certificate:
    Data:
        Version: 3 (0x2)
        Serial Number:
            0d:35:4a:48:7b:79:e7:b1:eb:92:55:1e:5c:76:5b:3a
        Signature Algorithm: sha256WithRSAEncryption
        Issuer: CN=team246-net
        Validity
            Not Before: Aug 14 14:27:15 2023 GMT
            Not After : Jul 29 14:27:15 2026 GMT
        Subject: CN=team246-client
        Subject Public Key Info:
            Public Key Algorithm: rsaEncryption
                RSA Public-Key: (2048 bit)
                Modulus:
                    00:bc:15:28:0f:44:69:ae:f1:08:c4:b9:06:d0:3f:
                    0c:d5:ec:26:f1:df:8c:84:bb:88:40:a1:f9:cd:8f:
                    14:d6:b9:eb:78:5e:5c:8f:4a:54:e0:b4:41:05:a1:
                    ca:38:b5:1f:c0:71:bb:05:d0:ac:e4:df:71:bb:b4:
                    05:dc:bc:8e:eb:72:25:80:a0:66:c1:b8:7f:3a:a3:
                    bb:98:8d:4d:ec:4a:b0:7f:b4:2c:38:45:46:eb:79:
                    6f:d4:ba:23:bf:13:0b:58:6f:60:dd:54:c1:06:c3:
                    8f:b3:20:49:42:be:54:de:ba:8d:c8:71:c2:15:c2:
                    87:73:cb:f0:e0:55:06:be:de:0f:a0:69:bc:23:9d:
                    fe:29:78:78:0d:a4:8b:ee:94:e5:f1:79:b5:a9:60:
                    7c:49:70:40:ab:f2:fc:cd:40:78:f0:d3:e5:e4:8a:
                    b0:f7:8e:6f:b4:6d:5f:4a:60:73:38:fd:98:84:b1:
                    d0:3e:55:46:ee:b5:b2:59:88:69:f4:81:71:2b:f2:
                    7f:3d:0d:2a:8d:94:5c:cb:88:66:40:0d:0a:d8:c2:
                    00:e7:37:ad:0e:71:70:08:ec:16:d7:a9:0c:fc:15:
                    ea:f0:41:38:26:0d:6b:16:93:cd:55:6a:d6:01:3f:
                    6b:1a:80:93:25:d7:ee:7d:58:0a:d7:bb:9e:ac:04:
                    4b:8b
                Exponent: 65537 (0x10001)
        X509v3 extensions:
            X509v3 Basic Constraints: 
                CA:FALSE
            X509v3 Subject Key Identifier: 
                36:56:38:56:9A:F9:09:5D:32:32:5D:75:F0:84:FB:30:07:7D:A4:BA
            X509v3 Authority Key Identifier: 
                keyid:F8:FF:DE:33:11:89:65:EA:1B:70:AB:3C:1D:E6:C3:A2:55:37:98:52
                DirName:/CN=team246-net
                serial:5C:B9:17:0C:33:00:3D:35:3C:EC:D0:FB:E8:52:AC:11:85:D4:65:49

            X509v3 Extended Key Usage: 
                TLS Web Client Authentication
            X509v3 Key Usage: 
                Digital Signature
    Signature Algorithm: sha256WithRSAEncryption
         42:24:e2:d8:93:34:af:2f:af:e8:e8:c3:7b:b4:fc:d6:b4:00:
         9f:36:a6:17:07:53:ff:70:ec:2f:84:24:70:7a:b5:e7:aa:7d:
         71:10:ca:1a:3e:9d:8b:22:0d:f9:53:ee:e1:c7:ac:54:a7:51:
         ee:6e:bf:de:2c:51:57:ca:48:48:06:4a:b2:f7:d6:68:3c:17:
         83:75:eb:89:88:67:42:36:ed:fa:92:04:14:08:ca:1a:38:ba:
         9e:4c:87:7c:97:92:b9:18:80:e4:8a:14:74:97:d0:67:ae:98:
         9b:61:2d:2c:fa:c4:ac:be:59:3b:75:b3:d8:18:9b:03:59:5a:
         d5:48:d9:ca:19:a1:9e:3e:9a:86:d7:ac:60:b8:c1:d2:b8:cd:
         0f:7d:17:fb:dd:f0:22:7b:88:0d:3f:f8:a3:39:75:98:02:c4:
         da:2a:a1:52:c1:a9:c7:0c:8e:ec:b4:d5:73:ff:c2:51:a8:6f:
         f7:dd:2d:39:aa:07:44:a2:7f:42:2e:8f:0d:64:9b:9d:2c:99:
         9e:54:88:5e:d8:f6:2f:02:c6:79:4b:93:1a:af:a8:99:96:e1:
         aa:dc:16:b1:22:12:8c:c6:7c:b5:0f:d8:8b:07:1c:0b:2e:d2:
         ee:d6:cc:f2:dd:d3:14:9d:43:31:6d:a0:b3:b0:43:2f:e0:58:
         66:db:ef:55
-----BEGIN CERTIFICATE-----
MIIDXDCCAkSgAwIBAgIQDTVKSHt557HrklUeXHZbOjANBgkqhkiG9w0BAQsFADAW
MRQwEgYDVQQDDAt0ZWFtMjQ2LW5ldDAeFw0yMzA4MTQxNDI3MTVaFw0yNjA3Mjkx
NDI3MTVaMBkxFzAVBgNVBAMMDnRlYW0yNDYtY2xpZW50MIIBIjANBgkqhkiG9w0B
AQEFAAOCAQ8AMIIBCgKCAQEAvBUoD0RprvEIxLkG0D8M1ewm8d+MhLuIQKH5zY8U
1rnreF5cj0pU4LRBBaHKOLUfwHG7BdCs5N9xu7QF3LyO63IlgKBmwbh/OqO7mI1N
7Eqwf7QsOEVG63lv1LojvxMLWG9g3VTBBsOPsyBJQr5U3rqNyHHCFcKHc8vw4FUG
vt4PoGm8I53+KXh4DaSL7pTl8Xm1qWB8SXBAq/L8zUB48NPl5Iqw945vtG1fSmBz
OP2YhLHQPlVG7rWyWYhp9IFxK/J/PQ0qjZRcy4hmQA0K2MIA5zetDnFwCOwW16kM
/BXq8EE4Jg1rFpPNVWrWAT9rGoCTJdfufVgK17uerARLiwIDAQABo4GiMIGfMAkG
A1UdEwQCMAAwHQYDVR0OBBYEFDZWOFaa+QldMjJddfCE+zAHfaS6MFEGA1UdIwRK
MEiAFPj/3jMRiWXqG3CrPB3mw6JVN5hSoRqkGDAWMRQwEgYDVQQDDAt0ZWFtMjQ2
LW5ldIIUXLkXDDMAPTU87ND76FKsEYXUZUkwEwYDVR0lBAwwCgYIKwYBBQUHAwIw
CwYDVR0PBAQDAgeAMA0GCSqGSIb3DQEBCwUAA4IBAQBCJOLYkzSvL6/o6MN7tPzW
tACfNqYXB1P/cOwvhCRwerXnqn1xEMoaPp2LIg35U+7hx6xUp1Hubr/eLFFXykhI
Bkqy99ZoPBeDdeuJiGdCNu36kgQUCMoaOLqeTId8l5K5GIDkihR0l9BnrpibYS0s
+sSsvlk7dbPYGJsDWVrVSNnKGaGePpqG16xguMHSuM0PfRf73fAie4gNP/ijOXWY
AsTaKqFSwanHDI7stNVz/8JRqG/33S05qgdEon9CLo8NZJudLJmeVIhe2PYvAsZ5
S5Mar6iZluGq3BaxIhKMxny1D9iLBxwLLtLu1szy3dMUnUMxbaCzsEMv4Fhm2+9V
-----END CERTIFICATE-----
