Certificate:
    Data:
        Version: 3 (0x2)
        Serial Number:
            f5:6f:dc:19:98:85:97:af:e4:fb:f2:39:a4:ad:2c:0a
        Signature Algorithm: sha256WithRSAEncryption
        Issuer: CN=team246-net
        Validity
            Not Before: Aug 14 14:27:15 2023 GMT
            Not After : Jul 29 14:27:15 2026 GMT
        Subject: CN=team246-server
        Subject Public Key Info:
            Public Key Algorithm: rsaEncryption
                RSA Public-Key: (2048 bit)
                Modulus:
                    00:c6:29:c3:d9:93:b3:5a:ea:8d:09:4a:b9:d4:45:
                    36:e7:93:e0:ec:98:e0:2e:57:d5:72:17:7c:8f:4d:
                    f4:6a:75:ce:bb:24:33:26:f3:f2:96:bd:57:16:c5:
                    01:98:26:36:2a:5c:04:40:1b:d8:5e:ba:1c:51:fa:
                    79:35:8b:6e:0c:bf:b3:cb:91:f3:73:6a:17:08:47:
                    d2:8f:a3:91:59:7d:3f:ed:c7:31:e5:8b:6f:b6:8d:
                    7c:e6:db:99:6e:62:01:6d:2a:0d:9d:7b:e8:d4:39:
                    79:41:bf:4f:45:f2:62:e7:5b:fe:25:9b:46:c6:46:
                    12:43:b8:00:f7:22:5d:61:83:d9:53:8a:a7:5e:86:
                    ff:c8:ce:36:08:e3:ec:df:78:12:85:2d:54:53:84:
                    1b:ef:bc:ba:78:64:5a:d9:1c:8b:ab:cd:80:71:69:
                    dd:4c:e7:e0:29:c1:1e:8b:fe:01:19:06:6f:fa:1e:
                    a6:02:5a:88:e7:ea:b3:9b:cc:af:8e:28:d3:4e:5e:
                    f4:92:b0:02:28:20:40:bd:5a:aa:fe:a8:17:b6:28:
                    9a:6d:3e:09:28:f0:58:47:2b:8b:8e:ff:c1:3d:ee:
                    e3:96:cd:54:46:28:2b:28:24:17:be:b1:fe:60:2d:
                    ae:8d:ef:71:c7:ef:29:0f:c7:f3:8a:50:b6:02:8f:
                    b5:0d
                Exponent: 65537 (0x10001)
        X509v3 extensions:
            X509v3 Basic Constraints: 
                CA:FALSE
            X509v3 Subject Key Identifier: 
                79:41:92:14:CF:9F:CC:60:FB:A0:9B:F3:A8:98:CB:FE:79:85:55:04
            X509v3 Authority Key Identifier: 
                keyid:F8:FF:DE:33:11:89:65:EA:1B:70:AB:3C:1D:E6:C3:A2:55:37:98:52
                DirName:/CN=team246-net
                serial:5C:B9:17:0C:33:00:3D:35:3C:EC:D0:FB:E8:52:AC:11:85:D4:65:49

            X509v3 Extended Key Usage: 
                TLS Web Server Authentication
            X509v3 Key Usage: 
                Digital Signature, Key Encipherment
            X509v3 Subject Alternative Name: 
                DNS:team246-server
    Signature Algorithm: sha256WithRSAEncryption
         44:9f:d9:cb:9f:6f:54:c2:9e:57:33:7a:41:96:60:b1:78:40:
         35:83:f3:a2:4a:2a:cb:15:5b:7a:37:44:24:40:e9:ee:b7:df:
         04:c7:b8:ac:60:62:61:06:e1:5c:b5:16:d3:10:32:15:2c:53:
         f9:14:a3:f3:a2:66:7e:31:4a:71:b8:4a:0f:7b:a6:56:68:e5:
         a7:0e:b3:c6:1a:34:19:f0:31:04:95:83:c7:1c:19:8b:cd:b8:
         4c:ce:63:cf:cc:aa:e6:e4:0a:6c:02:e5:af:f6:1e:a7:c4:07:
         d0:83:56:88:c9:39:7d:8b:00:1a:36:f5:18:e4:6e:25:81:f4:
         88:8f:f7:fb:87:43:32:10:b9:fc:00:a9:d0:a5:c9:56:8f:f2:
         54:fb:08:33:6b:a5:28:83:31:40:e2:ea:2f:71:f4:5e:e1:4c:
         53:ad:e3:09:92:f1:d3:74:21:32:42:2d:43:68:e7:21:78:13:
         6d:d8:5f:1a:4b:00:66:ba:34:48:4d:26:62:61:97:f3:8e:77:
         a0:73:76:a7:0f:28:9d:5d:3f:fd:22:b8:f7:a8:ff:61:6f:c0:
         72:4a:90:0a:07:92:d9:a5:23:02:1b:9a:05:f3:7d:4e:90:86:
         08:b9:86:43:35:bf:62:2a:64:42:21:46:cf:44:4e:c0:f8:36:
         f5:d3:eb:2a
-----BEGIN CERTIFICATE-----
MIIDeDCCAmCgAwIBAgIRAPVv3BmYhZev5PvyOaStLAowDQYJKoZIhvcNAQELBQAw
FjEUMBIGA1UEAwwLdGVhbTI0Ni1uZXQwHhcNMjMwODE0MTQyNzE1WhcNMjYwNzI5
MTQyNzE1WjAZMRcwFQYDVQQDDA50ZWFtMjQ2LXNlcnZlcjCCASIwDQYJKoZIhvcN
AQEBBQADggEPADCCAQoCggEBAMYpw9mTs1rqjQlKudRFNueT4OyY4C5X1XIXfI9N
9Gp1zrskMybz8pa9VxbFAZgmNipcBEAb2F66HFH6eTWLbgy/s8uR83NqFwhH0o+j
kVl9P+3HMeWLb7aNfObbmW5iAW0qDZ176NQ5eUG/T0XyYudb/iWbRsZGEkO4APci
XWGD2VOKp16G/8jONgjj7N94EoUtVFOEG++8unhkWtkci6vNgHFp3Uzn4CnBHov+
ARkGb/oepgJaiOfqs5vMr44o005e9JKwAiggQL1aqv6oF7Yomm0+CSjwWEcri47/
wT3u45bNVEYoKygkF76x/mAtro3vccfvKQ/H84pQtgKPtQ0CAwEAAaOBvTCBujAJ
BgNVHRMEAjAAMB0GA1UdDgQWBBR5QZIUz5/MYPugm/OomMv+eYVVBDBRBgNVHSME
SjBIgBT4/94zEYll6htwqzwd5sOiVTeYUqEapBgwFjEUMBIGA1UEAwwLdGVhbTI0
Ni1uZXSCFFy5FwwzAD01POzQ++hSrBGF1GVJMBMGA1UdJQQMMAoGCCsGAQUFBwMB
MAsGA1UdDwQEAwIFoDAZBgNVHREEEjAQgg50ZWFtMjQ2LXNlcnZlcjANBgkqhkiG
9w0BAQsFAAOCAQEARJ/Zy59vVMKeVzN6QZZgsXhANYPzokoqyxVbejdEJEDp7rff
BMe4rGBiYQbhXLUW0xAyFSxT+RSj86JmfjFKcbhKD3umVmjlpw6zxho0GfAxBJWD
xxwZi824TM5jz8yq5uQKbALlr/Yep8QH0INWiMk5fYsAGjb1GORuJYH0iI/3+4dD
MhC5/ACp0KXJVo/yVPsIM2ulKIMxQOLqL3H0XuFMU63jCZLx03QhMkItQ2jnIXgT
bdhfGksAZro0SE0mYmGX8453oHN2pw8onV0//SK496j/YW/AckqQCgeS2aUjAhua
BfN9TpCGCLmGQzW/YipkQiFGz0ROwPg29dPrKg==
-----END CERTIFICATE-----
