Certificate:
    Data:
        Version: 3 (0x2)
        Serial Number:
            58:d6:49:76:f9:62:1f:4e:12:7c:5f:00:d2:cb:f7:66
        Signature Algorithm: sha256WithRSAEncryption
        Issuer: CN=team144-net
        Validity
            Not Before: Aug 14 14:25:14 2023 GMT
            Not After : Jul 29 14:25:14 2026 GMT
        Subject: CN=team144-server
        Subject Public Key Info:
            Public Key Algorithm: rsaEncryption
                RSA Public-Key: (2048 bit)
                Modulus:
                    00:dc:4f:80:da:3e:fa:5d:7a:8b:4a:ad:ef:5a:1b:
                    d6:2a:92:aa:2e:ae:d0:3a:b0:80:1d:67:d9:55:77:
                    2f:4a:37:6c:71:22:7c:1e:3b:8a:05:23:94:a4:a7:
                    da:a9:8b:96:5a:17:47:f8:5a:c9:a9:0a:ba:c6:af:
                    cc:1f:58:df:f2:ec:b5:6e:02:61:7c:22:5c:82:32:
                    5a:3b:5b:01:85:e8:29:89:50:b9:05:93:dd:06:6d:
                    a6:da:12:7d:60:31:ef:3f:ba:35:85:c1:a3:48:77:
                    53:dd:86:0b:ef:ce:61:ec:0b:95:76:31:eb:02:44:
                    a3:c6:f6:15:cc:4c:4a:52:81:2f:87:16:6f:ee:46:
                    04:bf:82:a1:4b:4d:69:32:ad:0e:fc:8e:2d:ea:5c:
                    e1:2e:c2:7e:62:25:21:4e:eb:e8:61:f5:ea:b7:4b:
                    28:48:a9:a2:6b:cd:26:05:66:e9:b8:1e:a7:5e:31:
                    68:5a:fa:48:c9:bb:ae:5d:c2:b8:0c:79:f9:95:77:
                    1b:35:a5:a2:8d:ad:91:0e:eb:a6:86:a0:ce:b3:9a:
                    85:e0:f0:2f:35:c8:f7:73:99:d8:f0:f4:b5:6a:88:
                    28:32:10:da:98:4b:b0:9c:5c:da:0d:12:3c:7c:a7:
                    59:04:4f:bb:7a:e1:46:1e:29:8b:f9:dc:d2:c9:71:
                    40:47
                Exponent: 65537 (0x10001)
        X509v3 extensions:
            X509v3 Basic Constraints: 
                CA:FALSE
            X509v3 Subject Key Identifier: 
                E6:13:3D:38:56:0C:9A:C6:58:36:E7:7D:50:C1:62:DF:9A:3A:05:8F
            X509v3 Authority Key Identifier: 
                keyid:F4:E0:86:62:E2:B6:01:97:F9:D8:FA:9A:7A:1A:B0:FA:3A:5A:9B:65
                DirName:/CN=team144-net
                serial:30:CC:5A:43:70:A6:70:C6:AE:B6:DA:99:46:A6:DB:BD:23:36:4F:AA

            X509v3 Extended Key Usage: 
                TLS Web Server Authentication
            X509v3 Key Usage: 
                Digital Signature, Key Encipherment
            X509v3 Subject Alternative Name: 
                DNS:team144-server
    Signature Algorithm: sha256WithRSAEncryption
         79:b9:2c:d6:57:d6:54:b2:c4:a1:b7:8e:fa:be:e0:6d:43:eb:
         a0:87:94:05:49:b3:bc:10:5d:cf:e1:ea:1f:8b:ff:e2:9b:6c:
         0e:86:aa:e2:e1:77:1d:2b:41:02:00:4a:07:60:35:04:67:f3:
         ba:ce:55:92:2b:76:ec:5a:8f:de:b7:23:3b:a7:7d:d3:9e:3c:
         a1:af:68:89:88:ed:4c:3c:65:51:43:42:f3:36:a7:f7:29:14:
         2f:bd:16:e1:a5:10:d9:80:22:f2:e9:9e:64:66:c2:3d:e1:df:
         dc:4c:7a:3d:f0:85:a8:6a:d0:60:d5:68:42:f3:f5:d1:4d:61:
         77:47:f9:c1:78:89:53:d0:7f:55:61:d5:3f:53:53:1f:21:d1:
         5d:7a:2f:00:5d:3d:a8:0d:cd:2d:e9:e5:5e:53:51:93:65:8d:
         b3:c5:1b:c3:47:c8:ba:8d:42:68:25:48:4b:a2:65:57:39:96:
         9c:6c:39:e3:40:bb:c1:67:ef:ba:af:ef:68:8f:89:2e:e1:d9:
         0e:90:1c:13:8e:8f:28:27:0f:38:30:fd:d6:44:4d:6a:55:32:
         f3:a5:23:59:5b:07:33:51:59:34:35:27:4f:77:85:2a:87:1e:
         6a:88:be:af:e9:78:45:38:b7:0a:e2:5e:38:53:a9:48:34:6c:
         ca:5d:13:16
-----BEGIN CERTIFICATE-----
MIIDdzCCAl+gAwIBAgIQWNZJdvliH04SfF8A0sv3ZjANBgkqhkiG9w0BAQsFADAW
MRQwEgYDVQQDDAt0ZWFtMTQ0LW5ldDAeFw0yMzA4MTQxNDI1MTRaFw0yNjA3Mjkx
NDI1MTRaMBkxFzAVBgNVBAMMDnRlYW0xNDQtc2VydmVyMIIBIjANBgkqhkiG9w0B
AQEFAAOCAQ8AMIIBCgKCAQEA3E+A2j76XXqLSq3vWhvWKpKqLq7QOrCAHWfZVXcv
SjdscSJ8HjuKBSOUpKfaqYuWWhdH+FrJqQq6xq/MH1jf8uy1bgJhfCJcgjJaO1sB
hegpiVC5BZPdBm2m2hJ9YDHvP7o1hcGjSHdT3YYL785h7AuVdjHrAkSjxvYVzExK
UoEvhxZv7kYEv4KhS01pMq0O/I4t6lzhLsJ+YiUhTuvoYfXqt0soSKmia80mBWbp
uB6nXjFoWvpIybuuXcK4DHn5lXcbNaWija2RDuumhqDOs5qF4PAvNcj3c5nY8PS1
aogoMhDamEuwnFzaDRI8fKdZBE+7euFGHimL+dzSyXFARwIDAQABo4G9MIG6MAkG
A1UdEwQCMAAwHQYDVR0OBBYEFOYTPThWDJrGWDbnfVDBYt+aOgWPMFEGA1UdIwRK
MEiAFPTghmLitgGX+dj6mnoasPo6WptloRqkGDAWMRQwEgYDVQQDDAt0ZWFtMTQ0
LW5ldIIUMMxaQ3CmcMauttqZRqbbvSM2T6owEwYDVR0lBAwwCgYIKwYBBQUHAwEw
CwYDVR0PBAQDAgWgMBkGA1UdEQQSMBCCDnRlYW0xNDQtc2VydmVyMA0GCSqGSIb3
DQEBCwUAA4IBAQB5uSzWV9ZUssSht476vuBtQ+ugh5QFSbO8EF3P4eofi//im2wO
hqri4XcdK0ECAEoHYDUEZ/O6zlWSK3bsWo/etyM7p33Tnjyhr2iJiO1MPGVRQ0Lz
Nqf3KRQvvRbhpRDZgCLy6Z5kZsI94d/cTHo98IWoatBg1WhC8/XRTWF3R/nBeIlT
0H9VYdU/U1MfIdFdei8AXT2oDc0t6eVeU1GTZY2zxRvDR8i6jUJoJUhLomVXOZac
bDnjQLvBZ++6r+9oj4ku4dkOkBwTjo8oJw84MP3WRE1qVTLzpSNZWwczUVk0NSdP
d4Uqhx5qiL6v6XhFOLcK4l44U6lINGzKXRMW
-----END CERTIFICATE-----
