Certificate:
    Data:
        Version: 3 (0x2)
        Serial Number:
            a9:02:71:91:6c:fb:52:89:d4:e2:0d:53:1a:9d:90:9d
        Signature Algorithm: sha256WithRSAEncryption
        Issuer: CN=team144-net
        Validity
            Not Before: Aug 14 14:25:14 2023 GMT
            Not After : Jul 29 14:25:14 2026 GMT
        Subject: CN=team144-client
        Subject Public Key Info:
            Public Key Algorithm: rsaEncryption
                RSA Public-Key: (2048 bit)
                Modulus:
                    00:d1:f2:b0:37:07:89:f9:6c:3f:21:6e:39:65:8c:
                    74:e3:1a:9d:6c:fb:09:fb:19:ce:03:d4:9c:38:a7:
                    d9:14:56:df:fe:f5:d6:c8:ce:32:6b:e7:f6:85:88:
                    9b:46:b3:8b:38:4a:50:e2:74:85:d0:7c:e5:dc:10:
                    aa:ef:3a:ea:b8:d4:eb:ce:db:8c:e8:93:d0:15:f1:
                    e5:6f:9f:ac:8a:cf:21:f1:b4:7d:75:27:94:a8:6b:
                    8f:c3:5d:45:ce:42:89:da:7b:3e:41:ee:6e:da:bd:
                    61:d4:ea:91:ea:c9:6e:0f:59:65:4a:42:ef:bc:c4:
                    1e:62:50:3b:30:cd:50:22:d4:c9:2a:d8:a4:dc:7c:
                    97:df:02:48:63:c8:82:25:8f:e7:2c:9d:8e:ba:1d:
                    1d:67:21:ea:ce:49:b9:7f:79:9b:ef:77:80:53:73:
                    75:0a:58:ff:9a:26:eb:d4:6c:e1:2a:3e:18:44:d2:
                    d3:2f:30:91:12:a2:1f:08:fb:f6:5a:02:9a:16:fa:
                    60:4e:09:f8:99:ae:70:64:13:11:24:f0:3d:18:a3:
                    c2:fb:25:df:28:82:2a:90:39:d5:7f:e4:e5:81:0d:
                    01:93:b6:14:85:ed:96:d2:3a:15:aa:5e:8a:7d:5f:
                    2b:81:3d:a8:4d:c2:e1:7d:1e:53:56:04:b7:ba:c8:
                    59:a7
                Exponent: 65537 (0x10001)
        X509v3 extensions:
            X509v3 Basic Constraints: 
                CA:FALSE
            X509v3 Subject Key Identifier: 
                E5:93:21:D8:83:E3:E1:04:92:E5:3C:B5:DD:D3:66:00:F9:47:34:09
            X509v3 Authority Key Identifier: 
                keyid:F4:E0:86:62:E2:B6:01:97:F9:D8:FA:9A:7A:1A:B0:FA:3A:5A:9B:65
                DirName:/CN=team144-net
                serial:30:CC:5A:43:70:A6:70:C6:AE:B6:DA:99:46:A6:DB:BD:23:36:4F:AA

            X509v3 Extended Key Usage: 
                TLS Web Client Authentication
            X509v3 Key Usage: 
                Digital Signature
    Signature Algorithm: sha256WithRSAEncryption
         27:e5:01:51:ac:f2:f9:bb:44:65:cf:80:e5:55:4d:c3:4b:c3:
         ab:26:ed:8c:a0:01:69:84:1d:e8:35:63:27:9c:3e:77:a5:e0:
         e3:04:96:b9:f1:d9:2f:88:69:65:12:d2:53:71:f1:7a:39:c0:
         c5:e4:77:2c:e2:8f:1d:e3:df:61:ff:ca:a4:00:c5:fe:5a:a9:
         cf:01:73:bb:9d:3a:74:86:7a:45:ef:64:aa:0d:17:6a:44:1e:
         79:af:77:2f:1b:4f:77:48:73:76:9e:96:05:88:ae:1a:65:91:
         b6:41:f8:03:5c:04:38:7e:a4:b1:c5:d9:3d:c7:84:1c:77:0f:
         10:20:a4:8e:04:f0:13:51:4c:a1:d0:a7:0d:0f:e8:3b:9b:1b:
         42:b9:52:6c:ff:7e:2c:e2:e7:6b:c8:d1:b7:33:f9:8f:13:9b:
         ee:35:d7:e2:a1:7e:e9:f3:eb:4f:ce:3c:53:cb:fe:37:7e:57:
         65:44:de:9d:2e:44:4a:61:01:23:cd:f2:55:83:87:b8:43:05:
         4b:32:bb:d3:7d:e8:3a:82:c2:2d:cc:40:db:bb:ab:ca:66:93:
         48:32:f2:aa:8e:de:6f:0b:d8:b0:40:67:0b:87:6d:87:37:5a:
         b7:d1:ec:b4:7b:f8:2e:7d:48:da:88:87:11:5b:26:0d:a3:17:
         7d:4d:d9:80
-----BEGIN CERTIFICATE-----
MIIDXTCCAkWgAwIBAgIRAKkCcZFs+1KJ1OINUxqdkJ0wDQYJKoZIhvcNAQELBQAw
FjEUMBIGA1UEAwwLdGVhbTE0NC1uZXQwHhcNMjMwODE0MTQyNTE0WhcNMjYwNzI5
MTQyNTE0WjAZMRcwFQYDVQQDDA50ZWFtMTQ0LWNsaWVudDCCASIwDQYJKoZIhvcN
AQEBBQADggEPADCCAQoCggEBANHysDcHiflsPyFuOWWMdOManWz7CfsZzgPUnDin
2RRW3/711sjOMmvn9oWIm0azizhKUOJ0hdB85dwQqu866rjU687bjOiT0BXx5W+f
rIrPIfG0fXUnlKhrj8NdRc5Cidp7PkHubtq9YdTqkerJbg9ZZUpC77zEHmJQOzDN
UCLUySrYpNx8l98CSGPIgiWP5yydjrodHWch6s5JuX95m+93gFNzdQpY/5om69Rs
4So+GETS0y8wkRKiHwj79loCmhb6YE4J+JmucGQTESTwPRijwvsl3yiCKpA51X/k
5YENAZO2FIXtltI6Fapein1fK4E9qE3C4X0eU1YEt7rIWacCAwEAAaOBojCBnzAJ
BgNVHRMEAjAAMB0GA1UdDgQWBBTlkyHYg+PhBJLlPLXd02YA+Uc0CTBRBgNVHSME
SjBIgBT04IZi4rYBl/nY+pp6GrD6OlqbZaEapBgwFjEUMBIGA1UEAwwLdGVhbTE0
NC1uZXSCFDDMWkNwpnDGrrbamUam270jNk+qMBMGA1UdJQQMMAoGCCsGAQUFBwMC
MAsGA1UdDwQEAwIHgDANBgkqhkiG9w0BAQsFAAOCAQEAJ+UBUazy+btEZc+A5VVN
w0vDqybtjKABaYQd6DVjJ5w+d6Xg4wSWufHZL4hpZRLSU3HxejnAxeR3LOKPHePf
Yf/KpADF/lqpzwFzu506dIZ6Re9kqg0XakQeea93LxtPd0hzdp6WBYiuGmWRtkH4
A1wEOH6kscXZPceEHHcPECCkjgTwE1FModCnDQ/oO5sbQrlSbP9+LOLna8jRtzP5
jxOb7jXX4qF+6fPrT848U8v+N35XZUTenS5ESmEBI83yVYOHuEMFSzK7033oOoLC
LcxA27urymaTSDLyqo7ebwvYsEBnC4dthzdat9HstHv4Ln1I2oiHEVsmDaMXfU3Z
gA==
-----END CERTIFICATE-----
