Certificate:
    Data:
        Version: 3 (0x2)
        Serial Number:
            a1:08:d9:5a:b2:05:d9:96:21:c6:be:b3:5c:87:5e:b8
        Signature Algorithm: sha256WithRSAEncryption
        Issuer: CN=team119-net
        Validity
            Not Before: Aug 14 14:24:43 2023 GMT
            Not After : Jul 29 14:24:43 2026 GMT
        Subject: CN=team119-client
        Subject Public Key Info:
            Public Key Algorithm: rsaEncryption
                RSA Public-Key: (2048 bit)
                Modulus:
                    00:d5:c2:62:d4:cb:0d:49:fb:85:78:5e:27:90:86:
                    55:d9:26:63:e9:6e:16:00:7c:1f:be:c8:7b:0e:f2:
                    3b:4f:2f:ba:a9:00:fe:69:bd:a7:fd:f4:32:aa:76:
                    5f:71:a7:85:4d:d3:12:aa:e5:ad:17:5d:2a:22:78:
                    89:69:53:6d:03:a2:94:a7:3d:8f:11:b1:c9:9e:6d:
                    b1:74:27:ae:57:e2:50:83:0f:32:3d:89:8b:86:0d:
                    c5:7c:38:1e:c5:69:d4:37:7a:8a:40:26:70:6e:68:
                    17:26:92:98:4b:af:c0:3f:58:9a:59:27:fe:8b:b0:
                    d4:fc:ad:20:0f:35:d7:c5:05:72:50:bb:ba:39:0d:
                    e2:b2:f6:7d:89:b3:0e:1a:1d:35:b9:dd:7e:5b:16:
                    4f:d3:75:7e:3c:dd:96:67:27:d7:37:65:98:74:d2:
                    c7:c7:a7:eb:8b:bd:68:cd:9b:3e:6e:81:c6:1b:0c:
                    fd:12:fb:4e:19:71:81:bf:e0:99:cd:30:b9:3e:70:
                    f0:06:c6:6f:c1:94:cc:3a:31:07:ea:ac:ef:66:51:
                    c5:fd:a1:ff:98:ca:a6:c9:29:2c:8b:1e:64:b9:03:
                    19:c7:09:ef:5c:52:12:0d:4a:5e:40:89:27:04:22:
                    83:be:a2:32:c7:09:44:03:0b:0e:eb:03:0a:0a:88:
                    2a:35
                Exponent: 65537 (0x10001)
        X509v3 extensions:
            X509v3 Basic Constraints: 
                CA:FALSE
            X509v3 Subject Key Identifier: 
                E6:8B:B9:3E:5D:73:EE:35:25:7C:F1:B6:52:30:EE:9B:B1:CB:08:50
            X509v3 Authority Key Identifier: 
                keyid:8B:9D:D3:0B:DF:26:8C:CB:90:F3:0F:7F:0C:04:27:1D:D0:DA:A0:A6
                DirName:/CN=team119-net
                serial:69:AE:4D:30:DC:44:44:17:18:63:BE:38:E7:56:69:EB:6C:B5:8C:23

            X509v3 Extended Key Usage: 
                TLS Web Client Authentication
            X509v3 Key Usage: 
                Digital Signature
    Signature Algorithm: sha256WithRSAEncryption
         94:b7:b0:bc:d6:0a:db:08:e9:da:ea:f5:c6:9c:79:75:28:ec:
         2c:8c:6f:37:6c:af:71:9e:55:ba:9b:22:6d:27:06:d8:f2:4a:
         90:31:c8:9f:94:09:fa:30:e2:f7:6d:8d:49:35:0e:11:68:02:
         6c:36:7a:04:57:ca:95:0e:f4:6d:93:65:f1:bf:a5:94:c7:6d:
         aa:46:9f:7f:45:0f:a9:fb:60:63:4b:b7:fd:ca:9a:8d:3e:15:
         32:35:94:25:80:a5:ba:f8:fa:85:d5:b8:79:f8:20:68:48:d0:
         2b:96:6d:a6:8d:68:39:5d:97:25:b8:7c:eb:f4:5b:e6:49:10:
         63:8f:a1:d0:a6:b9:1b:d7:67:66:e7:30:8e:37:a4:0b:b3:8c:
         e9:59:ff:77:1a:dd:5f:23:9a:0c:43:df:7a:42:20:7b:1e:37:
         8c:eb:5e:d4:c8:7b:a1:d8:10:91:7f:ff:36:2b:da:48:1b:c1:
         f5:25:29:e7:d1:26:1d:51:49:da:05:bf:83:62:c2:b2:05:ca:
         19:a2:0a:a7:95:3a:23:78:30:61:c3:8a:65:5b:cb:27:52:a7:
         57:01:21:c7:6f:5a:fa:c2:1e:3a:f3:14:f3:2d:06:4d:10:11:
         e2:54:1c:f5:56:c4:08:8a:fa:b7:b8:9e:5b:cd:44:76:19:5d:
         93:59:69:7e
-----BEGIN CERTIFICATE-----
MIIDXTCCAkWgAwIBAgIRAKEI2VqyBdmWIca+s1yHXrgwDQYJKoZIhvcNAQELBQAw
FjEUMBIGA1UEAwwLdGVhbTExOS1uZXQwHhcNMjMwODE0MTQyNDQzWhcNMjYwNzI5
MTQyNDQzWjAZMRcwFQYDVQQDDA50ZWFtMTE5LWNsaWVudDCCASIwDQYJKoZIhvcN
AQEBBQADggEPADCCAQoCggEBANXCYtTLDUn7hXheJ5CGVdkmY+luFgB8H77Iew7y
O08vuqkA/mm9p/30Mqp2X3GnhU3TEqrlrRddKiJ4iWlTbQOilKc9jxGxyZ5tsXQn
rlfiUIMPMj2Ji4YNxXw4HsVp1Dd6ikAmcG5oFyaSmEuvwD9Ymlkn/ouw1PytIA81
18UFclC7ujkN4rL2fYmzDhodNbndflsWT9N1fjzdlmcn1zdlmHTSx8en64u9aM2b
Pm6BxhsM/RL7Thlxgb/gmc0wuT5w8AbGb8GUzDoxB+qs72ZRxf2h/5jKpskpLIse
ZLkDGccJ71xSEg1KXkCJJwQig76iMscJRAMLDusDCgqIKjUCAwEAAaOBojCBnzAJ
BgNVHRMEAjAAMB0GA1UdDgQWBBTmi7k+XXPuNSV88bZSMO6bscsIUDBRBgNVHSME
SjBIgBSLndML3yaMy5DzD38MBCcd0NqgpqEapBgwFjEUMBIGA1UEAwwLdGVhbTEx
OS1uZXSCFGmuTTDcREQXGGO+OOdWaetstYwjMBMGA1UdJQQMMAoGCCsGAQUFBwMC
MAsGA1UdDwQEAwIHgDANBgkqhkiG9w0BAQsFAAOCAQEAlLewvNYK2wjp2ur1xpx5
dSjsLIxvN2yvcZ5VupsibScG2PJKkDHIn5QJ+jDi922NSTUOEWgCbDZ6BFfKlQ70
bZNl8b+llMdtqkaff0UPqftgY0u3/cqajT4VMjWUJYCluvj6hdW4efggaEjQK5Zt
po1oOV2XJbh86/Rb5kkQY4+h0Ka5G9dnZucwjjekC7OM6Vn/dxrdXyOaDEPfekIg
ex43jOte1Mh7odgQkX//NivaSBvB9SUp59EmHVFJ2gW/g2LCsgXKGaIKp5U6I3gw
YcOKZVvLJ1KnVwEhx29a+sIeOvMU8y0GTRAR4lQc9VbECIr6t7ieW81Edhldk1lp
fg==
-----END CERTIFICATE-----
