Certificate:
    Data:
        Version: 3 (0x2)
        Serial Number:
            55:b9:64:16:13:a7:4d:37:1a:89:88:4d:0f:59:4e:28
        Signature Algorithm: sha256WithRSAEncryption
        Issuer: CN=team172-net
        Validity
            Not Before: Aug 14 14:25:49 2023 GMT
            Not After : Jul 29 14:25:49 2026 GMT
        Subject: CN=team172-server
        Subject Public Key Info:
            Public Key Algorithm: rsaEncryption
                RSA Public-Key: (2048 bit)
                Modulus:
                    00:f6:14:b1:5e:de:0b:5c:7b:a1:17:2a:19:a2:6a:
                    1a:13:b5:18:35:91:42:40:14:27:35:80:7a:62:24:
                    34:16:f5:df:8c:5a:2d:16:7f:43:cc:08:ba:33:b8:
                    54:e6:15:74:53:a6:31:cf:b4:4b:7f:a1:e3:f8:a2:
                    76:7c:00:1e:46:fb:27:2d:ce:73:bd:e1:52:d2:66:
                    68:9c:5b:de:f5:f6:28:9e:c1:5f:ca:82:be:04:b4:
                    57:2c:e4:ea:b2:78:ed:ef:5a:ce:e9:23:03:57:f1:
                    8c:cd:7e:24:b7:88:ca:59:b5:72:d4:f8:b0:4d:5b:
                    12:f5:34:f4:76:6b:3c:bf:73:1a:5a:d9:c5:11:76:
                    48:03:48:c2:c5:7a:aa:62:33:20:9e:ef:bf:1a:85:
                    16:16:e2:24:29:42:7a:16:74:15:c1:e1:7c:a7:e2:
                    4e:01:eb:33:34:fe:e4:e5:c5:df:9d:b2:8a:73:59:
                    a2:c3:c3:a0:f9:5d:38:27:29:36:5a:76:f5:39:df:
                    51:d7:87:5f:93:7d:9f:e8:02:2b:66:42:36:0d:52:
                    00:94:50:03:d9:8b:57:e5:7a:65:3e:36:09:27:54:
                    5a:de:9b:78:e5:1d:4b:5a:57:fc:5d:67:f2:6b:a0:
                    74:d3:29:15:85:33:1d:ca:11:10:15:c7:da:06:98:
                    34:f3
                Exponent: 65537 (0x10001)
        X509v3 extensions:
            X509v3 Basic Constraints: 
                CA:FALSE
            X509v3 Subject Key Identifier: 
                40:07:83:7B:25:F8:64:F3:5E:A9:78:DC:39:14:4A:01:56:D2:63:A2
            X509v3 Authority Key Identifier: 
                keyid:2D:01:15:BC:7E:47:52:27:5B:5D:1D:5F:87:B0:FD:79:A6:DD:42:D0
                DirName:/CN=team172-net
                serial:07:A7:CC:31:89:85:3B:88:1F:E7:D0:DD:45:25:54:81:02:4F:19:D8

            X509v3 Extended Key Usage: 
                TLS Web Server Authentication
            X509v3 Key Usage: 
                Digital Signature, Key Encipherment
            X509v3 Subject Alternative Name: 
                DNS:team172-server
    Signature Algorithm: sha256WithRSAEncryption
         79:1f:9c:69:f7:50:9c:ef:70:71:6a:a5:21:fd:9c:d0:4b:40:
         73:32:02:c8:8c:76:9c:6d:46:b6:93:c2:1a:e2:0a:e5:20:c0:
         8a:84:cb:d2:b7:59:c0:3e:28:e8:0e:fc:bf:a2:b0:ec:eb:8c:
         b2:88:fb:80:1b:df:32:6d:aa:72:67:a8:ac:82:a0:d8:60:5b:
         39:5f:bb:a8:51:6d:5f:eb:bc:1f:aa:8f:32:47:7b:fd:69:43:
         38:9d:bb:d4:e8:55:30:ad:08:47:c3:0e:4d:94:67:56:26:ac:
         53:10:35:c3:c8:04:a8:a3:15:7e:79:63:b8:15:43:2b:1b:bb:
         1d:5b:fe:74:99:72:b7:14:69:63:ac:2d:57:e1:8a:68:70:0e:
         2c:9d:95:1a:74:e3:13:95:03:4c:b9:5d:83:df:2b:87:4c:69:
         8c:71:d4:c6:9b:a3:33:f9:b7:de:98:94:c8:aa:4b:82:11:cd:
         36:f8:ee:e1:6f:6b:66:d6:d8:03:2f:62:c7:8b:c7:74:83:a3:
         80:9e:0f:b0:7a:4e:dc:26:dd:74:1c:84:46:e1:fb:a9:d2:bb:
         fb:33:2c:7f:23:e3:6a:e0:98:d0:4d:ca:8b:b8:6c:bc:94:a1:
         d8:52:39:28:29:da:0d:6f:cd:24:90:35:0e:cd:9e:ac:1c:a4:
         16:6e:b0:e1
-----BEGIN CERTIFICATE-----
MIIDdzCCAl+gAwIBAgIQVblkFhOnTTcaiYhND1lOKDANBgkqhkiG9w0BAQsFADAW
MRQwEgYDVQQDDAt0ZWFtMTcyLW5ldDAeFw0yMzA4MTQxNDI1NDlaFw0yNjA3Mjkx
NDI1NDlaMBkxFzAVBgNVBAMMDnRlYW0xNzItc2VydmVyMIIBIjANBgkqhkiG9w0B
AQEFAAOCAQ8AMIIBCgKCAQEA9hSxXt4LXHuhFyoZomoaE7UYNZFCQBQnNYB6YiQ0
FvXfjFotFn9DzAi6M7hU5hV0U6Yxz7RLf6Hj+KJ2fAAeRvsnLc5zveFS0mZonFve
9fYonsFfyoK+BLRXLOTqsnjt71rO6SMDV/GMzX4kt4jKWbVy1PiwTVsS9TT0dms8
v3MaWtnFEXZIA0jCxXqqYjMgnu+/GoUWFuIkKUJ6FnQVweF8p+JOAeszNP7k5cXf
nbKKc1miw8Og+V04Jyk2Wnb1Od9R14dfk32f6AIrZkI2DVIAlFAD2YtX5XplPjYJ
J1Ra3pt45R1LWlf8XWfya6B00ykVhTMdyhEQFcfaBpg08wIDAQABo4G9MIG6MAkG
A1UdEwQCMAAwHQYDVR0OBBYEFEAHg3sl+GTzXql43DkUSgFW0mOiMFEGA1UdIwRK
MEiAFC0BFbx+R1InW10dX4ew/Xmm3ULQoRqkGDAWMRQwEgYDVQQDDAt0ZWFtMTcy
LW5ldIIUB6fMMYmFO4gf59DdRSVUgQJPGdgwEwYDVR0lBAwwCgYIKwYBBQUHAwEw
CwYDVR0PBAQDAgWgMBkGA1UdEQQSMBCCDnRlYW0xNzItc2VydmVyMA0GCSqGSIb3
DQEBCwUAA4IBAQB5H5xp91Cc73BxaqUh/ZzQS0BzMgLIjHacbUa2k8Ia4grlIMCK
hMvSt1nAPijoDvy/orDs64yyiPuAG98ybapyZ6isgqDYYFs5X7uoUW1f67wfqo8y
R3v9aUM4nbvU6FUwrQhHww5NlGdWJqxTEDXDyASooxV+eWO4FUMrG7sdW/50mXK3
FGljrC1X4YpocA4snZUadOMTlQNMuV2D3yuHTGmMcdTGm6Mz+bfemJTIqkuCEc02
+O7hb2tm1tgDL2LHi8d0g6OAng+wek7cJt10HIRG4fup0rv7Myx/I+Nq4JjQTcqL
uGy8lKHYUjkoKdoNb80kkDUOzZ6sHKQWbrDh
-----END CERTIFICATE-----
