Certificate:
    Data:
        Version: 3 (0x2)
        Serial Number:
            f3:84:bf:d6:fa:80:12:a2:cc:18:38:6b:e9:9b:5f:e4
        Signature Algorithm: sha256WithRSAEncryption
        Issuer: CN=team23-net
        Validity
            Not Before: Aug 14 14:22:31 2023 GMT
            Not After : Jul 29 14:22:31 2026 GMT
        Subject: CN=team23-server
        Subject Public Key Info:
            Public Key Algorithm: rsaEncryption
                RSA Public-Key: (2048 bit)
                Modulus:
                    00:cd:d4:77:a6:63:c4:52:c0:44:62:21:ec:bb:74:
                    ac:e9:21:b7:ba:69:4e:cc:0d:39:16:3f:9d:a5:44:
                    7d:7d:f1:3f:6c:3b:c6:2a:ef:45:e1:d3:9e:b4:76:
                    fb:0a:1b:46:5d:d2:15:99:96:f8:fd:41:a5:7a:8a:
                    10:7e:b5:b1:39:80:73:6e:37:cc:1b:21:60:2b:28:
                    25:ee:cb:1e:c2:ad:d4:42:93:d1:b2:0b:6c:46:06:
                    20:8c:29:90:c8:c8:77:15:95:0b:77:64:77:31:d8:
                    32:83:68:e6:7c:46:6f:e8:d1:49:17:79:e1:40:9f:
                    82:18:a3:78:95:3c:29:e3:f3:47:e2:a9:b0:61:95:
                    83:90:5a:dc:2e:a0:e2:4f:1a:44:6b:39:8b:4a:af:
                    57:95:fe:58:64:6d:9c:7f:a0:db:84:ea:12:db:0b:
                    0a:ad:d6:f0:56:63:ec:03:ac:78:6b:e5:b8:c4:7d:
                    69:76:dd:6b:8b:39:08:c6:fe:31:4a:5f:77:90:c5:
                    9c:47:90:b2:a4:90:4f:cf:6f:be:f7:81:5a:eb:33:
                    d2:b1:cf:91:df:24:92:35:59:50:68:ae:f9:e0:52:
                    d7:e2:25:f4:3d:f6:e7:84:1e:cd:6b:66:eb:be:13:
                    e4:8d:71:0e:cc:74:f7:47:11:27:82:b9:f1:b0:43:
                    c7:3f
                Exponent: 65537 (0x10001)
        X509v3 extensions:
            X509v3 Basic Constraints: 
                CA:FALSE
            X509v3 Subject Key Identifier: 
                08:38:7C:30:D3:27:D3:D6:83:F9:7A:16:C1:F7:77:BE:8C:C5:E1:57
            X509v3 Authority Key Identifier: 
                keyid:D8:E7:78:3E:A1:A4:00:84:73:00:8C:84:E0:9E:0F:78:E9:D4:74:0A
                DirName:/CN=team23-net
                serial:4B:3B:3A:CA:5F:9E:3A:3A:C9:AD:A3:ED:66:6B:EF:D8:66:B8:65:B9

            X509v3 Extended Key Usage: 
                TLS Web Server Authentication
            X509v3 Key Usage: 
                Digital Signature, Key Encipherment
            X509v3 Subject Alternative Name: 
                DNS:team23-server
    Signature Algorithm: sha256WithRSAEncryption
         43:75:01:0a:12:0a:1c:9d:08:2f:5c:c6:c0:d8:81:ba:5b:b8:
         bf:65:55:a1:db:b6:1b:d7:90:ac:af:37:26:15:32:6f:b7:34:
         3e:0e:2d:8c:b9:81:c9:59:14:0e:e1:21:87:dd:30:93:b6:a4:
         e0:2f:d3:03:b4:05:77:b6:66:72:f5:3e:59:d1:e4:81:d7:1f:
         57:da:95:92:41:19:6f:63:8b:a3:2c:5a:81:1d:99:73:c9:f8:
         cf:08:0f:f5:dc:6a:b7:23:79:9b:b1:75:70:c9:36:69:03:e7:
         83:ff:db:f4:89:71:a6:6e:b6:bd:59:b3:48:5e:4a:dd:7e:2d:
         7f:2a:65:c1:c9:c4:fe:a9:fc:13:21:6d:bd:05:7b:33:0f:1c:
         7d:a8:50:8b:93:0b:73:b6:50:82:13:df:5e:f0:23:38:c9:c5:
         f2:56:e2:f1:bd:38:96:c5:f4:e5:21:d8:4b:46:bb:97:2b:ef:
         b6:ea:42:39:d0:d2:c0:79:54:90:bf:20:a4:6e:13:60:99:48:
         ee:76:6f:01:61:23:40:ca:69:a0:4d:ce:23:4b:70:d6:c1:12:
         19:39:70:a1:2d:b1:b6:a4:88:4b:48:37:3a:05:6c:b0:96:eb:
         8a:5b:e7:48:1b:8a:f1:48:3b:86:47:91:a6:26:01:d9:6a:f9:
         42:3d:53:20
-----BEGIN CERTIFICATE-----
MIIDdDCCAlygAwIBAgIRAPOEv9b6gBKizBg4a+mbX+QwDQYJKoZIhvcNAQELBQAw
FTETMBEGA1UEAwwKdGVhbTIzLW5ldDAeFw0yMzA4MTQxNDIyMzFaFw0yNjA3Mjkx
NDIyMzFaMBgxFjAUBgNVBAMMDXRlYW0yMy1zZXJ2ZXIwggEiMA0GCSqGSIb3DQEB
AQUAA4IBDwAwggEKAoIBAQDN1HemY8RSwERiIey7dKzpIbe6aU7MDTkWP52lRH19
8T9sO8Yq70Xh0560dvsKG0Zd0hWZlvj9QaV6ihB+tbE5gHNuN8wbIWArKCXuyx7C
rdRCk9GyC2xGBiCMKZDIyHcVlQt3ZHcx2DKDaOZ8Rm/o0UkXeeFAn4IYo3iVPCnj
80fiqbBhlYOQWtwuoOJPGkRrOYtKr1eV/lhkbZx/oNuE6hLbCwqt1vBWY+wDrHhr
5bjEfWl23WuLOQjG/jFKX3eQxZxHkLKkkE/Pb773gVrrM9Kxz5HfJJI1WVBorvng
UtfiJfQ99ueEHs1rZuu+E+SNcQ7MdPdHESeCufGwQ8c/AgMBAAGjgbswgbgwCQYD
VR0TBAIwADAdBgNVHQ4EFgQUCDh8MNMn09aD+XoWwfd3vozF4VcwUAYDVR0jBEkw
R4AU2Od4PqGkAIRzAIyE4J4PeOnUdAqhGaQXMBUxEzARBgNVBAMMCnRlYW0yMy1u
ZXSCFEs7Ospfnjo6ya2j7WZr79hmuGW5MBMGA1UdJQQMMAoGCCsGAQUFBwMBMAsG
A1UdDwQEAwIFoDAYBgNVHREEETAPgg10ZWFtMjMtc2VydmVyMA0GCSqGSIb3DQEB
CwUAA4IBAQBDdQEKEgocnQgvXMbA2IG6W7i/ZVWh27Yb15CsrzcmFTJvtzQ+Di2M
uYHJWRQO4SGH3TCTtqTgL9MDtAV3tmZy9T5Z0eSB1x9X2pWSQRlvY4ujLFqBHZlz
yfjPCA/13Gq3I3mbsXVwyTZpA+eD/9v0iXGmbra9WbNIXkrdfi1/KmXBycT+qfwT
IW29BXszDxx9qFCLkwtztlCCE99e8CM4ycXyVuLxvTiWxfTlIdhLRruXK++26kI5
0NLAeVSQvyCkbhNgmUjudm8BYSNAymmgTc4jS3DWwRIZOXChLbG2pIhLSDc6BWyw
luuKW+dIG4rxSDuGR5GmJgHZavlCPVMg
-----END CERTIFICATE-----
