Certificate:
    Data:
        Version: 3 (0x2)
        Serial Number:
            2e:7b:ea:36:e6:01:0f:6b:d7:6f:99:f4:b5:eb:58:4a
        Signature Algorithm: sha256WithRSAEncryption
        Issuer: CN=team41-net
        Validity
            Not Before: Aug 14 14:23:00 2023 GMT
            Not After : Jul 29 14:23:00 2026 GMT
        Subject: CN=team41-client
        Subject Public Key Info:
            Public Key Algorithm: rsaEncryption
                RSA Public-Key: (2048 bit)
                Modulus:
                    00:ad:fa:36:6f:a5:f4:1e:b0:e4:81:11:4d:65:69:
                    20:87:e8:40:fa:c9:c1:26:ff:69:39:2a:d9:83:21:
                    4a:93:de:e9:ee:e5:12:f7:9e:7b:de:63:55:32:b3:
                    94:4d:8b:4d:13:2e:53:e8:4c:df:c7:41:67:c5:e9:
                    fd:16:09:4e:8e:a8:bf:8f:39:bc:b0:91:91:12:0b:
                    70:bc:79:70:07:f1:86:04:9b:48:07:03:69:46:9f:
                    4a:12:a4:11:71:9b:92:19:01:33:7b:9d:cf:c4:94:
                    ed:dc:10:78:41:12:94:e3:3e:ec:2d:73:31:1e:29:
                    03:e9:97:38:10:22:36:eb:5d:a7:f2:a9:40:7a:7f:
                    4d:00:4b:b9:81:ad:de:03:56:30:db:8e:30:a8:7b:
                    ad:3f:83:27:a9:c2:b8:ff:bb:ed:5e:4f:51:b8:69:
                    59:2c:77:0b:9a:47:94:4f:06:63:3e:1e:f1:cb:fd:
                    cc:4a:b7:60:9b:40:36:8f:bc:d4:2d:1f:72:2e:54:
                    f2:19:9b:46:2c:a3:b9:e3:e1:05:34:a0:5c:22:5d:
                    1c:92:e5:e0:35:82:95:bf:ba:46:d6:f4:2e:67:ca:
                    46:06:80:a8:d3:33:dd:85:76:82:1f:a3:2f:15:43:
                    a7:9d:18:62:1c:c0:9c:7f:a3:4c:04:b7:c5:6b:33:
                    e6:67
                Exponent: 65537 (0x10001)
        X509v3 extensions:
            X509v3 Basic Constraints: 
                CA:FALSE
            X509v3 Subject Key Identifier: 
                FA:D2:86:2D:9F:16:16:8F:B5:7C:BA:55:34:10:1B:34:4B:14:C2:F0
            X509v3 Authority Key Identifier: 
                keyid:75:52:CB:32:66:73:73:80:6E:88:F4:DC:56:DB:FD:0E:2A:28:CA:03
                DirName:/CN=team41-net
                serial:19:5B:A5:1D:A1:9F:08:4C:78:1F:7F:F5:6C:DB:32:8F:54:42:8F:2B

            X509v3 Extended Key Usage: 
                TLS Web Client Authentication
            X509v3 Key Usage: 
                Digital Signature
    Signature Algorithm: sha256WithRSAEncryption
         95:c2:b2:97:46:ee:4c:be:30:ce:7a:37:e1:8a:a5:12:20:c1:
         f6:a9:af:5d:ce:d2:c2:12:70:06:f7:ce:f8:60:6b:fb:81:8a:
         eb:72:1e:e8:72:0e:9c:25:5c:fa:51:a7:6f:64:8a:a4:fd:54:
         49:90:9f:3b:d3:85:cc:b2:54:de:16:2f:6c:16:df:cc:fa:24:
         76:f5:01:54:7c:91:3d:9c:0b:8d:a2:7f:b1:1e:2a:88:32:bf:
         ac:9b:5e:f8:41:17:4b:22:ec:71:0d:43:09:d2:51:95:cb:04:
         65:81:32:33:1d:ee:92:b5:73:5d:95:7d:fe:a4:b0:7e:2e:c7:
         31:73:2b:18:25:54:dd:fd:a0:74:69:e0:87:7a:cd:90:73:88:
         13:2c:2d:64:07:05:75:62:6b:9f:50:47:1c:36:3a:96:b2:76:
         db:17:f7:31:0f:f8:32:b6:2f:c3:36:ef:74:3b:c7:b8:a7:7f:
         ae:fd:33:6b:36:3b:16:96:fd:e7:93:a3:5f:b2:06:62:f6:37:
         b2:05:f5:02:48:9a:60:ae:6f:f2:27:a5:fa:c0:2a:f5:31:26:
         55:26:7b:7c:1d:8c:bf:fb:77:28:a5:f8:db:b3:68:a4:a5:96:
         34:8e:a6:05:b0:fe:c7:df:17:d6:79:95:c4:8c:0e:28:f0:ab:
         04:e5:4f:05
-----BEGIN CERTIFICATE-----
MIIDWTCCAkGgAwIBAgIQLnvqNuYBD2vXb5n0tetYSjANBgkqhkiG9w0BAQsFADAV
MRMwEQYDVQQDDAp0ZWFtNDEtbmV0MB4XDTIzMDgxNDE0MjMwMFoXDTI2MDcyOTE0
MjMwMFowGDEWMBQGA1UEAwwNdGVhbTQxLWNsaWVudDCCASIwDQYJKoZIhvcNAQEB
BQADggEPADCCAQoCggEBAK36Nm+l9B6w5IERTWVpIIfoQPrJwSb/aTkq2YMhSpPe
6e7lEveee95jVTKzlE2LTRMuU+hM38dBZ8Xp/RYJTo6ov485vLCRkRILcLx5cAfx
hgSbSAcDaUafShKkEXGbkhkBM3udz8SU7dwQeEESlOM+7C1zMR4pA+mXOBAiNutd
p/KpQHp/TQBLuYGt3gNWMNuOMKh7rT+DJ6nCuP+77V5PUbhpWSx3C5pHlE8GYz4e
8cv9zEq3YJtANo+81C0fci5U8hmbRiyjuePhBTSgXCJdHJLl4DWClb+6Rtb0LmfK
RgaAqNMz3YV2gh+jLxVDp50YYhzAnH+jTAS3xWsz5mcCAwEAAaOBoTCBnjAJBgNV
HRMEAjAAMB0GA1UdDgQWBBT60oYtnxYWj7V8ulU0EBs0SxTC8DBQBgNVHSMESTBH
gBR1UssyZnNzgG6I9NxW2/0OKijKA6EZpBcwFTETMBEGA1UEAwwKdGVhbTQxLW5l
dIIUGVulHaGfCEx4H3/1bNsyj1RCjyswEwYDVR0lBAwwCgYIKwYBBQUHAwIwCwYD
VR0PBAQDAgeAMA0GCSqGSIb3DQEBCwUAA4IBAQCVwrKXRu5MvjDOejfhiqUSIMH2
qa9dztLCEnAG9874YGv7gYrrch7ocg6cJVz6UadvZIqk/VRJkJ8704XMslTeFi9s
Ft/M+iR29QFUfJE9nAuNon+xHiqIMr+sm174QRdLIuxxDUMJ0lGVywRlgTIzHe6S
tXNdlX3+pLB+LscxcysYJVTd/aB0aeCHes2Qc4gTLC1kBwV1YmufUEccNjqWsnbb
F/cxD/gyti/DNu90O8e4p3+u/TNrNjsWlv3nk6NfsgZi9jeyBfUCSJpgrm/yJ6X6
wCr1MSZVJnt8HYy/+3copfjbs2ikpZY0jqYFsP7H3xfWeZXEjA4o8KsE5U8F
-----END CERTIFICATE-----
