Certificate:
    Data:
        Version: 3 (0x2)
        Serial Number:
            be:de:11:c8:46:17:ee:c4:57:4b:a2:97:42:2c:d6:1f
        Signature Algorithm: sha256WithRSAEncryption
        Issuer: CN=team41-net
        Validity
            Not Before: Aug 14 14:23:00 2023 GMT
            Not After : Jul 29 14:23:00 2026 GMT
        Subject: CN=team41-server
        Subject Public Key Info:
            Public Key Algorithm: rsaEncryption
                RSA Public-Key: (2048 bit)
                Modulus:
                    00:b9:79:3e:bb:de:79:db:81:f3:8f:5a:0f:f7:05:
                    fc:e9:0b:cb:dc:7a:ad:02:84:7a:d2:c8:45:ec:34:
                    83:0b:c9:87:63:c9:a2:3f:98:08:5f:36:ef:6b:fc:
                    41:bc:0c:42:1f:9b:c4:6c:d4:e1:cb:be:e5:76:8c:
                    cc:7d:93:bf:17:51:d3:52:d7:e3:a9:df:94:9f:d4:
                    4a:c4:b3:42:74:3c:28:08:5b:ce:70:98:99:b0:05:
                    8b:e6:36:4c:c3:6d:89:7b:2b:07:0b:9e:ba:d9:d1:
                    9e:84:2f:df:d7:7b:5c:3b:ef:3a:ca:17:b9:90:b3:
                    1f:f0:d7:61:05:38:55:ae:57:58:86:b7:ae:57:e6:
                    ca:81:a3:8a:75:bf:36:0b:05:e8:42:07:be:7f:98:
                    5c:c0:8d:fb:df:1a:e0:a5:92:ab:4d:c5:d2:a9:63:
                    7a:4d:30:68:ea:77:2a:e6:72:a0:aa:f2:b5:6a:f2:
                    7a:f9:5f:89:63:f8:71:56:bf:66:6f:b4:a5:ee:16:
                    f2:1b:96:0d:f1:37:51:0c:ec:a3:fa:4f:f2:86:a8:
                    07:e6:c0:b3:7d:b2:1e:c7:77:da:a2:61:a2:ce:65:
                    83:eb:84:85:7c:0d:49:2c:62:35:29:cc:af:59:78:
                    d6:fa:49:2b:9b:fc:bb:56:dc:6c:ec:21:59:d8:d1:
                    59:9b
                Exponent: 65537 (0x10001)
        X509v3 extensions:
            X509v3 Basic Constraints: 
                CA:FALSE
            X509v3 Subject Key Identifier: 
                97:73:CC:BF:FA:11:FE:6E:7D:7F:4E:1B:7F:31:3C:FE:CE:C6:76:4A
            X509v3 Authority Key Identifier: 
                keyid:75:52:CB:32:66:73:73:80:6E:88:F4:DC:56:DB:FD:0E:2A:28:CA:03
                DirName:/CN=team41-net
                serial:19:5B:A5:1D:A1:9F:08:4C:78:1F:7F:F5:6C:DB:32:8F:54:42:8F:2B

            X509v3 Extended Key Usage: 
                TLS Web Server Authentication
            X509v3 Key Usage: 
                Digital Signature, Key Encipherment
            X509v3 Subject Alternative Name: 
                DNS:team41-server
    Signature Algorithm: sha256WithRSAEncryption
         3b:e7:69:6f:2f:3a:52:f0:47:e3:06:e4:82:51:3e:7d:97:50:
         46:01:71:a1:16:09:d9:aa:e4:88:7b:27:17:0d:1c:6e:cf:fa:
         c1:1a:ce:52:0c:0f:ad:c2:32:80:02:8b:04:00:c0:05:e0:35:
         81:fb:4d:cc:01:6b:d3:71:d7:94:eb:3e:e0:2c:71:aa:37:c4:
         ae:dd:fa:ea:4a:de:49:7a:07:1a:80:33:5e:12:1e:36:11:84:
         ea:3f:7b:c2:61:d2:9a:0d:48:59:27:90:d6:2d:20:4e:8d:ad:
         92:9d:17:b3:84:66:61:66:e2:8c:07:d4:85:ca:81:ea:e6:8a:
         88:41:9b:ea:f7:ab:7b:1e:f4:1d:9a:ea:53:fa:d0:3c:e1:08:
         c9:e4:f8:de:3d:74:57:9a:7b:96:65:a5:5c:88:4d:07:59:02:
         ae:72:90:45:e8:26:da:41:54:c8:2d:35:fc:d0:51:ed:61:d1:
         30:13:46:fc:f4:19:bb:a3:fd:9d:ee:9c:da:5a:d8:fa:2c:ef:
         b7:4b:67:d0:e6:f8:62:60:5f:67:dd:00:9b:23:71:7f:f3:30:
         b0:6b:89:ad:20:ef:6e:89:71:83:03:94:a2:6c:db:56:58:60:
         f8:64:10:ad:af:b7:b8:43:25:84:29:9c:ca:84:52:c8:04:cb:
         6d:95:96:28
-----BEGIN CERTIFICATE-----
MIIDdDCCAlygAwIBAgIRAL7eEchGF+7EV0uil0Is1h8wDQYJKoZIhvcNAQELBQAw
FTETMBEGA1UEAwwKdGVhbTQxLW5ldDAeFw0yMzA4MTQxNDIzMDBaFw0yNjA3Mjkx
NDIzMDBaMBgxFjAUBgNVBAMMDXRlYW00MS1zZXJ2ZXIwggEiMA0GCSqGSIb3DQEB
AQUAA4IBDwAwggEKAoIBAQC5eT673nnbgfOPWg/3BfzpC8vceq0ChHrSyEXsNIML
yYdjyaI/mAhfNu9r/EG8DEIfm8Rs1OHLvuV2jMx9k78XUdNS1+Op35Sf1ErEs0J0
PCgIW85wmJmwBYvmNkzDbYl7KwcLnrrZ0Z6EL9/Xe1w77zrKF7mQsx/w12EFOFWu
V1iGt65X5sqBo4p1vzYLBehCB75/mFzAjfvfGuClkqtNxdKpY3pNMGjqdyrmcqCq
8rVq8nr5X4lj+HFWv2ZvtKXuFvIblg3xN1EM7KP6T/KGqAfmwLN9sh7Hd9qiYaLO
ZYPrhIV8DUksYjUpzK9ZeNb6SSub/LtW3GzsIVnY0VmbAgMBAAGjgbswgbgwCQYD
VR0TBAIwADAdBgNVHQ4EFgQUl3PMv/oR/m59f04bfzE8/s7GdkowUAYDVR0jBEkw
R4AUdVLLMmZzc4BuiPTcVtv9DiooygOhGaQXMBUxEzARBgNVBAMMCnRlYW00MS1u
ZXSCFBlbpR2hnwhMeB9/9WzbMo9UQo8rMBMGA1UdJQQMMAoGCCsGAQUFBwMBMAsG
A1UdDwQEAwIFoDAYBgNVHREEETAPgg10ZWFtNDEtc2VydmVyMA0GCSqGSIb3DQEB
CwUAA4IBAQA752lvLzpS8EfjBuSCUT59l1BGAXGhFgnZquSIeycXDRxuz/rBGs5S
DA+twjKAAosEAMAF4DWB+03MAWvTcdeU6z7gLHGqN8Su3frqSt5JegcagDNeEh42
EYTqP3vCYdKaDUhZJ5DWLSBOja2SnRezhGZhZuKMB9SFyoHq5oqIQZvq96t7HvQd
mupT+tA84QjJ5PjePXRXmnuWZaVciE0HWQKucpBF6CbaQVTILTX80FHtYdEwE0b8
9Bm7o/2d7pzaWtj6LO+3S2fQ5vhiYF9n3QCbI3F/8zCwa4mtIO9uiXGDA5SibNtW
WGD4ZBCtr7e4QyWEKZzKhFLIBMttlZYo
-----END CERTIFICATE-----
