Certificate:
    Data:
        Version: 3 (0x2)
        Serial Number:
            a6:08:f7:28:1a:58:50:04:ec:28:b3:28:06:a2:8c:15
        Signature Algorithm: sha256WithRSAEncryption
        Issuer: CN=team222-net
        Validity
            Not Before: Aug 14 14:26:45 2023 GMT
            Not After : Jul 29 14:26:45 2026 GMT
        Subject: CN=team222-client
        Subject Public Key Info:
            Public Key Algorithm: rsaEncryption
                RSA Public-Key: (2048 bit)
                Modulus:
                    00:ba:f4:50:72:8a:aa:2f:8c:1f:48:32:67:66:de:
                    7b:ed:25:13:9f:57:ee:04:73:fa:01:2b:d5:bd:61:
                    c7:54:96:19:b0:94:75:44:fd:b4:12:57:a2:5e:21:
                    8d:9c:d7:6f:16:6c:d2:5f:d1:a5:05:1f:a3:af:cb:
                    eb:2f:a0:f9:8b:b6:08:1f:8e:36:35:81:92:cb:ea:
                    4c:f1:03:92:78:0f:d6:b5:2f:56:d1:c7:c6:8d:d9:
                    3f:00:fa:23:f1:4d:aa:d2:f0:e2:3a:23:9e:fd:2a:
                    21:8c:4c:c5:2b:38:3e:98:dd:ee:6b:26:94:f8:d8:
                    3a:bb:d3:0b:b7:eb:4b:af:42:40:9b:02:5a:35:4b:
                    b1:b9:fe:02:94:5f:68:bb:bd:fb:f5:f4:68:6c:d4:
                    30:91:8c:af:f1:f8:39:1e:46:da:f3:cf:13:95:37:
                    17:54:f3:76:b5:54:ae:f9:ea:89:7b:ce:51:4d:15:
                    b2:86:4e:c1:ad:12:df:cf:91:2b:d0:ec:85:37:bb:
                    3e:1c:cf:2d:b7:b4:62:73:45:f9:5c:4c:1a:2c:65:
                    ee:09:0c:ca:75:f7:43:44:4f:92:60:10:e8:14:9f:
                    2f:dd:d0:8d:31:b0:22:46:ff:a5:29:c7:b1:d9:02:
                    e9:5d:f1:5c:4e:4a:5b:39:e1:57:1b:2b:d0:b7:11:
                    7c:a5
                Exponent: 65537 (0x10001)
        X509v3 extensions:
            X509v3 Basic Constraints: 
                CA:FALSE
            X509v3 Subject Key Identifier: 
                56:0E:A4:D3:67:62:12:AD:2C:6E:8D:CB:09:1F:F8:79:EB:75:8F:8B
            X509v3 Authority Key Identifier: 
                keyid:78:A3:B2:BE:D8:20:21:17:EB:4F:B8:93:E7:AA:B0:0D:C7:B6:14:65
                DirName:/CN=team222-net
                serial:24:3F:E3:AB:AE:52:9E:48:F9:17:1B:42:81:F3:3B:55:FF:9D:79:CA

            X509v3 Extended Key Usage: 
                TLS Web Client Authentication
            X509v3 Key Usage: 
                Digital Signature
    Signature Algorithm: sha256WithRSAEncryption
         19:2e:f8:d8:db:49:87:22:db:80:5b:b5:8b:42:a8:9a:b7:ef:
         43:58:26:cf:64:cf:54:a9:af:4e:3e:5c:1b:53:1f:ad:fd:76:
         a6:a2:ad:9b:df:1a:ff:86:21:48:38:57:2e:c4:a1:7d:16:a6:
         c6:7d:a8:7d:9b:79:d4:13:80:fb:c6:70:9d:38:d9:ff:5f:b5:
         e0:51:01:db:4e:a4:f9:bb:42:14:bd:cd:ee:81:19:04:8b:ee:
         47:c5:9e:8b:9b:f7:c4:bc:02:c6:6f:68:81:a4:76:b9:95:25:
         2a:6e:98:81:92:12:c6:b4:40:ff:9c:5b:7c:2f:c6:7e:b8:9e:
         76:5d:1a:d4:2e:5e:70:f1:30:a3:88:92:7c:50:c1:bd:70:ce:
         fc:5e:21:30:a4:dc:30:ac:a5:52:2a:8c:05:2c:6f:08:b6:b8:
         3f:ab:3b:45:8e:db:e3:14:a6:32:c0:23:7d:00:c7:56:75:73:
         c2:a7:7c:0c:89:aa:0d:3c:84:1b:13:95:db:d9:7b:d3:3b:32:
         fc:a8:40:f8:ca:08:43:b8:7b:0d:cd:e3:67:20:39:b2:62:6d:
         4c:a7:eb:c2:09:17:45:52:cc:2f:4d:fe:da:12:1e:59:ba:f4:
         d3:d6:75:78:5b:10:20:ae:76:c7:5d:f3:05:1f:af:47:76:1a:
         23:ee:ca:aa
-----BEGIN CERTIFICATE-----
MIIDXTCCAkWgAwIBAgIRAKYI9ygaWFAE7CizKAaijBUwDQYJKoZIhvcNAQELBQAw
FjEUMBIGA1UEAwwLdGVhbTIyMi1uZXQwHhcNMjMwODE0MTQyNjQ1WhcNMjYwNzI5
MTQyNjQ1WjAZMRcwFQYDVQQDDA50ZWFtMjIyLWNsaWVudDCCASIwDQYJKoZIhvcN
AQEBBQADggEPADCCAQoCggEBALr0UHKKqi+MH0gyZ2bee+0lE59X7gRz+gEr1b1h
x1SWGbCUdUT9tBJXol4hjZzXbxZs0l/RpQUfo6/L6y+g+Yu2CB+ONjWBksvqTPED
kngP1rUvVtHHxo3ZPwD6I/FNqtLw4jojnv0qIYxMxSs4Ppjd7msmlPjYOrvTC7fr
S69CQJsCWjVLsbn+ApRfaLu9+/X0aGzUMJGMr/H4OR5G2vPPE5U3F1TzdrVUrvnq
iXvOUU0VsoZOwa0S38+RK9DshTe7PhzPLbe0YnNF+VxMGixl7gkMynX3Q0RPkmAQ
6BSfL93QjTGwIkb/pSnHsdkC6V3xXE5KWznhVxsr0LcRfKUCAwEAAaOBojCBnzAJ
BgNVHRMEAjAAMB0GA1UdDgQWBBRWDqTTZ2ISrSxujcsJH/h563WPizBRBgNVHSME
SjBIgBR4o7K+2CAhF+tPuJPnqrANx7YUZaEapBgwFjEUMBIGA1UEAwwLdGVhbTIy
Mi1uZXSCFCQ/46uuUp5I+RcbQoHzO1X/nXnKMBMGA1UdJQQMMAoGCCsGAQUFBwMC
MAsGA1UdDwQEAwIHgDANBgkqhkiG9w0BAQsFAAOCAQEAGS742NtJhyLbgFu1i0Ko
mrfvQ1gmz2TPVKmvTj5cG1Mfrf12pqKtm98a/4YhSDhXLsShfRamxn2ofZt51BOA
+8ZwnTjZ/1+14FEB206k+btCFL3N7oEZBIvuR8Wei5v3xLwCxm9ogaR2uZUlKm6Y
gZISxrRA/5xbfC/Gfriedl0a1C5ecPEwo4iSfFDBvXDO/F4hMKTcMKylUiqMBSxv
CLa4P6s7RY7b4xSmMsAjfQDHVnVzwqd8DImqDTyEGxOV29l70zsy/KhA+MoIQ7h7
Dc3jZyA5smJtTKfrwgkXRVLML03+2hIeWbr009Z1eFsQIK52x13zBR+vR3YaI+7K
qg==
-----END CERTIFICATE-----
