Certificate:
    Data:
        Version: 3 (0x2)
        Serial Number:
            f9:c9:b5:ee:2f:c7:9e:2a:94:6c:a9:0d:b8:ba:56:2a
        Signature Algorithm: sha256WithRSAEncryption
        Issuer: CN=team282-net
        Validity
            Not Before: Aug 14 14:28:03 2023 GMT
            Not After : Jul 29 14:28:03 2026 GMT
        Subject: CN=team282-server
        Subject Public Key Info:
            Public Key Algorithm: rsaEncryption
                RSA Public-Key: (2048 bit)
                Modulus:
                    00:b9:25:a7:25:04:ea:a8:81:89:b3:61:24:7d:35:
                    7e:39:11:00:72:59:62:12:6e:61:5a:d1:32:fd:1a:
                    1c:6c:ac:8d:fb:68:cc:5a:24:41:86:01:52:ff:30:
                    e1:cc:2a:93:97:13:b6:26:92:72:9e:6a:f7:d3:1f:
                    06:5f:67:11:cb:6c:4e:55:7b:e9:ca:b9:ca:21:2e:
                    3f:ca:23:63:54:90:1f:d2:be:d4:b4:69:f2:21:ff:
                    60:0d:ad:09:41:97:3f:c8:e0:a8:25:71:b6:14:2c:
                    7c:d3:54:93:a0:f8:27:0d:57:41:b9:a1:49:ce:64:
                    4a:0e:f7:79:4f:52:c7:eb:a1:f7:03:fb:8e:8c:56:
                    1b:ce:1f:f9:26:dd:30:a1:09:a8:e4:40:f3:88:aa:
                    e1:be:8a:c4:2a:b4:df:10:ce:b5:23:19:40:4f:60:
                    8b:09:9a:e1:69:6b:26:79:2f:f8:cf:90:0d:d5:15:
                    c5:c1:86:25:3f:d9:6a:d9:a2:f3:7f:5a:ad:75:56:
                    3e:47:33:15:ca:55:fc:ad:b9:32:ae:0a:a6:84:97:
                    1b:80:85:50:8a:77:a0:c2:f3:c6:37:1f:5f:ed:80:
                    4b:84:8b:d9:54:d5:32:2f:9a:62:d4:5e:fb:e8:4e:
                    ad:90:0b:2e:ef:46:ae:ca:a0:f1:5a:e5:73:cb:20:
                    93:35
                Exponent: 65537 (0x10001)
        X509v3 extensions:
            X509v3 Basic Constraints: 
                CA:FALSE
            X509v3 Subject Key Identifier: 
                C1:F1:13:7F:45:A8:55:42:51:D2:AA:54:A8:3C:43:DD:44:5C:CB:28
            X509v3 Authority Key Identifier: 
                keyid:93:F0:92:23:6C:48:EE:E3:4E:AF:66:72:34:64:C7:C9:4E:D5:D4:DA
                DirName:/CN=team282-net
                serial:55:49:38:67:87:27:5B:65:98:F6:CF:65:37:5E:0C:8A:05:7F:55:90

            X509v3 Extended Key Usage: 
                TLS Web Server Authentication
            X509v3 Key Usage: 
                Digital Signature, Key Encipherment
            X509v3 Subject Alternative Name: 
                DNS:team282-server
    Signature Algorithm: sha256WithRSAEncryption
         03:0f:6e:9d:18:a8:a4:fd:52:25:ea:eb:4c:4c:0f:9b:9f:a5:
         f6:d3:ba:b0:94:cf:53:c1:db:85:24:01:a0:91:20:20:70:18:
         df:65:cf:f1:47:21:3a:23:06:a2:0a:43:7a:05:2b:22:3e:76:
         bd:88:62:19:94:02:aa:2b:fb:c8:8c:52:b5:b3:3f:3d:c7:9b:
         0d:4d:15:33:34:77:5b:3d:44:a0:1a:19:fd:b9:90:d7:23:66:
         85:ab:ab:c0:f7:87:6e:9f:50:cd:e0:21:55:92:16:8a:1f:c7:
         22:72:8d:3b:e8:2d:ce:8e:a4:57:a6:43:53:c0:e3:cf:ef:4c:
         2f:aa:0d:81:5b:fc:c3:03:47:f8:f0:de:69:7b:d7:3a:19:8a:
         06:66:a4:70:49:f5:03:0a:3e:d2:39:cb:41:6a:b6:43:74:75:
         2a:f8:a7:88:95:25:5d:ef:ce:b6:84:61:6c:ba:68:9c:aa:16:
         52:25:af:e0:09:b7:36:d2:7c:fd:c5:f9:c9:55:2a:70:86:1c:
         76:2a:bb:8d:66:2c:0c:40:27:00:ec:d2:e7:c4:c9:82:d2:e2:
         39:5e:e4:a2:3b:a6:05:63:7d:13:46:a8:a5:e8:ed:89:20:0e:
         7a:65:87:ef:de:9b:23:4e:4e:a1:17:2e:82:cb:bf:f9:18:ee:
         10:ac:49:32
-----BEGIN CERTIFICATE-----
MIIDeDCCAmCgAwIBAgIRAPnJte4vx54qlGypDbi6ViowDQYJKoZIhvcNAQELBQAw
FjEUMBIGA1UEAwwLdGVhbTI4Mi1uZXQwHhcNMjMwODE0MTQyODAzWhcNMjYwNzI5
MTQyODAzWjAZMRcwFQYDVQQDDA50ZWFtMjgyLXNlcnZlcjCCASIwDQYJKoZIhvcN
AQEBBQADggEPADCCAQoCggEBALklpyUE6qiBibNhJH01fjkRAHJZYhJuYVrRMv0a
HGysjftozFokQYYBUv8w4cwqk5cTtiaScp5q99MfBl9nEctsTlV76cq5yiEuP8oj
Y1SQH9K+1LRp8iH/YA2tCUGXP8jgqCVxthQsfNNUk6D4Jw1XQbmhSc5kSg73eU9S
x+uh9wP7joxWG84f+SbdMKEJqORA84iq4b6KxCq03xDOtSMZQE9giwma4WlrJnkv
+M+QDdUVxcGGJT/Zatmi839arXVWPkczFcpV/K25Mq4KpoSXG4CFUIp3oMLzxjcf
X+2AS4SL2VTVMi+aYtRe++hOrZALLu9Grsqg8Vrlc8sgkzUCAwEAAaOBvTCBujAJ
BgNVHRMEAjAAMB0GA1UdDgQWBBTB8RN/RahVQlHSqlSoPEPdRFzLKDBRBgNVHSME
SjBIgBST8JIjbEju406vZnI0ZMfJTtXU2qEapBgwFjEUMBIGA1UEAwwLdGVhbTI4
Mi1uZXSCFFVJOGeHJ1tlmPbPZTdeDIoFf1WQMBMGA1UdJQQMMAoGCCsGAQUFBwMB
MAsGA1UdDwQEAwIFoDAZBgNVHREEEjAQgg50ZWFtMjgyLXNlcnZlcjANBgkqhkiG
9w0BAQsFAAOCAQEAAw9unRiopP1SJerrTEwPm5+l9tO6sJTPU8HbhSQBoJEgIHAY
32XP8UchOiMGogpDegUrIj52vYhiGZQCqiv7yIxStbM/PcebDU0VMzR3Wz1EoBoZ
/bmQ1yNmhaurwPeHbp9QzeAhVZIWih/HInKNO+gtzo6kV6ZDU8Djz+9ML6oNgVv8
wwNH+PDeaXvXOhmKBmakcEn1Awo+0jnLQWq2Q3R1KviniJUlXe/OtoRhbLponKoW
UiWv4Am3NtJ8/cX5yVUqcIYcdiq7jWYsDEAnAOzS58TJgtLiOV7kojumBWN9E0ao
pejtiSAOemWH796bI05OoRcugsu/+RjuEKxJMg==
-----END CERTIFICATE-----
