Certificate:
    Data:
        Version: 3 (0x2)
        Serial Number:
            a3:b4:9b:4f:f7:89:6f:08:32:f5:86:1b:6c:3f:1d:bd
        Signature Algorithm: sha256WithRSAEncryption
        Issuer: CN=team261-net
        Validity
            Not Before: Aug 14 14:27:32 2023 GMT
            Not After : Jul 29 14:27:32 2026 GMT
        Subject: CN=team261-server
        Subject Public Key Info:
            Public Key Algorithm: rsaEncryption
                RSA Public-Key: (2048 bit)
                Modulus:
                    00:b4:94:92:fd:f9:bb:00:45:6d:08:9b:c0:c3:6e:
                    6b:d1:09:ce:82:30:c6:6d:15:ca:78:cd:2c:c6:b6:
                    61:70:f4:7a:c0:b9:95:b0:e9:0d:49:94:3c:8b:33:
                    f2:7b:1f:00:02:58:cc:0c:f1:f0:9e:52:d1:f2:69:
                    70:3a:0a:14:2f:62:96:91:76:ab:6b:54:e0:c4:f8:
                    3a:68:bb:3a:33:ae:71:18:9b:0d:99:7c:16:04:b0:
                    c9:f0:f8:cb:15:28:ce:4b:42:a6:61:f7:d9:32:30:
                    c8:e8:6f:a9:1c:a7:3f:88:47:7e:2d:87:a0:b7:04:
                    90:8c:18:10:84:38:26:7c:55:0b:b3:ad:12:0e:9f:
                    82:54:b8:0d:8b:90:2e:e4:ab:6e:86:5b:b6:5f:6d:
                    f6:bc:03:14:93:eb:bf:cf:8f:d5:2d:9d:6f:8e:c3:
                    b0:9d:cb:9e:58:49:2e:41:dc:ab:8a:b6:30:cf:da:
                    72:c4:99:b3:62:fa:ce:69:f8:a4:bf:29:eb:51:16:
                    fd:2d:6e:85:04:2a:09:62:4a:70:73:98:31:65:56:
                    0e:df:09:49:bf:a2:82:bd:ee:60:b4:29:71:ba:14:
                    6e:43:1b:a4:89:4e:2a:6d:58:83:e4:5b:cd:18:f2:
                    8f:96:8b:fb:8c:f1:87:31:4a:70:6b:cb:d0:f9:11:
                    2e:f9
                Exponent: 65537 (0x10001)
        X509v3 extensions:
            X509v3 Basic Constraints: 
                CA:FALSE
            X509v3 Subject Key Identifier: 
                48:AA:D5:EE:9B:7D:F3:06:68:C1:EA:63:A1:D4:63:24:9C:37:93:88
            X509v3 Authority Key Identifier: 
                keyid:5C:C5:48:05:AB:EE:D0:A8:A4:C2:04:24:58:CB:10:30:93:65:80:12
                DirName:/CN=team261-net
                serial:36:38:D8:E9:BB:A9:9F:ED:21:E6:18:DF:41:84:CA:0F:0A:4E:F2:81

            X509v3 Extended Key Usage: 
                TLS Web Server Authentication
            X509v3 Key Usage: 
                Digital Signature, Key Encipherment
            X509v3 Subject Alternative Name: 
                DNS:team261-server
    Signature Algorithm: sha256WithRSAEncryption
         a4:7a:44:66:a6:53:c1:d8:f1:cb:09:dc:e2:ce:6b:41:ea:2a:
         7b:27:94:53:8e:f0:de:98:7b:6b:77:60:7f:48:23:76:cb:05:
         a5:f0:b4:19:b0:1a:5e:06:b9:19:d8:ad:a9:5f:14:4b:e2:3f:
         bf:44:13:73:62:c8:29:0e:71:bb:52:16:30:98:2d:99:da:41:
         48:d0:47:0d:0a:e7:07:ac:67:b4:bc:f8:49:30:01:34:20:1c:
         31:53:9a:ed:20:38:89:4a:c3:78:7e:81:e2:19:94:ac:1b:e4:
         1e:e0:41:57:97:ac:56:6d:14:39:82:df:6b:6e:51:19:4b:7f:
         f2:68:14:e0:9a:73:88:06:00:3a:26:ec:26:cb:7a:ca:c5:16:
         b5:85:6f:a4:d5:40:2c:23:b1:df:34:3e:a2:aa:4b:f4:b2:bb:
         72:38:34:3d:67:fb:68:e8:79:d8:18:c3:e7:ea:98:1f:57:f1:
         ed:dc:b9:7e:6f:17:f0:ec:5d:5d:31:2c:27:e8:4c:ca:df:7e:
         98:f2:3e:d7:e0:65:a1:56:a5:65:6e:00:e1:9e:b4:b6:63:65:
         06:2e:82:7c:77:31:36:e5:c5:61:20:e3:e1:4a:b3:1f:90:a5:
         29:e7:92:49:bd:cb:3d:19:8a:dc:7c:2a:10:b5:d1:56:b6:e9:
         89:c0:c0:6f
-----BEGIN CERTIFICATE-----
MIIDeDCCAmCgAwIBAgIRAKO0m0/3iW8IMvWGG2w/Hb0wDQYJKoZIhvcNAQELBQAw
FjEUMBIGA1UEAwwLdGVhbTI2MS1uZXQwHhcNMjMwODE0MTQyNzMyWhcNMjYwNzI5
MTQyNzMyWjAZMRcwFQYDVQQDDA50ZWFtMjYxLXNlcnZlcjCCASIwDQYJKoZIhvcN
AQEBBQADggEPADCCAQoCggEBALSUkv35uwBFbQibwMNua9EJzoIwxm0VynjNLMa2
YXD0esC5lbDpDUmUPIsz8nsfAAJYzAzx8J5S0fJpcDoKFC9ilpF2q2tU4MT4Omi7
OjOucRibDZl8FgSwyfD4yxUozktCpmH32TIwyOhvqRynP4hHfi2HoLcEkIwYEIQ4
JnxVC7OtEg6fglS4DYuQLuSrboZbtl9t9rwDFJPrv8+P1S2db47DsJ3LnlhJLkHc
q4q2MM/acsSZs2L6zmn4pL8p61EW/S1uhQQqCWJKcHOYMWVWDt8JSb+igr3uYLQp
cboUbkMbpIlOKm1Yg+RbzRjyj5aL+4zxhzFKcGvL0PkRLvkCAwEAAaOBvTCBujAJ
BgNVHRMEAjAAMB0GA1UdDgQWBBRIqtXum33zBmjB6mOh1GMknDeTiDBRBgNVHSME
SjBIgBRcxUgFq+7QqKTCBCRYyxAwk2WAEqEapBgwFjEUMBIGA1UEAwwLdGVhbTI2
MS1uZXSCFDY42Om7qZ/tIeYY30GEyg8KTvKBMBMGA1UdJQQMMAoGCCsGAQUFBwMB
MAsGA1UdDwQEAwIFoDAZBgNVHREEEjAQgg50ZWFtMjYxLXNlcnZlcjANBgkqhkiG
9w0BAQsFAAOCAQEApHpEZqZTwdjxywnc4s5rQeoqeyeUU47w3ph7a3dgf0gjdssF
pfC0GbAaXga5GditqV8US+I/v0QTc2LIKQ5xu1IWMJgtmdpBSNBHDQrnB6xntLz4
STABNCAcMVOa7SA4iUrDeH6B4hmUrBvkHuBBV5esVm0UOYLfa25RGUt/8mgU4Jpz
iAYAOibsJst6ysUWtYVvpNVALCOx3zQ+oqpL9LK7cjg0PWf7aOh52BjD5+qYH1fx
7dy5fm8X8OxdXTEsJ+hMyt9+mPI+1+BloValZW4A4Z60tmNlBi6CfHcxNuXFYSDj
4UqzH5ClKeeSSb3LPRmK3HwqELXRVrbpicDAbw==
-----END CERTIFICATE-----
