Certificate:
    Data:
        Version: 3 (0x2)
        Serial Number:
            1c:8a:cf:5d:cc:01:65:92:ad:08:13:93:4a:5e:5b:ef
        Signature Algorithm: sha256WithRSAEncryption
        Issuer: CN=team283-net
        Validity
            Not Before: Aug 14 14:28:04 2023 GMT
            Not After : Jul 29 14:28:04 2026 GMT
        Subject: CN=team283-server
        Subject Public Key Info:
            Public Key Algorithm: rsaEncryption
                RSA Public-Key: (2048 bit)
                Modulus:
                    00:bc:82:57:ed:3d:df:ee:8a:43:57:c4:c0:56:bd:
                    a3:78:23:bb:1b:a1:69:49:2f:6c:1d:f3:f4:f3:53:
                    48:ec:5f:5d:59:87:0d:63:57:78:57:20:a4:32:cd:
                    d2:7e:8f:1a:3a:56:39:e9:3e:aa:dd:20:77:e4:97:
                    e9:af:67:35:50:2c:d0:92:c5:80:52:6d:02:de:dd:
                    de:74:f5:45:02:c3:77:06:1c:b1:ef:a5:3b:32:9e:
                    f1:ac:1c:5f:cc:a3:31:76:34:fd:e4:ea:e0:6a:7e:
                    bf:2e:39:55:54:1c:bb:b6:f0:b8:fd:91:12:de:98:
                    7a:1f:2b:c3:63:d2:58:d0:09:32:38:5f:d0:fb:a3:
                    25:c8:34:87:12:e9:ae:de:05:91:d5:e2:9d:ff:64:
                    ad:25:46:91:aa:de:b8:a3:d7:bc:c3:b8:9f:8a:c7:
                    27:d5:2a:a9:46:4b:45:25:0a:84:28:ab:93:52:52:
                    83:67:7e:87:d4:ac:3f:1a:61:51:46:9c:d6:59:51:
                    d2:cf:bd:99:7a:fe:d9:f3:3b:34:3b:20:b6:0b:9a:
                    95:52:01:ea:e9:08:dc:31:66:09:8b:09:94:1c:50:
                    3d:91:98:f6:6d:2e:3c:9b:03:f1:31:94:3c:b2:9d:
                    1c:54:51:e5:36:e3:b9:08:55:1e:ac:0c:b1:cd:62:
                    42:dd
                Exponent: 65537 (0x10001)
        X509v3 extensions:
            X509v3 Basic Constraints: 
                CA:FALSE
            X509v3 Subject Key Identifier: 
                07:0A:70:EF:37:7F:FB:65:FD:C3:5E:E8:EA:74:B1:2C:E0:C5:4C:CE
            X509v3 Authority Key Identifier: 
                keyid:17:3C:D4:EA:E3:7A:7A:89:43:99:8D:13:CD:AA:36:61:CA:25:19:07
                DirName:/CN=team283-net
                serial:6B:60:16:72:DC:6C:1B:AC:0B:1B:0F:33:65:EC:7E:C5:EB:9E:D2:C2

            X509v3 Extended Key Usage: 
                TLS Web Server Authentication
            X509v3 Key Usage: 
                Digital Signature, Key Encipherment
            X509v3 Subject Alternative Name: 
                DNS:team283-server
    Signature Algorithm: sha256WithRSAEncryption
         a9:38:c2:ec:3e:5f:ae:f0:dc:91:e4:ec:78:5f:b9:f3:58:a4:
         70:7b:fa:73:47:13:59:0f:86:d4:e4:09:e3:ab:0f:a2:09:36:
         27:67:2e:a0:b3:d9:c2:c1:20:8f:5f:8b:7d:9f:5b:37:8f:22:
         dd:27:8c:92:7b:f5:55:37:f3:54:d3:46:fa:be:2d:e1:16:44:
         1e:dc:f8:4e:58:15:a4:ca:b1:d4:8a:bc:00:92:56:b6:1b:0c:
         cc:47:80:65:36:de:dd:4a:0b:76:aa:49:08:c1:eb:95:52:68:
         ca:77:a6:af:8f:d7:1f:be:07:22:36:7b:76:39:a3:05:fd:e2:
         a5:0e:a2:dc:83:da:ee:1b:a9:58:8e:bc:5e:7c:6c:ee:a4:cb:
         e8:a3:df:0f:2a:94:a7:5f:ab:55:e8:8d:fc:33:3a:e9:5b:bf:
         44:55:88:46:53:d0:47:e7:92:40:1d:85:e1:b0:1a:e6:66:92:
         21:d4:90:36:4f:92:d7:f6:82:4e:65:3b:21:ad:df:44:c1:35:
         13:38:66:05:81:0b:da:2c:d2:db:aa:fc:4c:fa:de:6d:89:61:
         b3:39:13:f7:9d:48:10:3b:88:98:20:b4:1c:72:f2:b9:fc:97:
         b6:29:57:97:d2:8c:3f:fd:20:78:88:0d:ed:90:aa:42:fe:b3:
         27:a6:d7:3e
-----BEGIN CERTIFICATE-----
MIIDdzCCAl+gAwIBAgIQHIrPXcwBZZKtCBOTSl5b7zANBgkqhkiG9w0BAQsFADAW
MRQwEgYDVQQDDAt0ZWFtMjgzLW5ldDAeFw0yMzA4MTQxNDI4MDRaFw0yNjA3Mjkx
NDI4MDRaMBkxFzAVBgNVBAMMDnRlYW0yODMtc2VydmVyMIIBIjANBgkqhkiG9w0B
AQEFAAOCAQ8AMIIBCgKCAQEAvIJX7T3f7opDV8TAVr2jeCO7G6FpSS9sHfP081NI
7F9dWYcNY1d4VyCkMs3Sfo8aOlY56T6q3SB35Jfpr2c1UCzQksWAUm0C3t3edPVF
AsN3Bhyx76U7Mp7xrBxfzKMxdjT95Organ6/LjlVVBy7tvC4/ZES3ph6HyvDY9JY
0AkyOF/Q+6MlyDSHEumu3gWR1eKd/2StJUaRqt64o9e8w7ifiscn1SqpRktFJQqE
KKuTUlKDZ36H1Kw/GmFRRpzWWVHSz72Zev7Z8zs0OyC2C5qVUgHq6QjcMWYJiwmU
HFA9kZj2bS48mwPxMZQ8sp0cVFHlNuO5CFUerAyxzWJC3QIDAQABo4G9MIG6MAkG
A1UdEwQCMAAwHQYDVR0OBBYEFAcKcO83f/tl/cNe6Op0sSzgxUzOMFEGA1UdIwRK
MEiAFBc81OrjenqJQ5mNE82qNmHKJRkHoRqkGDAWMRQwEgYDVQQDDAt0ZWFtMjgz
LW5ldIIUa2AWctxsG6wLGw8zZex+xeue0sIwEwYDVR0lBAwwCgYIKwYBBQUHAwEw
CwYDVR0PBAQDAgWgMBkGA1UdEQQSMBCCDnRlYW0yODMtc2VydmVyMA0GCSqGSIb3
DQEBCwUAA4IBAQCpOMLsPl+u8NyR5Ox4X7nzWKRwe/pzRxNZD4bU5Anjqw+iCTYn
Zy6gs9nCwSCPX4t9n1s3jyLdJ4ySe/VVN/NU00b6vi3hFkQe3PhOWBWkyrHUirwA
kla2GwzMR4BlNt7dSgt2qkkIweuVUmjKd6avj9cfvgciNnt2OaMF/eKlDqLcg9ru
G6lYjrxefGzupMvoo98PKpSnX6tV6I38MzrpW79EVYhGU9BH55JAHYXhsBrmZpIh
1JA2T5LX9oJOZTshrd9EwTUTOGYFgQvaLNLbqvxM+t5tiWGzORP3nUgQO4iYILQc
cvK5/Je2KVeX0ow//SB4iA3tkKpC/rMnptc+
-----END CERTIFICATE-----
