Certificate:
    Data:
        Version: 3 (0x2)
        Serial Number:
            94:f5:b9:7d:89:ce:05:85:0d:3e:c7:99:62:9c:d8:7a
        Signature Algorithm: sha256WithRSAEncryption
        Issuer: CN=team253-net
        Validity
            Not Before: Aug 14 14:27:23 2023 GMT
            Not After : Jul 29 14:27:23 2026 GMT
        Subject: CN=team253-client
        Subject Public Key Info:
            Public Key Algorithm: rsaEncryption
                RSA Public-Key: (2048 bit)
                Modulus:
                    00:f0:79:44:c2:b2:ed:1f:27:6c:3e:06:b3:9d:39:
                    d3:07:1d:d7:cc:48:f5:27:08:0a:d1:91:46:09:a4:
                    a6:fe:72:90:e4:0a:fd:35:3e:1b:16:a1:ae:aa:50:
                    c0:3c:6f:4f:ae:5f:3c:02:be:f8:3c:5c:58:c6:5f:
                    e5:55:e8:3f:44:c5:0e:85:cb:12:c7:41:f6:02:22:
                    f8:38:3d:c3:21:38:e8:dd:9a:bc:28:57:ba:2d:9c:
                    7c:04:8b:83:a6:d1:24:79:d3:8d:e9:4a:c5:d2:12:
                    2a:14:15:4a:d3:2b:ae:0f:58:08:d2:85:fa:6c:30:
                    9e:48:5a:b3:79:be:75:5d:4f:4a:97:41:28:d0:59:
                    60:e4:3f:a8:02:cb:5a:24:1d:d8:e9:71:3a:bc:85:
                    88:50:ae:23:d2:da:89:72:8b:c0:e4:26:49:55:e7:
                    08:1c:f7:c0:61:3c:e6:74:bb:30:a3:fe:cc:d3:5a:
                    29:60:18:ab:9e:6e:ea:31:3e:b1:08:a6:42:8d:b9:
                    26:e9:56:4e:05:99:71:2b:61:54:32:c0:3d:6d:ff:
                    7b:76:30:29:81:75:b0:5b:3e:05:cb:54:6f:61:57:
                    b9:9d:59:27:33:1d:53:06:0f:6f:88:01:11:d6:b0:
                    b4:a5:bb:e0:93:b6:2e:07:c3:36:70:17:be:d9:d2:
                    50:7d
                Exponent: 65537 (0x10001)
        X509v3 extensions:
            X509v3 Basic Constraints: 
                CA:FALSE
            X509v3 Subject Key Identifier: 
                38:A2:F7:B5:5E:72:01:0F:12:32:3E:69:4C:3C:3A:BC:69:C5:38:7E
            X509v3 Authority Key Identifier: 
                keyid:4E:12:FE:AB:82:6E:12:47:03:A9:3A:FC:88:5B:45:50:3F:A7:58:68
                DirName:/CN=team253-net
                serial:6D:5F:57:82:D0:FB:AB:3B:20:6D:14:3E:DF:0E:35:19:CD:35:BB:9F

            X509v3 Extended Key Usage: 
                TLS Web Client Authentication
            X509v3 Key Usage: 
                Digital Signature
    Signature Algorithm: sha256WithRSAEncryption
         88:08:71:fe:36:36:c7:b7:bb:18:59:73:1c:68:b4:ea:2a:da:
         f3:e4:d6:05:5b:ea:54:18:8f:1d:fd:02:a0:e5:98:b7:ef:eb:
         04:69:86:25:75:35:58:2f:15:1e:c8:85:63:89:e5:b8:e2:ad:
         d6:09:69:e9:83:58:b9:cf:8f:79:be:77:f0:f4:7f:ae:84:a7:
         77:7b:a5:18:1b:3c:61:7b:42:16:0b:ec:b1:9e:07:5b:96:ff:
         73:e0:38:fb:85:47:5f:54:9c:fa:ac:d5:fb:d3:36:e3:73:11:
         13:33:5b:1e:c0:15:7d:f7:f1:5b:7b:c5:ac:24:e6:2b:5e:9c:
         f5:5f:fd:e5:6f:4b:a6:af:38:35:10:1d:d3:53:b8:52:2e:10:
         51:cf:3e:c1:ef:d2:6c:15:b0:2a:60:cb:dd:61:3b:26:a8:e1:
         92:9a:c2:aa:c4:df:33:7e:df:88:c1:02:84:ce:c7:49:77:1e:
         83:c6:e8:ad:39:3e:42:1f:7c:38:7f:16:3c:fb:f0:53:2a:f7:
         45:d2:5f:a4:5f:de:80:b1:50:4c:61:a4:c2:ca:98:13:ab:f6:
         87:ac:ff:d8:df:c9:ce:e5:dc:a4:b4:79:32:15:2e:b3:e2:2d:
         73:99:50:19:53:62:e9:69:40:4d:5f:c5:3c:f5:40:12:33:dd:
         b4:67:c2:6f
-----BEGIN CERTIFICATE-----
MIIDXTCCAkWgAwIBAgIRAJT1uX2JzgWFDT7HmWKc2HowDQYJKoZIhvcNAQELBQAw
FjEUMBIGA1UEAwwLdGVhbTI1My1uZXQwHhcNMjMwODE0MTQyNzIzWhcNMjYwNzI5
MTQyNzIzWjAZMRcwFQYDVQQDDA50ZWFtMjUzLWNsaWVudDCCASIwDQYJKoZIhvcN
AQEBBQADggEPADCCAQoCggEBAPB5RMKy7R8nbD4Gs5050wcd18xI9ScICtGRRgmk
pv5ykOQK/TU+GxahrqpQwDxvT65fPAK++DxcWMZf5VXoP0TFDoXLEsdB9gIi+Dg9
wyE46N2avChXui2cfASLg6bRJHnTjelKxdISKhQVStMrrg9YCNKF+mwwnkhas3m+
dV1PSpdBKNBZYOQ/qALLWiQd2OlxOryFiFCuI9LaiXKLwOQmSVXnCBz3wGE85nS7
MKP+zNNaKWAYq55u6jE+sQimQo25JulWTgWZcSthVDLAPW3/e3YwKYF1sFs+BctU
b2FXuZ1ZJzMdUwYPb4gBEdawtKW74JO2LgfDNnAXvtnSUH0CAwEAAaOBojCBnzAJ
BgNVHRMEAjAAMB0GA1UdDgQWBBQ4ove1XnIBDxIyPmlMPDq8acU4fjBRBgNVHSME
SjBIgBROEv6rgm4SRwOpOvyIW0VQP6dYaKEapBgwFjEUMBIGA1UEAwwLdGVhbTI1
My1uZXSCFG1fV4LQ+6s7IG0UPt8ONRnNNbufMBMGA1UdJQQMMAoGCCsGAQUFBwMC
MAsGA1UdDwQEAwIHgDANBgkqhkiG9w0BAQsFAAOCAQEAiAhx/jY2x7e7GFlzHGi0
6ira8+TWBVvqVBiPHf0CoOWYt+/rBGmGJXU1WC8VHsiFY4nluOKt1glp6YNYuc+P
eb538PR/roSnd3ulGBs8YXtCFgvssZ4HW5b/c+A4+4VHX1Sc+qzV+9M243MREzNb
HsAVfffxW3vFrCTmK16c9V/95W9Lpq84NRAd01O4Ui4QUc8+we/SbBWwKmDL3WE7
JqjhkprCqsTfM37fiMEChM7HSXceg8borTk+Qh98OH8WPPvwUyr3RdJfpF/egLFQ
TGGkwsqYE6v2h6z/2N/JzuXcpLR5MhUus+Itc5lQGVNi6WlATV/FPPVAEjPdtGfC
bw==
-----END CERTIFICATE-----
