Certificate:
    Data:
        Version: 3 (0x2)
        Serial Number:
            b9:52:56:88:df:aa:fd:8b:4f:8e:6d:14:19:92:db:81
        Signature Algorithm: sha256WithRSAEncryption
        Issuer: CN=team192-net
        Validity
            Not Before: Aug 14 14:26:11 2023 GMT
            Not After : Jul 29 14:26:11 2026 GMT
        Subject: CN=team192-server
        Subject Public Key Info:
            Public Key Algorithm: rsaEncryption
                RSA Public-Key: (2048 bit)
                Modulus:
                    00:be:4e:be:2b:be:55:51:21:bf:69:99:2a:5a:63:
                    2b:82:64:16:d5:90:d0:70:47:99:65:1e:21:5d:d8:
                    5c:2a:46:2e:d1:c9:a8:1f:78:39:d2:cf:99:f1:e1:
                    04:e6:34:12:48:fe:d9:c3:83:61:02:e7:13:22:a9:
                    d3:7e:49:6e:0e:eb:b4:6f:61:4e:55:32:1c:72:80:
                    2d:a2:e7:8c:83:28:76:00:ea:af:68:46:3e:9f:0f:
                    84:44:4c:78:47:2c:e6:51:65:a1:91:a8:16:fc:d4:
                    3f:20:dd:ec:69:7d:cd:3b:9b:92:b9:59:7d:08:bc:
                    a6:8f:b9:38:86:da:e6:02:3c:81:19:5d:b1:c1:e3:
                    4d:fe:89:37:c6:92:6e:83:35:99:b1:dd:41:8f:ca:
                    e3:9e:e5:f6:41:ef:bd:6d:78:83:95:9e:fc:e9:2b:
                    10:21:58:3f:0b:03:3b:54:f2:1e:f9:9d:b0:4d:4c:
                    ae:b7:43:68:6d:10:be:09:34:b2:83:e6:86:a0:71:
                    76:0b:33:ea:57:23:2f:ed:8a:0f:5c:7d:fb:a2:36:
                    60:00:8a:17:f3:85:1b:d7:c8:c3:b8:e6:31:93:11:
                    76:6c:3c:ec:d7:97:15:8c:38:05:53:b3:90:1a:dc:
                    e8:5d:94:21:ab:59:3f:27:d1:f1:07:21:e7:fe:66:
                    e7:e9
                Exponent: 65537 (0x10001)
        X509v3 extensions:
            X509v3 Basic Constraints: 
                CA:FALSE
            X509v3 Subject Key Identifier: 
                9C:E5:DD:D6:65:AE:8F:26:29:02:99:EF:6A:C1:73:F9:43:D8:CF:3C
            X509v3 Authority Key Identifier: 
                keyid:92:26:EE:6C:B2:32:E7:4B:18:3B:D3:B0:8C:19:57:00:18:7F:2F:9A
                DirName:/CN=team192-net
                serial:26:D1:12:19:05:2A:D3:12:E4:1F:76:E5:FF:3A:15:B2:F7:2B:02:E1

            X509v3 Extended Key Usage: 
                TLS Web Server Authentication
            X509v3 Key Usage: 
                Digital Signature, Key Encipherment
            X509v3 Subject Alternative Name: 
                DNS:team192-server
    Signature Algorithm: sha256WithRSAEncryption
         25:41:13:05:81:0a:13:d5:91:ff:ad:4f:b9:d1:5d:6a:65:db:
         b2:e7:39:3c:f8:29:af:d2:ac:17:dd:01:3e:e0:d0:0d:16:df:
         8b:29:b6:25:fa:38:44:00:19:74:08:11:ec:40:6a:c5:8e:03:
         b8:ff:4d:72:dd:39:d9:1f:f8:e6:02:5b:8b:38:1d:c8:4f:62:
         2a:7b:85:71:13:ae:7d:d7:d0:69:32:32:3d:44:b3:6b:bf:0c:
         80:76:42:11:2e:e9:26:9f:58:6c:e2:17:6c:d4:08:a4:20:cf:
         9f:72:83:47:4c:fb:a9:d5:b9:f7:63:71:41:73:6b:c4:77:e6:
         ed:02:6e:18:fb:cc:66:86:d3:92:a4:d3:a4:82:2e:07:6b:dd:
         73:01:3d:06:d6:d5:11:d9:71:42:d8:90:19:d1:7f:02:e1:52:
         14:fa:87:fe:62:d3:59:ca:e3:51:95:3a:99:7f:3f:c5:d6:0c:
         cb:4d:c2:7b:50:20:7c:a5:30:d0:68:c5:2f:06:8c:f9:ac:11:
         d3:80:c3:e4:86:48:1c:05:48:35:7d:ff:55:0b:26:e6:8f:29:
         52:b0:e7:12:6f:f9:a6:c1:dc:4e:c2:4b:eb:b2:e7:f0:cd:2f:
         19:15:fe:be:4b:63:b9:11:35:a7:77:6a:03:ac:7a:d1:69:3a:
         6a:0a:ae:ee
-----BEGIN CERTIFICATE-----
MIIDeDCCAmCgAwIBAgIRALlSVojfqv2LT45tFBmS24EwDQYJKoZIhvcNAQELBQAw
FjEUMBIGA1UEAwwLdGVhbTE5Mi1uZXQwHhcNMjMwODE0MTQyNjExWhcNMjYwNzI5
MTQyNjExWjAZMRcwFQYDVQQDDA50ZWFtMTkyLXNlcnZlcjCCASIwDQYJKoZIhvcN
AQEBBQADggEPADCCAQoCggEBAL5Oviu+VVEhv2mZKlpjK4JkFtWQ0HBHmWUeIV3Y
XCpGLtHJqB94OdLPmfHhBOY0Ekj+2cODYQLnEyKp035Jbg7rtG9hTlUyHHKALaLn
jIModgDqr2hGPp8PhERMeEcs5lFloZGoFvzUPyDd7Gl9zTubkrlZfQi8po+5OIba
5gI8gRldscHjTf6JN8aSboM1mbHdQY/K457l9kHvvW14g5We/OkrECFYPwsDO1Ty
HvmdsE1MrrdDaG0Qvgk0soPmhqBxdgsz6lcjL+2KD1x9+6I2YACKF/OFG9fIw7jm
MZMRdmw87NeXFYw4BVOzkBrc6F2UIatZPyfR8Qch5/5m5+kCAwEAAaOBvTCBujAJ
BgNVHRMEAjAAMB0GA1UdDgQWBBSc5d3WZa6PJikCme9qwXP5Q9jPPDBRBgNVHSME
SjBIgBSSJu5ssjLnSxg707CMGVcAGH8vmqEapBgwFjEUMBIGA1UEAwwLdGVhbTE5
Mi1uZXSCFCbREhkFKtMS5B925f86FbL3KwLhMBMGA1UdJQQMMAoGCCsGAQUFBwMB
MAsGA1UdDwQEAwIFoDAZBgNVHREEEjAQgg50ZWFtMTkyLXNlcnZlcjANBgkqhkiG
9w0BAQsFAAOCAQEAJUETBYEKE9WR/61PudFdamXbsuc5PPgpr9KsF90BPuDQDRbf
iym2Jfo4RAAZdAgR7EBqxY4DuP9Nct052R/45gJbizgdyE9iKnuFcROufdfQaTIy
PUSza78MgHZCES7pJp9YbOIXbNQIpCDPn3KDR0z7qdW592NxQXNrxHfm7QJuGPvM
ZobTkqTTpIIuB2vdcwE9BtbVEdlxQtiQGdF/AuFSFPqH/mLTWcrjUZU6mX8/xdYM
y03Ce1AgfKUw0GjFLwaM+awR04DD5IZIHAVINX3/VQsm5o8pUrDnEm/5psHcTsJL
67Ln8M0vGRX+vktjuRE1p3dqA6x60Wk6agqu7g==
-----END CERTIFICATE-----
