Certificate:
    Data:
        Version: 3 (0x2)
        Serial Number:
            07:08:1b:d8:19:e7:cc:e9:6d:e9:62:a5:35:d3:ca:07
        Signature Algorithm: sha256WithRSAEncryption
        Issuer: CN=team70-net
        Validity
            Not Before: Aug 14 14:23:38 2023 GMT
            Not After : Jul 29 14:23:38 2026 GMT
        Subject: CN=team70-server
        Subject Public Key Info:
            Public Key Algorithm: rsaEncryption
                RSA Public-Key: (2048 bit)
                Modulus:
                    00:aa:c7:30:be:c1:ff:2f:73:eb:23:61:e1:04:65:
                    de:b3:52:fe:7d:eb:bf:ed:22:36:f9:88:0d:75:7a:
                    07:f8:bc:44:fe:55:f5:02:8c:ca:fa:ec:44:aa:e7:
                    7d:57:58:f8:a4:74:2b:18:20:0a:43:a8:c2:84:24:
                    94:45:88:a3:dd:7f:96:43:49:bf:e6:9d:55:90:38:
                    e1:f6:70:d6:9e:74:f8:f0:04:9e:2b:89:d6:8d:c8:
                    e0:d4:41:4c:88:ef:ca:dd:47:1c:de:40:e4:c5:7d:
                    ab:bc:19:a8:13:20:c6:ff:46:32:f8:cb:de:8a:0f:
                    a1:93:b2:de:00:c6:25:a9:05:fc:65:33:a5:68:29:
                    f9:bd:51:cb:ac:5c:07:ae:fc:fe:77:8b:58:58:5b:
                    47:41:4f:27:56:eb:a6:31:4b:0a:bd:85:f7:b2:03:
                    ed:82:57:1d:e8:e2:e6:85:fa:47:08:80:bf:d8:04:
                    d2:b4:86:eb:6b:22:da:90:33:3d:c6:ce:2d:f2:1c:
                    26:ed:b2:59:32:59:db:d5:0c:72:41:fa:e9:ef:2a:
                    0f:4b:a3:89:0d:d2:94:46:f3:10:81:bd:ea:fd:8f:
                    4e:1e:f2:e1:d0:5c:b1:9a:07:66:e9:c0:2f:3b:94:
                    e0:1a:97:78:35:fd:c6:dd:eb:88:1d:c8:20:48:ef:
                    4c:1f
                Exponent: 65537 (0x10001)
        X509v3 extensions:
            X509v3 Basic Constraints: 
                CA:FALSE
            X509v3 Subject Key Identifier: 
                B6:7C:82:EA:CC:63:5A:78:95:60:76:0C:EA:17:8C:A6:B6:12:66:43
            X509v3 Authority Key Identifier: 
                keyid:B4:C7:85:E7:AD:A1:0E:CE:5A:02:52:EE:50:62:C1:CB:34:DD:39:BA
                DirName:/CN=team70-net
                serial:5B:72:80:5F:32:01:58:5A:6E:BA:BE:EE:55:1F:0C:5B:17:67:56:EC

            X509v3 Extended Key Usage: 
                TLS Web Server Authentication
            X509v3 Key Usage: 
                Digital Signature, Key Encipherment
            X509v3 Subject Alternative Name: 
                DNS:team70-server
    Signature Algorithm: sha256WithRSAEncryption
         d1:bd:ba:8b:a3:71:fd:86:72:91:bb:61:ca:f1:b7:85:11:6f:
         94:2a:67:9b:03:8d:aa:9d:d7:ee:d3:d5:1c:34:17:be:5d:75:
         dc:75:53:f2:a1:50:df:70:62:39:d7:67:95:74:71:56:7a:ad:
         61:aa:17:04:b2:1f:1d:11:26:f3:81:a6:83:9d:7f:2e:29:d9:
         76:5c:04:3b:b9:6a:0d:02:95:a6:d8:f2:30:41:b2:5e:f5:79:
         15:47:1b:fe:ee:a6:ba:a1:69:83:75:40:f3:d5:3e:dc:62:d3:
         d8:e6:86:52:cd:26:9b:1a:c6:d1:9b:cc:2d:78:87:65:85:7c:
         3d:ea:25:1e:b3:37:c7:fd:55:12:59:9a:53:79:81:bd:01:80:
         81:31:c5:34:70:23:34:0d:a9:63:aa:12:23:e2:96:ca:df:00:
         84:18:54:2f:6d:32:c1:8b:3e:85:11:17:6e:98:f6:ee:37:82:
         7e:23:09:fd:de:bc:79:15:a7:88:cd:59:a5:4a:7f:38:84:31:
         46:16:e4:6a:f7:57:e1:9a:c6:33:ce:e9:48:bc:93:68:28:33:
         00:5b:88:2c:6a:b1:4b:f7:3a:1d:a5:2d:3e:58:e0:28:cf:72:
         cb:84:b5:32:8b:97:2d:53:f7:cf:72:84:c7:2e:be:36:81:04:
         48:c3:61:48
-----BEGIN CERTIFICATE-----
MIIDczCCAlugAwIBAgIQBwgb2BnnzOlt6WKlNdPKBzANBgkqhkiG9w0BAQsFADAV
MRMwEQYDVQQDDAp0ZWFtNzAtbmV0MB4XDTIzMDgxNDE0MjMzOFoXDTI2MDcyOTE0
MjMzOFowGDEWMBQGA1UEAwwNdGVhbTcwLXNlcnZlcjCCASIwDQYJKoZIhvcNAQEB
BQADggEPADCCAQoCggEBAKrHML7B/y9z6yNh4QRl3rNS/n3rv+0iNvmIDXV6B/i8
RP5V9QKMyvrsRKrnfVdY+KR0KxggCkOowoQklEWIo91/lkNJv+adVZA44fZw1p50
+PAEniuJ1o3I4NRBTIjvyt1HHN5A5MV9q7wZqBMgxv9GMvjL3ooPoZOy3gDGJakF
/GUzpWgp+b1Ry6xcB678/neLWFhbR0FPJ1brpjFLCr2F97ID7YJXHeji5oX6RwiA
v9gE0rSG62si2pAzPcbOLfIcJu2yWTJZ29UMckH66e8qD0ujiQ3SlEbzEIG96v2P
Th7y4dBcsZoHZunALzuU4BqXeDX9xt3riB3IIEjvTB8CAwEAAaOBuzCBuDAJBgNV
HRMEAjAAMB0GA1UdDgQWBBS2fILqzGNaeJVgdgzqF4ymthJmQzBQBgNVHSMESTBH
gBS0x4XnraEOzloCUu5QYsHLNN05uqEZpBcwFTETMBEGA1UEAwwKdGVhbTcwLW5l
dIIUW3KAXzIBWFpuur7uVR8MWxdnVuwwEwYDVR0lBAwwCgYIKwYBBQUHAwEwCwYD
VR0PBAQDAgWgMBgGA1UdEQQRMA+CDXRlYW03MC1zZXJ2ZXIwDQYJKoZIhvcNAQEL
BQADggEBANG9uoujcf2GcpG7Ycrxt4URb5QqZ5sDjaqd1+7T1Rw0F75dddx1U/Kh
UN9wYjnXZ5V0cVZ6rWGqFwSyHx0RJvOBpoOdfy4p2XZcBDu5ag0ClabY8jBBsl71
eRVHG/7uprqhaYN1QPPVPtxi09jmhlLNJpsaxtGbzC14h2WFfD3qJR6zN8f9VRJZ
mlN5gb0BgIExxTRwIzQNqWOqEiPilsrfAIQYVC9tMsGLPoURF26Y9u43gn4jCf3e
vHkVp4jNWaVKfziEMUYW5Gr3V+GaxjPO6Ui8k2goMwBbiCxqsUv3Oh2lLT5Y4CjP
csuEtTKLly1T989yhMcuvjaBBEjDYUg=
-----END CERTIFICATE-----
