Certificate:
    Data:
        Version: 3 (0x2)
        Serial Number:
            33:73:b5:c0:73:40:7b:2b:c6:4b:1b:a5:a9:ba:2d:1a
        Signature Algorithm: sha256WithRSAEncryption
        Issuer: CN=team133-net
        Validity
            Not Before: Aug 14 14:25:01 2023 GMT
            Not After : Jul 29 14:25:01 2026 GMT
        Subject: CN=team133-client
        Subject Public Key Info:
            Public Key Algorithm: rsaEncryption
                RSA Public-Key: (2048 bit)
                Modulus:
                    00:ce:80:f6:30:ba:34:71:4c:10:28:cf:4c:98:ec:
                    01:1f:0e:17:75:90:64:9f:f0:ad:85:f1:db:bb:39:
                    a3:93:ac:bb:c2:d7:6f:73:36:c1:73:2e:e3:d6:b5:
                    ed:1b:de:fc:27:52:ef:12:71:91:51:da:17:68:65:
                    19:25:88:e6:aa:de:54:83:38:30:81:16:e0:51:e9:
                    db:9c:f9:25:72:29:f4:dc:6a:cc:7b:68:28:83:cc:
                    d3:21:16:00:60:0c:1d:19:cc:71:ff:98:4d:fe:35:
                    b6:88:b2:77:b9:62:0a:dc:9a:2e:be:1b:f0:e8:f8:
                    72:f1:51:15:ed:79:1d:58:d7:e0:5c:0d:fd:29:85:
                    c7:fb:be:c4:cf:fc:87:c6:59:6a:0f:7e:51:81:5d:
                    f3:62:b2:d2:d8:6b:34:f9:6e:fa:b0:f0:e1:ea:ea:
                    7b:db:99:7d:0f:a9:39:74:c8:c4:4c:67:1b:65:c6:
                    88:8d:04:13:eb:c3:9e:ca:28:16:b3:ae:6a:67:bc:
                    49:14:40:ef:a8:96:f7:30:f7:6c:40:20:ac:61:d9:
                    df:c6:d2:89:9f:87:8e:44:de:ca:1d:0e:4f:ad:8b:
                    01:8b:a3:26:96:74:62:46:f6:90:d8:8f:a9:3e:f6:
                    f5:eb:7b:2d:64:0b:69:af:4b:fe:7e:f5:cf:d3:37:
                    df:6f
                Exponent: 65537 (0x10001)
        X509v3 extensions:
            X509v3 Basic Constraints: 
                CA:FALSE
            X509v3 Subject Key Identifier: 
                C5:BD:EA:82:3F:32:77:1E:4F:A5:8F:81:83:5F:B1:A0:D4:F6:5E:B5
            X509v3 Authority Key Identifier: 
                keyid:48:51:C6:E0:30:C1:4E:96:70:99:8D:C2:F5:5A:11:6C:FB:66:DD:95
                DirName:/CN=team133-net
                serial:59:41:BA:4E:E1:F6:6D:C2:19:07:77:3E:D4:63:37:34:80:D7:20:B9

            X509v3 Extended Key Usage: 
                TLS Web Client Authentication
            X509v3 Key Usage: 
                Digital Signature
    Signature Algorithm: sha256WithRSAEncryption
         84:4b:89:b6:12:c7:d2:83:0d:c1:bf:12:9a:96:b4:4c:80:01:
         0e:45:6f:89:2a:29:c0:3f:d5:a8:e5:d9:ff:69:55:1e:8b:cb:
         6d:97:a7:70:ae:37:80:80:7f:4b:1f:55:22:aa:13:c2:68:02:
         8f:b8:47:54:e6:38:9c:f0:5c:cb:e2:8e:c3:b2:75:1d:f5:63:
         d9:ec:f7:4a:0e:71:8d:5f:bb:36:fd:61:4c:c2:ae:9b:53:9a:
         ca:b2:bb:f5:21:bd:7f:0e:4e:ce:d6:0d:2f:90:e2:3a:c3:e5:
         e0:85:f3:0a:93:6a:78:3a:98:d2:ce:ad:16:5b:69:cd:34:c6:
         a2:2b:f1:a7:f3:a7:8d:51:00:4f:ae:31:bf:b6:0d:67:26:63:
         a1:c9:99:4b:8f:fd:5c:17:51:95:86:8d:a1:0c:95:1b:b3:61:
         79:b6:12:94:a5:21:63:12:52:18:89:ff:95:cc:93:7d:20:a8:
         92:96:96:b8:e3:55:db:e3:23:ff:28:b8:74:d2:32:1f:4a:82:
         b4:4f:ea:71:5c:7f:5d:63:72:b2:95:7b:11:ed:a2:b7:5d:0e:
         bb:bc:1d:e8:ad:5d:1b:78:ad:a4:99:d0:7c:9e:7c:b3:80:af:
         ae:57:a3:d1:4e:e1:c8:bf:0b:65:79:1d:e3:c9:15:b8:d0:e1:
         a3:76:9e:0c
-----BEGIN CERTIFICATE-----
MIIDXDCCAkSgAwIBAgIQM3O1wHNAeyvGSxulqbotGjANBgkqhkiG9w0BAQsFADAW
MRQwEgYDVQQDDAt0ZWFtMTMzLW5ldDAeFw0yMzA4MTQxNDI1MDFaFw0yNjA3Mjkx
NDI1MDFaMBkxFzAVBgNVBAMMDnRlYW0xMzMtY2xpZW50MIIBIjANBgkqhkiG9w0B
AQEFAAOCAQ8AMIIBCgKCAQEAzoD2MLo0cUwQKM9MmOwBHw4XdZBkn/CthfHbuzmj
k6y7wtdvczbBcy7j1rXtG978J1LvEnGRUdoXaGUZJYjmqt5UgzgwgRbgUenbnPkl
cin03GrMe2gog8zTIRYAYAwdGcxx/5hN/jW2iLJ3uWIK3Jouvhvw6Phy8VEV7Xkd
WNfgXA39KYXH+77Ez/yHxllqD35RgV3zYrLS2Gs0+W76sPDh6up725l9D6k5dMjE
TGcbZcaIjQQT68OeyigWs65qZ7xJFEDvqJb3MPdsQCCsYdnfxtKJn4eORN7KHQ5P
rYsBi6MmlnRiRvaQ2I+pPvb163stZAtpr0v+fvXP0zffbwIDAQABo4GiMIGfMAkG
A1UdEwQCMAAwHQYDVR0OBBYEFMW96oI/MnceT6WPgYNfsaDU9l61MFEGA1UdIwRK
MEiAFEhRxuAwwU6WcJmNwvVaEWz7Zt2VoRqkGDAWMRQwEgYDVQQDDAt0ZWFtMTMz
LW5ldIIUWUG6TuH2bcIZB3c+1GM3NIDXILkwEwYDVR0lBAwwCgYIKwYBBQUHAwIw
CwYDVR0PBAQDAgeAMA0GCSqGSIb3DQEBCwUAA4IBAQCES4m2EsfSgw3BvxKalrRM
gAEORW+JKinAP9Wo5dn/aVUei8ttl6dwrjeAgH9LH1UiqhPCaAKPuEdU5jic8FzL
4o7DsnUd9WPZ7PdKDnGNX7s2/WFMwq6bU5rKsrv1Ib1/Dk7O1g0vkOI6w+XghfMK
k2p4OpjSzq0WW2nNNMaiK/Gn86eNUQBPrjG/tg1nJmOhyZlLj/1cF1GVho2hDJUb
s2F5thKUpSFjElIYif+VzJN9IKiSlpa441Xb4yP/KLh00jIfSoK0T+pxXH9dY3Ky
lXsR7aK3XQ67vB3orV0beK2kmdB8nnyzgK+uV6PRTuHIvwtleR3jyRW40OGjdp4M
-----END CERTIFICATE-----
