Certificate:
    Data:
        Version: 3 (0x2)
        Serial Number:
            36:f7:83:ec:09:d6:b0:1a:94:06:39:1d:6d:a7:ac:9f
        Signature Algorithm: sha256WithRSAEncryption
        Issuer: CN=team117-net
        Validity
            Not Before: Aug 14 14:24:41 2023 GMT
            Not After : Jul 29 14:24:41 2026 GMT
        Subject: CN=team117-server
        Subject Public Key Info:
            Public Key Algorithm: rsaEncryption
                RSA Public-Key: (2048 bit)
                Modulus:
                    00:ad:43:e8:9d:4a:c4:0d:2b:2e:eb:8d:c8:88:1d:
                    30:29:95:87:23:65:b8:2c:0d:19:9f:da:1b:19:ba:
                    38:6a:05:8f:3c:75:d8:52:91:fa:5f:d1:bd:73:4b:
                    4f:29:2d:13:c4:8e:aa:bd:df:a6:9b:43:e4:40:c4:
                    e7:f3:89:ee:7d:ed:10:98:a6:b3:df:60:90:ef:81:
                    70:d6:58:9d:63:fd:95:68:e3:2e:a0:98:e2:7f:df:
                    3f:4f:fb:00:ef:07:bf:92:71:c4:0f:f4:d3:a7:93:
                    30:52:07:ca:ad:50:f7:16:2a:32:66:9d:8d:d7:e4:
                    a9:16:5d:d4:5c:6e:48:b1:55:fa:31:22:52:9b:4c:
                    7b:d1:60:8a:17:f3:30:1e:df:50:b1:b3:02:e7:bb:
                    2f:9f:d0:1a:92:1a:03:63:fd:26:9a:48:8c:b5:b4:
                    dc:27:c3:d6:e5:cb:55:ba:cd:70:9e:6f:b7:98:41:
                    d8:58:ec:6d:9d:f2:db:a8:c2:f6:4c:31:ce:ea:35:
                    5c:23:6c:8c:f8:5b:cd:f0:3a:19:61:0b:1c:d0:37:
                    fe:24:55:f6:be:05:ff:ef:d4:a0:b7:b6:cb:6a:a0:
                    92:68:fb:28:f3:3b:50:6d:84:d8:12:ca:f4:d5:ee:
                    b5:c9:46:58:29:3a:2c:c6:95:47:95:83:b4:31:95:
                    47:83
                Exponent: 65537 (0x10001)
        X509v3 extensions:
            X509v3 Basic Constraints: 
                CA:FALSE
            X509v3 Subject Key Identifier: 
                F1:B8:D1:EF:5A:F6:D0:6B:42:1D:D2:C1:AC:08:D3:CC:0F:08:1E:54
            X509v3 Authority Key Identifier: 
                keyid:71:8D:A1:2C:A9:77:59:C3:A6:34:3A:EE:7B:C3:43:05:6F:53:8D:8C
                DirName:/CN=team117-net
                serial:68:D6:BD:0C:C1:B6:22:F5:1E:93:B2:F0:7F:85:58:71:D4:08:99:44

            X509v3 Extended Key Usage: 
                TLS Web Server Authentication
            X509v3 Key Usage: 
                Digital Signature, Key Encipherment
            X509v3 Subject Alternative Name: 
                DNS:team117-server
    Signature Algorithm: sha256WithRSAEncryption
         4a:1f:18:04:15:1c:c6:4f:6b:98:4c:dd:74:90:c6:f1:d5:f1:
         e3:4d:0b:31:5f:1e:56:2f:16:0a:25:6f:91:8f:63:a2:04:fe:
         b3:10:15:5f:18:d5:f3:f2:cc:c5:79:ec:2b:ee:f2:7a:81:15:
         3d:e7:88:41:0f:37:cd:47:27:79:0c:b0:1d:e8:a0:03:73:f6:
         0a:6c:fb:6d:49:c0:f5:88:52:d5:de:3e:26:20:64:59:4f:51:
         1c:0a:fc:10:15:13:52:f7:ec:ca:a0:32:87:59:3b:a9:5c:12:
         9e:08:22:70:dc:8f:90:50:0a:84:9c:42:3c:af:ad:f4:eb:58:
         ec:37:bc:44:83:33:3d:54:5f:4a:73:66:d8:c9:5c:b4:49:90:
         ce:d1:ad:c7:80:d5:b1:b3:be:6f:8f:01:41:34:8e:93:fc:be:
         c2:61:62:3a:e4:a7:b9:01:7a:a1:06:7c:ee:7c:af:04:e7:bc:
         81:49:d9:84:bb:a5:44:ae:49:c4:56:18:ed:ae:e3:72:af:16:
         e9:c0:49:af:46:41:4d:82:ff:6e:3b:4d:5f:fb:15:70:86:31:
         9c:ea:e8:50:71:7d:b2:be:4c:34:df:34:00:56:b6:f4:cc:e0:
         e1:86:77:9f:4a:3c:df:9e:ce:cc:b0:8d:10:d0:1c:d3:d4:db:
         5d:92:a6:a8
-----BEGIN CERTIFICATE-----
MIIDdzCCAl+gAwIBAgIQNveD7AnWsBqUBjkdbaesnzANBgkqhkiG9w0BAQsFADAW
MRQwEgYDVQQDDAt0ZWFtMTE3LW5ldDAeFw0yMzA4MTQxNDI0NDFaFw0yNjA3Mjkx
NDI0NDFaMBkxFzAVBgNVBAMMDnRlYW0xMTctc2VydmVyMIIBIjANBgkqhkiG9w0B
AQEFAAOCAQ8AMIIBCgKCAQEArUPonUrEDSsu643IiB0wKZWHI2W4LA0Zn9obGbo4
agWPPHXYUpH6X9G9c0tPKS0TxI6qvd+mm0PkQMTn84nufe0QmKaz32CQ74Fw1lid
Y/2VaOMuoJjif98/T/sA7we/knHED/TTp5MwUgfKrVD3FioyZp2N1+SpFl3UXG5I
sVX6MSJSm0x70WCKF/MwHt9QsbMC57svn9AakhoDY/0mmkiMtbTcJ8PW5ctVus1w
nm+3mEHYWOxtnfLbqML2TDHO6jVcI2yM+FvN8DoZYQsc0Df+JFX2vgX/79Sgt7bL
aqCSaPso8ztQbYTYEsr01e61yUZYKTosxpVHlYO0MZVHgwIDAQABo4G9MIG6MAkG
A1UdEwQCMAAwHQYDVR0OBBYEFPG40e9a9tBrQh3SwawI08wPCB5UMFEGA1UdIwRK
MEiAFHGNoSypd1nDpjQ67nvDQwVvU42MoRqkGDAWMRQwEgYDVQQDDAt0ZWFtMTE3
LW5ldIIUaNa9DMG2IvUek7Lwf4VYcdQImUQwEwYDVR0lBAwwCgYIKwYBBQUHAwEw
CwYDVR0PBAQDAgWgMBkGA1UdEQQSMBCCDnRlYW0xMTctc2VydmVyMA0GCSqGSIb3
DQEBCwUAA4IBAQBKHxgEFRzGT2uYTN10kMbx1fHjTQsxXx5WLxYKJW+Rj2OiBP6z
EBVfGNXz8szFeewr7vJ6gRU954hBDzfNRyd5DLAd6KADc/YKbPttScD1iFLV3j4m
IGRZT1EcCvwQFRNS9+zKoDKHWTupXBKeCCJw3I+QUAqEnEI8r63061jsN7xEgzM9
VF9Kc2bYyVy0SZDO0a3HgNWxs75vjwFBNI6T/L7CYWI65Ke5AXqhBnzufK8E57yB
SdmEu6VErknEVhjtruNyrxbpwEmvRkFNgv9uO01f+xVwhjGc6uhQcX2yvkw03zQA
Vrb0zODhhnefSjzfns7MsI0Q0BzT1Ntdkqao
-----END CERTIFICATE-----
