Certificate:
    Data:
        Version: 3 (0x2)
        Serial Number:
            dd:5d:56:6e:38:58:e4:ae:0d:02:44:63:8a:91:a5:05
        Signature Algorithm: sha256WithRSAEncryption
        Issuer: CN=team117-net
        Validity
            Not Before: Aug 14 14:24:41 2023 GMT
            Not After : Jul 29 14:24:41 2026 GMT
        Subject: CN=team117-client
        Subject Public Key Info:
            Public Key Algorithm: rsaEncryption
                RSA Public-Key: (2048 bit)
                Modulus:
                    00:e6:b4:68:3a:5a:9c:0d:c6:bc:35:a0:c8:45:17:
                    2c:d5:2e:07:b2:9c:12:53:33:d8:09:0b:1b:65:da:
                    e1:9a:c3:92:93:4a:7d:85:f8:5f:ce:24:ee:bc:10:
                    37:f1:21:84:d4:2f:3b:26:01:22:a8:8d:fe:95:f4:
                    e2:7b:3a:de:23:0e:43:10:51:ae:ee:29:ae:69:e7:
                    f3:57:e8:f4:3b:b2:a3:8b:51:00:0e:53:1e:82:3c:
                    61:0a:fe:0c:27:3d:d4:d6:9c:28:59:fe:97:87:c8:
                    d3:44:b2:77:2d:2c:7b:d9:f0:67:22:25:d0:db:ad:
                    dd:4a:0c:c9:41:15:5d:ae:0f:b1:a7:fa:c6:d8:10:
                    45:fc:d9:a7:9f:b7:21:1e:e3:b2:bf:07:50:d2:9a:
                    c3:c3:10:bc:41:f1:37:7b:34:15:b1:82:ae:e0:15:
                    14:22:70:0f:cd:e4:58:f9:d3:a7:d5:eb:96:8e:38:
                    7d:91:af:5f:90:05:fd:b8:06:ab:81:65:69:6c:be:
                    b2:7d:ed:e4:8b:a2:77:c1:20:77:7b:44:e4:c5:a0:
                    08:f4:65:69:e6:e3:ad:9f:94:b5:58:ca:f4:49:d9:
                    64:5b:b6:f6:48:8e:1e:48:62:e2:85:fa:e2:d9:00:
                    de:10:69:b5:9b:f0:ab:90:8c:63:42:0e:f5:36:d1:
                    a8:79
                Exponent: 65537 (0x10001)
        X509v3 extensions:
            X509v3 Basic Constraints: 
                CA:FALSE
            X509v3 Subject Key Identifier: 
                D0:91:4F:E9:87:DD:3C:9E:71:49:1B:CA:39:48:00:75:DD:A7:5E:71
            X509v3 Authority Key Identifier: 
                keyid:71:8D:A1:2C:A9:77:59:C3:A6:34:3A:EE:7B:C3:43:05:6F:53:8D:8C
                DirName:/CN=team117-net
                serial:68:D6:BD:0C:C1:B6:22:F5:1E:93:B2:F0:7F:85:58:71:D4:08:99:44

            X509v3 Extended Key Usage: 
                TLS Web Client Authentication
            X509v3 Key Usage: 
                Digital Signature
    Signature Algorithm: sha256WithRSAEncryption
         3d:2b:1e:e6:b8:b0:d2:03:b2:9a:2d:40:21:20:0f:5d:65:66:
         33:5f:4f:22:96:dc:0a:52:9d:de:20:fe:fb:0b:90:13:9f:ff:
         0d:b7:a4:df:0c:0e:5f:11:2b:c6:19:fe:97:6e:83:27:a8:7e:
         de:bf:9a:11:14:95:75:44:32:e4:e1:16:4a:48:dc:46:60:bd:
         da:ec:69:f4:57:af:1b:46:de:49:17:6b:ee:41:9f:5e:6a:d4:
         75:2a:28:60:99:da:9c:35:d4:2e:52:b1:28:aa:4d:ba:76:33:
         6a:a7:50:d2:08:5d:bc:9d:b7:c5:39:77:3f:08:98:c8:19:49:
         10:0f:d9:7e:31:90:ae:9e:11:66:a2:89:ec:86:56:28:9e:65:
         17:96:49:fb:11:0b:35:c9:7c:c0:2c:95:c3:93:21:23:8b:ee:
         ba:66:d2:0a:0e:57:5b:5d:67:09:93:d5:9f:02:6f:e9:6b:10:
         1a:85:ed:80:bb:74:4b:50:3c:05:b3:e2:a3:e6:fc:68:fd:75:
         3f:31:38:8a:0b:5d:0f:e7:db:24:ae:20:fc:ae:98:1f:3f:4e:
         0c:77:c4:a8:ce:da:4e:1a:7f:85:4d:50:1e:3a:e4:ca:03:ef:
         7d:78:50:5f:66:c4:f8:53:d7:66:e4:f4:9a:87:2f:44:fa:84:
         17:6a:f4:b3
-----BEGIN CERTIFICATE-----
MIIDXTCCAkWgAwIBAgIRAN1dVm44WOSuDQJEY4qRpQUwDQYJKoZIhvcNAQELBQAw
FjEUMBIGA1UEAwwLdGVhbTExNy1uZXQwHhcNMjMwODE0MTQyNDQxWhcNMjYwNzI5
MTQyNDQxWjAZMRcwFQYDVQQDDA50ZWFtMTE3LWNsaWVudDCCASIwDQYJKoZIhvcN
AQEBBQADggEPADCCAQoCggEBAOa0aDpanA3GvDWgyEUXLNUuB7KcElMz2AkLG2Xa
4ZrDkpNKfYX4X84k7rwQN/EhhNQvOyYBIqiN/pX04ns63iMOQxBRru4prmnn81fo
9Duyo4tRAA5THoI8YQr+DCc91NacKFn+l4fI00Sydy0se9nwZyIl0Nut3UoMyUEV
Xa4Psaf6xtgQRfzZp5+3IR7jsr8HUNKaw8MQvEHxN3s0FbGCruAVFCJwD83kWPnT
p9Xrlo44fZGvX5AF/bgGq4FlaWy+sn3t5Iuid8Egd3tE5MWgCPRlaebjrZ+UtVjK
9EnZZFu29kiOHkhi4oX64tkA3hBptZvwq5CMY0IO9TbRqHkCAwEAAaOBojCBnzAJ
BgNVHRMEAjAAMB0GA1UdDgQWBBTQkU/ph908nnFJG8o5SAB13adecTBRBgNVHSME
SjBIgBRxjaEsqXdZw6Y0Ou57w0MFb1ONjKEapBgwFjEUMBIGA1UEAwwLdGVhbTEx
Ny1uZXSCFGjWvQzBtiL1HpOy8H+FWHHUCJlEMBMGA1UdJQQMMAoGCCsGAQUFBwMC
MAsGA1UdDwQEAwIHgDANBgkqhkiG9w0BAQsFAAOCAQEAPSse5riw0gOymi1AISAP
XWVmM19PIpbcClKd3iD++wuQE5//Dbek3wwOXxErxhn+l26DJ6h+3r+aERSVdUQy
5OEWSkjcRmC92uxp9FevG0beSRdr7kGfXmrUdSooYJnanDXULlKxKKpNunYzaqdQ
0ghdvJ23xTl3PwiYyBlJEA/ZfjGQrp4RZqKJ7IZWKJ5lF5ZJ+xELNcl8wCyVw5Mh
I4vuumbSCg5XW11nCZPVnwJv6WsQGoXtgLt0S1A8BbPio+b8aP11PzE4igtdD+fb
JK4g/K6YHz9ODHfEqM7aThp/hU1QHjrkygPvfXhQX2bE+FPXZuT0mocvRPqEF2r0
sw==
-----END CERTIFICATE-----
