Certificate:
    Data:
        Version: 3 (0x2)
        Serial Number:
            2e:72:fb:2e:88:6a:1d:8d:ac:fd:75:92:20:96:dd:d1
        Signature Algorithm: sha256WithRSAEncryption
        Issuer: CN=team81-net
        Validity
            Not Before: Aug 14 14:23:52 2023 GMT
            Not After : Jul 29 14:23:52 2026 GMT
        Subject: CN=team81-server
        Subject Public Key Info:
            Public Key Algorithm: rsaEncryption
                RSA Public-Key: (2048 bit)
                Modulus:
                    00:aa:a4:a9:33:9e:de:49:2b:66:ae:54:b2:10:f1:
                    41:68:eb:7f:76:e5:8d:01:02:61:bf:4f:7c:a5:8f:
                    6d:3d:85:b6:a9:d5:95:b8:12:ce:19:0c:b7:d9:58:
                    b0:10:78:77:7a:61:be:1e:dc:71:74:37:fa:a3:68:
                    1f:c2:f0:d6:5d:a5:c4:1c:87:8f:32:84:2d:54:49:
                    8a:ef:b8:0b:79:69:cf:9c:54:da:bb:ec:6c:9a:87:
                    ec:a3:70:00:c6:93:81:77:3b:b9:52:d5:de:fe:10:
                    00:69:3b:d4:e8:1e:c3:05:e3:dc:82:e6:61:1b:b6:
                    e3:71:f2:44:bf:d5:96:5f:ba:bf:df:ad:7f:63:e2:
                    ec:53:04:24:2b:9a:80:94:92:80:0c:bb:83:6f:68:
                    50:5a:dd:31:23:85:95:c1:89:e2:d5:b9:6c:c2:13:
                    0e:23:91:b0:0a:f0:27:e0:c3:cb:7c:c2:70:fa:4d:
                    cc:b9:12:e5:29:09:87:02:da:4a:33:b7:c7:c0:2d:
                    c8:fb:b1:d1:89:58:50:7c:0c:0a:9c:77:b6:37:15:
                    93:d7:0a:30:92:91:9d:d8:74:e6:4a:cd:c0:c2:00:
                    cf:1e:c2:18:1b:e9:c1:09:5f:f7:28:40:27:7c:0f:
                    31:e5:dd:f7:ae:51:1d:b2:3e:2e:d4:0b:7a:d7:04:
                    80:31
                Exponent: 65537 (0x10001)
        X509v3 extensions:
            X509v3 Basic Constraints: 
                CA:FALSE
            X509v3 Subject Key Identifier: 
                2A:A9:59:4F:C4:DD:B7:87:FF:34:39:C0:B7:58:52:ED:86:8C:C0:9C
            X509v3 Authority Key Identifier: 
                keyid:2D:1B:C1:5E:66:8D:1C:08:A8:C4:51:24:86:BD:28:74:36:0A:44:59
                DirName:/CN=team81-net
                serial:04:C1:C0:E5:7C:A6:D1:5D:47:C4:7B:A5:FC:5D:95:E7:22:F8:6C:BE

            X509v3 Extended Key Usage: 
                TLS Web Server Authentication
            X509v3 Key Usage: 
                Digital Signature, Key Encipherment
            X509v3 Subject Alternative Name: 
                DNS:team81-server
    Signature Algorithm: sha256WithRSAEncryption
         19:9c:04:9b:df:c1:ce:30:61:3c:1f:db:22:77:0c:6f:b9:70:
         fe:ba:26:c3:40:c2:62:a0:97:f7:a5:78:6e:ba:b9:d4:c5:1b:
         93:7c:9d:14:63:0a:af:72:9f:c6:43:d5:a0:a2:e5:8f:e0:9e:
         9c:b1:48:40:6d:c1:df:41:dc:fc:be:d3:54:fd:cb:d9:bb:a5:
         e0:76:e2:39:5d:ca:3a:35:10:d0:68:a6:f8:f9:16:52:2f:5a:
         89:4e:e3:92:58:97:6a:a4:b3:1d:bd:a8:51:ec:fd:6c:6d:81:
         b0:39:73:9b:b9:29:c8:31:50:e0:73:38:40:76:68:bf:de:7c:
         c7:a3:0e:ef:a8:dc:3e:45:57:54:1d:ea:f9:3a:a4:82:bd:d1:
         e7:68:af:4a:f0:41:16:ff:7e:99:63:fa:e8:7d:57:34:61:b6:
         80:7c:47:e6:ae:4b:04:db:64:85:af:0b:f1:8a:c7:85:17:08:
         d0:67:75:d7:5b:29:84:31:52:1a:78:62:6e:b8:14:51:84:1c:
         31:40:51:b4:17:32:ac:43:26:6f:8d:c7:ff:16:f1:05:9b:22:
         8b:3d:41:90:42:8e:e0:0b:59:73:27:4e:0a:05:c9:fa:cf:37:
         84:1e:35:17:2b:66:fe:52:01:de:cd:36:77:66:bc:17:11:84:
         b5:a6:e9:44
-----BEGIN CERTIFICATE-----
MIIDczCCAlugAwIBAgIQLnL7LohqHY2s/XWSIJbd0TANBgkqhkiG9w0BAQsFADAV
MRMwEQYDVQQDDAp0ZWFtODEtbmV0MB4XDTIzMDgxNDE0MjM1MloXDTI2MDcyOTE0
MjM1MlowGDEWMBQGA1UEAwwNdGVhbTgxLXNlcnZlcjCCASIwDQYJKoZIhvcNAQEB
BQADggEPADCCAQoCggEBAKqkqTOe3kkrZq5UshDxQWjrf3bljQECYb9PfKWPbT2F
tqnVlbgSzhkMt9lYsBB4d3phvh7ccXQ3+qNoH8Lw1l2lxByHjzKELVRJiu+4C3lp
z5xU2rvsbJqH7KNwAMaTgXc7uVLV3v4QAGk71OgewwXj3ILmYRu243HyRL/Vll+6
v9+tf2Pi7FMEJCuagJSSgAy7g29oUFrdMSOFlcGJ4tW5bMITDiORsArwJ+DDy3zC
cPpNzLkS5SkJhwLaSjO3x8AtyPux0YlYUHwMCpx3tjcVk9cKMJKRndh05krNwMIA
zx7CGBvpwQlf9yhAJ3wPMeXd965RHbI+LtQLetcEgDECAwEAAaOBuzCBuDAJBgNV
HRMEAjAAMB0GA1UdDgQWBBQqqVlPxN23h/80OcC3WFLthozAnDBQBgNVHSMESTBH
gBQtG8FeZo0cCKjEUSSGvSh0NgpEWaEZpBcwFTETMBEGA1UEAwwKdGVhbTgxLW5l
dIIUBMHA5Xym0V1HxHul/F2V5yL4bL4wEwYDVR0lBAwwCgYIKwYBBQUHAwEwCwYD
VR0PBAQDAgWgMBgGA1UdEQQRMA+CDXRlYW04MS1zZXJ2ZXIwDQYJKoZIhvcNAQEL
BQADggEBABmcBJvfwc4wYTwf2yJ3DG+5cP66JsNAwmKgl/eleG66udTFG5N8nRRj
Cq9yn8ZD1aCi5Y/gnpyxSEBtwd9B3Py+01T9y9m7peB24jldyjo1ENBopvj5FlIv
WolO45JYl2qksx29qFHs/WxtgbA5c5u5KcgxUOBzOEB2aL/efMejDu+o3D5FV1Qd
6vk6pIK90edor0rwQRb/fplj+uh9VzRhtoB8R+auSwTbZIWvC/GKx4UXCNBndddb
KYQxUhp4Ym64FFGEHDFAUbQXMqxDJm+Nx/8W8QWbIos9QZBCjuALWXMnTgoFyfrP
N4QeNRcrZv5SAd7NNndmvBcRhLWm6UQ=
-----END CERTIFICATE-----
