Certificate:
    Data:
        Version: 3 (0x2)
        Serial Number:
            e3:16:14:3b:00:01:45:71:ed:99:bd:ed:a8:4e:29:85
        Signature Algorithm: sha256WithRSAEncryption
        Issuer: CN=team81-net
        Validity
            Not Before: Aug 14 14:23:52 2023 GMT
            Not After : Jul 29 14:23:52 2026 GMT
        Subject: CN=team81-client
        Subject Public Key Info:
            Public Key Algorithm: rsaEncryption
                RSA Public-Key: (2048 bit)
                Modulus:
                    00:e4:f3:87:c0:32:4e:57:87:9b:3e:91:4f:dc:6c:
                    98:f6:2c:00:ba:2d:7c:b4:1d:1f:69:63:4c:e0:4c:
                    a4:17:75:be:05:43:dd:5a:0e:f4:91:32:f1:19:f7:
                    c5:bb:6c:de:a4:b7:b0:a6:b4:57:60:a8:d0:10:58:
                    14:9f:c5:2b:c2:b5:a8:de:9a:d4:b4:27:98:5a:be:
                    4e:d7:bc:14:fe:e5:a1:0f:3a:29:ee:04:11:27:43:
                    7d:a1:c7:b9:85:72:d2:e6:e1:b5:3f:3c:e7:5b:ce:
                    e6:7e:da:39:88:15:9d:37:f9:ab:51:1f:d2:5d:37:
                    ad:1c:15:ec:58:e9:1a:20:ca:64:e0:8d:1f:66:eb:
                    a2:a6:ee:dd:8a:7e:db:54:ba:7d:e4:9c:46:8b:83:
                    92:75:92:aa:19:cc:95:26:65:60:3e:c3:d1:db:cc:
                    d4:a0:dc:aa:48:51:67:2c:92:97:63:06:dc:bf:24:
                    48:59:ff:b1:80:69:05:52:b5:17:e8:b7:01:06:57:
                    fa:1a:2d:18:8e:0b:26:5c:fe:19:52:4f:8e:47:ad:
                    99:68:af:89:72:34:06:e0:9f:f3:46:48:45:f2:c0:
                    68:73:31:8c:39:5c:af:c1:5b:a7:1c:3f:6f:ec:b0:
                    f4:65:68:43:81:fc:7c:8d:a3:04:36:a4:49:c5:dd:
                    eb:57
                Exponent: 65537 (0x10001)
        X509v3 extensions:
            X509v3 Basic Constraints: 
                CA:FALSE
            X509v3 Subject Key Identifier: 
                8E:BB:60:30:7F:2D:9D:0D:FD:7F:CF:83:4A:C7:B9:1C:86:1B:AF:1B
            X509v3 Authority Key Identifier: 
                keyid:2D:1B:C1:5E:66:8D:1C:08:A8:C4:51:24:86:BD:28:74:36:0A:44:59
                DirName:/CN=team81-net
                serial:04:C1:C0:E5:7C:A6:D1:5D:47:C4:7B:A5:FC:5D:95:E7:22:F8:6C:BE

            X509v3 Extended Key Usage: 
                TLS Web Client Authentication
            X509v3 Key Usage: 
                Digital Signature
    Signature Algorithm: sha256WithRSAEncryption
         c8:5f:a9:11:c1:e5:08:e2:c2:c4:91:7e:51:cc:aa:b3:17:89:
         19:0c:c4:2b:48:4f:30:59:0c:9d:32:53:ca:80:11:d7:9f:b0:
         43:01:a5:c7:c5:81:85:5d:fd:b1:ea:3c:48:fb:e0:b6:44:eb:
         1f:fd:b2:9f:b5:34:fb:b4:b7:98:7a:27:a4:75:02:ec:27:c1:
         2c:a9:ba:f9:55:08:42:6e:1c:23:29:cf:8e:bd:34:0a:67:e3:
         4e:26:29:c5:06:52:50:ae:65:fe:f2:d1:6b:97:f6:21:04:8d:
         6b:2a:e2:30:78:94:75:92:52:a8:c4:24:66:94:51:f9:90:f4:
         76:10:0c:c8:e1:ae:05:41:d8:ca:08:87:c5:12:c0:ac:6f:80:
         c6:55:df:f9:af:83:54:7a:58:e6:15:14:10:e1:0d:98:15:ee:
         11:3d:d2:25:88:b0:27:e1:77:18:15:87:91:e1:ae:d2:57:63:
         66:7e:f1:5f:bd:fe:ef:35:0b:af:22:86:49:00:4f:b3:d5:95:
         f8:e9:b2:f5:de:b4:4c:e2:d1:83:eb:cd:21:43:99:2b:e1:a0:
         b4:45:ed:7f:0b:d9:bd:c7:1e:9a:d3:0a:86:7a:b9:03:b6:b9:
         72:e7:cc:47:49:42:3d:08:b5:f8:67:08:56:36:da:e3:ae:ea:
         29:0d:39:e8
-----BEGIN CERTIFICATE-----
MIIDWjCCAkKgAwIBAgIRAOMWFDsAAUVx7Zm97ahOKYUwDQYJKoZIhvcNAQELBQAw
FTETMBEGA1UEAwwKdGVhbTgxLW5ldDAeFw0yMzA4MTQxNDIzNTJaFw0yNjA3Mjkx
NDIzNTJaMBgxFjAUBgNVBAMMDXRlYW04MS1jbGllbnQwggEiMA0GCSqGSIb3DQEB
AQUAA4IBDwAwggEKAoIBAQDk84fAMk5Xh5s+kU/cbJj2LAC6LXy0HR9pY0zgTKQX
db4FQ91aDvSRMvEZ98W7bN6kt7CmtFdgqNAQWBSfxSvCtajemtS0J5havk7XvBT+
5aEPOinuBBEnQ32hx7mFctLm4bU/POdbzuZ+2jmIFZ03+atRH9JdN60cFexY6Rog
ymTgjR9m66Km7t2KfttUun3knEaLg5J1kqoZzJUmZWA+w9HbzNSg3KpIUWcskpdj
Bty/JEhZ/7GAaQVStRfotwEGV/oaLRiOCyZc/hlST45HrZlor4lyNAbgn/NGSEXy
wGhzMYw5XK/BW6ccP2/ssPRlaEOB/HyNowQ2pEnF3etXAgMBAAGjgaEwgZ4wCQYD
VR0TBAIwADAdBgNVHQ4EFgQUjrtgMH8tnQ39f8+DSse5HIYbrxswUAYDVR0jBEkw
R4AULRvBXmaNHAioxFEkhr0odDYKRFmhGaQXMBUxEzARBgNVBAMMCnRlYW04MS1u
ZXSCFATBwOV8ptFdR8R7pfxdleci+Gy+MBMGA1UdJQQMMAoGCCsGAQUFBwMCMAsG
A1UdDwQEAwIHgDANBgkqhkiG9w0BAQsFAAOCAQEAyF+pEcHlCOLCxJF+UcyqsxeJ
GQzEK0hPMFkMnTJTyoAR15+wQwGlx8WBhV39seo8SPvgtkTrH/2yn7U0+7S3mHon
pHUC7CfBLKm6+VUIQm4cIynPjr00CmfjTiYpxQZSUK5l/vLRa5f2IQSNayriMHiU
dZJSqMQkZpRR+ZD0dhAMyOGuBUHYygiHxRLArG+AxlXf+a+DVHpY5hUUEOENmBXu
ET3SJYiwJ+F3GBWHkeGu0ldjZn7xX73+7zULryKGSQBPs9WV+Omy9d60TOLRg+vN
IUOZK+GgtEXtfwvZvccemtMKhnq5A7a5cufMR0lCPQi1+GcIVjba467qKQ056A==
-----END CERTIFICATE-----
