Certificate:
    Data:
        Version: 3 (0x2)
        Serial Number:
            2d:0a:8f:06:d9:13:2d:81:0c:c4:f5:0c:e2:e8:86:cd
        Signature Algorithm: sha256WithRSAEncryption
        Issuer: CN=team64-net
        Validity
            Not Before: Aug 14 14:23:31 2023 GMT
            Not After : Jul 29 14:23:31 2026 GMT
        Subject: CN=team64-server
        Subject Public Key Info:
            Public Key Algorithm: rsaEncryption
                RSA Public-Key: (2048 bit)
                Modulus:
                    00:9f:a0:cd:44:79:c4:53:08:df:4f:65:40:59:f8:
                    31:dd:48:f9:ab:b8:40:f5:ff:b5:1d:4f:0f:8d:f1:
                    1d:e0:70:f9:a8:ce:aa:6e:1e:1a:e9:35:81:dc:c5:
                    45:af:b8:d3:0e:44:9e:69:eb:ad:04:fc:ea:c1:37:
                    b9:7b:89:67:e8:db:83:78:7d:1f:52:cb:51:ff:2b:
                    fa:ce:06:45:f2:94:75:a4:63:5a:d6:78:9d:ac:96:
                    6f:b6:77:7b:7b:d5:4e:ba:38:b8:bc:a1:f8:58:0d:
                    44:85:b9:3a:87:39:84:0b:3f:50:a9:c3:a1:dc:86:
                    b1:54:35:5b:28:03:f3:c1:57:13:29:23:9f:ab:18:
                    dd:a3:c4:29:67:41:b8:9e:ae:7c:4d:c7:66:10:63:
                    3f:79:93:34:66:28:b2:ec:ee:0e:8f:96:88:e3:39:
                    1c:8d:14:b7:2e:ca:1f:7c:33:7f:d3:f4:38:84:ef:
                    fb:37:12:2f:c1:d4:19:ea:26:a1:bc:f0:49:47:e8:
                    3f:e1:d3:9b:4f:9c:f5:10:9f:fe:25:a7:38:c9:ad:
                    f6:fc:fe:ca:f9:d1:25:17:4c:74:84:2f:c0:0e:be:
                    e6:15:e0:aa:22:6c:4b:99:af:20:8b:3d:3d:b0:5d:
                    9a:c2:53:39:81:13:d3:f2:a1:97:fa:c1:42:1e:4c:
                    8a:b1
                Exponent: 65537 (0x10001)
        X509v3 extensions:
            X509v3 Basic Constraints: 
                CA:FALSE
            X509v3 Subject Key Identifier: 
                12:26:AA:08:AB:9F:C6:AC:B6:D9:2F:2D:55:A2:B6:9C:F9:72:A9:FA
            X509v3 Authority Key Identifier: 
                keyid:73:6F:84:89:B6:82:DF:70:3E:5E:6F:B2:40:BA:92:BD:2D:92:E7:23
                DirName:/CN=team64-net
                serial:49:0C:F2:64:91:6A:C8:02:2A:04:B5:0C:46:91:4A:F5:A6:71:8C:C1

            X509v3 Extended Key Usage: 
                TLS Web Server Authentication
            X509v3 Key Usage: 
                Digital Signature, Key Encipherment
            X509v3 Subject Alternative Name: 
                DNS:team64-server
    Signature Algorithm: sha256WithRSAEncryption
         56:66:5e:c7:32:6b:65:a5:c6:28:76:fb:cb:40:3f:02:18:97:
         98:d6:8d:3f:6c:91:d1:f1:bc:a6:92:42:81:12:2d:3c:71:be:
         ea:3b:a3:e7:2c:e6:ed:8f:bd:51:83:8e:a6:48:50:53:78:8e:
         f3:4e:47:2f:92:30:2d:a5:dd:78:59:ca:ca:ee:79:b3:24:5d:
         68:f4:a9:d6:d7:07:33:1b:a7:8c:88:2d:e7:92:dd:c8:30:17:
         75:7d:fe:15:31:5b:29:b2:bc:5e:95:6c:a8:34:cb:d1:8b:0c:
         02:2d:85:62:ba:11:49:e4:c0:74:84:d4:00:1e:cc:fc:59:7d:
         ca:bc:0c:4e:83:18:c0:15:fd:cf:72:b4:5d:3d:95:f3:4e:02:
         83:37:54:15:8d:d2:c2:e2:64:ab:e8:ca:d5:aa:56:52:7c:55:
         24:81:a5:11:37:49:de:a4:93:73:fa:db:c4:df:c4:a9:19:d9:
         dd:4e:66:b8:df:d9:34:f4:3e:12:65:72:ce:c3:b6:ef:78:1d:
         36:5e:ec:12:31:ca:d1:a6:4f:22:61:57:85:e2:f4:86:72:91:
         11:f3:dc:25:e8:cb:28:f3:e4:5b:79:de:67:b7:20:7e:ea:44:
         01:12:90:58:98:67:ef:07:67:b6:67:52:6c:4e:4a:18:84:7a:
         f3:94:4a:94
-----BEGIN CERTIFICATE-----
MIIDczCCAlugAwIBAgIQLQqPBtkTLYEMxPUM4uiGzTANBgkqhkiG9w0BAQsFADAV
MRMwEQYDVQQDDAp0ZWFtNjQtbmV0MB4XDTIzMDgxNDE0MjMzMVoXDTI2MDcyOTE0
MjMzMVowGDEWMBQGA1UEAwwNdGVhbTY0LXNlcnZlcjCCASIwDQYJKoZIhvcNAQEB
BQADggEPADCCAQoCggEBAJ+gzUR5xFMI309lQFn4Md1I+au4QPX/tR1PD43xHeBw
+ajOqm4eGuk1gdzFRa+40w5EnmnrrQT86sE3uXuJZ+jbg3h9H1LLUf8r+s4GRfKU
daRjWtZ4nayWb7Z3e3vVTro4uLyh+FgNRIW5Ooc5hAs/UKnDodyGsVQ1WygD88FX
Eykjn6sY3aPEKWdBuJ6ufE3HZhBjP3mTNGYosuzuDo+WiOM5HI0Uty7KH3wzf9P0
OITv+zcSL8HUGeomobzwSUfoP+HTm0+c9RCf/iWnOMmt9vz+yvnRJRdMdIQvwA6+
5hXgqiJsS5mvIIs9PbBdmsJTOYET0/Khl/rBQh5MirECAwEAAaOBuzCBuDAJBgNV
HRMEAjAAMB0GA1UdDgQWBBQSJqoIq5/GrLbZLy1Vorac+XKp+jBQBgNVHSMESTBH
gBRzb4SJtoLfcD5eb7JAupK9LZLnI6EZpBcwFTETMBEGA1UEAwwKdGVhbTY0LW5l
dIIUSQzyZJFqyAIqBLUMRpFK9aZxjMEwEwYDVR0lBAwwCgYIKwYBBQUHAwEwCwYD
VR0PBAQDAgWgMBgGA1UdEQQRMA+CDXRlYW02NC1zZXJ2ZXIwDQYJKoZIhvcNAQEL
BQADggEBAFZmXscya2Wlxih2+8tAPwIYl5jWjT9skdHxvKaSQoESLTxxvuo7o+cs
5u2PvVGDjqZIUFN4jvNORy+SMC2l3XhZysruebMkXWj0qdbXBzMbp4yILeeS3cgw
F3V9/hUxWymyvF6VbKg0y9GLDAIthWK6EUnkwHSE1AAezPxZfcq8DE6DGMAV/c9y
tF09lfNOAoM3VBWN0sLiZKvoytWqVlJ8VSSBpRE3Sd6kk3P628TfxKkZ2d1OZrjf
2TT0PhJlcs7Dtu94HTZe7BIxytGmTyJhV4Xi9IZykRHz3CXoyyjz5Ft53me3IH7q
RAESkFiYZ+8HZ7ZnUmxOShiEevOUSpQ=
-----END CERTIFICATE-----
