Certificate:
    Data:
        Version: 3 (0x2)
        Serial Number:
            68:fd:91:b9:a5:6a:6b:ce:37:58:06:22:3f:cc:27:1d
        Signature Algorithm: sha256WithRSAEncryption
        Issuer: CN=team64-net
        Validity
            Not Before: Aug 14 14:23:30 2023 GMT
            Not After : Jul 29 14:23:30 2026 GMT
        Subject: CN=team64-client
        Subject Public Key Info:
            Public Key Algorithm: rsaEncryption
                RSA Public-Key: (2048 bit)
                Modulus:
                    00:ca:92:41:d6:a9:74:c7:24:db:c1:f7:b8:13:88:
                    f7:17:ca:be:fb:4d:1b:6c:9b:ae:9b:1d:37:01:ae:
                    3f:3b:13:16:39:18:ab:e9:c9:10:fd:99:51:70:b8:
                    6c:e3:15:fb:23:b2:81:b6:8d:71:9b:c7:77:d2:51:
                    9c:4f:b4:46:ac:0b:9b:e3:57:34:c6:d0:8a:40:94:
                    e3:1f:05:7c:8f:91:46:ab:d6:8f:3c:d6:05:32:66:
                    30:22:49:9e:95:86:a3:95:80:60:0f:cf:04:43:3f:
                    8f:d1:1a:e7:53:32:a7:98:d6:70:ad:9a:3b:21:49:
                    35:a0:8c:b9:62:e9:69:22:b2:e2:b1:68:1d:e1:d5:
                    ca:33:25:90:58:70:e3:63:f7:13:89:a5:75:33:97:
                    49:7a:ce:bd:50:c3:e7:dd:b1:f8:fc:59:dd:7b:a8:
                    8c:95:ef:56:5c:60:00:c1:24:60:74:75:0c:48:64:
                    2b:d4:1a:98:ea:7c:66:78:22:7d:99:d4:68:94:bc:
                    57:d8:5d:1f:ca:1f:bf:d3:24:57:e5:d6:82:b3:7a:
                    b3:f2:af:b7:44:19:6f:82:ef:d2:11:08:39:c2:02:
                    55:07:30:66:86:a7:39:ae:35:32:ce:e6:4e:45:0e:
                    ac:e8:96:f1:73:ae:7e:e8:cb:68:64:e7:81:86:76:
                    1b:e9
                Exponent: 65537 (0x10001)
        X509v3 extensions:
            X509v3 Basic Constraints: 
                CA:FALSE
            X509v3 Subject Key Identifier: 
                4E:0C:33:10:8A:14:7F:18:19:74:FC:68:08:27:D9:A5:F6:61:EC:2A
            X509v3 Authority Key Identifier: 
                keyid:73:6F:84:89:B6:82:DF:70:3E:5E:6F:B2:40:BA:92:BD:2D:92:E7:23
                DirName:/CN=team64-net
                serial:49:0C:F2:64:91:6A:C8:02:2A:04:B5:0C:46:91:4A:F5:A6:71:8C:C1

            X509v3 Extended Key Usage: 
                TLS Web Client Authentication
            X509v3 Key Usage: 
                Digital Signature
    Signature Algorithm: sha256WithRSAEncryption
         b3:f9:3f:44:df:61:f3:27:0a:36:4c:a0:f6:f0:de:58:30:4d:
         35:2c:8e:8e:ca:4a:6d:57:93:6e:a3:29:77:f4:bc:da:92:f2:
         49:2d:2d:47:be:4c:cf:28:37:8a:7d:25:b9:59:49:93:84:9b:
         b0:6d:b4:4c:88:66:ba:63:ae:61:29:84:e8:de:d3:59:dd:5d:
         f6:26:5d:89:50:86:82:5c:4e:dd:44:be:f1:bf:b6:d3:70:67:
         bf:50:c2:48:71:96:bc:a7:1d:04:b2:e2:b8:1e:c5:18:0b:c4:
         f9:dc:1b:1c:13:76:27:d1:91:e1:08:42:37:fb:aa:92:5e:fb:
         c6:1e:28:77:84:3d:2a:41:b3:ed:1e:32:a8:e3:33:41:15:f8:
         b3:1c:f3:6d:9a:7a:e6:2a:a8:b5:3e:cb:c0:44:b4:b8:41:f6:
         df:72:af:ad:4e:3c:8e:1e:19:0e:f4:f1:ca:1d:91:ca:5c:fc:
         91:be:11:c5:91:72:02:6e:e5:75:31:ad:17:49:fe:dd:9d:4a:
         7d:da:07:60:ee:17:e2:5d:7a:1d:37:52:42:1a:ee:b0:fa:d4:
         c2:f7:3d:cf:47:36:30:35:45:1f:46:43:9d:90:9c:fc:3e:92:
         ef:0f:50:9d:2c:3a:ec:be:c5:7d:35:88:3c:bf:e0:55:a4:27:
         ce:6d:98:c8
-----BEGIN CERTIFICATE-----
MIIDWTCCAkGgAwIBAgIQaP2RuaVqa843WAYiP8wnHTANBgkqhkiG9w0BAQsFADAV
MRMwEQYDVQQDDAp0ZWFtNjQtbmV0MB4XDTIzMDgxNDE0MjMzMFoXDTI2MDcyOTE0
MjMzMFowGDEWMBQGA1UEAwwNdGVhbTY0LWNsaWVudDCCASIwDQYJKoZIhvcNAQEB
BQADggEPADCCAQoCggEBAMqSQdapdMck28H3uBOI9xfKvvtNG2ybrpsdNwGuPzsT
FjkYq+nJEP2ZUXC4bOMV+yOygbaNcZvHd9JRnE+0RqwLm+NXNMbQikCU4x8FfI+R
RqvWjzzWBTJmMCJJnpWGo5WAYA/PBEM/j9Ea51Myp5jWcK2aOyFJNaCMuWLpaSKy
4rFoHeHVyjMlkFhw42P3E4mldTOXSXrOvVDD592x+PxZ3XuojJXvVlxgAMEkYHR1
DEhkK9QamOp8ZngifZnUaJS8V9hdH8ofv9MkV+XWgrN6s/Kvt0QZb4Lv0hEIOcIC
VQcwZoanOa41Ms7mTkUOrOiW8XOufujLaGTngYZ2G+kCAwEAAaOBoTCBnjAJBgNV
HRMEAjAAMB0GA1UdDgQWBBRODDMQihR/GBl0/GgIJ9ml9mHsKjBQBgNVHSMESTBH
gBRzb4SJtoLfcD5eb7JAupK9LZLnI6EZpBcwFTETMBEGA1UEAwwKdGVhbTY0LW5l
dIIUSQzyZJFqyAIqBLUMRpFK9aZxjMEwEwYDVR0lBAwwCgYIKwYBBQUHAwIwCwYD
VR0PBAQDAgeAMA0GCSqGSIb3DQEBCwUAA4IBAQCz+T9E32HzJwo2TKD28N5YME01
LI6OykptV5Nuoyl39LzakvJJLS1HvkzPKDeKfSW5WUmThJuwbbRMiGa6Y65hKYTo
3tNZ3V32Jl2JUIaCXE7dRL7xv7bTcGe/UMJIcZa8px0EsuK4HsUYC8T53BscE3Yn
0ZHhCEI3+6qSXvvGHih3hD0qQbPtHjKo4zNBFfizHPNtmnrmKqi1PsvARLS4Qfbf
cq+tTjyOHhkO9PHKHZHKXPyRvhHFkXICbuV1Ma0XSf7dnUp92gdg7hfiXXodN1JC
Gu6w+tTC9z3PRzYwNUUfRkOdkJz8PpLvD1CdLDrsvsV9NYg8v+BVpCfObZjI
-----END CERTIFICATE-----
