Certificate:
    Data:
        Version: 3 (0x2)
        Serial Number:
            05:fc:b8:27:89:8b:42:01:f3:01:10:d9:cc:49:9f:13
        Signature Algorithm: sha256WithRSAEncryption
        Issuer: CN=team92-net
        Validity
            Not Before: Aug 14 14:24:05 2023 GMT
            Not After : Jul 29 14:24:05 2026 GMT
        Subject: CN=team92-client
        Subject Public Key Info:
            Public Key Algorithm: rsaEncryption
                RSA Public-Key: (2048 bit)
                Modulus:
                    00:b4:4e:e7:ea:67:ef:75:45:f4:23:20:cf:db:f4:
                    e7:b9:ef:31:3a:a1:41:46:d2:d0:37:b5:af:74:e4:
                    ed:42:3f:23:3a:bb:fe:7f:fd:fb:2e:ed:e8:39:e3:
                    4c:f1:4b:81:7e:c1:0d:4e:b9:8b:4f:15:25:60:fd:
                    17:97:aa:dd:bd:37:4c:37:90:55:9b:41:7d:c0:18:
                    8b:93:0c:7f:dd:0c:95:98:f5:fc:3f:c6:c8:3b:9c:
                    10:b2:69:73:da:e6:e8:32:98:2e:91:e5:11:87:d3:
                    b4:0c:4e:a6:42:40:0a:bd:db:68:85:b4:a8:88:57:
                    ce:72:5d:fc:35:72:15:aa:58:ba:04:21:18:f9:c1:
                    e0:bf:df:01:5f:94:84:42:ff:e1:e1:5f:51:cc:77:
                    45:0b:c2:94:81:fe:14:03:92:6c:24:a3:a9:70:c7:
                    1f:5f:3e:39:15:af:08:d1:68:f3:dc:c2:62:4d:a8:
                    67:4b:97:1e:32:af:3c:da:42:a9:f7:47:2b:6c:c2:
                    4c:4c:72:99:90:87:ec:5d:8d:23:48:57:19:a5:7d:
                    a4:13:0d:ef:c4:e9:9b:b8:52:a3:46:f3:af:31:cd:
                    7a:6f:8c:9d:ef:75:26:9f:4e:f5:b0:b8:6e:42:b5:
                    9b:a1:0d:d6:d5:b5:6c:a0:61:90:25:52:0c:7a:b9:
                    e2:99
                Exponent: 65537 (0x10001)
        X509v3 extensions:
            X509v3 Basic Constraints: 
                CA:FALSE
            X509v3 Subject Key Identifier: 
                FD:3D:4B:49:5A:13:29:67:90:AF:54:DB:49:F8:09:92:19:F0:02:53
            X509v3 Authority Key Identifier: 
                keyid:E9:71:4D:FC:02:57:D1:8C:41:D5:BB:C2:B1:43:1B:95:04:B5:68:7A
                DirName:/CN=team92-net
                serial:5D:79:6C:B6:0B:0D:72:31:F2:FD:48:92:8F:E0:EB:FE:4B:5D:26:DD

            X509v3 Extended Key Usage: 
                TLS Web Client Authentication
            X509v3 Key Usage: 
                Digital Signature
    Signature Algorithm: sha256WithRSAEncryption
         3d:12:d9:69:84:14:fc:24:2e:b3:78:b3:fe:10:06:b7:f1:d8:
         59:b2:16:a1:cf:12:46:ca:55:d1:f1:67:80:35:fb:eb:cd:76:
         7c:4a:0e:b5:d9:5d:54:f5:34:9f:90:4b:31:17:4e:88:ff:99:
         d7:3f:7c:2f:5c:8c:05:42:8e:fc:40:d3:5a:3a:d7:cf:39:f7:
         42:cb:ab:30:16:b5:60:4b:9b:f1:0f:89:2d:db:63:70:6f:8b:
         a2:2f:f2:77:01:bd:83:9f:7e:98:79:8e:65:3f:ce:a8:f6:b4:
         d3:68:27:a5:82:dd:3c:b9:2c:54:d8:2a:99:a6:0b:7d:ae:b1:
         da:aa:92:18:a6:c9:fe:dc:29:19:f7:c9:c7:b4:84:88:e3:b9:
         35:a9:e8:5e:88:6c:dd:20:15:10:62:9a:7b:74:29:df:41:2e:
         9e:c9:7e:8f:c9:61:50:21:99:44:26:f5:08:1f:38:f2:34:95:
         11:e0:b6:88:5e:1b:04:90:26:df:29:3f:3b:a8:83:31:bf:7f:
         cd:9b:16:1f:42:c8:36:5e:b3:fc:12:0b:bd:43:a5:78:11:bf:
         8c:ea:5e:8f:67:d0:fb:a7:55:f7:7e:80:c6:5d:00:1b:3b:21:
         ba:09:a1:90:e9:bc:92:44:d9:e4:f3:57:3b:dd:50:6a:80:11:
         d8:20:06:26
-----BEGIN CERTIFICATE-----
MIIDWTCCAkGgAwIBAgIQBfy4J4mLQgHzARDZzEmfEzANBgkqhkiG9w0BAQsFADAV
MRMwEQYDVQQDDAp0ZWFtOTItbmV0MB4XDTIzMDgxNDE0MjQwNVoXDTI2MDcyOTE0
MjQwNVowGDEWMBQGA1UEAwwNdGVhbTkyLWNsaWVudDCCASIwDQYJKoZIhvcNAQEB
BQADggEPADCCAQoCggEBALRO5+pn73VF9CMgz9v057nvMTqhQUbS0De1r3Tk7UI/
Izq7/n/9+y7t6DnjTPFLgX7BDU65i08VJWD9F5eq3b03TDeQVZtBfcAYi5MMf90M
lZj1/D/GyDucELJpc9rm6DKYLpHlEYfTtAxOpkJACr3baIW0qIhXznJd/DVyFapY
ugQhGPnB4L/fAV+UhEL/4eFfUcx3RQvClIH+FAOSbCSjqXDHH18+ORWvCNFo89zC
Yk2oZ0uXHjKvPNpCqfdHK2zCTExymZCH7F2NI0hXGaV9pBMN78Tpm7hSo0bzrzHN
em+Mne91Jp9O9bC4bkK1m6EN1tW1bKBhkCVSDHq54pkCAwEAAaOBoTCBnjAJBgNV
HRMEAjAAMB0GA1UdDgQWBBT9PUtJWhMpZ5CvVNtJ+AmSGfACUzBQBgNVHSMESTBH
gBTpcU38AlfRjEHVu8KxQxuVBLVoeqEZpBcwFTETMBEGA1UEAwwKdGVhbTkyLW5l
dIIUXXlstgsNcjHy/UiSj+Dr/ktdJt0wEwYDVR0lBAwwCgYIKwYBBQUHAwIwCwYD
VR0PBAQDAgeAMA0GCSqGSIb3DQEBCwUAA4IBAQA9EtlphBT8JC6zeLP+EAa38dhZ
shahzxJGylXR8WeANfvrzXZ8Sg612V1U9TSfkEsxF06I/5nXP3wvXIwFQo78QNNa
OtfPOfdCy6swFrVgS5vxD4kt22Nwb4uiL/J3Ab2Dn36YeY5lP86o9rTTaCelgt08
uSxU2CqZpgt9rrHaqpIYpsn+3CkZ98nHtISI47k1qeheiGzdIBUQYpp7dCnfQS6e
yX6PyWFQIZlEJvUIHzjyNJUR4LaIXhsEkCbfKT87qIMxv3/NmxYfQsg2XrP8Egu9
Q6V4Eb+M6l6PZ9D7p1X3foDGXQAbOyG6CaGQ6bySRNnk81c73VBqgBHYIAYm
-----END CERTIFICATE-----
