Certificate:
    Data:
        Version: 3 (0x2)
        Serial Number:
            08:41:dc:1f:62:b6:39:6a:93:65:01:ff:43:82:3a:b8
        Signature Algorithm: sha256WithRSAEncryption
        Issuer: CN=team92-net
        Validity
            Not Before: Aug 14 14:24:05 2023 GMT
            Not After : Jul 29 14:24:05 2026 GMT
        Subject: CN=team92-server
        Subject Public Key Info:
            Public Key Algorithm: rsaEncryption
                RSA Public-Key: (2048 bit)
                Modulus:
                    00:b8:f2:c2:98:b0:22:3e:34:47:db:d0:b6:7f:74:
                    5f:2a:1e:58:3f:2b:18:39:72:60:9f:5e:cb:5a:bf:
                    8e:4f:4c:f9:12:aa:7c:46:91:92:99:74:b2:71:86:
                    3d:81:f2:0c:c8:72:27:49:b7:d5:b3:fc:f6:c0:46:
                    9d:e7:92:0a:bf:c2:fc:e4:2e:52:fa:2a:c1:1f:a7:
                    61:11:c1:22:b1:50:0d:b2:3b:fb:dc:12:c1:42:4b:
                    aa:fb:75:52:33:37:ac:37:d6:3f:e8:ab:20:8a:80:
                    4c:c3:e1:3b:52:9c:bd:dd:9c:f2:c6:82:19:2f:f5:
                    32:40:99:b4:7e:c1:c8:47:4e:33:88:81:ad:e4:e5:
                    a2:95:86:5a:6a:59:ad:a7:36:17:f2:ae:c1:2e:64:
                    93:77:d0:26:af:53:56:4e:2c:7d:48:64:2e:b8:50:
                    87:b1:c9:83:39:2a:4d:68:0a:eb:62:89:0d:3b:b3:
                    c7:1a:a1:46:32:55:cb:4b:23:a4:1e:28:f7:78:48:
                    97:fa:74:b9:f5:4c:6d:c0:df:db:1f:94:c0:9d:3b:
                    cd:97:5b:51:90:ab:d2:1a:3f:40:42:c9:1e:72:d7:
                    31:d4:d2:7a:a5:5b:ac:57:bd:4d:3d:9a:7c:57:6d:
                    cb:43:3c:f8:57:b8:85:ae:7a:b3:13:ac:4b:c7:4f:
                    fb:1b
                Exponent: 65537 (0x10001)
        X509v3 extensions:
            X509v3 Basic Constraints: 
                CA:FALSE
            X509v3 Subject Key Identifier: 
                93:74:35:31:87:F0:7F:48:9A:46:41:AA:30:06:AF:C1:8D:B0:C9:B6
            X509v3 Authority Key Identifier: 
                keyid:E9:71:4D:FC:02:57:D1:8C:41:D5:BB:C2:B1:43:1B:95:04:B5:68:7A
                DirName:/CN=team92-net
                serial:5D:79:6C:B6:0B:0D:72:31:F2:FD:48:92:8F:E0:EB:FE:4B:5D:26:DD

            X509v3 Extended Key Usage: 
                TLS Web Server Authentication
            X509v3 Key Usage: 
                Digital Signature, Key Encipherment
            X509v3 Subject Alternative Name: 
                DNS:team92-server
    Signature Algorithm: sha256WithRSAEncryption
         27:19:b0:b4:51:30:ab:c1:b8:ec:3b:32:dc:04:28:06:be:26:
         f7:89:f4:7f:e8:2c:03:29:ba:45:4b:12:54:ef:b0:a1:25:f7:
         30:e5:72:07:4a:a1:9a:41:f6:fe:e5:d9:d8:53:cd:5b:14:ee:
         3e:ca:34:a9:09:e8:fb:01:ae:21:36:17:59:2f:5d:14:ed:c6:
         6b:77:ba:f6:4d:82:9f:90:34:92:b1:d7:93:cf:4d:3e:ca:64:
         9c:e1:fb:e2:89:ea:98:22:94:fb:33:03:c1:03:36:88:3d:a7:
         de:57:aa:e5:23:8f:c7:a2:46:27:c1:8c:63:ca:07:37:98:bc:
         5a:a3:1e:f4:1a:29:4e:84:67:66:ca:18:1d:e9:86:a1:c1:bc:
         27:bb:07:6e:79:33:0a:bf:59:8d:53:04:da:76:28:a5:ea:71:
         fc:44:12:63:e6:be:22:24:ba:27:19:22:2c:4c:19:4e:67:9f:
         80:36:a7:5e:43:bb:d6:62:a1:8a:ef:3c:41:c1:ac:d4:57:aa:
         4e:58:bb:58:d0:f0:08:5f:55:85:9f:ec:1f:0b:bb:f5:8f:e4:
         4b:13:76:35:fa:b7:e6:f7:62:14:a5:15:88:e3:d5:b3:c5:dd:
         07:0d:47:3e:04:1f:08:74:b5:e2:68:25:8b:d4:c0:62:8c:a0:
         0f:42:f1:51
-----BEGIN CERTIFICATE-----
MIIDczCCAlugAwIBAgIQCEHcH2K2OWqTZQH/Q4I6uDANBgkqhkiG9w0BAQsFADAV
MRMwEQYDVQQDDAp0ZWFtOTItbmV0MB4XDTIzMDgxNDE0MjQwNVoXDTI2MDcyOTE0
MjQwNVowGDEWMBQGA1UEAwwNdGVhbTkyLXNlcnZlcjCCASIwDQYJKoZIhvcNAQEB
BQADggEPADCCAQoCggEBALjywpiwIj40R9vQtn90XyoeWD8rGDlyYJ9ey1q/jk9M
+RKqfEaRkpl0snGGPYHyDMhyJ0m31bP89sBGneeSCr/C/OQuUvoqwR+nYRHBIrFQ
DbI7+9wSwUJLqvt1UjM3rDfWP+irIIqATMPhO1Kcvd2c8saCGS/1MkCZtH7ByEdO
M4iBreTlopWGWmpZrac2F/KuwS5kk3fQJq9TVk4sfUhkLrhQh7HJgzkqTWgK62KJ
DTuzxxqhRjJVy0sjpB4o93hIl/p0ufVMbcDf2x+UwJ07zZdbUZCr0ho/QELJHnLX
MdTSeqVbrFe9TT2afFdty0M8+Fe4ha56sxOsS8dP+xsCAwEAAaOBuzCBuDAJBgNV
HRMEAjAAMB0GA1UdDgQWBBSTdDUxh/B/SJpGQaowBq/BjbDJtjBQBgNVHSMESTBH
gBTpcU38AlfRjEHVu8KxQxuVBLVoeqEZpBcwFTETMBEGA1UEAwwKdGVhbTkyLW5l
dIIUXXlstgsNcjHy/UiSj+Dr/ktdJt0wEwYDVR0lBAwwCgYIKwYBBQUHAwEwCwYD
VR0PBAQDAgWgMBgGA1UdEQQRMA+CDXRlYW05Mi1zZXJ2ZXIwDQYJKoZIhvcNAQEL
BQADggEBACcZsLRRMKvBuOw7MtwEKAa+JveJ9H/oLAMpukVLElTvsKEl9zDlcgdK
oZpB9v7l2dhTzVsU7j7KNKkJ6PsBriE2F1kvXRTtxmt3uvZNgp+QNJKx15PPTT7K
ZJzh++KJ6pgilPszA8EDNog9p95XquUjj8eiRifBjGPKBzeYvFqjHvQaKU6EZ2bK
GB3phqHBvCe7B255Mwq/WY1TBNp2KKXqcfxEEmPmviIkuicZIixMGU5nn4A2p15D
u9ZioYrvPEHBrNRXqk5Yu1jQ8AhfVYWf7B8Lu/WP5EsTdjX6t+b3YhSlFYjj1bPF
3QcNRz4EHwh0teJoJYvUwGKMoA9C8VE=
-----END CERTIFICATE-----
