Certificate:
    Data:
        Version: 3 (0x2)
        Serial Number:
            33:4c:90:6e:98:df:0f:6e:07:4c:ce:7a:59:5a:af:bc
        Signature Algorithm: sha256WithRSAEncryption
        Issuer: CN=team98-net
        Validity
            Not Before: Aug 14 14:24:13 2023 GMT
            Not After : Jul 29 14:24:13 2026 GMT
        Subject: CN=team98-server
        Subject Public Key Info:
            Public Key Algorithm: rsaEncryption
                RSA Public-Key: (2048 bit)
                Modulus:
                    00:98:00:fd:d6:c6:be:58:bb:67:0a:d6:71:22:0e:
                    d9:ea:b1:df:99:dd:10:c9:27:69:0c:31:42:e4:45:
                    84:ca:24:99:ae:c5:7f:99:20:bd:ea:04:ee:14:ac:
                    22:c9:4b:10:e7:d5:cb:a8:0b:0c:82:59:1d:e9:cf:
                    f9:8c:99:1f:1f:0b:7a:4e:39:51:ac:f2:96:8a:bb:
                    65:1b:27:d2:66:88:5c:7d:4a:f3:99:90:6c:f9:28:
                    c4:10:4c:bf:cc:29:92:04:ef:9a:e2:21:35:d1:30:
                    9f:9c:52:26:0a:52:7b:4c:ba:c4:00:4d:1d:f1:d3:
                    1b:82:ad:6b:68:45:81:e3:01:74:f0:8d:a2:29:4f:
                    20:e1:88:44:d1:af:40:e2:c8:37:c7:a5:72:3b:db:
                    c1:af:4a:e7:4c:26:fd:fb:49:0c:b5:0a:a6:db:e3:
                    72:89:99:32:6b:98:83:79:e8:97:a5:43:2c:9e:e8:
                    ae:bd:e9:03:6f:df:1d:2b:06:24:50:68:4e:0d:55:
                    46:d2:0e:96:f5:92:9d:ff:54:66:7f:e8:1a:e6:51:
                    e3:b2:72:0c:bb:bf:3e:a5:97:78:fe:96:e8:94:d9:
                    51:3d:fd:a2:74:98:69:1c:83:4d:1d:93:0d:77:da:
                    44:47:87:6a:e0:6f:1c:1e:2f:eb:f3:86:53:14:39:
                    da:6d
                Exponent: 65537 (0x10001)
        X509v3 extensions:
            X509v3 Basic Constraints: 
                CA:FALSE
            X509v3 Subject Key Identifier: 
                A1:00:96:F3:B3:DE:FC:3C:29:3C:F1:88:06:20:00:36:3C:25:AA:73
            X509v3 Authority Key Identifier: 
                keyid:31:1B:D6:1E:FA:54:2C:3F:61:6E:66:0E:DB:72:62:5B:7F:A7:C4:CB
                DirName:/CN=team98-net
                serial:0C:3D:40:2A:C9:0F:C7:0F:B0:D3:B9:D7:19:29:3E:14:3D:79:8D:75

            X509v3 Extended Key Usage: 
                TLS Web Server Authentication
            X509v3 Key Usage: 
                Digital Signature, Key Encipherment
            X509v3 Subject Alternative Name: 
                DNS:team98-server
    Signature Algorithm: sha256WithRSAEncryption
         00:ba:4c:76:4d:a6:23:b5:64:d7:dd:ac:db:89:a9:e1:f9:fb:
         73:50:ce:b2:0d:fa:b2:ee:de:12:c3:13:60:e3:9f:d9:fd:47:
         f5:77:d8:66:de:7e:b1:77:e3:5b:3d:43:f8:d2:76:29:2c:4e:
         e3:fb:5f:d3:4f:1e:7e:01:f5:c6:c2:6b:57:20:ba:58:15:6c:
         0c:73:0f:34:53:87:36:cd:b8:40:72:37:6a:76:05:7d:d7:b1:
         89:f6:7f:88:01:ec:9f:54:dd:6e:44:67:12:89:7d:7b:96:f7:
         c1:7b:11:25:f3:5c:5b:1b:35:07:78:95:f2:65:37:06:1c:cb:
         9a:76:6c:32:87:91:6f:7c:70:ad:cc:75:ab:69:41:be:96:c9:
         bd:1e:84:15:bb:71:e9:c2:7d:ed:eb:fe:57:fe:b2:3f:d0:6a:
         8f:ed:d0:44:40:40:25:25:e8:13:4e:7e:16:52:7f:46:3f:51:
         db:94:e5:26:08:0a:ab:d3:4b:04:a1:dc:b5:1d:9b:81:42:c9:
         35:9a:8c:47:32:16:fb:a9:2a:35:fe:74:e0:ff:fe:57:f0:1b:
         d3:55:4b:a6:dd:06:16:f9:c8:4b:d4:69:2b:34:f0:d2:06:28:
         bb:06:4c:df:e9:b7:bb:61:3c:4d:9b:09:4c:ec:d3:0e:da:79:
         d0:37:46:d0
-----BEGIN CERTIFICATE-----
MIIDczCCAlugAwIBAgIQM0yQbpjfD24HTM56WVqvvDANBgkqhkiG9w0BAQsFADAV
MRMwEQYDVQQDDAp0ZWFtOTgtbmV0MB4XDTIzMDgxNDE0MjQxM1oXDTI2MDcyOTE0
MjQxM1owGDEWMBQGA1UEAwwNdGVhbTk4LXNlcnZlcjCCASIwDQYJKoZIhvcNAQEB
BQADggEPADCCAQoCggEBAJgA/dbGvli7ZwrWcSIO2eqx35ndEMknaQwxQuRFhMok
ma7Ff5kgveoE7hSsIslLEOfVy6gLDIJZHenP+YyZHx8Lek45Uazyloq7ZRsn0maI
XH1K85mQbPkoxBBMv8wpkgTvmuIhNdEwn5xSJgpSe0y6xABNHfHTG4Kta2hFgeMB
dPCNoilPIOGIRNGvQOLIN8elcjvbwa9K50wm/ftJDLUKptvjcomZMmuYg3nol6VD
LJ7orr3pA2/fHSsGJFBoTg1VRtIOlvWSnf9UZn/oGuZR47JyDLu/PqWXeP6W6JTZ
UT39onSYaRyDTR2TDXfaREeHauBvHB4v6/OGUxQ52m0CAwEAAaOBuzCBuDAJBgNV
HRMEAjAAMB0GA1UdDgQWBBShAJbzs978PCk88YgGIAA2PCWqczBQBgNVHSMESTBH
gBQxG9Ye+lQsP2FuZg7bcmJbf6fEy6EZpBcwFTETMBEGA1UEAwwKdGVhbTk4LW5l
dIIUDD1AKskPxw+w07nXGSk+FD15jXUwEwYDVR0lBAwwCgYIKwYBBQUHAwEwCwYD
VR0PBAQDAgWgMBgGA1UdEQQRMA+CDXRlYW05OC1zZXJ2ZXIwDQYJKoZIhvcNAQEL
BQADggEBAAC6THZNpiO1ZNfdrNuJqeH5+3NQzrIN+rLu3hLDE2Djn9n9R/V32Gbe
frF341s9Q/jSdiksTuP7X9NPHn4B9cbCa1cgulgVbAxzDzRThzbNuEByN2p2BX3X
sYn2f4gB7J9U3W5EZxKJfXuW98F7ESXzXFsbNQd4lfJlNwYcy5p2bDKHkW98cK3M
datpQb6Wyb0ehBW7cenCfe3r/lf+sj/Qao/t0ERAQCUl6BNOfhZSf0Y/UduU5SYI
CqvTSwSh3LUdm4FCyTWajEcyFvupKjX+dOD//lfwG9NVS6bdBhb5yEvUaSs08NIG
KLsGTN/pt7thPE2bCUzs0w7aedA3RtA=
-----END CERTIFICATE-----
