Certificate:
    Data:
        Version: 3 (0x2)
        Serial Number:
            0b:67:95:16:af:ef:d5:7b:16:5c:08:65:59:82:21:0c
        Signature Algorithm: sha256WithRSAEncryption
        Issuer: CN=team171-net
        Validity
            Not Before: Aug 14 14:25:48 2023 GMT
            Not After : Jul 29 14:25:48 2026 GMT
        Subject: CN=team171-client
        Subject Public Key Info:
            Public Key Algorithm: rsaEncryption
                RSA Public-Key: (2048 bit)
                Modulus:
                    00:a2:6d:00:ef:cf:43:6d:09:18:33:bc:0a:70:bb:
                    d9:fc:c2:c3:1a:ac:74:a8:ad:87:6a:98:a1:ae:04:
                    f4:b6:97:49:bd:de:6b:08:22:88:76:e0:e5:d6:ad:
                    da:a5:1b:07:a0:29:84:bd:1b:fe:f5:29:65:2e:8d:
                    65:1e:81:1f:5c:53:66:c5:84:33:bf:22:12:08:95:
                    c2:5a:84:2f:df:f2:71:aa:79:6e:cf:44:86:dc:a1:
                    d9:77:ec:98:9b:e0:6f:92:36:e9:cf:48:7d:a5:0b:
                    48:35:da:5e:92:f9:0e:0c:8b:c7:44:63:68:24:7d:
                    1e:cd:5b:2a:2e:ee:67:8c:49:1f:e0:b9:fe:7c:f1:
                    e3:f0:b8:eb:5f:90:7f:c4:bb:87:30:07:ba:10:69:
                    53:9a:f3:61:1b:3a:02:94:2f:15:e3:81:81:26:ec:
                    04:ec:91:07:d1:23:b3:53:01:47:ff:ff:0c:a6:75:
                    5d:5c:df:b0:a8:b5:d1:4a:49:6e:ae:b5:1a:6b:10:
                    cd:9f:34:34:d3:35:a3:a1:c9:df:09:26:36:57:a5:
                    ca:fe:bd:cc:ba:a3:05:fa:82:79:33:d2:e4:56:5a:
                    e5:ae:3e:32:0e:ee:3d:ee:c5:ba:55:f6:58:2c:51:
                    27:94:a2:db:25:b5:6f:e1:e8:e7:b4:0d:3a:c4:b2:
                    63:5b
                Exponent: 65537 (0x10001)
        X509v3 extensions:
            X509v3 Basic Constraints: 
                CA:FALSE
            X509v3 Subject Key Identifier: 
                25:26:DD:73:03:9F:2B:8A:08:96:3C:11:BE:F0:C6:0D:0B:10:86:8C
            X509v3 Authority Key Identifier: 
                keyid:85:ED:61:41:99:91:E4:18:CC:DD:DA:1C:FE:BD:8B:EA:F9:CC:B4:36
                DirName:/CN=team171-net
                serial:5E:31:0A:DB:0E:3D:27:4D:D8:95:55:27:34:B8:09:1D:C7:02:D0:7E

            X509v3 Extended Key Usage: 
                TLS Web Client Authentication
            X509v3 Key Usage: 
                Digital Signature
    Signature Algorithm: sha256WithRSAEncryption
         b9:9a:a9:a2:fb:25:7e:f4:12:77:55:74:71:48:f1:21:3e:12:
         48:30:6e:65:22:14:ba:d5:1e:10:5a:b4:43:ef:24:92:d0:88:
         47:d6:93:3f:76:0a:41:ee:a7:28:e9:f4:47:b6:bc:5f:63:48:
         61:6b:dd:6d:7f:7e:dc:de:6b:4c:fc:63:5d:89:60:3c:63:f9:
         da:0a:17:a7:71:b8:7a:ba:bb:d6:29:f1:9a:9e:b2:9b:18:0c:
         d3:0b:be:2e:ec:a5:54:35:51:04:50:88:21:88:06:c6:93:25:
         84:2c:2e:64:7b:84:7d:fa:5c:19:9e:76:d6:53:f2:80:8e:22:
         05:77:6e:d3:1b:bf:6e:b5:24:dc:e6:06:15:77:86:bb:5b:fa:
         93:db:e8:03:75:63:8b:07:98:d2:3b:5f:d5:63:b0:18:dc:3c:
         00:5e:a1:ae:6d:24:3c:ee:37:b6:8d:92:22:95:52:97:1d:4f:
         a5:0d:0d:29:7a:27:9e:56:4d:be:93:b7:f6:d5:ac:bd:a6:22:
         e5:37:aa:57:f0:a7:d3:f2:9e:08:c8:61:be:75:76:4c:58:c0:
         87:b7:43:ce:7a:35:80:86:e2:dc:df:b8:c4:32:e0:76:06:88:
         33:91:7a:af:e9:00:ce:2d:13:b8:04:db:a6:a0:a1:8f:66:bb:
         1c:1b:3e:e4
-----BEGIN CERTIFICATE-----
MIIDXDCCAkSgAwIBAgIQC2eVFq/v1XsWXAhlWYIhDDANBgkqhkiG9w0BAQsFADAW
MRQwEgYDVQQDDAt0ZWFtMTcxLW5ldDAeFw0yMzA4MTQxNDI1NDhaFw0yNjA3Mjkx
NDI1NDhaMBkxFzAVBgNVBAMMDnRlYW0xNzEtY2xpZW50MIIBIjANBgkqhkiG9w0B
AQEFAAOCAQ8AMIIBCgKCAQEAom0A789DbQkYM7wKcLvZ/MLDGqx0qK2HapihrgT0
tpdJvd5rCCKIduDl1q3apRsHoCmEvRv+9SllLo1lHoEfXFNmxYQzvyISCJXCWoQv
3/Jxqnluz0SG3KHZd+yYm+Bvkjbpz0h9pQtINdpekvkODIvHRGNoJH0ezVsqLu5n
jEkf4Ln+fPHj8LjrX5B/xLuHMAe6EGlTmvNhGzoClC8V44GBJuwE7JEH0SOzUwFH
//8MpnVdXN+wqLXRSklurrUaaxDNnzQ00zWjocnfCSY2V6XK/r3MuqMF+oJ5M9Lk
Vlrlrj4yDu497sW6VfZYLFEnlKLbJbVv4ejntA06xLJjWwIDAQABo4GiMIGfMAkG
A1UdEwQCMAAwHQYDVR0OBBYEFCUm3XMDnyuKCJY8Eb7wxg0LEIaMMFEGA1UdIwRK
MEiAFIXtYUGZkeQYzN3aHP69i+r5zLQ2oRqkGDAWMRQwEgYDVQQDDAt0ZWFtMTcx
LW5ldIIUXjEK2w49J03YlVUnNLgJHccC0H4wEwYDVR0lBAwwCgYIKwYBBQUHAwIw
CwYDVR0PBAQDAgeAMA0GCSqGSIb3DQEBCwUAA4IBAQC5mqmi+yV+9BJ3VXRxSPEh
PhJIMG5lIhS61R4QWrRD7ySS0IhH1pM/dgpB7qco6fRHtrxfY0hha91tf37c3mtM
/GNdiWA8Y/naChencbh6urvWKfGanrKbGAzTC74u7KVUNVEEUIghiAbGkyWELC5k
e4R9+lwZnnbWU/KAjiIFd27TG79utSTc5gYVd4a7W/qT2+gDdWOLB5jSO1/VY7AY
3DwAXqGubSQ87je2jZIilVKXHU+lDQ0peieeVk2+k7f21ay9piLlN6pX8KfT8p4I
yGG+dXZMWMCHt0POejWAhuLc37jEMuB2BogzkXqv6QDOLRO4BNumoKGPZrscGz7k
-----END CERTIFICATE-----
