Certificate:
    Data:
        Version: 3 (0x2)
        Serial Number:
            7f:3e:a7:24:d3:00:f2:d3:64:da:c1:90:32:8e:72:ce
        Signature Algorithm: sha256WithRSAEncryption
        Issuer: CN=team43-net
        Validity
            Not Before: Aug 14 14:23:03 2023 GMT
            Not After : Jul 29 14:23:03 2026 GMT
        Subject: CN=team43-server
        Subject Public Key Info:
            Public Key Algorithm: rsaEncryption
                RSA Public-Key: (2048 bit)
                Modulus:
                    00:bd:56:81:a9:07:23:55:da:5b:eb:1e:06:a5:b1:
                    fb:a9:c9:76:2f:a9:67:fe:51:19:e0:e8:c4:21:c2:
                    28:f4:4b:ed:f6:e5:68:e5:53:e9:15:2c:d4:4a:16:
                    99:24:1c:50:09:5d:e8:97:e8:6b:25:ad:8f:b3:6b:
                    66:bf:fb:f1:8e:d0:2c:45:95:41:65:54:dd:6d:e1:
                    5a:48:44:e4:e8:5b:a4:1b:50:1a:28:15:c5:ec:4b:
                    2f:07:3f:6b:f6:5d:51:d8:24:98:27:14:d8:1d:94:
                    cd:03:fb:21:d9:5d:64:b8:92:ba:bd:66:5f:d5:47:
                    b0:18:76:08:b8:a2:4d:50:92:99:d9:d8:6f:74:87:
                    41:70:05:c2:01:40:88:ea:e9:64:8e:79:f9:1d:9c:
                    c0:85:24:04:b6:b6:4f:43:3a:1d:fb:d6:4b:95:1c:
                    53:7d:8b:c4:9b:9c:1b:bf:9d:ff:e2:e7:9e:5b:6d:
                    c3:a0:57:59:f1:4b:ed:92:76:ec:d9:83:0f:d4:e7:
                    28:13:e4:aa:7c:52:b2:fc:7f:35:45:cc:ac:6e:06:
                    eb:1b:b1:c8:c7:83:38:ec:fa:d3:f3:05:c3:ea:4f:
                    62:c9:00:8e:29:13:7e:a2:47:cf:f0:60:fe:e9:9f:
                    b1:93:38:99:fb:bc:7d:c3:ec:04:15:31:be:ea:1f:
                    80:ff
                Exponent: 65537 (0x10001)
        X509v3 extensions:
            X509v3 Basic Constraints: 
                CA:FALSE
            X509v3 Subject Key Identifier: 
                23:8E:6C:3B:E7:40:3E:93:73:E6:7E:1B:A2:D1:27:98:53:44:37:33
            X509v3 Authority Key Identifier: 
                keyid:06:20:50:A3:8E:A1:57:38:A0:0B:1A:7B:4E:77:5A:23:A0:FB:99:58
                DirName:/CN=team43-net
                serial:75:D8:1F:14:4F:BA:60:6D:2C:51:CD:E8:EF:40:BA:49:F2:B3:E0:35

            X509v3 Extended Key Usage: 
                TLS Web Server Authentication
            X509v3 Key Usage: 
                Digital Signature, Key Encipherment
            X509v3 Subject Alternative Name: 
                DNS:team43-server
    Signature Algorithm: sha256WithRSAEncryption
         6e:71:43:92:59:71:d4:ee:74:01:e4:d3:0e:7e:ba:7e:da:b8:
         e9:7f:de:75:65:83:0a:30:9d:e2:30:0b:6a:66:24:a7:c5:59:
         81:64:e6:46:a6:af:ee:1b:de:78:9c:a8:57:9e:ed:9b:e5:60:
         63:f7:da:c4:29:f4:e8:f5:fe:68:17:28:3a:84:47:23:9d:1a:
         d4:12:15:1b:1e:21:ce:e0:84:2a:d6:2a:fd:e8:72:0e:0f:13:
         02:2a:4d:eb:13:07:64:15:d6:62:d0:3b:7f:bd:2b:a9:82:60:
         b6:38:54:23:65:b4:67:a2:6b:c4:68:ff:50:66:3e:5e:87:59:
         d7:df:d4:ab:88:7f:02:73:23:62:f7:4e:16:c0:7f:b8:9e:a8:
         73:97:4f:48:b9:91:2d:f4:65:ff:7f:97:66:7e:6f:ac:74:14:
         e8:2e:fd:f2:6e:3d:a7:51:d4:9e:14:4b:6e:1f:64:70:ec:ab:
         6d:06:c0:46:53:a3:e0:e7:4f:19:aa:3b:84:96:77:69:9a:c7:
         d4:4e:88:4b:44:24:93:25:dd:8b:47:d1:ff:be:10:0f:7e:9a:
         69:12:59:74:de:23:9f:2d:01:03:29:e9:9f:95:6c:ad:b1:23:
         7a:eb:57:b8:94:a8:b0:a5:74:f0:db:7d:f2:25:6a:61:6c:b5:
         74:da:23:0e
-----BEGIN CERTIFICATE-----
MIIDczCCAlugAwIBAgIQfz6nJNMA8tNk2sGQMo5yzjANBgkqhkiG9w0BAQsFADAV
MRMwEQYDVQQDDAp0ZWFtNDMtbmV0MB4XDTIzMDgxNDE0MjMwM1oXDTI2MDcyOTE0
MjMwM1owGDEWMBQGA1UEAwwNdGVhbTQzLXNlcnZlcjCCASIwDQYJKoZIhvcNAQEB
BQADggEPADCCAQoCggEBAL1WgakHI1XaW+seBqWx+6nJdi+pZ/5RGeDoxCHCKPRL
7fblaOVT6RUs1EoWmSQcUAld6JfoayWtj7NrZr/78Y7QLEWVQWVU3W3hWkhE5Ohb
pBtQGigVxexLLwc/a/ZdUdgkmCcU2B2UzQP7IdldZLiSur1mX9VHsBh2CLiiTVCS
mdnYb3SHQXAFwgFAiOrpZI55+R2cwIUkBLa2T0M6HfvWS5UcU32LxJucG7+d/+Ln
nlttw6BXWfFL7ZJ27NmDD9TnKBPkqnxSsvx/NUXMrG4G6xuxyMeDOOz60/MFw+pP
YskAjikTfqJHz/Bg/umfsZM4mfu8fcPsBBUxvuofgP8CAwEAAaOBuzCBuDAJBgNV
HRMEAjAAMB0GA1UdDgQWBBQjjmw750A+k3Pmfhui0SeYU0Q3MzBQBgNVHSMESTBH
gBQGIFCjjqFXOKALGntOd1ojoPuZWKEZpBcwFTETMBEGA1UEAwwKdGVhbTQzLW5l
dIIUddgfFE+6YG0sUc3o70C6SfKz4DUwEwYDVR0lBAwwCgYIKwYBBQUHAwEwCwYD
VR0PBAQDAgWgMBgGA1UdEQQRMA+CDXRlYW00My1zZXJ2ZXIwDQYJKoZIhvcNAQEL
BQADggEBAG5xQ5JZcdTudAHk0w5+un7auOl/3nVlgwowneIwC2pmJKfFWYFk5kam
r+4b3nicqFee7ZvlYGP32sQp9Oj1/mgXKDqERyOdGtQSFRseIc7ghCrWKv3ocg4P
EwIqTesTB2QV1mLQO3+9K6mCYLY4VCNltGeia8Ro/1BmPl6HWdff1KuIfwJzI2L3
ThbAf7ieqHOXT0i5kS30Zf9/l2Z+b6x0FOgu/fJuPadR1J4US24fZHDsq20GwEZT
o+DnTxmqO4SWd2max9ROiEtEJJMl3YtH0f++EA9+mmkSWXTeI58tAQMp6Z+VbK2x
I3rrV7iUqLCldPDbffIlamFstXTaIw4=
-----END CERTIFICATE-----
