Certificate:
    Data:
        Version: 3 (0x2)
        Serial Number:
            81:1e:86:2f:93:2d:03:f2:35:dc:2d:89:c5:2e:af:60
        Signature Algorithm: sha256WithRSAEncryption
        Issuer: CN=team267-net
        Validity
            Not Before: Aug 14 14:27:42 2023 GMT
            Not After : Jul 29 14:27:42 2026 GMT
        Subject: CN=team267-client
        Subject Public Key Info:
            Public Key Algorithm: rsaEncryption
                RSA Public-Key: (2048 bit)
                Modulus:
                    00:a8:05:cf:54:40:d5:79:73:90:7c:5d:27:92:5a:
                    7e:70:4f:1f:d3:10:94:57:d5:08:a2:20:64:62:23:
                    82:d9:a0:21:e0:be:04:92:2f:2f:ec:47:6a:5b:44:
                    fb:a7:18:40:6c:c8:2e:9d:87:7a:10:3e:f3:fd:7d:
                    32:57:bb:54:3f:32:fc:fa:d9:15:af:2d:43:fa:d6:
                    1d:c6:50:f3:9c:b3:59:67:17:35:31:03:b7:5b:02:
                    f5:50:7d:78:a2:d2:1a:e4:16:55:9a:78:c0:f8:4d:
                    a2:f2:de:e8:a2:83:f1:f9:e2:93:57:dd:82:b2:fc:
                    2a:e0:86:d5:b4:fc:f1:96:43:0d:3c:54:69:b3:f3:
                    eb:fe:5a:ce:4c:22:d0:b7:f5:f8:de:ef:a6:1c:2d:
                    27:ff:f1:89:03:2a:65:d6:ce:1d:6e:81:d3:ec:44:
                    e3:6e:9f:13:2a:da:1f:a2:c1:3e:8a:fd:e2:ac:f0:
                    f1:3c:90:ec:14:e5:b5:b4:4c:7a:56:49:a8:d7:4e:
                    b5:c2:8e:09:08:96:88:bf:d3:7a:46:ba:76:a9:95:
                    c8:54:f4:d7:61:5f:1b:9c:16:11:59:80:fc:07:b9:
                    3d:a9:99:b2:07:2d:b8:aa:ab:84:35:a1:26:77:30:
                    6e:8b:24:7e:fa:4b:68:6c:19:3e:7b:46:a3:a4:7b:
                    87:5f
                Exponent: 65537 (0x10001)
        X509v3 extensions:
            X509v3 Basic Constraints: 
                CA:FALSE
            X509v3 Subject Key Identifier: 
                5E:9E:FF:76:F9:21:8C:07:2D:F8:C6:83:FB:F8:44:C6:E4:B1:68:19
            X509v3 Authority Key Identifier: 
                keyid:93:6D:30:D9:14:B3:AA:05:76:FB:32:79:87:96:5C:0D:88:A8:D8:56
                DirName:/CN=team267-net
                serial:25:28:96:4A:F0:D6:EA:C8:8F:69:FC:B4:48:7E:42:DA:C3:18:35:D6

            X509v3 Extended Key Usage: 
                TLS Web Client Authentication
            X509v3 Key Usage: 
                Digital Signature
    Signature Algorithm: sha256WithRSAEncryption
         02:c0:3c:84:fb:2a:ec:8a:06:a8:db:dd:dc:96:a9:a4:b7:30:
         ef:f3:a4:f2:0b:10:6d:75:df:d9:57:55:4d:61:f9:98:60:47:
         25:e9:9b:1d:19:7b:55:d2:6b:a0:c1:cc:70:df:cc:71:98:74:
         07:cb:ee:14:d4:66:64:0d:d0:8f:98:77:f5:4c:88:7f:50:af:
         61:0b:83:44:1c:db:ce:0e:2e:c3:f8:55:80:01:26:50:0a:ce:
         e9:47:3c:45:96:00:eb:c1:47:42:5d:52:46:4d:bd:95:33:b0:
         e5:99:4b:c5:b2:ef:67:18:d7:2d:fa:79:2b:54:8f:9d:e8:39:
         48:df:ba:8e:c3:cf:01:6a:a4:04:a1:c1:4f:7b:ea:e9:1e:35:
         16:bf:a0:ee:0f:23:3e:f9:8f:5f:54:e3:ed:db:e1:7e:62:99:
         30:b7:f4:fa:9d:0d:33:7c:78:48:0b:2c:20:cc:e9:9c:34:a7:
         57:f7:2a:37:76:7c:75:52:72:83:50:e1:c7:38:4c:ac:9c:30:
         10:b8:f1:27:55:f5:4d:6d:f6:b2:fe:0b:2d:97:3e:c1:43:62:
         35:72:8d:ba:f3:6d:b9:84:18:79:89:45:16:ff:19:f6:0c:db:
         f1:d0:b8:ef:07:22:ff:79:07:a6:37:53:4f:03:d5:30:83:8a:
         33:07:14:66
-----BEGIN CERTIFICATE-----
MIIDXTCCAkWgAwIBAgIRAIEehi+TLQPyNdwticUur2AwDQYJKoZIhvcNAQELBQAw
FjEUMBIGA1UEAwwLdGVhbTI2Ny1uZXQwHhcNMjMwODE0MTQyNzQyWhcNMjYwNzI5
MTQyNzQyWjAZMRcwFQYDVQQDDA50ZWFtMjY3LWNsaWVudDCCASIwDQYJKoZIhvcN
AQEBBQADggEPADCCAQoCggEBAKgFz1RA1XlzkHxdJ5JafnBPH9MQlFfVCKIgZGIj
gtmgIeC+BJIvL+xHaltE+6cYQGzILp2HehA+8/19Mle7VD8y/PrZFa8tQ/rWHcZQ
85yzWWcXNTEDt1sC9VB9eKLSGuQWVZp4wPhNovLe6KKD8fnik1fdgrL8KuCG1bT8
8ZZDDTxUabPz6/5azkwi0Lf1+N7vphwtJ//xiQMqZdbOHW6B0+xE426fEyraH6LB
Por94qzw8TyQ7BTltbRMelZJqNdOtcKOCQiWiL/Teka6dqmVyFT012FfG5wWEVmA
/Ae5PamZsgctuKqrhDWhJncwboskfvpLaGwZPntGo6R7h18CAwEAAaOBojCBnzAJ
BgNVHRMEAjAAMB0GA1UdDgQWBBRenv92+SGMBy34xoP7+ETG5LFoGTBRBgNVHSME
SjBIgBSTbTDZFLOqBXb7MnmHllwNiKjYVqEapBgwFjEUMBIGA1UEAwwLdGVhbTI2
Ny1uZXSCFCUolkrw1urIj2n8tEh+QtrDGDXWMBMGA1UdJQQMMAoGCCsGAQUFBwMC
MAsGA1UdDwQEAwIHgDANBgkqhkiG9w0BAQsFAAOCAQEAAsA8hPsq7IoGqNvd3Jap
pLcw7/Ok8gsQbXXf2VdVTWH5mGBHJembHRl7VdJroMHMcN/McZh0B8vuFNRmZA3Q
j5h39UyIf1CvYQuDRBzbzg4uw/hVgAEmUArO6Uc8RZYA68FHQl1SRk29lTOw5ZlL
xbLvZxjXLfp5K1SPneg5SN+6jsPPAWqkBKHBT3vq6R41Fr+g7g8jPvmPX1Tj7dvh
fmKZMLf0+p0NM3x4SAssIMzpnDSnV/cqN3Z8dVJyg1DhxzhMrJwwELjxJ1X1TW32
sv4LLZc+wUNiNXKNuvNtuYQYeYlFFv8Z9gzb8dC47wci/3kHpjdTTwPVMIOKMwcU
Zg==
-----END CERTIFICATE-----
