Certificate:
    Data:
        Version: 3 (0x2)
        Serial Number:
            bf:99:c5:73:1b:32:89:e2:56:0c:e3:3c:72:bf:6f:8d
        Signature Algorithm: sha256WithRSAEncryption
        Issuer: CN=team267-net
        Validity
            Not Before: Aug 14 14:27:43 2023 GMT
            Not After : Jul 29 14:27:43 2026 GMT
        Subject: CN=team267-server
        Subject Public Key Info:
            Public Key Algorithm: rsaEncryption
                RSA Public-Key: (2048 bit)
                Modulus:
                    00:a2:6c:70:1f:1b:83:41:f5:95:ae:51:bb:a0:82:
                    9b:49:25:30:a7:44:52:8b:3c:72:17:f8:c9:93:d2:
                    1d:d4:f1:d6:ce:f8:ee:27:dd:43:9c:61:64:03:af:
                    da:cc:09:bd:2a:49:d9:52:29:ce:a0:0c:cc:d8:00:
                    1d:be:a2:67:9f:c4:fd:77:d8:3f:42:6e:95:67:74:
                    39:8c:f0:12:78:b8:e7:b9:61:a6:45:5b:5c:55:4b:
                    4b:98:77:76:28:b0:3a:bc:3d:a9:6c:9d:95:4e:52:
                    b7:73:b0:36:40:96:4d:79:24:e4:ee:45:36:58:07:
                    20:01:5a:48:f5:98:7f:d5:a7:0a:04:87:9c:05:a4:
                    51:26:50:65:1d:ac:ae:10:c4:d7:97:f9:cb:8e:fc:
                    5e:18:41:98:9e:7c:ec:e6:3c:c1:63:70:a9:cb:13:
                    0b:a3:91:11:33:d2:d9:f0:64:63:80:47:e6:e5:80:
                    94:9d:ab:80:1f:66:84:f9:ea:e2:81:22:9b:57:ed:
                    27:ca:85:83:c0:5e:eb:11:57:43:84:a9:a9:71:b4:
                    72:7a:62:86:cd:82:f6:b9:72:24:c4:c9:10:5c:a3:
                    7f:04:4e:9d:32:1f:25:dc:b2:43:51:01:34:30:7f:
                    0a:1e:25:76:34:f8:c4:a5:f9:7a:9e:84:d7:b8:5f:
                    6f:ab
                Exponent: 65537 (0x10001)
        X509v3 extensions:
            X509v3 Basic Constraints: 
                CA:FALSE
            X509v3 Subject Key Identifier: 
                53:75:70:CE:40:C2:A2:73:E2:EE:B8:61:D0:96:3F:0D:26:6C:06:9D
            X509v3 Authority Key Identifier: 
                keyid:93:6D:30:D9:14:B3:AA:05:76:FB:32:79:87:96:5C:0D:88:A8:D8:56
                DirName:/CN=team267-net
                serial:25:28:96:4A:F0:D6:EA:C8:8F:69:FC:B4:48:7E:42:DA:C3:18:35:D6

            X509v3 Extended Key Usage: 
                TLS Web Server Authentication
            X509v3 Key Usage: 
                Digital Signature, Key Encipherment
            X509v3 Subject Alternative Name: 
                DNS:team267-server
    Signature Algorithm: sha256WithRSAEncryption
         75:42:f9:0e:0f:56:41:8f:13:f4:f5:7e:11:90:2a:da:ef:53:
         10:c3:b3:0a:4d:08:0f:31:c9:86:75:98:1b:10:d7:1a:a9:b1:
         0b:2f:48:66:13:46:9a:fb:77:3b:2b:21:61:4f:d2:c3:7b:75:
         ef:00:3e:bf:32:e5:9e:6a:e4:ab:a7:4e:79:50:03:79:73:ca:
         4f:fe:df:25:91:f2:3a:e8:ae:b5:95:d3:41:d4:c3:f7:59:e0:
         ad:c5:49:bd:55:a5:55:fd:ca:e3:02:f1:4d:fd:b9:5f:46:a8:
         04:e8:83:d3:88:f4:ed:e5:a6:4a:9d:81:04:21:56:38:f2:6f:
         da:2f:4a:16:05:9f:6f:3a:90:c4:0c:15:a3:2e:3a:12:14:f7:
         fa:d9:85:5e:30:71:da:0d:47:23:b9:bf:19:33:01:46:d1:79:
         12:c6:da:36:57:2c:0d:42:f2:f2:46:45:2d:c9:aa:35:dc:16:
         86:78:e5:50:83:fa:cf:e2:ca:56:e8:94:91:2e:6b:f0:b1:eb:
         1e:3d:9b:d8:ba:65:e1:98:77:0a:e2:e4:00:fc:a3:c9:4d:72:
         07:4c:b3:f6:50:22:9e:eb:29:d4:89:1b:73:2b:fb:81:c0:26:
         40:f3:3a:34:a9:09:0d:d5:6f:f7:d9:91:9a:82:ea:a4:db:ff:
         18:f1:cf:0e
-----BEGIN CERTIFICATE-----
MIIDeDCCAmCgAwIBAgIRAL+ZxXMbMoniVgzjPHK/b40wDQYJKoZIhvcNAQELBQAw
FjEUMBIGA1UEAwwLdGVhbTI2Ny1uZXQwHhcNMjMwODE0MTQyNzQzWhcNMjYwNzI5
MTQyNzQzWjAZMRcwFQYDVQQDDA50ZWFtMjY3LXNlcnZlcjCCASIwDQYJKoZIhvcN
AQEBBQADggEPADCCAQoCggEBAKJscB8bg0H1la5Ru6CCm0klMKdEUos8chf4yZPS
HdTx1s747ifdQ5xhZAOv2swJvSpJ2VIpzqAMzNgAHb6iZ5/E/XfYP0JulWd0OYzw
Eni457lhpkVbXFVLS5h3diiwOrw9qWydlU5St3OwNkCWTXkk5O5FNlgHIAFaSPWY
f9WnCgSHnAWkUSZQZR2srhDE15f5y478XhhBmJ587OY8wWNwqcsTC6ORETPS2fBk
Y4BH5uWAlJ2rgB9mhPnq4oEim1ftJ8qFg8Be6xFXQ4SpqXG0cnpihs2C9rlyJMTJ
EFyjfwROnTIfJdyyQ1EBNDB/Ch4ldjT4xKX5ep6E17hfb6sCAwEAAaOBvTCBujAJ
BgNVHRMEAjAAMB0GA1UdDgQWBBRTdXDOQMKic+LuuGHQlj8NJmwGnTBRBgNVHSME
SjBIgBSTbTDZFLOqBXb7MnmHllwNiKjYVqEapBgwFjEUMBIGA1UEAwwLdGVhbTI2
Ny1uZXSCFCUolkrw1urIj2n8tEh+QtrDGDXWMBMGA1UdJQQMMAoGCCsGAQUFBwMB
MAsGA1UdDwQEAwIFoDAZBgNVHREEEjAQgg50ZWFtMjY3LXNlcnZlcjANBgkqhkiG
9w0BAQsFAAOCAQEAdUL5Dg9WQY8T9PV+EZAq2u9TEMOzCk0IDzHJhnWYGxDXGqmx
Cy9IZhNGmvt3OyshYU/Sw3t17wA+vzLlnmrkq6dOeVADeXPKT/7fJZHyOuiutZXT
QdTD91ngrcVJvVWlVf3K4wLxTf25X0aoBOiD04j07eWmSp2BBCFWOPJv2i9KFgWf
bzqQxAwVoy46EhT3+tmFXjBx2g1HI7m/GTMBRtF5EsbaNlcsDULy8kZFLcmqNdwW
hnjlUIP6z+LKVuiUkS5r8LHrHj2b2Lpl4Zh3CuLkAPyjyU1yB0yz9lAinusp1Ikb
cyv7gcAmQPM6NKkJDdVv99mRmoLqpNv/GPHPDg==
-----END CERTIFICATE-----
