Certificate:
    Data:
        Version: 3 (0x2)
        Serial Number:
            43:cf:ca:e3:cf:4c:a2:11:9c:c9:e2:0c:63:b7:a2:b8
        Signature Algorithm: sha256WithRSAEncryption
        Issuer: CN=team214-net
        Validity
            Not Before: Aug 14 14:26:36 2023 GMT
            Not After : Jul 29 14:26:36 2026 GMT
        Subject: CN=team214-client
        Subject Public Key Info:
            Public Key Algorithm: rsaEncryption
                RSA Public-Key: (2048 bit)
                Modulus:
                    00:be:71:15:aa:72:83:ad:c2:39:3d:f9:a3:71:90:
                    4e:c9:ac:c0:7e:d9:b9:35:2d:7e:f4:ac:29:6f:37:
                    fc:cc:a4:41:60:0a:45:8b:b4:ac:48:f5:fb:14:1e:
                    6a:d6:3c:f8:f0:ea:1d:56:a8:c8:cc:68:63:e5:8f:
                    a0:07:ec:7b:f2:5e:c8:b8:ab:e0:a3:2e:cf:d8:69:
                    3a:af:d2:54:a4:8d:00:1c:a2:ce:d8:50:a6:68:f1:
                    1d:31:70:47:bd:20:c2:62:f9:fb:c3:9b:a3:af:75:
                    87:cb:33:c8:f4:a7:2f:7b:68:10:0d:88:2b:00:a9:
                    49:31:de:04:d2:24:7f:06:a4:85:c1:df:4b:cf:3b:
                    a3:2a:56:54:31:a5:57:39:40:f9:b6:cc:92:06:7a:
                    79:6a:bd:a4:a4:60:48:ea:c1:60:70:21:88:ea:a6:
                    80:3e:06:39:43:68:2e:ef:b7:d5:34:de:c4:53:dc:
                    27:91:18:05:2b:ee:99:a0:c8:b1:76:93:5a:55:6f:
                    ba:aa:4e:8e:81:e1:05:7e:6d:7e:a8:61:ee:86:28:
                    1c:80:ca:56:a5:35:f8:28:3c:c5:69:65:2e:5b:b6:
                    6b:bb:59:4c:40:9f:9e:09:49:de:d1:9d:77:98:d7:
                    57:a0:01:f4:a9:78:0b:92:83:9b:cd:e2:f3:90:61:
                    a5:f3
                Exponent: 65537 (0x10001)
        X509v3 extensions:
            X509v3 Basic Constraints: 
                CA:FALSE
            X509v3 Subject Key Identifier: 
                15:13:7A:42:65:8C:C6:9B:61:F1:01:0D:32:0C:15:1C:C2:B4:90:59
            X509v3 Authority Key Identifier: 
                keyid:D2:91:3C:92:F6:8B:A0:3A:C7:08:96:FE:F2:50:82:49:D3:C1:AE:E5
                DirName:/CN=team214-net
                serial:55:43:1A:C0:36:DE:82:2E:C7:49:2F:C8:04:35:56:CA:83:45:4C:5C

            X509v3 Extended Key Usage: 
                TLS Web Client Authentication
            X509v3 Key Usage: 
                Digital Signature
    Signature Algorithm: sha256WithRSAEncryption
         6e:f0:94:03:25:ef:42:ba:ca:61:2b:0e:b7:ed:2d:34:f4:4d:
         4f:8c:67:0f:0a:20:bd:93:10:ce:c2:c1:d9:c8:d9:b2:22:4f:
         b3:15:f8:58:97:94:f3:8c:cd:3a:df:42:38:f3:1c:48:c0:96:
         3e:27:18:a9:59:52:91:1e:cf:96:d8:f0:c9:13:b4:b0:b9:77:
         8b:a1:10:a5:ed:6e:67:91:d2:a8:fc:8c:e4:66:48:c3:7b:23:
         44:47:75:00:f5:e0:04:97:53:91:56:b3:2f:2c:eb:0d:ef:4d:
         f6:bb:bd:55:9b:d8:08:29:be:5a:d2:2e:07:e8:7e:fc:21:71:
         60:f7:51:cf:a4:c4:7c:c3:30:87:d1:91:b1:7b:92:03:c5:17:
         2e:b0:87:8b:38:19:7c:51:60:67:89:86:e2:bd:8d:39:a8:95:
         73:37:aa:39:31:6e:d6:b0:56:f4:18:f8:b7:7c:54:01:35:89:
         cd:66:86:c0:d4:df:9f:70:b9:70:f5:7e:f5:1e:e9:12:97:e1:
         af:e8:e2:ca:56:28:22:f5:bf:2a:59:fe:44:ec:1c:72:f9:ac:
         b3:49:81:e8:29:be:9d:5a:e3:50:d4:cd:9c:4f:f4:72:9f:4c:
         6b:50:cb:b2:5b:02:e2:c5:bc:b6:ee:52:ee:f6:72:44:74:d8:
         ce:a0:84:b0
-----BEGIN CERTIFICATE-----
MIIDXDCCAkSgAwIBAgIQQ8/K489MohGcyeIMY7eiuDANBgkqhkiG9w0BAQsFADAW
MRQwEgYDVQQDDAt0ZWFtMjE0LW5ldDAeFw0yMzA4MTQxNDI2MzZaFw0yNjA3Mjkx
NDI2MzZaMBkxFzAVBgNVBAMMDnRlYW0yMTQtY2xpZW50MIIBIjANBgkqhkiG9w0B
AQEFAAOCAQ8AMIIBCgKCAQEAvnEVqnKDrcI5PfmjcZBOyazAftm5NS1+9Kwpbzf8
zKRBYApFi7SsSPX7FB5q1jz48OodVqjIzGhj5Y+gB+x78l7IuKvgoy7P2Gk6r9JU
pI0AHKLO2FCmaPEdMXBHvSDCYvn7w5ujr3WHyzPI9Kcve2gQDYgrAKlJMd4E0iR/
BqSFwd9LzzujKlZUMaVXOUD5tsySBnp5ar2kpGBI6sFgcCGI6qaAPgY5Q2gu77fV
NN7EU9wnkRgFK+6ZoMixdpNaVW+6qk6OgeEFfm1+qGHuhigcgMpWpTX4KDzFaWUu
W7Zru1lMQJ+eCUne0Z13mNdXoAH0qXgLkoObzeLzkGGl8wIDAQABo4GiMIGfMAkG
A1UdEwQCMAAwHQYDVR0OBBYEFBUTekJljMabYfEBDTIMFRzCtJBZMFEGA1UdIwRK
MEiAFNKRPJL2i6A6xwiW/vJQgknTwa7loRqkGDAWMRQwEgYDVQQDDAt0ZWFtMjE0
LW5ldIIUVUMawDbegi7HSS/IBDVWyoNFTFwwEwYDVR0lBAwwCgYIKwYBBQUHAwIw
CwYDVR0PBAQDAgeAMA0GCSqGSIb3DQEBCwUAA4IBAQBu8JQDJe9CusphKw637S00
9E1PjGcPCiC9kxDOwsHZyNmyIk+zFfhYl5TzjM0630I48xxIwJY+JxipWVKRHs+W
2PDJE7SwuXeLoRCl7W5nkdKo/IzkZkjDeyNER3UA9eAEl1ORVrMvLOsN7032u71V
m9gIKb5a0i4H6H78IXFg91HPpMR8wzCH0ZGxe5IDxRcusIeLOBl8UWBniYbivY05
qJVzN6o5MW7WsFb0GPi3fFQBNYnNZobA1N+fcLlw9X71HukSl+Gv6OLKVigi9b8q
Wf5E7Bxy+ayzSYHoKb6dWuNQ1M2cT/Ryn0xrUMuyWwLixby27lLu9nJEdNjOoISw
-----END CERTIFICATE-----
