Certificate:
    Data:
        Version: 3 (0x2)
        Serial Number:
            56:48:12:5b:df:92:ad:98:7f:58:84:49:96:41:7f:50
        Signature Algorithm: sha256WithRSAEncryption
        Issuer: CN=team300-net
        Validity
            Not Before: Aug 14 14:28:24 2023 GMT
            Not After : Jul 29 14:28:24 2026 GMT
        Subject: CN=team300-server
        Subject Public Key Info:
            Public Key Algorithm: rsaEncryption
                RSA Public-Key: (2048 bit)
                Modulus:
                    00:bd:87:7c:c5:88:40:ef:4a:08:f7:db:84:b0:e5:
                    ee:f8:a8:48:34:51:45:34:e0:a3:31:dc:49:c1:27:
                    4e:59:99:9b:08:ea:d5:de:e8:5f:1b:1b:30:93:69:
                    e9:b6:7f:59:de:d4:67:21:cc:d8:45:47:bf:af:60:
                    4a:ca:cf:29:2c:01:44:31:02:50:9c:ff:b2:6b:19:
                    bc:c2:d0:43:60:66:ff:2a:a3:52:f1:e1:fe:ec:8b:
                    01:99:79:cb:b6:94:f6:5c:e1:dc:35:45:c5:e9:d2:
                    8c:f0:5c:22:68:bb:4a:4d:c5:bc:af:ff:39:c4:e6:
                    91:ae:9e:96:45:b2:21:23:03:93:e3:da:d3:63:aa:
                    d7:36:a7:f6:8d:7d:39:7e:d1:2d:e6:7e:6e:38:1f:
                    cb:79:a8:d0:45:c9:8c:70:64:c4:0c:c2:98:3c:48:
                    9c:be:6c:7f:65:1f:bb:03:4c:09:0b:a6:cf:8b:27:
                    62:f7:5d:68:11:73:87:44:39:04:2f:e5:0b:d8:6e:
                    0d:a3:b0:b7:95:c8:56:e9:fb:02:3d:f1:d0:ab:53:
                    f0:2d:7b:77:5a:02:42:77:49:24:1e:af:d9:e4:9c:
                    c6:75:a0:dd:8e:6b:ea:60:19:73:a7:c8:61:12:70:
                    db:f9:3c:60:32:23:c5:b4:3c:84:06:8c:1c:55:88:
                    89:c3
                Exponent: 65537 (0x10001)
        X509v3 extensions:
            X509v3 Basic Constraints: 
                CA:FALSE
            X509v3 Subject Key Identifier: 
                D5:63:69:7D:2E:25:E4:86:3A:AC:2C:8B:E7:3E:27:25:95:F9:2D:67
            X509v3 Authority Key Identifier: 
                keyid:40:B1:DB:CB:F5:55:3F:BE:D4:B6:4A:64:FC:6C:83:D8:EE:06:F1:E8
                DirName:/CN=team300-net
                serial:5A:71:F6:AF:CC:E7:C2:46:A8:36:DC:8A:B7:E1:4D:DA:AC:9E:3E:BE

            X509v3 Extended Key Usage: 
                TLS Web Server Authentication
            X509v3 Key Usage: 
                Digital Signature, Key Encipherment
            X509v3 Subject Alternative Name: 
                DNS:team300-server
    Signature Algorithm: sha256WithRSAEncryption
         63:f1:f5:30:7d:09:f6:20:cd:3b:33:b5:79:0d:66:b8:e5:96:
         e3:f2:96:df:56:f4:6c:10:3e:86:92:3e:83:99:cc:86:50:e4:
         8f:31:a1:62:e4:f0:b9:26:bf:32:9a:41:e4:ae:f1:94:83:0a:
         f3:99:0f:61:11:59:4a:a0:2b:c6:ee:ac:f6:f5:72:24:e2:6c:
         db:bb:e1:a7:8d:33:1c:ab:02:a0:f1:13:8f:cf:0b:5e:1f:ef:
         7d:f1:33:4b:f8:c3:c4:97:74:f2:3c:eb:49:89:af:f2:e8:f4:
         f6:4a:c2:22:48:ea:2f:b0:a4:e9:ac:b4:96:1d:ec:52:93:17:
         07:29:fb:71:76:61:43:47:39:24:90:b4:4c:3a:7f:48:ea:f6:
         a8:87:74:f4:ba:d5:46:b3:3a:d8:74:45:f1:b9:9d:2d:4e:30:
         72:a2:27:69:c2:e8:34:c5:42:41:f3:04:23:73:92:90:65:a7:
         6d:2b:c1:a4:6a:8c:b4:38:e6:ef:b2:1f:c0:7c:0d:01:10:6a:
         f6:7c:2a:63:f6:e5:96:cc:86:b3:2a:cf:f7:30:8a:37:60:dd:
         e8:f6:42:d7:ea:bf:e8:6c:71:c3:59:11:3f:7a:7e:51:8f:ef:
         6e:e6:3b:4e:74:d2:a2:c3:b3:04:f4:ac:80:1e:6c:80:a0:39:
         6e:b3:3c:ba
-----BEGIN CERTIFICATE-----
MIIDdzCCAl+gAwIBAgIQVkgSW9+SrZh/WIRJlkF/UDANBgkqhkiG9w0BAQsFADAW
MRQwEgYDVQQDDAt0ZWFtMzAwLW5ldDAeFw0yMzA4MTQxNDI4MjRaFw0yNjA3Mjkx
NDI4MjRaMBkxFzAVBgNVBAMMDnRlYW0zMDAtc2VydmVyMIIBIjANBgkqhkiG9w0B
AQEFAAOCAQ8AMIIBCgKCAQEAvYd8xYhA70oI99uEsOXu+KhINFFFNOCjMdxJwSdO
WZmbCOrV3uhfGxswk2nptn9Z3tRnIczYRUe/r2BKys8pLAFEMQJQnP+yaxm8wtBD
YGb/KqNS8eH+7IsBmXnLtpT2XOHcNUXF6dKM8FwiaLtKTcW8r/85xOaRrp6WRbIh
IwOT49rTY6rXNqf2jX05ftEt5n5uOB/LeajQRcmMcGTEDMKYPEicvmx/ZR+7A0wJ
C6bPiydi911oEXOHRDkEL+UL2G4No7C3lchW6fsCPfHQq1PwLXt3WgJCd0kkHq/Z
5JzGdaDdjmvqYBlzp8hhEnDb+TxgMiPFtDyEBowcVYiJwwIDAQABo4G9MIG6MAkG
A1UdEwQCMAAwHQYDVR0OBBYEFNVjaX0uJeSGOqwsi+c+JyWV+S1nMFEGA1UdIwRK
MEiAFECx28v1VT++1LZKZPxsg9juBvHooRqkGDAWMRQwEgYDVQQDDAt0ZWFtMzAw
LW5ldIIUWnH2r8znwkaoNtyKt+FN2qyePr4wEwYDVR0lBAwwCgYIKwYBBQUHAwEw
CwYDVR0PBAQDAgWgMBkGA1UdEQQSMBCCDnRlYW0zMDAtc2VydmVyMA0GCSqGSIb3
DQEBCwUAA4IBAQBj8fUwfQn2IM07M7V5DWa45Zbj8pbfVvRsED6Gkj6DmcyGUOSP
MaFi5PC5Jr8ymkHkrvGUgwrzmQ9hEVlKoCvG7qz29XIk4mzbu+GnjTMcqwKg8ROP
zwteH+998TNL+MPEl3TyPOtJia/y6PT2SsIiSOovsKTprLSWHexSkxcHKftxdmFD
RzkkkLRMOn9I6vaoh3T0utVGszrYdEXxuZ0tTjByoidpwug0xUJB8wQjc5KQZadt
K8Gkaoy0OObvsh/AfA0BEGr2fCpj9uWWzIazKs/3MIo3YN3o9kLX6r/obHHDWRE/
en5Rj+9u5jtOdNKiw7ME9KyAHmyAoDluszy6
-----END CERTIFICATE-----
