Certificate:
    Data:
        Version: 3 (0x2)
        Serial Number:
            14:a1:53:0e:82:d4:90:97:29:f6:b0:1f:eb:54:c8:8d
        Signature Algorithm: sha256WithRSAEncryption
        Issuer: CN=team130-net
        Validity
            Not Before: Aug 14 14:24:57 2023 GMT
            Not After : Jul 29 14:24:57 2026 GMT
        Subject: CN=team130-client
        Subject Public Key Info:
            Public Key Algorithm: rsaEncryption
                RSA Public-Key: (2048 bit)
                Modulus:
                    00:9a:30:c1:8e:b7:5f:5a:80:63:14:5b:0f:14:99:
                    df:0b:93:04:21:d7:21:fe:6a:92:a9:1e:03:c5:60:
                    f0:90:ee:7a:fb:5b:06:aa:5b:47:4a:d1:e7:c1:73:
                    bd:ff:d3:fc:4c:9a:2c:08:0b:87:fb:ea:96:b7:6a:
                    f6:7c:9e:a2:20:a5:a1:5a:75:86:8b:3e:4f:48:96:
                    2c:53:0b:82:df:9d:7a:9b:3f:88:6f:6b:2f:6a:47:
                    91:09:df:d8:dc:49:2b:b1:e0:d2:50:2e:67:94:ff:
                    97:e5:a3:27:de:e9:a8:02:7b:fe:90:4f:5f:f7:85:
                    55:65:3b:07:9e:45:ef:1a:99:c1:4a:a9:c4:79:91:
                    f5:48:27:db:c7:d2:5b:bb:6f:0b:59:71:21:b6:15:
                    f7:1c:0c:80:26:4f:09:2d:75:37:79:2e:16:02:4f:
                    fd:21:ad:9a:fa:3c:00:89:6e:56:45:23:0f:e9:ae:
                    ac:03:0b:36:cd:4c:d3:95:14:93:b4:68:b3:e2:d0:
                    67:07:4e:b6:db:13:84:ad:91:39:08:93:36:cc:38:
                    cb:21:60:c5:ef:31:53:b3:a2:5c:2c:c3:57:3b:1e:
                    31:1c:4c:d7:2a:e7:56:0b:3f:14:78:af:cd:98:9e:
                    d3:3d:11:23:af:23:b1:4b:2e:31:ff:28:f9:14:61:
                    15:69
                Exponent: 65537 (0x10001)
        X509v3 extensions:
            X509v3 Basic Constraints: 
                CA:FALSE
            X509v3 Subject Key Identifier: 
                FE:78:ED:35:9E:4B:96:B8:AD:FD:FE:2F:B8:6D:21:FD:53:50:8C:19
            X509v3 Authority Key Identifier: 
                keyid:C3:7C:08:71:99:9D:C3:3C:12:29:FC:34:B2:B1:7B:A9:4C:98:01:0D
                DirName:/CN=team130-net
                serial:53:11:B0:CC:0E:3E:9B:2A:0E:6C:46:58:44:7F:64:DE:28:7E:9D:4E

            X509v3 Extended Key Usage: 
                TLS Web Client Authentication
            X509v3 Key Usage: 
                Digital Signature
    Signature Algorithm: sha256WithRSAEncryption
         8e:13:17:f8:ca:71:20:e6:de:a0:d0:7f:da:97:ec:ef:c0:77:
         e3:b5:ee:c8:b3:44:e3:ad:da:3a:1e:f9:a7:3d:fd:9b:ae:6a:
         65:90:e4:7e:09:ed:e3:1f:f5:bb:d0:0d:9a:97:0a:c0:cc:7d:
         0b:e9:4d:23:1d:01:97:14:de:63:a6:07:cf:7a:8c:34:03:fd:
         9d:dd:db:1f:74:52:51:2d:30:c1:a2:ba:fb:5a:b2:98:ce:45:
         48:3e:9b:fa:f8:8d:14:ed:bf:7e:81:7b:80:2e:70:04:f8:6c:
         e5:d8:d4:58:1b:62:d7:19:09:5a:4e:78:17:e8:1c:ab:f2:1a:
         3e:cd:cf:4b:52:a4:75:2e:bb:ce:22:60:57:71:fd:1b:b6:da:
         b7:8a:22:8a:81:74:4d:c8:88:e6:c0:9b:79:e2:27:3e:69:dd:
         e1:88:ce:e9:08:7d:a0:60:ef:16:fa:66:04:aa:e3:fa:d5:4c:
         af:f7:0c:de:86:ec:c1:74:67:69:04:3c:a2:ed:4e:68:4f:18:
         6d:89:1f:62:3d:fc:1f:89:ba:58:1b:ac:61:32:5a:da:0d:68:
         66:5a:ad:37:66:d0:e4:da:2d:64:32:ce:10:55:82:f6:7e:7e:
         4f:a7:ff:68:c9:91:7c:c9:12:66:28:d6:48:a2:4e:89:3b:42:
         28:7e:46:82
-----BEGIN CERTIFICATE-----
MIIDXDCCAkSgAwIBAgIQFKFTDoLUkJcp9rAf61TIjTANBgkqhkiG9w0BAQsFADAW
MRQwEgYDVQQDDAt0ZWFtMTMwLW5ldDAeFw0yMzA4MTQxNDI0NTdaFw0yNjA3Mjkx
NDI0NTdaMBkxFzAVBgNVBAMMDnRlYW0xMzAtY2xpZW50MIIBIjANBgkqhkiG9w0B
AQEFAAOCAQ8AMIIBCgKCAQEAmjDBjrdfWoBjFFsPFJnfC5MEIdch/mqSqR4DxWDw
kO56+1sGqltHStHnwXO9/9P8TJosCAuH++qWt2r2fJ6iIKWhWnWGiz5PSJYsUwuC
3516mz+Ib2svakeRCd/Y3EkrseDSUC5nlP+X5aMn3umoAnv+kE9f94VVZTsHnkXv
GpnBSqnEeZH1SCfbx9Jbu28LWXEhthX3HAyAJk8JLXU3eS4WAk/9Ia2a+jwAiW5W
RSMP6a6sAws2zUzTlRSTtGiz4tBnB0622xOErZE5CJM2zDjLIWDF7zFTs6JcLMNX
Ox4xHEzXKudWCz8UeK/NmJ7TPREjryOxSy4x/yj5FGEVaQIDAQABo4GiMIGfMAkG
A1UdEwQCMAAwHQYDVR0OBBYEFP547TWeS5a4rf3+L7htIf1TUIwZMFEGA1UdIwRK
MEiAFMN8CHGZncM8Ein8NLKxe6lMmAENoRqkGDAWMRQwEgYDVQQDDAt0ZWFtMTMw
LW5ldIIUUxGwzA4+myoObEZYRH9k3ih+nU4wEwYDVR0lBAwwCgYIKwYBBQUHAwIw
CwYDVR0PBAQDAgeAMA0GCSqGSIb3DQEBCwUAA4IBAQCOExf4ynEg5t6g0H/al+zv
wHfjte7Is0Tjrdo6HvmnPf2brmplkOR+Ce3jH/W70A2alwrAzH0L6U0jHQGXFN5j
pgfPeow0A/2d3dsfdFJRLTDBorr7WrKYzkVIPpv6+I0U7b9+gXuALnAE+Gzl2NRY
G2LXGQlaTngX6Byr8ho+zc9LUqR1LrvOImBXcf0bttq3iiKKgXRNyIjmwJt54ic+
ad3hiM7pCH2gYO8W+mYEquP61Uyv9wzehuzBdGdpBDyi7U5oTxhtiR9iPfwfibpY
G6xhMlraDWhmWq03ZtDk2i1kMs4QVYL2fn5Pp/9oyZF8yRJmKNZIok6JO0IofkaC
-----END CERTIFICATE-----
