Certificate:
    Data:
        Version: 3 (0x2)
        Serial Number:
            b1:79:c7:1e:99:e3:7f:bf:8f:17:55:9a:6f:78:03:0a
        Signature Algorithm: sha256WithRSAEncryption
        Issuer: CN=team295-net
        Validity
            Not Before: Aug 14 14:28:18 2023 GMT
            Not After : Jul 29 14:28:18 2026 GMT
        Subject: CN=team295-client
        Subject Public Key Info:
            Public Key Algorithm: rsaEncryption
                RSA Public-Key: (2048 bit)
                Modulus:
                    00:b4:b0:fa:ed:9b:fd:4f:db:2e:8f:82:4b:37:8b:
                    05:fb:52:48:1c:4f:88:fe:6c:a8:12:26:6d:f2:0d:
                    ec:6f:52:21:a4:4f:90:73:7c:68:f7:8c:b2:02:2c:
                    54:8a:1a:a1:48:fe:72:f6:1d:45:d3:5a:09:88:96:
                    a0:26:10:7f:92:97:d6:13:9a:dc:c3:03:9a:fe:bd:
                    05:af:19:0f:bd:6c:83:5e:36:97:94:85:2b:f1:f5:
                    47:cc:c7:20:c2:ee:ff:9a:e6:8d:f7:20:41:20:f0:
                    b2:a5:a7:97:6e:3e:53:f7:91:f0:b9:73:d7:86:c1:
                    3c:48:b6:f7:6e:5b:a1:fe:44:9d:b5:21:5c:25:16:
                    65:b5:6e:ff:8d:7e:6e:00:67:3e:22:a9:d0:a3:60:
                    e0:8e:0e:4c:36:b9:57:91:fe:28:01:8c:6e:c5:79:
                    0a:cb:5e:21:96:00:45:fe:47:3e:ae:20:2b:53:a9:
                    2a:93:00:a9:fe:35:0e:2f:31:ab:9e:17:38:98:17:
                    33:8e:32:fd:f6:d2:15:f1:89:63:7f:26:15:19:59:
                    24:cd:75:39:24:ee:ee:bd:bb:0c:f7:9f:e7:70:56:
                    25:32:c6:c3:9a:ff:3c:3f:f9:1c:42:06:aa:9a:5e:
                    f0:fa:ec:ae:ec:a5:42:fd:d4:32:71:3c:aa:6c:d7:
                    ac:0d
                Exponent: 65537 (0x10001)
        X509v3 extensions:
            X509v3 Basic Constraints: 
                CA:FALSE
            X509v3 Subject Key Identifier: 
                1A:6A:1A:4C:ED:E0:68:ED:82:FE:BA:67:08:A0:22:65:38:9B:7D:AC
            X509v3 Authority Key Identifier: 
                keyid:65:2B:A8:89:58:CB:64:7F:B8:26:FD:32:DA:43:92:D4:58:5D:97:00
                DirName:/CN=team295-net
                serial:5B:48:57:56:96:2B:D7:65:2F:95:AC:46:F5:19:47:E9:D2:E2:1B:F9

            X509v3 Extended Key Usage: 
                TLS Web Client Authentication
            X509v3 Key Usage: 
                Digital Signature
    Signature Algorithm: sha256WithRSAEncryption
         44:8c:e4:fd:2b:5b:2d:8b:94:58:09:f8:e3:04:a6:ff:89:36:
         dd:7c:6d:88:a6:cb:74:5f:aa:1d:c8:fa:d3:aa:d5:6a:77:77:
         a7:67:fd:51:2e:6b:80:5f:55:21:9f:b4:19:55:37:af:73:7c:
         82:ba:d4:54:1e:35:c3:b3:be:c0:82:51:e8:ca:25:69:1a:e5:
         96:67:d4:7b:e1:e0:85:57:71:af:cf:bb:b7:bf:0e:21:dd:a6:
         f5:0f:20:a8:4e:49:98:da:78:9e:0e:87:4c:15:ff:90:85:04:
         48:eb:3d:7f:65:0a:57:81:9c:19:c8:11:fb:2e:6c:d8:f1:e5:
         a8:22:55:83:e6:68:19:d2:a4:ec:1c:b4:b1:1d:66:0a:53:cc:
         52:4a:bb:5f:1f:71:52:88:04:e8:86:40:85:3e:2e:70:bb:21:
         b2:a0:0a:d4:c7:3c:3d:eb:b5:dc:de:a4:6e:af:41:af:fd:9d:
         f9:44:9d:89:a4:b8:d2:59:d0:f9:0e:45:d2:36:18:48:05:1d:
         ca:cb:88:8b:5d:6f:a5:9d:60:44:47:cf:5f:5a:c7:04:68:a8:
         e4:f3:58:bb:5f:42:ef:5f:b0:ca:81:53:85:ad:74:e3:80:ea:
         9e:71:1f:7c:2a:68:30:39:d8:9c:80:3b:e9:8a:4d:60:5f:e0:
         f4:98:f5:12
-----BEGIN CERTIFICATE-----
MIIDXTCCAkWgAwIBAgIRALF5xx6Z43+/jxdVmm94AwowDQYJKoZIhvcNAQELBQAw
FjEUMBIGA1UEAwwLdGVhbTI5NS1uZXQwHhcNMjMwODE0MTQyODE4WhcNMjYwNzI5
MTQyODE4WjAZMRcwFQYDVQQDDA50ZWFtMjk1LWNsaWVudDCCASIwDQYJKoZIhvcN
AQEBBQADggEPADCCAQoCggEBALSw+u2b/U/bLo+CSzeLBftSSBxPiP5sqBImbfIN
7G9SIaRPkHN8aPeMsgIsVIoaoUj+cvYdRdNaCYiWoCYQf5KX1hOa3MMDmv69Ba8Z
D71sg142l5SFK/H1R8zHIMLu/5rmjfcgQSDwsqWnl24+U/eR8Llz14bBPEi2925b
of5EnbUhXCUWZbVu/41+bgBnPiKp0KNg4I4OTDa5V5H+KAGMbsV5CsteIZYARf5H
Pq4gK1OpKpMAqf41Di8xq54XOJgXM44y/fbSFfGJY38mFRlZJM11OSTu7r27DPef
53BWJTLGw5r/PD/5HEIGqppe8PrsruylQv3UMnE8qmzXrA0CAwEAAaOBojCBnzAJ
BgNVHRMEAjAAMB0GA1UdDgQWBBQaahpM7eBo7YL+umcIoCJlOJt9rDBRBgNVHSME
SjBIgBRlK6iJWMtkf7gm/TLaQ5LUWF2XAKEapBgwFjEUMBIGA1UEAwwLdGVhbTI5
NS1uZXSCFFtIV1aWK9dlL5WsRvUZR+nS4hv5MBMGA1UdJQQMMAoGCCsGAQUFBwMC
MAsGA1UdDwQEAwIHgDANBgkqhkiG9w0BAQsFAAOCAQEARIzk/StbLYuUWAn44wSm
/4k23XxtiKbLdF+qHcj606rVand3p2f9US5rgF9VIZ+0GVU3r3N8grrUVB41w7O+
wIJR6MolaRrllmfUe+HghVdxr8+7t78OId2m9Q8gqE5JmNp4ng6HTBX/kIUESOs9
f2UKV4GcGcgR+y5s2PHlqCJVg+ZoGdKk7By0sR1mClPMUkq7Xx9xUogE6IZAhT4u
cLshsqAK1Mc8Peu13N6kbq9Br/2d+USdiaS40lnQ+Q5F0jYYSAUdysuIi11vpZ1g
REfPX1rHBGio5PNYu19C71+wyoFTha1044DqnnEffCpoMDnYnIA76YpNYF/g9Jj1
Eg==
-----END CERTIFICATE-----
