Certificate:
    Data:
        Version: 3 (0x2)
        Serial Number:
            86:c2:01:c6:e1:d1:78:57:af:0a:48:2c:b0:f2:6c:43
        Signature Algorithm: sha256WithRSAEncryption
        Issuer: CN=team245-net
        Validity
            Not Before: Aug 14 14:27:14 2023 GMT
            Not After : Jul 29 14:27:14 2026 GMT
        Subject: CN=team245-server
        Subject Public Key Info:
            Public Key Algorithm: rsaEncryption
                RSA Public-Key: (2048 bit)
                Modulus:
                    00:c1:7c:07:ba:71:35:be:05:e5:2a:53:f8:0e:fb:
                    93:ea:3c:7d:f7:28:43:0b:4b:3b:a3:b9:02:4e:f6:
                    17:25:50:f0:fa:03:45:36:b0:17:a7:d2:d9:5f:7c:
                    52:ed:15:6d:e6:7e:96:40:d4:46:10:5a:bf:21:d3:
                    f2:bb:52:8c:c9:e5:7d:dc:f1:5f:f2:52:32:86:bd:
                    9c:db:90:96:53:f8:9a:49:4c:78:9d:5e:45:c0:3e:
                    d0:6c:d9:cf:d0:0d:35:08:06:14:c4:74:d3:31:bb:
                    78:fe:b9:6c:20:55:da:94:e7:54:cc:3c:6d:24:12:
                    0e:62:08:ac:c4:c6:87:ca:c7:6e:60:02:0b:69:1f:
                    06:07:3b:1c:ee:14:6b:d4:79:53:2c:9c:13:8c:b8:
                    35:cf:5f:04:00:d3:f7:7e:c7:6a:fc:f6:70:ea:f4:
                    d9:40:f6:aa:b8:63:2c:fd:7e:ea:21:85:72:f9:fa:
                    84:35:14:bc:f8:7a:f1:e9:25:05:b6:33:a5:bf:ff:
                    4b:12:4a:a3:47:3e:02:71:3a:4b:d6:76:0f:40:65:
                    87:8e:a9:5e:4e:0f:7c:55:b1:fd:6b:1c:86:62:d7:
                    09:1d:e3:dd:fc:4b:fd:10:43:6b:de:fe:2b:12:b2:
                    39:78:db:1a:cf:41:7e:96:09:d7:d7:30:6c:09:27:
                    2b:ed
                Exponent: 65537 (0x10001)
        X509v3 extensions:
            X509v3 Basic Constraints: 
                CA:FALSE
            X509v3 Subject Key Identifier: 
                52:63:71:05:DD:CA:5B:83:32:F3:C1:A7:CB:C8:B6:32:1F:C9:E1:D5
            X509v3 Authority Key Identifier: 
                keyid:7C:62:14:24:1D:19:2A:1B:72:55:14:69:E1:B9:71:73:46:7A:B1:8E
                DirName:/CN=team245-net
                serial:0B:C6:92:33:87:9B:6D:E7:82:57:E4:B4:DD:7A:9E:78:80:3A:6D:C3

            X509v3 Extended Key Usage: 
                TLS Web Server Authentication
            X509v3 Key Usage: 
                Digital Signature, Key Encipherment
            X509v3 Subject Alternative Name: 
                DNS:team245-server
    Signature Algorithm: sha256WithRSAEncryption
         5c:69:c3:a0:f3:14:e2:7c:98:ad:25:1f:f8:b6:ec:53:c9:94:
         5f:c4:dd:52:d7:6f:8a:e5:b9:cf:6a:c0:cd:bc:0d:71:1b:cd:
         5f:b9:bf:ed:fd:4c:36:73:34:b3:88:7f:9d:53:19:e9:c0:07:
         9e:e5:dd:11:c4:7b:62:03:3f:32:4d:e7:38:fe:6b:4b:05:fc:
         9b:69:82:d2:69:ee:05:39:b4:53:f0:2f:fb:ff:63:01:68:60:
         2a:8f:04:cf:61:f2:95:f5:ce:8f:47:3d:01:19:1b:51:4b:ef:
         f7:05:e2:61:13:3e:7d:db:a2:b3:c1:03:15:8b:cb:4e:fd:b6:
         a3:b4:11:c5:94:7c:e6:94:4c:bc:d2:6a:0d:cc:e3:65:99:8b:
         fc:ac:90:6d:9a:86:04:6e:de:7e:ed:f1:e6:88:07:70:da:af:
         12:21:85:e1:4e:e9:ee:a3:ec:d7:4f:c4:5c:4d:d5:b7:77:a3:
         f9:aa:1c:9c:90:4c:6e:f2:67:9f:48:67:65:51:d8:11:0b:16:
         ed:cb:f3:06:ce:1f:be:2d:34:8b:a0:5c:a9:29:71:57:dc:7e:
         be:bc:d7:f2:35:7f:9e:f3:51:87:b8:29:a0:e7:13:61:b2:a3:
         b1:99:24:3d:dc:63:97:0c:ba:f1:e2:38:42:96:bf:fb:de:74:
         6c:40:42:39
-----BEGIN CERTIFICATE-----
MIIDeDCCAmCgAwIBAgIRAIbCAcbh0XhXrwpILLDybEMwDQYJKoZIhvcNAQELBQAw
FjEUMBIGA1UEAwwLdGVhbTI0NS1uZXQwHhcNMjMwODE0MTQyNzE0WhcNMjYwNzI5
MTQyNzE0WjAZMRcwFQYDVQQDDA50ZWFtMjQ1LXNlcnZlcjCCASIwDQYJKoZIhvcN
AQEBBQADggEPADCCAQoCggEBAMF8B7pxNb4F5SpT+A77k+o8ffcoQwtLO6O5Ak72
FyVQ8PoDRTawF6fS2V98Uu0VbeZ+lkDURhBavyHT8rtSjMnlfdzxX/JSMoa9nNuQ
llP4mklMeJ1eRcA+0GzZz9ANNQgGFMR00zG7eP65bCBV2pTnVMw8bSQSDmIIrMTG
h8rHbmACC2kfBgc7HO4Ua9R5UyycE4y4Nc9fBADT937Havz2cOr02UD2qrhjLP1+
6iGFcvn6hDUUvPh68eklBbYzpb//SxJKo0c+AnE6S9Z2D0Blh46pXk4PfFWx/Wsc
hmLXCR3j3fxL/RBDa97+KxKyOXjbGs9BfpYJ19cwbAknK+0CAwEAAaOBvTCBujAJ
BgNVHRMEAjAAMB0GA1UdDgQWBBRSY3EF3cpbgzLzwafLyLYyH8nh1TBRBgNVHSME
SjBIgBR8YhQkHRkqG3JVFGnhuXFzRnqxjqEapBgwFjEUMBIGA1UEAwwLdGVhbTI0
NS1uZXSCFAvGkjOHm23nglfktN16nniAOm3DMBMGA1UdJQQMMAoGCCsGAQUFBwMB
MAsGA1UdDwQEAwIFoDAZBgNVHREEEjAQgg50ZWFtMjQ1LXNlcnZlcjANBgkqhkiG
9w0BAQsFAAOCAQEAXGnDoPMU4nyYrSUf+LbsU8mUX8TdUtdviuW5z2rAzbwNcRvN
X7m/7f1MNnM0s4h/nVMZ6cAHnuXdEcR7YgM/Mk3nOP5rSwX8m2mC0mnuBTm0U/Av
+/9jAWhgKo8Ez2HylfXOj0c9ARkbUUvv9wXiYRM+fduis8EDFYvLTv22o7QRxZR8
5pRMvNJqDczjZZmL/KyQbZqGBG7efu3x5ogHcNqvEiGF4U7p7qPs10/EXE3Vt3ej
+aocnJBMbvJnn0hnZVHYEQsW7cvzBs4fvi00i6BcqSlxV9x+vrzX8jV/nvNRh7gp
oOcTYbKjsZkkPdxjlwy68eI4Qpa/+950bEBCOQ==
-----END CERTIFICATE-----
