Certificate:
    Data:
        Version: 3 (0x2)
        Serial Number:
            06:07:7f:3c:f9:e3:f7:5c:b7:d0:f6:ac:42:89:01:d8
        Signature Algorithm: sha256WithRSAEncryption
        Issuer: CN=team245-net
        Validity
            Not Before: Aug 14 14:27:14 2023 GMT
            Not After : Jul 29 14:27:14 2026 GMT
        Subject: CN=team245-client
        Subject Public Key Info:
            Public Key Algorithm: rsaEncryption
                RSA Public-Key: (2048 bit)
                Modulus:
                    00:e1:22:e4:d1:d1:0b:f7:fe:1c:bb:26:b0:c7:df:
                    ef:c1:b2:65:6a:47:e3:ac:eb:df:e2:7c:d9:e9:d7:
                    27:f4:78:cb:d7:66:69:34:60:84:81:09:2a:2b:91:
                    a9:ae:52:7b:9e:0d:2e:69:88:23:cc:7c:a8:85:59:
                    5f:ff:9d:4e:cc:c8:ba:e1:7f:2d:44:36:ca:ae:03:
                    06:d6:38:b3:33:10:4b:8d:c7:ac:a6:89:b3:01:84:
                    64:a2:99:cc:61:2d:e7:20:df:3b:76:fe:f5:70:4f:
                    cf:2f:b4:57:eb:64:e4:4e:b7:20:e3:bc:fe:81:e2:
                    c9:53:f1:c2:3a:c0:d9:d5:19:f7:42:3f:77:56:98:
                    6b:a6:f9:96:9a:ab:b1:c5:e0:e3:60:16:cf:9c:93:
                    3d:8a:44:af:d7:61:7f:54:c6:0e:4d:66:63:32:2a:
                    3f:dc:42:bd:02:52:3c:1b:be:3c:7e:f4:aa:86:db:
                    60:be:ee:a3:4b:8f:32:74:84:14:be:35:d7:ac:67:
                    88:02:ac:3e:e2:f5:3c:35:79:ba:75:91:61:51:1d:
                    06:a6:5d:62:14:64:d9:e8:08:d2:5a:c2:b3:cf:62:
                    ff:f6:9e:c9:f5:ed:3c:36:da:91:f6:9c:9b:28:07:
                    89:4b:c6:44:ae:58:05:99:0b:34:18:7e:5c:20:d7:
                    b8:93
                Exponent: 65537 (0x10001)
        X509v3 extensions:
            X509v3 Basic Constraints: 
                CA:FALSE
            X509v3 Subject Key Identifier: 
                AC:7F:9C:9A:16:6F:7A:A4:A8:FF:15:D2:FB:83:A4:1A:2D:E8:2D:CE
            X509v3 Authority Key Identifier: 
                keyid:7C:62:14:24:1D:19:2A:1B:72:55:14:69:E1:B9:71:73:46:7A:B1:8E
                DirName:/CN=team245-net
                serial:0B:C6:92:33:87:9B:6D:E7:82:57:E4:B4:DD:7A:9E:78:80:3A:6D:C3

            X509v3 Extended Key Usage: 
                TLS Web Client Authentication
            X509v3 Key Usage: 
                Digital Signature
    Signature Algorithm: sha256WithRSAEncryption
         6d:9e:9f:b3:d6:97:13:cf:ac:9b:d8:31:a7:1b:6b:3f:58:a6:
         d1:65:a2:8f:c1:af:62:17:84:1f:2f:40:4b:9c:58:c6:27:99:
         f3:9a:e4:b5:26:97:d3:78:19:08:a9:92:7a:3c:75:2d:88:f3:
         00:1b:be:99:dc:73:2b:39:81:38:7e:ec:68:b9:3c:ad:3b:ae:
         2d:80:76:14:47:8a:6b:53:66:5c:f5:43:c9:5b:8a:38:9e:31:
         57:f4:c2:d1:61:26:db:99:10:7c:95:a0:c1:c8:30:f9:d5:d6:
         5b:d4:30:81:5b:ab:3e:87:07:0d:1f:34:14:6a:44:3e:ac:bc:
         8d:10:4a:9d:4d:17:c5:12:20:b3:12:2c:c1:64:61:41:84:cf:
         15:b3:87:93:66:2f:d7:b3:28:7a:f5:56:53:33:c1:b6:21:c5:
         a4:b8:ce:2e:64:60:10:34:a5:d4:b6:c6:64:2e:a7:c7:01:63:
         a7:5a:b5:9e:d2:46:3d:ad:50:4b:db:46:02:d8:9d:91:8e:4f:
         fd:9e:4e:34:01:44:4c:89:bf:c4:77:22:fc:a2:56:97:a9:aa:
         95:ef:bd:25:d1:37:51:b7:f0:85:d1:31:6e:67:f3:d1:4f:72:
         69:84:9a:6d:68:87:4d:54:ff:3d:2e:57:d6:3b:f0:f5:74:32:
         03:b0:bb:c5
-----BEGIN CERTIFICATE-----
MIIDXDCCAkSgAwIBAgIQBgd/PPnj91y30PasQokB2DANBgkqhkiG9w0BAQsFADAW
MRQwEgYDVQQDDAt0ZWFtMjQ1LW5ldDAeFw0yMzA4MTQxNDI3MTRaFw0yNjA3Mjkx
NDI3MTRaMBkxFzAVBgNVBAMMDnRlYW0yNDUtY2xpZW50MIIBIjANBgkqhkiG9w0B
AQEFAAOCAQ8AMIIBCgKCAQEA4SLk0dEL9/4cuyawx9/vwbJlakfjrOvf4nzZ6dcn
9HjL12ZpNGCEgQkqK5GprlJ7ng0uaYgjzHyohVlf/51OzMi64X8tRDbKrgMG1jiz
MxBLjcespomzAYRkopnMYS3nIN87dv71cE/PL7RX62TkTrcg47z+geLJU/HCOsDZ
1Rn3Qj93VphrpvmWmquxxeDjYBbPnJM9ikSv12F/VMYOTWZjMio/3EK9AlI8G748
fvSqhttgvu6jS48ydIQUvjXXrGeIAqw+4vU8NXm6dZFhUR0Gpl1iFGTZ6AjSWsKz
z2L/9p7J9e08NtqR9pybKAeJS8ZErlgFmQs0GH5cINe4kwIDAQABo4GiMIGfMAkG
A1UdEwQCMAAwHQYDVR0OBBYEFKx/nJoWb3qkqP8V0vuDpBot6C3OMFEGA1UdIwRK
MEiAFHxiFCQdGSobclUUaeG5cXNGerGOoRqkGDAWMRQwEgYDVQQDDAt0ZWFtMjQ1
LW5ldIIUC8aSM4ebbeeCV+S03XqeeIA6bcMwEwYDVR0lBAwwCgYIKwYBBQUHAwIw
CwYDVR0PBAQDAgeAMA0GCSqGSIb3DQEBCwUAA4IBAQBtnp+z1pcTz6yb2DGnG2s/
WKbRZaKPwa9iF4QfL0BLnFjGJ5nzmuS1JpfTeBkIqZJ6PHUtiPMAG76Z3HMrOYE4
fuxouTytO64tgHYUR4prU2Zc9UPJW4o4njFX9MLRYSbbmRB8laDByDD51dZb1DCB
W6s+hwcNHzQUakQ+rLyNEEqdTRfFEiCzEizBZGFBhM8Vs4eTZi/Xsyh69VZTM8G2
IcWkuM4uZGAQNKXUtsZkLqfHAWOnWrWe0kY9rVBL20YC2J2Rjk/9nk40AURMib/E
dyL8olaXqaqV770l0TdRt/CF0TFuZ/PRT3JphJptaIdNVP89LlfWO/D1dDIDsLvF
-----END CERTIFICATE-----
