Certificate:
    Data:
        Version: 3 (0x2)
        Serial Number:
            45:14:e6:3b:63:5f:d7:66:df:0e:1f:c5:f5:ea:2d:79
        Signature Algorithm: sha256WithRSAEncryption
        Issuer: CN=team266-net
        Validity
            Not Before: Aug 14 14:27:42 2023 GMT
            Not After : Jul 29 14:27:42 2026 GMT
        Subject: CN=team266-server
        Subject Public Key Info:
            Public Key Algorithm: rsaEncryption
                RSA Public-Key: (2048 bit)
                Modulus:
                    00:d2:d1:88:45:f3:c9:9a:ab:37:9b:07:1f:8d:93:
                    4c:60:08:65:96:e9:b1:9c:58:cb:3f:72:0f:c9:1e:
                    d7:d1:b0:3c:74:30:8f:bc:87:b9:d2:93:7a:21:4d:
                    3d:38:3e:1b:31:ad:fa:55:66:1c:6d:65:4d:77:23:
                    06:04:c5:2e:e4:44:13:b9:92:80:50:3f:07:26:aa:
                    58:7b:28:f7:c2:f9:7c:07:5c:e5:4a:54:45:8f:dc:
                    ba:4c:0a:1f:ed:52:dd:1c:ab:ec:e8:91:a6:28:18:
                    3d:eb:26:a9:ce:81:6c:9e:b6:a9:02:c2:7e:ed:8e:
                    79:36:41:bd:d4:15:de:b3:8a:04:38:5b:86:38:24:
                    82:7c:08:db:06:87:e5:cf:50:88:17:07:38:31:84:
                    8b:f1:e3:11:cd:fd:9b:e3:80:ba:4e:07:cb:77:75:
                    15:c9:a4:96:d6:e6:b7:4c:0a:76:72:87:cb:06:29:
                    f0:c6:25:2d:7f:5c:15:df:c1:ed:1f:e3:67:b8:91:
                    5d:42:e7:55:7f:1e:d9:0a:bc:eb:96:6d:92:ec:ce:
                    9f:29:30:31:b2:de:4a:8b:5c:fd:43:1f:70:30:5b:
                    4e:3b:ef:60:f2:c0:85:9f:52:e2:49:b1:d5:0c:17:
                    e7:9a:51:8a:0c:57:b2:e6:21:a4:d0:93:0e:a7:03:
                    a6:b9
                Exponent: 65537 (0x10001)
        X509v3 extensions:
            X509v3 Basic Constraints: 
                CA:FALSE
            X509v3 Subject Key Identifier: 
                EC:3B:1E:79:4D:2B:D0:5E:A3:F1:CB:AD:5B:2D:13:85:E9:F7:23:10
            X509v3 Authority Key Identifier: 
                keyid:F3:03:EC:DC:BA:44:F9:63:50:BC:43:36:27:BC:97:B6:EA:91:1A:90
                DirName:/CN=team266-net
                serial:7E:DA:4A:AF:CD:75:46:2E:E0:BE:44:6E:D0:9C:02:32:C1:F1:D8:1B

            X509v3 Extended Key Usage: 
                TLS Web Server Authentication
            X509v3 Key Usage: 
                Digital Signature, Key Encipherment
            X509v3 Subject Alternative Name: 
                DNS:team266-server
    Signature Algorithm: sha256WithRSAEncryption
         9c:9d:84:7f:3f:e5:7e:40:a4:24:52:b7:0c:96:26:10:1c:f2:
         a0:de:c4:d4:b8:2f:ca:17:08:1c:76:f5:fc:76:58:c0:30:c3:
         ee:06:3c:c0:7a:10:8a:40:0a:fe:a5:5e:03:62:45:cc:be:35:
         9b:ab:d2:28:55:07:f2:53:8d:53:c9:6c:15:ea:f5:39:d7:87:
         21:e7:24:e5:4c:c4:31:13:61:a2:21:30:7d:ed:ed:67:9d:1e:
         b4:12:10:cb:91:ec:92:90:96:0f:c5:64:4a:79:48:58:46:c6:
         8e:89:e5:e7:82:f6:fc:fa:62:84:7c:58:2a:38:da:f1:c5:b8:
         47:69:9f:0a:bc:53:3b:ec:e3:04:49:f1:9a:b1:a8:ea:c0:fb:
         dd:a9:27:46:14:2e:d5:db:d7:6c:3d:8c:b3:52:c6:b0:5a:1c:
         6a:e1:ee:92:52:f0:f0:94:c9:f8:b0:19:03:10:a4:2f:5c:5d:
         1e:8d:9a:15:75:89:be:0c:9f:e0:75:7b:93:d2:e0:65:31:34:
         43:f4:17:a7:6d:63:57:8c:97:f9:96:f6:b4:0f:92:4e:59:0d:
         4f:0c:09:7a:3b:36:bc:de:b5:40:bb:c9:d5:12:eb:a7:b9:27:
         34:21:64:e4:b3:f7:14:4d:29:78:9c:11:58:fe:75:67:00:50:
         64:d8:51:b3
-----BEGIN CERTIFICATE-----
MIIDdzCCAl+gAwIBAgIQRRTmO2Nf12bfDh/F9eoteTANBgkqhkiG9w0BAQsFADAW
MRQwEgYDVQQDDAt0ZWFtMjY2LW5ldDAeFw0yMzA4MTQxNDI3NDJaFw0yNjA3Mjkx
NDI3NDJaMBkxFzAVBgNVBAMMDnRlYW0yNjYtc2VydmVyMIIBIjANBgkqhkiG9w0B
AQEFAAOCAQ8AMIIBCgKCAQEA0tGIRfPJmqs3mwcfjZNMYAhllumxnFjLP3IPyR7X
0bA8dDCPvIe50pN6IU09OD4bMa36VWYcbWVNdyMGBMUu5EQTuZKAUD8HJqpYeyj3
wvl8B1zlSlRFj9y6TAof7VLdHKvs6JGmKBg96yapzoFsnrapAsJ+7Y55NkG91BXe
s4oEOFuGOCSCfAjbBoflz1CIFwc4MYSL8eMRzf2b44C6TgfLd3UVyaSW1ua3TAp2
cofLBinwxiUtf1wV38HtH+NnuJFdQudVfx7ZCrzrlm2S7M6fKTAxst5Ki1z9Qx9w
MFtOO+9g8sCFn1LiSbHVDBfnmlGKDFey5iGk0JMOpwOmuQIDAQABo4G9MIG6MAkG
A1UdEwQCMAAwHQYDVR0OBBYEFOw7HnlNK9Beo/HLrVstE4Xp9yMQMFEGA1UdIwRK
MEiAFPMD7Ny6RPljULxDNie8l7bqkRqQoRqkGDAWMRQwEgYDVQQDDAt0ZWFtMjY2
LW5ldIIUftpKr811Ri7gvkRu0JwCMsHx2BswEwYDVR0lBAwwCgYIKwYBBQUHAwEw
CwYDVR0PBAQDAgWgMBkGA1UdEQQSMBCCDnRlYW0yNjYtc2VydmVyMA0GCSqGSIb3
DQEBCwUAA4IBAQCcnYR/P+V+QKQkUrcMliYQHPKg3sTUuC/KFwgcdvX8dljAMMPu
BjzAehCKQAr+pV4DYkXMvjWbq9IoVQfyU41TyWwV6vU514ch5yTlTMQxE2GiITB9
7e1nnR60EhDLkeySkJYPxWRKeUhYRsaOieXngvb8+mKEfFgqONrxxbhHaZ8KvFM7
7OMESfGasajqwPvdqSdGFC7V29dsPYyzUsawWhxq4e6SUvDwlMn4sBkDEKQvXF0e
jZoVdYm+DJ/gdXuT0uBlMTRD9BenbWNXjJf5lva0D5JOWQ1PDAl6Oza83rVAu8nV
EuunuSc0IWTks/cUTSl4nBFY/nVnAFBk2FGz
-----END CERTIFICATE-----
