Certificate:
    Data:
        Version: 3 (0x2)
        Serial Number:
            b5:ba:10:19:73:0a:9c:84:77:9a:bf:79:dc:52:2f:fd
        Signature Algorithm: sha256WithRSAEncryption
        Issuer: CN=team94-net
        Validity
            Not Before: Aug 14 14:24:08 2023 GMT
            Not After : Jul 29 14:24:08 2026 GMT
        Subject: CN=team94-client
        Subject Public Key Info:
            Public Key Algorithm: rsaEncryption
                RSA Public-Key: (2048 bit)
                Modulus:
                    00:d6:01:ab:1b:c0:59:0c:5a:16:66:16:16:37:f1:
                    84:d5:11:c9:4d:6b:d9:23:81:8f:fa:f6:9d:1b:20:
                    9a:b4:22:38:5f:56:0e:c0:50:c8:f1:33:a9:01:79:
                    d8:7f:9b:e6:62:19:f3:14:79:95:4e:68:8d:75:58:
                    90:aa:70:89:83:ab:fa:fa:36:00:af:f2:39:40:96:
                    d0:2d:d7:d9:9d:cf:76:b2:6c:39:d9:97:c3:67:f8:
                    9d:22:eb:b3:d3:81:33:2d:ff:bb:3c:b1:89:43:7f:
                    0b:32:07:f7:41:b9:2c:90:cb:e3:15:aa:c4:ad:42:
                    97:0f:7f:24:df:7c:2a:8e:d6:3d:f7:80:10:15:e2:
                    24:13:39:84:05:c2:fe:c4:7e:6f:59:d7:0c:90:34:
                    13:83:08:8d:39:d5:62:11:fc:f0:6b:00:9d:8d:d6:
                    82:d7:5f:c0:5f:07:a5:4d:a1:c6:b3:0e:0e:75:00:
                    11:5b:20:5f:9e:64:11:56:4e:f1:f9:95:a1:ef:db:
                    3e:12:6e:f5:c6:52:86:a2:f3:6c:a8:00:a1:fc:be:
                    18:d7:e4:2e:d5:b0:62:4e:62:b6:6c:03:00:23:b3:
                    32:ce:f6:47:99:e5:16:7d:a1:f7:ff:70:66:58:aa:
                    7c:04:3d:9d:d8:fa:1a:51:1f:ab:c2:38:32:d4:42:
                    4d:db
                Exponent: 65537 (0x10001)
        X509v3 extensions:
            X509v3 Basic Constraints: 
                CA:FALSE
            X509v3 Subject Key Identifier: 
                60:B0:C6:2B:7C:F3:15:CD:39:4D:7D:16:A7:5B:A0:CC:8C:D7:3F:93
            X509v3 Authority Key Identifier: 
                keyid:A4:C2:C0:C9:95:96:A4:8D:C2:1F:68:1D:DD:11:55:05:D3:8C:AA:8D
                DirName:/CN=team94-net
                serial:49:2B:21:3B:EE:CE:B3:53:78:3D:D0:C7:12:CC:12:B4:05:8D:7A:A6

            X509v3 Extended Key Usage: 
                TLS Web Client Authentication
            X509v3 Key Usage: 
                Digital Signature
    Signature Algorithm: sha256WithRSAEncryption
         43:c5:8e:0b:3f:01:c3:e8:db:f7:47:d4:2d:64:90:7e:63:da:
         f3:6e:ce:2a:b3:dc:20:72:ee:f5:78:61:fc:87:89:96:56:fb:
         2a:e6:8b:76:c4:6f:4e:52:cc:5a:3c:c3:da:f7:ad:57:1a:47:
         fb:2d:d0:e1:5d:df:0d:00:fe:7e:5b:09:bd:44:5e:b6:36:4d:
         c3:db:75:5c:db:31:46:b2:22:ff:38:dd:21:26:d9:ed:7a:52:
         ca:c1:46:57:7b:60:f8:eb:c9:5b:dd:36:3b:5f:f8:76:1a:af:
         5f:e7:50:86:f1:9e:c9:e1:0a:d9:0f:f1:41:33:50:58:2a:1a:
         ac:32:27:23:a5:0f:e2:3e:0c:d3:66:a5:5c:1d:38:dc:cc:44:
         21:1e:be:c2:fe:ba:f8:03:37:50:89:b4:9c:0b:ba:a0:35:e8:
         78:a4:6c:ec:67:cb:b9:7f:83:37:cd:03:d1:d1:6f:45:6f:d3:
         be:a7:05:6e:8a:55:19:4a:62:5d:54:4c:f0:2b:7b:3b:d9:0e:
         7f:8f:b8:27:53:98:e8:a8:41:87:c4:d9:c1:cf:a3:f9:57:20:
         f3:50:46:1d:ac:69:8e:06:7f:86:49:36:6d:0d:a1:6d:92:3e:
         d0:1c:99:cb:25:a2:f7:92:03:38:4d:47:93:27:eb:4c:69:e2:
         7c:8e:00:0c
-----BEGIN CERTIFICATE-----
MIIDWjCCAkKgAwIBAgIRALW6EBlzCpyEd5q/edxSL/0wDQYJKoZIhvcNAQELBQAw
FTETMBEGA1UEAwwKdGVhbTk0LW5ldDAeFw0yMzA4MTQxNDI0MDhaFw0yNjA3Mjkx
NDI0MDhaMBgxFjAUBgNVBAMMDXRlYW05NC1jbGllbnQwggEiMA0GCSqGSIb3DQEB
AQUAA4IBDwAwggEKAoIBAQDWAasbwFkMWhZmFhY38YTVEclNa9kjgY/69p0bIJq0
IjhfVg7AUMjxM6kBedh/m+ZiGfMUeZVOaI11WJCqcImDq/r6NgCv8jlAltAt19md
z3aybDnZl8Nn+J0i67PTgTMt/7s8sYlDfwsyB/dBuSyQy+MVqsStQpcPfyTffCqO
1j33gBAV4iQTOYQFwv7Efm9Z1wyQNBODCI051WIR/PBrAJ2N1oLXX8BfB6VNocaz
Dg51ABFbIF+eZBFWTvH5laHv2z4SbvXGUoai82yoAKH8vhjX5C7VsGJOYrZsAwAj
szLO9keZ5RZ9off/cGZYqnwEPZ3Y+hpRH6vCODLUQk3bAgMBAAGjgaEwgZ4wCQYD
VR0TBAIwADAdBgNVHQ4EFgQUYLDGK3zzFc05TX0Wp1ugzIzXP5MwUAYDVR0jBEkw
R4AUpMLAyZWWpI3CH2gd3RFVBdOMqo2hGaQXMBUxEzARBgNVBAMMCnRlYW05NC1u
ZXSCFEkrITvuzrNTeD3QxxLMErQFjXqmMBMGA1UdJQQMMAoGCCsGAQUFBwMCMAsG
A1UdDwQEAwIHgDANBgkqhkiG9w0BAQsFAAOCAQEAQ8WOCz8Bw+jb90fULWSQfmPa
827OKrPcIHLu9Xhh/IeJllb7KuaLdsRvTlLMWjzD2vetVxpH+y3Q4V3fDQD+flsJ
vURetjZNw9t1XNsxRrIi/zjdISbZ7XpSysFGV3tg+OvJW902O1/4dhqvX+dQhvGe
yeEK2Q/xQTNQWCoarDInI6UP4j4M02alXB043MxEIR6+wv66+AM3UIm0nAu6oDXo
eKRs7GfLuX+DN80D0dFvRW/TvqcFbopVGUpiXVRM8Ct7O9kOf4+4J1OY6KhBh8TZ
wc+j+Vcg81BGHaxpjgZ/hkk2bQ2hbZI+0ByZyyWi95IDOE1HkyfrTGnifI4ADA==
-----END CERTIFICATE-----
