Certificate:
    Data:
        Version: 3 (0x2)
        Serial Number:
            7d:77:cc:d1:5d:51:e6:78:c4:57:be:7c:68:ca:01:07
        Signature Algorithm: sha256WithRSAEncryption
        Issuer: CN=team74-net
        Validity
            Not Before: Aug 14 14:23:42 2023 GMT
            Not After : Jul 29 14:23:42 2026 GMT
        Subject: CN=team74-server
        Subject Public Key Info:
            Public Key Algorithm: rsaEncryption
                RSA Public-Key: (2048 bit)
                Modulus:
                    00:b2:68:ee:d4:c6:3e:da:65:97:dc:85:ae:20:82:
                    b2:29:da:0e:20:48:e7:20:4f:a1:9d:11:67:a7:b8:
                    55:42:70:c7:8f:4d:df:79:34:b5:1c:77:ae:2e:c6:
                    7c:3a:ea:94:eb:a9:d9:4d:c4:3d:5e:7a:38:24:be:
                    3c:b6:fa:71:18:8e:c4:5d:6c:02:e4:a9:e3:62:36:
                    e8:48:f5:c1:a1:d2:b5:ec:d4:7c:ad:98:57:2b:a1:
                    b4:ec:d9:b3:b9:a0:27:41:87:61:e4:a7:5d:42:61:
                    d0:d7:d9:58:b6:1a:8f:85:54:50:28:bb:b8:63:01:
                    fb:04:54:7f:b3:88:74:e1:59:5c:d5:e1:4d:3f:bc:
                    bb:2e:75:80:5d:93:6a:ba:36:ac:08:f3:5a:1a:8b:
                    6d:ef:d8:93:23:e4:f9:4f:23:ae:12:99:50:87:ef:
                    ab:b9:c1:df:a7:71:0f:9b:29:5e:15:59:eb:2a:dc:
                    cd:ea:75:d5:36:44:47:fb:72:74:9c:f5:0c:e0:fb:
                    62:4d:16:12:e9:0d:7b:02:5e:96:9b:c8:07:52:90:
                    50:17:08:e9:e0:06:54:8c:d3:7b:0a:c9:95:4f:b8:
                    7f:1a:36:fd:cb:43:94:99:c2:59:7a:09:e4:d7:39:
                    13:47:2f:fd:43:00:31:c8:0b:07:11:4a:b2:7d:31:
                    f5:bd
                Exponent: 65537 (0x10001)
        X509v3 extensions:
            X509v3 Basic Constraints: 
                CA:FALSE
            X509v3 Subject Key Identifier: 
                81:6D:26:EC:7C:26:37:E6:C5:FC:74:24:B5:A3:91:12:58:17:05:FA
            X509v3 Authority Key Identifier: 
                keyid:43:4A:53:08:53:F7:D9:AA:5F:82:C9:13:A8:BE:E8:C2:06:76:1F:0E
                DirName:/CN=team74-net
                serial:7D:55:B5:5D:72:5E:D4:BA:E9:9E:EA:82:3F:69:67:31:FD:FF:D6:13

            X509v3 Extended Key Usage: 
                TLS Web Server Authentication
            X509v3 Key Usage: 
                Digital Signature, Key Encipherment
            X509v3 Subject Alternative Name: 
                DNS:team74-server
    Signature Algorithm: sha256WithRSAEncryption
         a0:1a:1e:19:11:1e:0f:dd:46:31:a2:76:ea:95:ac:53:bb:4f:
         da:df:4c:5a:9b:c9:68:9b:70:f7:d0:64:f3:f4:75:ba:02:ac:
         67:7d:9b:ae:f9:07:f2:74:2e:ef:cc:7e:df:9d:2b:c6:90:3c:
         04:df:a9:de:94:2e:9e:d0:fe:84:b1:6d:10:b4:b1:47:3c:40:
         23:4b:90:2a:eb:07:42:f0:0c:80:f4:9c:68:d5:5d:3f:42:78:
         7b:36:e4:e8:36:af:59:46:31:53:7b:6a:dc:e4:2d:41:a5:96:
         df:34:bb:3e:3f:fe:17:14:af:f9:44:58:d9:17:e9:34:dd:55:
         77:0e:e2:16:f0:3f:5d:07:5c:bd:64:ca:93:32:f7:1a:60:b4:
         8b:ee:14:af:9e:ab:26:e9:5e:a8:33:06:43:34:d9:06:45:cb:
         81:f7:99:27:2e:10:58:ec:2b:99:e7:3a:df:33:1c:fa:ce:e6:
         ad:cb:0e:b8:17:24:c3:cb:d3:f0:8f:1d:06:28:70:cf:25:64:
         df:6d:d9:28:b4:9c:5d:70:45:2f:11:a1:cc:25:2e:3a:77:b9:
         50:2e:cd:67:e8:48:e8:0d:eb:28:20:64:8c:02:b5:11:5e:86:
         b1:16:e7:c8:10:9b:a7:b9:11:5b:5e:6d:94:52:b5:8f:92:d5:
         d8:6b:d9:df
-----BEGIN CERTIFICATE-----
MIIDczCCAlugAwIBAgIQfXfM0V1R5njEV758aMoBBzANBgkqhkiG9w0BAQsFADAV
MRMwEQYDVQQDDAp0ZWFtNzQtbmV0MB4XDTIzMDgxNDE0MjM0MloXDTI2MDcyOTE0
MjM0MlowGDEWMBQGA1UEAwwNdGVhbTc0LXNlcnZlcjCCASIwDQYJKoZIhvcNAQEB
BQADggEPADCCAQoCggEBALJo7tTGPtpll9yFriCCsinaDiBI5yBPoZ0RZ6e4VUJw
x49N33k0tRx3ri7GfDrqlOup2U3EPV56OCS+PLb6cRiOxF1sAuSp42I26Ej1waHS
tezUfK2YVyuhtOzZs7mgJ0GHYeSnXUJh0NfZWLYaj4VUUCi7uGMB+wRUf7OIdOFZ
XNXhTT+8uy51gF2Taro2rAjzWhqLbe/YkyPk+U8jrhKZUIfvq7nB36dxD5spXhVZ
6yrczep11TZER/tydJz1DOD7Yk0WEukNewJelpvIB1KQUBcI6eAGVIzTewrJlU+4
fxo2/ctDlJnCWXoJ5Nc5E0cv/UMAMcgLBxFKsn0x9b0CAwEAAaOBuzCBuDAJBgNV
HRMEAjAAMB0GA1UdDgQWBBSBbSbsfCY35sX8dCS1o5ESWBcF+jBQBgNVHSMESTBH
gBRDSlMIU/fZql+CyROovujCBnYfDqEZpBcwFTETMBEGA1UEAwwKdGVhbTc0LW5l
dIIUfVW1XXJe1LrpnuqCP2lnMf3/1hMwEwYDVR0lBAwwCgYIKwYBBQUHAwEwCwYD
VR0PBAQDAgWgMBgGA1UdEQQRMA+CDXRlYW03NC1zZXJ2ZXIwDQYJKoZIhvcNAQEL
BQADggEBAKAaHhkRHg/dRjGiduqVrFO7T9rfTFqbyWibcPfQZPP0dboCrGd9m675
B/J0Lu/Mft+dK8aQPATfqd6ULp7Q/oSxbRC0sUc8QCNLkCrrB0LwDID0nGjVXT9C
eHs25Og2r1lGMVN7atzkLUGllt80uz4//hcUr/lEWNkX6TTdVXcO4hbwP10HXL1k
ypMy9xpgtIvuFK+eqybpXqgzBkM02QZFy4H3mScuEFjsK5nnOt8zHPrO5q3LDrgX
JMPL0/CPHQYocM8lZN9t2Si0nF1wRS8RocwlLjp3uVAuzWfoSOgN6yggZIwCtRFe
hrEW58gQm6e5EVtebZRStY+S1dhr2d8=
-----END CERTIFICATE-----
