Certificate:
    Data:
        Version: 3 (0x2)
        Serial Number:
            85:33:b1:fc:5d:d7:64:98:f8:bd:a1:83:a1:47:ba:98
        Signature Algorithm: sha256WithRSAEncryption
        Issuer: CN=team74-net
        Validity
            Not Before: Aug 14 14:23:42 2023 GMT
            Not After : Jul 29 14:23:42 2026 GMT
        Subject: CN=team74-client
        Subject Public Key Info:
            Public Key Algorithm: rsaEncryption
                RSA Public-Key: (2048 bit)
                Modulus:
                    00:ad:f1:7e:1c:82:43:eb:a6:89:d6:9f:2e:59:3d:
                    f4:8e:06:54:79:4b:51:c3:98:72:32:f2:b9:cd:af:
                    c0:3a:3e:9f:f9:96:50:21:6e:20:78:ac:56:a0:fe:
                    fa:fe:e0:c0:de:47:6d:8c:2b:62:5a:42:32:88:a9:
                    ea:4f:d2:e5:ba:54:5b:6f:3e:76:1a:14:1c:dc:82:
                    6d:e9:22:e6:1c:a0:4a:81:e5:44:85:e1:ac:4e:e8:
                    a3:7c:38:d4:35:a5:77:ee:90:1c:d5:1d:dc:e2:ff:
                    5b:2a:43:78:90:c0:7b:d0:e0:d0:7a:00:57:2b:73:
                    6b:27:cb:f8:ab:70:f1:00:33:05:81:93:d4:70:de:
                    db:8f:35:65:2e:91:4e:57:5c:c3:f3:4f:9d:2f:71:
                    4d:97:c9:be:ae:61:5f:aa:7e:c6:71:25:68:3b:52:
                    bf:ce:46:55:32:fc:19:72:19:4d:74:9d:16:51:b8:
                    9a:fd:3f:46:10:fc:e1:d0:af:55:5d:36:d6:02:bb:
                    3b:a3:0e:eb:a0:8b:14:20:38:fe:fe:37:f9:80:74:
                    55:60:06:38:ea:0d:99:d3:41:6e:55:9c:f5:94:78:
                    50:30:1b:27:f9:27:47:eb:a2:b2:75:9a:6f:38:12:
                    dd:62:74:21:22:d3:db:ee:8e:67:eb:ed:89:09:5e:
                    6c:3b
                Exponent: 65537 (0x10001)
        X509v3 extensions:
            X509v3 Basic Constraints: 
                CA:FALSE
            X509v3 Subject Key Identifier: 
                33:66:C1:C0:C9:F5:79:41:07:E6:6F:94:2F:3C:A5:36:0C:35:A4:C7
            X509v3 Authority Key Identifier: 
                keyid:43:4A:53:08:53:F7:D9:AA:5F:82:C9:13:A8:BE:E8:C2:06:76:1F:0E
                DirName:/CN=team74-net
                serial:7D:55:B5:5D:72:5E:D4:BA:E9:9E:EA:82:3F:69:67:31:FD:FF:D6:13

            X509v3 Extended Key Usage: 
                TLS Web Client Authentication
            X509v3 Key Usage: 
                Digital Signature
    Signature Algorithm: sha256WithRSAEncryption
         b0:f2:b5:7e:e5:c8:43:25:0d:a9:5e:2f:33:33:c8:ed:9f:66:
         08:aa:3e:8f:f7:10:2e:c8:de:ef:74:54:99:27:0c:54:a1:65:
         e8:f2:31:96:3c:67:48:e4:3b:62:7d:31:31:aa:40:4a:55:f1:
         5d:f8:73:ea:52:4e:8c:8a:bc:67:81:a1:ce:c3:09:c0:81:dd:
         0e:13:45:82:73:70:14:73:0f:a7:59:d4:64:6c:f1:de:bd:ee:
         ba:3d:e9:40:9b:4d:54:17:6c:b5:8a:11:0f:13:aa:a0:03:0a:
         ce:a1:c8:e6:42:6c:88:29:8e:69:78:cd:48:47:35:ca:54:54:
         c8:9e:7b:ad:29:5f:21:fe:46:16:45:3e:f5:ac:69:b1:69:f6:
         b5:3e:b0:e9:ac:43:47:9a:fe:c6:28:9a:cc:f9:e6:9d:d8:e2:
         db:ae:76:e8:b6:00:d0:45:1c:d6:31:4d:b1:6f:f4:92:1d:bf:
         45:c6:f8:fa:4c:eb:75:59:c5:9b:ac:dc:59:26:3d:75:f5:b4:
         0a:59:77:db:a1:0d:61:04:41:eb:5c:22:76:2e:9d:90:5d:50:
         29:85:e1:4f:23:d0:ea:d5:b7:3e:a5:10:28:ac:a2:4f:65:85:
         bb:cd:3f:63:d7:93:bf:94:37:26:4a:3d:8b:c2:b5:bc:ff:90:
         d3:f0:0a:96
-----BEGIN CERTIFICATE-----
MIIDWjCCAkKgAwIBAgIRAIUzsfxd12SY+L2hg6FHupgwDQYJKoZIhvcNAQELBQAw
FTETMBEGA1UEAwwKdGVhbTc0LW5ldDAeFw0yMzA4MTQxNDIzNDJaFw0yNjA3Mjkx
NDIzNDJaMBgxFjAUBgNVBAMMDXRlYW03NC1jbGllbnQwggEiMA0GCSqGSIb3DQEB
AQUAA4IBDwAwggEKAoIBAQCt8X4cgkPrponWny5ZPfSOBlR5S1HDmHIy8rnNr8A6
Pp/5llAhbiB4rFag/vr+4MDeR22MK2JaQjKIqepP0uW6VFtvPnYaFBzcgm3pIuYc
oEqB5USF4axO6KN8ONQ1pXfukBzVHdzi/1sqQ3iQwHvQ4NB6AFcrc2sny/ircPEA
MwWBk9Rw3tuPNWUukU5XXMPzT50vcU2Xyb6uYV+qfsZxJWg7Ur/ORlUy/BlyGU10
nRZRuJr9P0YQ/OHQr1VdNtYCuzujDuugixQgOP7+N/mAdFVgBjjqDZnTQW5VnPWU
eFAwGyf5J0frorJ1mm84Et1idCEi09vujmfr7YkJXmw7AgMBAAGjgaEwgZ4wCQYD
VR0TBAIwADAdBgNVHQ4EFgQUM2bBwMn1eUEH5m+ULzylNgw1pMcwUAYDVR0jBEkw
R4AUQ0pTCFP32apfgskTqL7owgZ2Hw6hGaQXMBUxEzARBgNVBAMMCnRlYW03NC1u
ZXSCFH1VtV1yXtS66Z7qgj9pZzH9/9YTMBMGA1UdJQQMMAoGCCsGAQUFBwMCMAsG
A1UdDwQEAwIHgDANBgkqhkiG9w0BAQsFAAOCAQEAsPK1fuXIQyUNqV4vMzPI7Z9m
CKo+j/cQLsje73RUmScMVKFl6PIxljxnSOQ7Yn0xMapASlXxXfhz6lJOjIq8Z4Gh
zsMJwIHdDhNFgnNwFHMPp1nUZGzx3r3uuj3pQJtNVBdstYoRDxOqoAMKzqHI5kJs
iCmOaXjNSEc1ylRUyJ57rSlfIf5GFkU+9axpsWn2tT6w6axDR5r+xiiazPnmndji
26526LYA0EUc1jFNsW/0kh2/Rcb4+kzrdVnFm6zcWSY9dfW0Cll326ENYQRB61wi
di6dkF1QKYXhTyPQ6tW3PqUQKKyiT2WFu80/Y9eTv5Q3Jko9i8K1vP+Q0/AKlg==
-----END CERTIFICATE-----
