Certificate:
    Data:
        Version: 3 (0x2)
        Serial Number:
            32:47:4d:d7:f6:5f:3a:12:89:f9:eb:54:f1:03:23:40
        Signature Algorithm: sha256WithRSAEncryption
        Issuer: CN=team47-net
        Validity
            Not Before: Aug 14 14:23:08 2023 GMT
            Not After : Jul 29 14:23:08 2026 GMT
        Subject: CN=team47-client
        Subject Public Key Info:
            Public Key Algorithm: rsaEncryption
                RSA Public-Key: (2048 bit)
                Modulus:
                    00:99:59:6d:cc:60:a7:ab:f8:aa:d1:0c:3d:fd:75:
                    4a:a7:12:62:c7:ca:01:1d:5d:0b:24:1a:ef:44:cc:
                    99:6e:3f:e7:3b:f6:87:5b:50:a3:c2:ba:9d:8a:6c:
                    64:df:69:52:d0:85:83:0b:99:03:e6:b3:81:f8:b5:
                    f0:ba:ab:79:14:05:b9:c2:ca:22:e3:0f:13:38:64:
                    a6:55:54:7a:9d:00:b0:bb:6b:d1:d7:21:ac:6b:71:
                    c0:b5:83:b8:21:6c:c7:50:14:c6:38:f7:2b:68:fc:
                    e2:81:73:59:5b:05:73:cc:3e:12:9f:73:6e:e8:39:
                    0e:10:1b:47:22:8f:15:aa:31:4f:46:77:cb:8a:e4:
                    23:2d:ae:97:61:95:74:3f:4e:5c:a0:e1:a6:5c:b5:
                    32:3b:b2:93:14:97:16:17:5b:87:3e:a2:8f:cf:e7:
                    e4:33:06:e1:08:17:4d:36:4d:35:b9:de:f5:2e:1d:
                    1b:71:1e:33:3c:f1:77:36:79:53:02:cf:ae:01:ab:
                    d3:44:70:09:6e:46:83:9f:a3:ea:07:16:be:b2:1a:
                    5d:ff:40:dc:50:67:db:aa:56:1a:c2:ca:53:dc:1a:
                    4a:8c:5c:c6:87:52:5f:33:f6:91:d5:50:d3:70:e1:
                    a0:c5:39:21:4b:0b:08:ea:ed:e2:a4:79:f5:64:08:
                    4a:d9
                Exponent: 65537 (0x10001)
        X509v3 extensions:
            X509v3 Basic Constraints: 
                CA:FALSE
            X509v3 Subject Key Identifier: 
                C2:67:1D:F8:1A:8E:7F:7D:19:00:7F:79:A0:6C:57:B1:1C:DD:4B:65
            X509v3 Authority Key Identifier: 
                keyid:22:3F:6F:BD:E6:11:55:E5:7E:77:47:C8:F3:94:19:09:2B:EE:7E:73
                DirName:/CN=team47-net
                serial:2B:64:AD:89:E5:2B:B5:96:80:CE:50:26:0E:DD:EC:AE:8B:72:A5:5D

            X509v3 Extended Key Usage: 
                TLS Web Client Authentication
            X509v3 Key Usage: 
                Digital Signature
    Signature Algorithm: sha256WithRSAEncryption
         24:31:c9:17:cf:6c:45:ef:8c:c5:2e:66:03:fa:d7:4b:d7:44:
         d4:aa:a5:ba:bd:38:94:23:e2:d9:76:b7:c7:95:c0:18:c3:ae:
         80:e2:16:f0:f3:6d:2e:e3:07:93:a4:7d:d3:56:c3:b2:40:50:
         03:5f:20:df:3b:12:0e:01:c3:b2:e6:a2:44:0a:5f:ed:7a:0e:
         b2:6e:3d:92:1e:99:40:8f:e9:77:74:70:9c:b1:ec:59:fa:bc:
         20:cc:65:1f:65:e4:52:9f:d5:9b:79:4b:7c:79:50:a7:87:34:
         aa:f9:75:b5:14:bc:1f:0e:48:85:09:e9:d7:e3:b0:8a:8e:d3:
         70:ef:05:b7:61:4d:0b:0a:f6:b4:b5:dc:b5:a2:fb:88:a2:1d:
         3e:db:87:c7:0d:c6:55:c4:eb:b8:58:f0:17:e5:8d:76:dd:30:
         e4:24:1a:c2:dd:b0:5c:9b:e7:01:be:67:90:c3:18:80:d0:12:
         c3:a8:b5:20:7a:a0:ab:0c:25:44:a9:8f:78:0f:5c:63:83:66:
         88:b7:2e:8e:f6:f1:ba:38:6f:d1:f0:ca:d9:f5:18:23:5d:3b:
         22:bc:86:1f:40:42:38:ce:45:e1:30:c0:73:db:26:dc:c3:68:
         8b:34:b9:78:ca:5e:55:df:37:d7:8d:e5:0b:96:65:2e:9d:cb:
         15:47:f9:1a
-----BEGIN CERTIFICATE-----
MIIDWTCCAkGgAwIBAgIQMkdN1/ZfOhKJ+etU8QMjQDANBgkqhkiG9w0BAQsFADAV
MRMwEQYDVQQDDAp0ZWFtNDctbmV0MB4XDTIzMDgxNDE0MjMwOFoXDTI2MDcyOTE0
MjMwOFowGDEWMBQGA1UEAwwNdGVhbTQ3LWNsaWVudDCCASIwDQYJKoZIhvcNAQEB
BQADggEPADCCAQoCggEBAJlZbcxgp6v4qtEMPf11SqcSYsfKAR1dCyQa70TMmW4/
5zv2h1tQo8K6nYpsZN9pUtCFgwuZA+azgfi18LqreRQFucLKIuMPEzhkplVUep0A
sLtr0dchrGtxwLWDuCFsx1AUxjj3K2j84oFzWVsFc8w+Ep9zbug5DhAbRyKPFaox
T0Z3y4rkIy2ul2GVdD9OXKDhply1MjuykxSXFhdbhz6ij8/n5DMG4QgXTTZNNbne
9S4dG3EeMzzxdzZ5UwLPrgGr00RwCW5Gg5+j6gcWvrIaXf9A3FBn26pWGsLKU9wa
SoxcxodSXzP2kdVQ03DhoMU5IUsLCOrt4qR59WQIStkCAwEAAaOBoTCBnjAJBgNV
HRMEAjAAMB0GA1UdDgQWBBTCZx34Go5/fRkAf3mgbFexHN1LZTBQBgNVHSMESTBH
gBQiP2+95hFV5X53R8jzlBkJK+5+c6EZpBcwFTETMBEGA1UEAwwKdGVhbTQ3LW5l
dIIUK2StieUrtZaAzlAmDt3srotypV0wEwYDVR0lBAwwCgYIKwYBBQUHAwIwCwYD
VR0PBAQDAgeAMA0GCSqGSIb3DQEBCwUAA4IBAQAkMckXz2xF74zFLmYD+tdL10TU
qqW6vTiUI+LZdrfHlcAYw66A4hbw820u4weTpH3TVsOyQFADXyDfOxIOAcOy5qJE
Cl/teg6ybj2SHplAj+l3dHCcsexZ+rwgzGUfZeRSn9WbeUt8eVCnhzSq+XW1FLwf
DkiFCenX47CKjtNw7wW3YU0LCva0tdy1ovuIoh0+24fHDcZVxOu4WPAX5Y123TDk
JBrC3bBcm+cBvmeQwxiA0BLDqLUgeqCrDCVEqY94D1xjg2aIty6O9vG6OG/R8MrZ
9RgjXTsivIYfQEI4zkXhMMBz2ybcw2iLNLl4yl5V3zfXjeULlmUuncsVR/ka
-----END CERTIFICATE-----
