Certificate:
    Data:
        Version: 3 (0x2)
        Serial Number:
            ad:79:d6:8a:3a:21:a1:50:d7:a3:d3:80:9d:db:97:c1
        Signature Algorithm: sha256WithRSAEncryption
        Issuer: CN=team47-net
        Validity
            Not Before: Aug 14 14:23:08 2023 GMT
            Not After : Jul 29 14:23:08 2026 GMT
        Subject: CN=team47-server
        Subject Public Key Info:
            Public Key Algorithm: rsaEncryption
                RSA Public-Key: (2048 bit)
                Modulus:
                    00:a3:6a:9f:a4:2b:60:0a:ca:f0:a4:46:73:80:63:
                    09:dc:c1:2d:89:a4:99:5a:e6:cf:e4:ae:1a:bb:ee:
                    db:04:1e:13:bd:3c:93:62:1e:c9:4a:da:d6:02:74:
                    fe:4e:76:2c:b4:2f:36:6e:ec:e5:e4:bb:6c:10:ec:
                    2a:33:5d:2d:89:ad:6d:ce:b7:0c:af:86:52:e3:22:
                    75:25:88:04:cf:f0:2a:0f:e6:ed:08:d8:2a:e9:5e:
                    4e:94:b9:11:24:33:12:14:10:5f:39:9f:78:0a:08:
                    3e:a2:3f:17:fa:65:85:4b:d3:53:71:46:ad:8e:5b:
                    fd:d7:84:2d:19:b4:ba:1e:84:04:66:d8:ca:54:9d:
                    4f:dd:d1:03:70:86:a9:17:f3:b2:71:12:7e:86:9c:
                    93:f3:ac:2c:7d:51:f1:02:e4:f5:46:d2:3e:bd:05:
                    46:1b:11:1e:f6:91:dc:04:a8:d9:5e:52:22:ae:a7:
                    15:5e:ee:1a:d9:bd:8a:4d:d2:7b:99:14:bb:05:d4:
                    69:5c:e7:9c:86:1e:95:d0:40:76:b8:76:af:cf:f1:
                    45:bc:eb:4d:7b:1b:88:78:15:be:27:07:e2:3e:6a:
                    f9:47:68:8b:21:d6:16:6e:c4:fd:06:7d:b8:8b:e1:
                    df:e6:4f:1f:d0:d2:e0:be:87:83:54:c5:e2:6c:34:
                    82:03
                Exponent: 65537 (0x10001)
        X509v3 extensions:
            X509v3 Basic Constraints: 
                CA:FALSE
            X509v3 Subject Key Identifier: 
                00:03:C5:99:9E:79:73:16:7A:D6:A9:E5:17:5B:3B:E0:BE:5D:2E:F4
            X509v3 Authority Key Identifier: 
                keyid:22:3F:6F:BD:E6:11:55:E5:7E:77:47:C8:F3:94:19:09:2B:EE:7E:73
                DirName:/CN=team47-net
                serial:2B:64:AD:89:E5:2B:B5:96:80:CE:50:26:0E:DD:EC:AE:8B:72:A5:5D

            X509v3 Extended Key Usage: 
                TLS Web Server Authentication
            X509v3 Key Usage: 
                Digital Signature, Key Encipherment
            X509v3 Subject Alternative Name: 
                DNS:team47-server
    Signature Algorithm: sha256WithRSAEncryption
         61:dc:ee:55:03:d7:b1:ca:fc:8c:dd:ce:06:1d:6c:d8:5c:99:
         0b:ec:c7:da:22:1a:b1:84:ef:d7:8f:5c:31:c9:fa:55:a4:79:
         8a:35:f1:7d:e8:c4:cb:f0:69:e7:00:74:af:73:88:3d:e0:18:
         bd:76:1c:47:7c:78:17:35:e8:3c:bc:ed:51:c0:50:ce:04:27:
         ae:de:b6:61:27:3c:41:ae:1d:7a:f3:a6:3c:37:24:af:63:39:
         44:9c:0a:19:05:d9:8b:26:0b:31:4d:46:b5:54:c7:3d:e9:17:
         d6:ca:72:7a:51:09:16:e0:4b:8d:9e:7c:3f:e5:90:c2:67:44:
         06:e5:57:d3:6b:76:3d:f6:a9:ca:93:27:40:f0:cc:cc:37:b0:
         3b:2c:8b:18:2c:f1:23:53:1e:a9:cd:bf:e5:16:47:e0:e7:5f:
         dd:06:17:95:32:de:a7:7d:2a:f4:40:87:c5:cc:b7:aa:6c:eb:
         8d:5c:1c:ec:14:a3:d3:e6:de:39:0c:80:3e:19:7e:7e:ac:69:
         9f:98:3d:45:07:91:0d:36:03:97:0b:b5:33:03:7d:2b:c0:62:
         76:78:c5:66:e8:7a:1f:54:05:16:30:b4:9b:23:b2:a0:79:cf:
         14:b2:27:53:21:40:28:db:5f:b6:83:75:df:95:95:7f:a9:01:
         ee:8e:f3:d6
-----BEGIN CERTIFICATE-----
MIIDdDCCAlygAwIBAgIRAK151oo6IaFQ16PTgJ3bl8EwDQYJKoZIhvcNAQELBQAw
FTETMBEGA1UEAwwKdGVhbTQ3LW5ldDAeFw0yMzA4MTQxNDIzMDhaFw0yNjA3Mjkx
NDIzMDhaMBgxFjAUBgNVBAMMDXRlYW00Ny1zZXJ2ZXIwggEiMA0GCSqGSIb3DQEB
AQUAA4IBDwAwggEKAoIBAQCjap+kK2AKyvCkRnOAYwncwS2JpJla5s/krhq77tsE
HhO9PJNiHslK2tYCdP5Odiy0LzZu7OXku2wQ7CozXS2JrW3OtwyvhlLjInUliATP
8CoP5u0I2CrpXk6UuREkMxIUEF85n3gKCD6iPxf6ZYVL01NxRq2OW/3XhC0ZtLoe
hARm2MpUnU/d0QNwhqkX87JxEn6GnJPzrCx9UfEC5PVG0j69BUYbER72kdwEqNle
UiKupxVe7hrZvYpN0nuZFLsF1Glc55yGHpXQQHa4dq/P8UW86017G4h4Fb4nB+I+
avlHaIsh1hZuxP0GfbiL4d/mTx/Q0uC+h4NUxeJsNIIDAgMBAAGjgbswgbgwCQYD
VR0TBAIwADAdBgNVHQ4EFgQUAAPFmZ55cxZ61qnlF1s74L5dLvQwUAYDVR0jBEkw
R4AUIj9vveYRVeV+d0fI85QZCSvufnOhGaQXMBUxEzARBgNVBAMMCnRlYW00Ny1u
ZXSCFCtkrYnlK7WWgM5QJg7d7K6LcqVdMBMGA1UdJQQMMAoGCCsGAQUFBwMBMAsG
A1UdDwQEAwIFoDAYBgNVHREEETAPgg10ZWFtNDctc2VydmVyMA0GCSqGSIb3DQEB
CwUAA4IBAQBh3O5VA9exyvyM3c4GHWzYXJkL7MfaIhqxhO/Xj1wxyfpVpHmKNfF9
6MTL8GnnAHSvc4g94Bi9dhxHfHgXNeg8vO1RwFDOBCeu3rZhJzxBrh1686Y8NySv
YzlEnAoZBdmLJgsxTUa1VMc96RfWynJ6UQkW4EuNnnw/5ZDCZ0QG5VfTa3Y99qnK
kydA8MzMN7A7LIsYLPEjUx6pzb/lFkfg51/dBheVMt6nfSr0QIfFzLeqbOuNXBzs
FKPT5t45DIA+GX5+rGmfmD1FB5ENNgOXC7UzA30rwGJ2eMVm6HofVAUWMLSbI7Kg
ec8UsidTIUAo21+2g3XflZV/qQHujvPW
-----END CERTIFICATE-----
