Certificate:
    Data:
        Version: 3 (0x2)
        Serial Number:
            69:42:1c:a8:b0:0e:16:aa:31:63:8f:ad:c4:14:4c:3f
        Signature Algorithm: sha256WithRSAEncryption
        Issuer: CN=team281-net
        Validity
            Not Before: Aug 14 14:28:02 2023 GMT
            Not After : Jul 29 14:28:02 2026 GMT
        Subject: CN=team281-server
        Subject Public Key Info:
            Public Key Algorithm: rsaEncryption
                RSA Public-Key: (2048 bit)
                Modulus:
                    00:bd:4d:ea:f9:40:6e:9b:f8:a6:9f:64:0b:0d:c4:
                    8d:ac:2d:df:80:18:7a:8f:04:26:f7:28:09:47:95:
                    8d:01:2e:cd:55:a2:a3:77:01:88:ab:b6:3e:1b:af:
                    0f:1a:3c:30:d2:c9:b7:b1:43:2a:33:80:ad:e1:aa:
                    d0:bf:a5:48:2a:e2:2a:e3:56:44:36:a5:d7:f7:f8:
                    6f:70:4d:cf:e2:10:90:f1:15:7e:12:c8:37:26:3b:
                    96:a3:68:76:71:6d:7f:23:06:39:e6:42:9f:03:4f:
                    39:82:b0:90:dd:a3:83:78:e2:b2:17:fb:55:c0:db:
                    89:47:7e:0c:a1:e4:e4:7a:9d:ea:1e:43:57:39:05:
                    53:4f:01:e6:72:96:b0:7e:27:0a:06:f8:bf:09:44:
                    9d:35:4b:5f:7e:3b:d1:3f:76:40:6d:1e:7f:01:bd:
                    14:7f:7e:58:9e:5f:55:13:ff:eb:d9:ed:bd:cb:17:
                    0e:b0:e6:54:d5:a6:75:5f:8b:0c:aa:6e:51:f3:60:
                    9e:7c:52:e0:cf:85:8b:25:9e:7b:9d:50:79:cf:03:
                    9c:23:d7:5a:ce:f1:70:86:f1:ef:77:cd:77:60:75:
                    50:01:1e:ba:11:75:17:44:64:c3:82:96:33:92:ff:
                    c3:88:b3:ae:d1:28:f4:7a:70:fc:62:c8:90:58:b2:
                    bb:c5
                Exponent: 65537 (0x10001)
        X509v3 extensions:
            X509v3 Basic Constraints: 
                CA:FALSE
            X509v3 Subject Key Identifier: 
                84:EF:7D:71:35:00:A9:41:0A:2F:51:39:88:7F:F5:C2:1B:3E:A1:90
            X509v3 Authority Key Identifier: 
                keyid:8E:33:D2:B7:39:C8:48:2E:40:F6:9A:E3:A3:14:B1:6B:2A:92:E9:4D
                DirName:/CN=team281-net
                serial:40:A3:46:97:2D:3B:DC:BB:2C:BC:E0:CB:AA:DE:0C:E2:BE:49:72:DB

            X509v3 Extended Key Usage: 
                TLS Web Server Authentication
            X509v3 Key Usage: 
                Digital Signature, Key Encipherment
            X509v3 Subject Alternative Name: 
                DNS:team281-server
    Signature Algorithm: sha256WithRSAEncryption
         01:66:25:1a:b4:61:be:86:a5:37:5e:26:f6:de:be:eb:7e:6c:
         1f:48:c2:77:c1:75:b5:f0:58:37:0e:c7:80:0a:50:39:cc:72:
         67:20:52:3b:b0:a7:b4:75:2c:2b:06:de:a4:d9:4a:23:a4:70:
         ce:f4:10:62:2e:4f:12:94:19:c8:b3:e7:e9:1b:b6:24:d5:3c:
         36:df:74:3d:59:c9:fb:9f:fa:35:1a:c2:13:92:e4:1d:d7:e8:
         02:0b:1a:d7:97:c5:35:43:03:bc:a1:47:77:3f:95:99:95:76:
         04:db:d8:04:87:93:77:f1:1e:b0:86:1f:7e:e4:f8:99:39:28:
         48:ce:ca:ae:e3:f7:42:5d:74:a3:b1:e3:76:88:68:f4:91:e8:
         f6:31:dc:fa:6e:25:87:61:8c:dd:aa:af:08:a6:d4:57:c0:02:
         5c:74:18:99:d9:e8:e8:f4:45:28:bf:1c:9b:f5:27:9b:cc:67:
         f7:c7:47:dd:47:8e:98:4f:25:6d:ce:32:6b:cf:98:a1:ea:6b:
         fe:87:ed:70:dd:82:c5:5f:36:8a:46:72:c7:40:c3:9f:03:f6:
         31:82:60:fe:f1:b3:46:50:62:4f:43:5e:09:d9:e1:e4:d9:ae:
         76:58:2a:3b:12:46:85:8e:25:aa:9a:ea:65:99:c4:bf:d0:04:
         87:74:db:b0
-----BEGIN CERTIFICATE-----
MIIDdzCCAl+gAwIBAgIQaUIcqLAOFqoxY4+txBRMPzANBgkqhkiG9w0BAQsFADAW
MRQwEgYDVQQDDAt0ZWFtMjgxLW5ldDAeFw0yMzA4MTQxNDI4MDJaFw0yNjA3Mjkx
NDI4MDJaMBkxFzAVBgNVBAMMDnRlYW0yODEtc2VydmVyMIIBIjANBgkqhkiG9w0B
AQEFAAOCAQ8AMIIBCgKCAQEAvU3q+UBum/imn2QLDcSNrC3fgBh6jwQm9ygJR5WN
AS7NVaKjdwGIq7Y+G68PGjww0sm3sUMqM4Ct4arQv6VIKuIq41ZENqXX9/hvcE3P
4hCQ8RV+Esg3JjuWo2h2cW1/IwY55kKfA085grCQ3aODeOKyF/tVwNuJR34MoeTk
ep3qHkNXOQVTTwHmcpawficKBvi/CUSdNUtffjvRP3ZAbR5/Ab0Uf35Ynl9VE//r
2e29yxcOsOZU1aZ1X4sMqm5R82CefFLgz4WLJZ57nVB5zwOcI9dazvFwhvHvd813
YHVQAR66EXUXRGTDgpYzkv/DiLOu0Sj0enD8YsiQWLK7xQIDAQABo4G9MIG6MAkG
A1UdEwQCMAAwHQYDVR0OBBYEFITvfXE1AKlBCi9ROYh/9cIbPqGQMFEGA1UdIwRK
MEiAFI4z0rc5yEguQPaa46MUsWsqkulNoRqkGDAWMRQwEgYDVQQDDAt0ZWFtMjgx
LW5ldIIUQKNGly073LssvODLqt4M4r5JctswEwYDVR0lBAwwCgYIKwYBBQUHAwEw
CwYDVR0PBAQDAgWgMBkGA1UdEQQSMBCCDnRlYW0yODEtc2VydmVyMA0GCSqGSIb3
DQEBCwUAA4IBAQABZiUatGG+hqU3Xib23r7rfmwfSMJ3wXW18Fg3DseAClA5zHJn
IFI7sKe0dSwrBt6k2UojpHDO9BBiLk8SlBnIs+fpG7Yk1Tw233Q9Wcn7n/o1GsIT
kuQd1+gCCxrXl8U1QwO8oUd3P5WZlXYE29gEh5N38R6whh9+5PiZOShIzsqu4/dC
XXSjseN2iGj0kej2Mdz6biWHYYzdqq8IptRXwAJcdBiZ2ejo9EUovxyb9SebzGf3
x0fdR46YTyVtzjJrz5ih6mv+h+1w3YLFXzaKRnLHQMOfA/YxgmD+8bNGUGJPQ14J
2eHk2a52WCo7EkaFjiWqmuplmcS/0ASHdNuw
-----END CERTIFICATE-----
