Certificate:
    Data:
        Version: 3 (0x2)
        Serial Number:
            f9:ad:d3:a5:f0:6e:1d:24:62:52:18:29:1d:82:81:1d
        Signature Algorithm: sha256WithRSAEncryption
        Issuer: CN=team281-net
        Validity
            Not Before: Aug 14 14:28:02 2023 GMT
            Not After : Jul 29 14:28:02 2026 GMT
        Subject: CN=team281-client
        Subject Public Key Info:
            Public Key Algorithm: rsaEncryption
                RSA Public-Key: (2048 bit)
                Modulus:
                    00:c2:6d:7c:4d:85:88:e4:50:bd:9c:cf:70:22:8a:
                    28:97:b3:cc:48:f9:b1:c4:f3:f0:de:3b:1f:47:dc:
                    b4:cd:e4:2d:8f:0b:52:78:7c:04:11:69:46:bf:85:
                    a0:09:75:03:06:43:21:1a:49:ed:20:98:ff:83:f3:
                    b7:0a:22:f8:80:07:12:dd:a2:ac:cc:10:b6:90:00:
                    24:4c:93:fd:54:3c:a1:1f:eb:66:cf:d2:9e:5d:36:
                    19:ce:3c:23:8b:47:45:9d:88:92:af:c5:5a:ab:c9:
                    47:eb:7e:41:e9:eb:a0:ac:a4:b7:29:17:0e:3b:ff:
                    b2:46:96:52:66:d6:ce:0b:72:87:1b:2c:a5:e4:45:
                    0a:a9:f9:ef:b0:42:90:0c:93:81:76:22:42:25:76:
                    dc:24:d2:de:24:5e:79:02:f4:cb:a3:89:6a:20:eb:
                    6e:22:55:8e:86:81:04:05:0f:f3:b8:8f:8c:b9:e2:
                    eb:49:25:b2:89:14:1e:f1:fc:62:9e:33:b7:13:4a:
                    fa:46:b9:cd:cb:5e:f9:a4:66:9e:71:36:67:c2:cc:
                    bc:06:b2:06:d3:39:35:0a:84:69:0e:70:75:c5:5f:
                    3b:47:55:6f:b1:02:ad:3b:ef:df:39:82:db:12:cc:
                    94:8e:79:d3:e4:54:7a:e0:c4:9d:06:da:97:1d:b0:
                    56:51
                Exponent: 65537 (0x10001)
        X509v3 extensions:
            X509v3 Basic Constraints: 
                CA:FALSE
            X509v3 Subject Key Identifier: 
                D3:11:B1:1B:01:CB:F6:20:1E:76:E6:D0:51:82:18:31:55:1E:0E:00
            X509v3 Authority Key Identifier: 
                keyid:8E:33:D2:B7:39:C8:48:2E:40:F6:9A:E3:A3:14:B1:6B:2A:92:E9:4D
                DirName:/CN=team281-net
                serial:40:A3:46:97:2D:3B:DC:BB:2C:BC:E0:CB:AA:DE:0C:E2:BE:49:72:DB

            X509v3 Extended Key Usage: 
                TLS Web Client Authentication
            X509v3 Key Usage: 
                Digital Signature
    Signature Algorithm: sha256WithRSAEncryption
         03:33:ee:1c:06:e9:96:27:18:8d:1a:32:a7:a8:1e:49:4d:02:
         d4:fe:11:69:44:df:44:6e:55:c2:3e:7a:d5:33:20:69:ac:4b:
         6d:7b:ce:9a:68:2e:b1:88:34:55:58:94:e6:5f:2c:0e:15:6c:
         2d:6e:eb:81:74:6f:98:07:56:68:2c:77:e9:41:3f:44:d2:90:
         e8:ef:fd:4b:6a:be:d4:a9:a1:82:3f:4f:03:92:97:68:60:6c:
         42:4e:33:a4:68:b3:5a:51:24:28:4c:7e:e2:60:a8:d1:e7:2a:
         fe:a0:e0:0d:fc:c0:8a:92:b7:e0:1a:46:fd:cd:d7:b8:7f:4a:
         00:36:f3:da:03:fe:28:ce:29:de:e1:66:77:7b:09:ec:9f:24:
         3a:37:f1:2f:29:8e:d6:dc:55:c1:a0:eb:1f:b4:03:13:77:dc:
         c5:3b:3b:30:06:b3:ba:30:60:f4:ae:c4:d9:1f:99:23:b6:d0:
         65:a9:43:64:c0:38:b8:4a:dd:fb:49:e9:77:f8:1e:be:8c:87:
         53:b4:15:fe:2e:85:20:3b:1d:a2:cb:df:14:46:46:8f:80:e6:
         d7:f4:99:31:a8:dd:bb:77:6d:1a:3a:b9:81:64:6f:04:fc:6d:
         bd:cc:db:23:96:4d:48:33:ea:6d:6a:81:3b:29:8a:99:0c:eb:
         8b:c2:60:bb
-----BEGIN CERTIFICATE-----
MIIDXTCCAkWgAwIBAgIRAPmt06Xwbh0kYlIYKR2CgR0wDQYJKoZIhvcNAQELBQAw
FjEUMBIGA1UEAwwLdGVhbTI4MS1uZXQwHhcNMjMwODE0MTQyODAyWhcNMjYwNzI5
MTQyODAyWjAZMRcwFQYDVQQDDA50ZWFtMjgxLWNsaWVudDCCASIwDQYJKoZIhvcN
AQEBBQADggEPADCCAQoCggEBAMJtfE2FiORQvZzPcCKKKJezzEj5scTz8N47H0fc
tM3kLY8LUnh8BBFpRr+FoAl1AwZDIRpJ7SCY/4Pztwoi+IAHEt2irMwQtpAAJEyT
/VQ8oR/rZs/Snl02Gc48I4tHRZ2Ikq/FWqvJR+t+QenroKyktykXDjv/skaWUmbW
zgtyhxsspeRFCqn577BCkAyTgXYiQiV23CTS3iReeQL0y6OJaiDrbiJVjoaBBAUP
87iPjLni60klsokUHvH8Yp4ztxNK+ka5zcte+aRmnnE2Z8LMvAayBtM5NQqEaQ5w
dcVfO0dVb7ECrTvv3zmC2xLMlI550+RUeuDEnQbalx2wVlECAwEAAaOBojCBnzAJ
BgNVHRMEAjAAMB0GA1UdDgQWBBTTEbEbAcv2IB525tBRghgxVR4OADBRBgNVHSME
SjBIgBSOM9K3OchILkD2muOjFLFrKpLpTaEapBgwFjEUMBIGA1UEAwwLdGVhbTI4
MS1uZXSCFECjRpctO9y7LLzgy6reDOK+SXLbMBMGA1UdJQQMMAoGCCsGAQUFBwMC
MAsGA1UdDwQEAwIHgDANBgkqhkiG9w0BAQsFAAOCAQEAAzPuHAbplicYjRoyp6ge
SU0C1P4RaUTfRG5Vwj561TMgaaxLbXvOmmgusYg0VViU5l8sDhVsLW7rgXRvmAdW
aCx36UE/RNKQ6O/9S2q+1Kmhgj9PA5KXaGBsQk4zpGizWlEkKEx+4mCo0ecq/qDg
DfzAipK34BpG/c3XuH9KADbz2gP+KM4p3uFmd3sJ7J8kOjfxLymO1txVwaDrH7QD
E3fcxTs7MAazujBg9K7E2R+ZI7bQZalDZMA4uErd+0npd/gevoyHU7QV/i6FIDsd
osvfFEZGj4Dm1/SZMajdu3dtGjq5gWRvBPxtvczbI5ZNSDPqbWqBOymKmQzri8Jg
uw==
-----END CERTIFICATE-----
