Certificate:
    Data:
        Version: 3 (0x2)
        Serial Number:
            72:61:23:99:36:5a:9e:4a:e1:d3:5b:cc:bc:41:ca:5a
        Signature Algorithm: sha256WithRSAEncryption
        Issuer: CN=team139-net
        Validity
            Not Before: Aug 14 14:25:08 2023 GMT
            Not After : Jul 29 14:25:08 2026 GMT
        Subject: CN=team139-client
        Subject Public Key Info:
            Public Key Algorithm: rsaEncryption
                RSA Public-Key: (2048 bit)
                Modulus:
                    00:a1:48:b5:a1:90:35:86:81:0e:ef:38:82:8e:f8:
                    4f:2c:49:a3:5e:23:d5:89:39:31:26:b7:d3:e2:68:
                    3d:2e:47:da:e9:fc:38:85:5b:f0:03:8d:f9:47:14:
                    36:61:e5:3b:8b:70:00:11:ed:39:d7:40:8f:30:af:
                    70:bd:89:ef:07:4c:de:e7:e6:02:c4:ef:00:8c:e1:
                    44:b9:f9:0a:28:02:c7:cf:e5:72:c3:bc:ef:0c:56:
                    43:c4:d3:31:62:42:9c:3d:25:75:41:62:61:3c:61:
                    ae:db:cf:06:91:df:f8:b9:e6:20:b9:63:8d:94:8e:
                    40:b7:4f:8c:46:af:69:1f:d4:db:22:2c:a8:98:25:
                    97:f0:a3:50:f8:77:2e:60:b4:00:42:3a:7d:97:a3:
                    bb:ca:e9:7f:6a:62:ef:d0:92:c4:a8:a0:c7:94:c4:
                    54:44:f8:04:a4:61:73:0e:39:95:3c:73:b2:44:62:
                    74:02:32:66:2b:0f:22:a6:b9:aa:67:cb:98:6d:03:
                    e0:c9:bb:0f:2c:c2:85:44:30:57:6a:9d:e2:cb:97:
                    4a:c5:83:7a:cc:ac:e7:03:4a:d1:83:2b:f6:5a:82:
                    80:45:0c:79:73:9d:89:c6:e6:fc:50:e0:8f:db:5c:
                    bc:2a:cb:3b:57:1f:3f:09:bd:8c:cc:e2:07:61:47:
                    1d:25
                Exponent: 65537 (0x10001)
        X509v3 extensions:
            X509v3 Basic Constraints: 
                CA:FALSE
            X509v3 Subject Key Identifier: 
                AB:FC:17:3D:2E:D2:4D:30:3C:A4:D2:DE:A3:33:54:2C:D5:58:92:F4
            X509v3 Authority Key Identifier: 
                keyid:D9:69:1A:6D:BA:C0:76:28:24:2F:CB:76:40:0F:24:47:C7:8F:96:36
                DirName:/CN=team139-net
                serial:7A:9F:84:EB:7C:D8:B3:DD:05:E4:1A:BD:66:0B:C9:D2:93:AE:B1:31

            X509v3 Extended Key Usage: 
                TLS Web Client Authentication
            X509v3 Key Usage: 
                Digital Signature
    Signature Algorithm: sha256WithRSAEncryption
         0e:14:d6:12:5f:e9:cf:0e:bc:82:6d:47:1d:60:b3:b9:50:8b:
         1c:06:06:c9:cb:59:f0:b4:ae:fd:7d:4b:9d:cf:56:ab:93:e5:
         51:06:56:6e:1e:ee:0a:c0:2f:a4:a6:9f:22:ca:f8:90:7f:96:
         f4:45:13:f9:73:09:65:76:a2:52:c8:5f:a2:7a:ac:ab:53:21:
         ad:e2:ef:de:54:41:50:e0:80:e3:72:d4:95:66:99:63:ac:9a:
         74:be:16:00:7c:7f:07:11:0b:df:a3:32:68:5e:b6:33:16:02:
         04:44:73:3a:bb:4b:60:9a:92:41:20:7d:03:4e:db:a7:b5:24:
         8f:24:9f:ae:12:fc:e1:8f:61:0e:03:0c:9f:09:52:f8:af:80:
         c1:b7:4b:64:cc:bc:b8:45:1c:89:18:e5:00:76:49:89:f9:d4:
         b0:71:34:83:41:2d:59:c4:93:65:2c:3b:67:3f:ac:a0:5d:cc:
         58:58:c6:27:86:7e:87:e2:58:4d:76:97:9e:cc:7e:fd:85:bb:
         58:70:c9:bf:49:aa:a2:92:8d:ac:89:d3:d7:91:3f:e1:8e:be:
         61:0e:26:10:d4:7f:81:9e:47:2d:4d:c6:91:2a:77:2a:fb:73:
         e1:61:42:76:58:6e:d4:70:a7:37:27:f6:1b:b7:69:e0:5e:07:
         e2:e8:d3:11
-----BEGIN CERTIFICATE-----
MIIDXDCCAkSgAwIBAgIQcmEjmTZankrh01vMvEHKWjANBgkqhkiG9w0BAQsFADAW
MRQwEgYDVQQDDAt0ZWFtMTM5LW5ldDAeFw0yMzA4MTQxNDI1MDhaFw0yNjA3Mjkx
NDI1MDhaMBkxFzAVBgNVBAMMDnRlYW0xMzktY2xpZW50MIIBIjANBgkqhkiG9w0B
AQEFAAOCAQ8AMIIBCgKCAQEAoUi1oZA1hoEO7ziCjvhPLEmjXiPViTkxJrfT4mg9
Lkfa6fw4hVvwA435RxQ2YeU7i3AAEe0510CPMK9wvYnvB0ze5+YCxO8AjOFEufkK
KALHz+Vyw7zvDFZDxNMxYkKcPSV1QWJhPGGu288Gkd/4ueYguWONlI5At0+MRq9p
H9TbIiyomCWX8KNQ+HcuYLQAQjp9l6O7yul/amLv0JLEqKDHlMRURPgEpGFzDjmV
PHOyRGJ0AjJmKw8iprmqZ8uYbQPgybsPLMKFRDBXap3iy5dKxYN6zKznA0rRgyv2
WoKARQx5c52Jxub8UOCP21y8Kss7Vx8/Cb2MzOIHYUcdJQIDAQABo4GiMIGfMAkG
A1UdEwQCMAAwHQYDVR0OBBYEFKv8Fz0u0k0wPKTS3qMzVCzVWJL0MFEGA1UdIwRK
MEiAFNlpGm26wHYoJC/LdkAPJEfHj5Y2oRqkGDAWMRQwEgYDVQQDDAt0ZWFtMTM5
LW5ldIIUep+E63zYs90F5Bq9ZgvJ0pOusTEwEwYDVR0lBAwwCgYIKwYBBQUHAwIw
CwYDVR0PBAQDAgeAMA0GCSqGSIb3DQEBCwUAA4IBAQAOFNYSX+nPDryCbUcdYLO5
UIscBgbJy1nwtK79fUudz1ark+VRBlZuHu4KwC+kpp8iyviQf5b0RRP5cwlldqJS
yF+ieqyrUyGt4u/eVEFQ4IDjctSVZpljrJp0vhYAfH8HEQvfozJoXrYzFgIERHM6
u0tgmpJBIH0DTtuntSSPJJ+uEvzhj2EOAwyfCVL4r4DBt0tkzLy4RRyJGOUAdkmJ
+dSwcTSDQS1ZxJNlLDtnP6ygXcxYWMYnhn6H4lhNdpeezH79hbtYcMm/Saqiko2s
idPXkT/hjr5hDiYQ1H+BnkctTcaRKncq+3PhYUJ2WG7UcKc3J/Ybt2ngXgfi6NMR
-----END CERTIFICATE-----
