Certificate:
    Data:
        Version: 3 (0x2)
        Serial Number:
            7e:e8:f0:16:15:a0:20:3a:71:b6:f1:a5:3d:5d:10:65
        Signature Algorithm: sha256WithRSAEncryption
        Issuer: CN=team278-net
        Validity
            Not Before: Aug 14 14:27:59 2023 GMT
            Not After : Jul 29 14:27:59 2026 GMT
        Subject: CN=team278-client
        Subject Public Key Info:
            Public Key Algorithm: rsaEncryption
                RSA Public-Key: (2048 bit)
                Modulus:
                    00:ce:8b:2c:0d:18:34:b6:60:cd:88:40:62:56:83:
                    82:e9:8f:55:8c:fd:2f:14:1c:8d:19:e6:3c:6a:6e:
                    a5:c3:4c:0e:2f:47:34:5b:2c:42:76:d7:87:3f:9a:
                    17:11:37:3d:25:f7:b6:80:21:9e:77:8a:e9:b9:7c:
                    c8:64:71:87:f8:d2:f2:89:48:c1:4f:39:59:0f:ee:
                    03:37:71:d8:25:ce:5c:9f:9d:29:4c:67:c6:a6:2d:
                    e8:46:09:13:33:38:0c:39:a9:8e:ee:1d:08:a9:3f:
                    59:3f:97:9a:d7:36:7e:85:24:9c:53:19:79:0f:67:
                    c5:24:5c:60:3f:6b:5e:6f:37:60:4e:01:43:23:2d:
                    9c:31:b3:19:e2:2c:76:a6:e2:79:58:00:c1:62:0b:
                    a3:c1:8d:6a:aa:5c:a4:42:17:0f:70:b4:c3:04:3f:
                    68:ba:5a:53:28:03:f7:93:d3:57:34:64:b7:9e:cb:
                    c2:79:c9:cc:0d:3b:b5:0c:09:db:50:9b:c6:47:55:
                    fe:86:7d:9e:ac:04:40:af:cd:f3:e6:11:ca:e6:ba:
                    d4:ac:0d:20:f1:93:37:a6:e2:24:ea:e8:9e:c3:62:
                    13:86:e9:2d:f3:f2:12:04:6a:51:43:7c:bf:eb:ee:
                    0a:5d:77:e4:17:9c:14:aa:d2:45:79:5a:66:62:98:
                    55:99
                Exponent: 65537 (0x10001)
        X509v3 extensions:
            X509v3 Basic Constraints: 
                CA:FALSE
            X509v3 Subject Key Identifier: 
                9C:28:12:92:F8:65:AE:0F:FC:41:B7:33:47:3E:60:DD:38:A7:7D:08
            X509v3 Authority Key Identifier: 
                keyid:3F:B3:AB:49:8E:9C:0E:D4:2D:D6:B6:D5:3B:7A:55:18:BF:99:C6:37
                DirName:/CN=team278-net
                serial:52:B7:EA:79:FB:B6:5E:12:42:36:AC:09:FF:F6:72:0C:8E:3E:74:B8

            X509v3 Extended Key Usage: 
                TLS Web Client Authentication
            X509v3 Key Usage: 
                Digital Signature
    Signature Algorithm: sha256WithRSAEncryption
         21:79:2f:e6:24:26:90:fc:7d:06:22:28:c4:64:18:3c:19:0e:
         68:2e:27:31:7b:07:62:94:6c:90:58:3c:c0:dc:f1:09:f3:9f:
         fc:ca:55:8c:91:e7:10:a5:e9:44:2b:1b:d9:fc:c4:27:e8:dd:
         8b:6d:69:28:b3:a2:58:ea:32:b7:a0:b1:60:ef:6b:0c:f5:41:
         95:b9:8d:20:c4:89:5a:9d:8a:6d:b4:ad:d7:53:e3:2c:f3:d0:
         c6:ef:04:99:c9:05:fe:70:54:23:e8:9c:e7:59:0d:fc:0f:18:
         1c:a8:ee:78:c0:24:b8:3e:1e:97:3f:78:74:54:29:09:f0:14:
         49:20:87:8e:c9:ad:05:82:78:5f:9a:ce:ce:15:93:c6:9f:40:
         a0:ed:3d:fc:0f:1d:ea:6f:6b:16:d7:38:0e:51:3f:e9:05:7d:
         8c:a9:00:c8:e1:84:a6:55:f7:b1:a1:1e:7e:33:7c:a0:67:5b:
         69:be:3e:5c:63:f9:e8:b9:87:38:fc:af:83:ee:64:91:47:c6:
         96:31:2c:71:1f:c6:20:56:ba:af:1d:ab:16:a7:77:a8:f8:69:
         fb:25:72:37:13:5e:a5:2d:8d:5f:3c:9b:5d:2f:01:2d:c3:05:
         3b:98:bb:6f:fc:eb:15:9a:c0:a6:58:37:9b:10:b8:b9:e3:ab:
         7f:e2:cd:d1
-----BEGIN CERTIFICATE-----
MIIDXDCCAkSgAwIBAgIQfujwFhWgIDpxtvGlPV0QZTANBgkqhkiG9w0BAQsFADAW
MRQwEgYDVQQDDAt0ZWFtMjc4LW5ldDAeFw0yMzA4MTQxNDI3NTlaFw0yNjA3Mjkx
NDI3NTlaMBkxFzAVBgNVBAMMDnRlYW0yNzgtY2xpZW50MIIBIjANBgkqhkiG9w0B
AQEFAAOCAQ8AMIIBCgKCAQEAzossDRg0tmDNiEBiVoOC6Y9VjP0vFByNGeY8am6l
w0wOL0c0WyxCdteHP5oXETc9Jfe2gCGed4rpuXzIZHGH+NLyiUjBTzlZD+4DN3HY
Jc5cn50pTGfGpi3oRgkTMzgMOamO7h0IqT9ZP5ea1zZ+hSScUxl5D2fFJFxgP2te
bzdgTgFDIy2cMbMZ4ix2puJ5WADBYgujwY1qqlykQhcPcLTDBD9oulpTKAP3k9NX
NGS3nsvCecnMDTu1DAnbUJvGR1X+hn2erARAr83z5hHK5rrUrA0g8ZM3puIk6uie
w2IThukt8/ISBGpRQ3y/6+4KXXfkF5wUqtJFeVpmYphVmQIDAQABo4GiMIGfMAkG
A1UdEwQCMAAwHQYDVR0OBBYEFJwoEpL4Za4P/EG3M0c+YN04p30IMFEGA1UdIwRK
MEiAFD+zq0mOnA7ULda21Tt6VRi/mcY3oRqkGDAWMRQwEgYDVQQDDAt0ZWFtMjc4
LW5ldIIUUrfqefu2XhJCNqwJ//ZyDI4+dLgwEwYDVR0lBAwwCgYIKwYBBQUHAwIw
CwYDVR0PBAQDAgeAMA0GCSqGSIb3DQEBCwUAA4IBAQAheS/mJCaQ/H0GIijEZBg8
GQ5oLicxewdilGyQWDzA3PEJ85/8ylWMkecQpelEKxvZ/MQn6N2LbWkos6JY6jK3
oLFg72sM9UGVuY0gxIlanYpttK3XU+Ms89DG7wSZyQX+cFQj6JznWQ38DxgcqO54
wCS4Ph6XP3h0VCkJ8BRJIIeOya0Fgnhfms7OFZPGn0Cg7T38Dx3qb2sW1zgOUT/p
BX2MqQDI4YSmVfexoR5+M3ygZ1tpvj5cY/nouYc4/K+D7mSRR8aWMSxxH8YgVrqv
HasWp3eo+Gn7JXI3E16lLY1fPJtdLwEtwwU7mLtv/OsVmsCmWDebELi546t/4s3R
-----END CERTIFICATE-----
