Certificate:
    Data:
        Version: 3 (0x2)
        Serial Number:
            2e:9e:60:44:6f:23:1b:9c:e2:fd:85:9d:48:da:0b:15
        Signature Algorithm: sha256WithRSAEncryption
        Issuer: CN=team17-net
        Validity
            Not Before: Aug 14 14:22:22 2023 GMT
            Not After : Jul 29 14:22:22 2026 GMT
        Subject: CN=team17-client
        Subject Public Key Info:
            Public Key Algorithm: rsaEncryption
                RSA Public-Key: (2048 bit)
                Modulus:
                    00:c2:71:67:5a:1f:79:53:3d:6d:ed:ce:73:3b:a6:
                    f7:65:0c:b7:d1:f5:c8:5a:54:2b:77:8b:23:b2:c1:
                    2e:ec:f7:a4:6f:a4:41:4d:4a:d8:33:22:3c:1a:52:
                    18:bd:4f:00:6b:e6:df:9e:1b:d9:3f:17:7e:2a:e8:
                    2b:d2:63:07:f2:49:0e:6f:c8:e7:40:3e:a4:92:20:
                    bc:ec:ee:45:f3:aa:4a:e7:07:b8:dc:ff:52:b2:91:
                    b3:d9:07:91:5e:92:3c:53:68:cf:45:81:45:ed:81:
                    16:f8:70:c0:85:8a:de:e0:67:7e:3e:17:69:75:8e:
                    a5:72:94:5d:22:bf:ee:61:f2:ef:be:b6:47:c4:57:
                    0d:6a:c8:78:3e:aa:b1:0e:1d:57:c9:16:45:52:db:
                    f3:4f:2c:f5:34:65:e9:98:7f:e0:0e:1f:69:da:2d:
                    fa:f3:d5:0a:cd:52:86:4c:6c:5e:c3:c1:da:7f:1f:
                    c0:da:ae:eb:1b:49:07:ad:c9:f9:ab:3b:ce:a3:96:
                    fb:e6:33:ca:19:c9:d5:0a:db:e5:46:0b:d5:00:9e:
                    df:81:48:64:20:12:0b:55:fe:ac:e5:be:6e:54:0d:
                    0f:7d:4e:0a:b8:62:04:cf:bf:45:73:c1:b0:85:6d:
                    cb:6a:ff:b4:5f:af:c9:f6:f2:c8:9b:14:b3:be:08:
                    4a:25
                Exponent: 65537 (0x10001)
        X509v3 extensions:
            X509v3 Basic Constraints: 
                CA:FALSE
            X509v3 Subject Key Identifier: 
                02:AA:A1:2D:8E:DE:D9:25:8C:27:DE:17:C5:92:DA:FF:73:AE:18:C4
            X509v3 Authority Key Identifier: 
                keyid:A6:C9:FF:4F:B6:0C:59:10:47:66:83:79:43:7B:61:8D:8A:3A:0C:86
                DirName:/CN=team17-net
                serial:36:B9:37:88:1D:94:39:19:28:7E:4B:42:EA:8A:B8:6C:6E:3C:E0:66

            X509v3 Extended Key Usage: 
                TLS Web Client Authentication
            X509v3 Key Usage: 
                Digital Signature
    Signature Algorithm: sha256WithRSAEncryption
         5a:cd:bb:10:a7:92:26:5a:c3:4d:31:e1:64:11:4e:90:56:84:
         de:5b:ce:71:09:43:4d:53:0d:e5:ab:28:2f:94:84:79:25:0f:
         48:c8:df:e5:ba:77:f4:68:ef:94:87:a6:e4:fe:2c:f1:16:cf:
         7e:99:8e:09:89:5c:12:bb:b4:33:c2:8b:6e:a2:f3:8b:ed:fe:
         2d:7b:5c:79:c6:ad:a7:6a:b6:f0:d3:b4:78:c9:de:7d:05:cf:
         97:29:da:92:1a:63:30:ff:7a:d4:fd:e3:78:6c:df:c6:23:d2:
         f1:ec:c8:35:db:71:75:5a:c8:b1:1a:63:0b:9d:fa:b8:2c:ba:
         d4:45:76:40:33:f8:1b:db:c0:a3:6a:6e:fd:cc:9e:45:e0:ab:
         35:3f:3c:40:10:95:ee:b7:7b:f9:16:0a:d0:59:0c:e0:24:ad:
         d6:a7:3b:99:e3:74:a6:f4:fd:7a:7e:ee:3e:02:e1:aa:79:28:
         ff:f8:eb:07:77:c0:75:40:7e:01:c6:7a:cc:d9:f3:98:87:e1:
         84:11:91:06:a5:02:80:31:2a:b4:26:81:3b:26:96:9c:06:dc:
         50:e9:0b:50:1f:f0:d3:d8:5f:80:14:87:81:7a:3d:2c:c6:41:
         f5:44:10:32:5d:ad:32:83:4d:35:b3:2c:d3:88:34:ad:03:91:
         0e:34:43:41
-----BEGIN CERTIFICATE-----
MIIDWTCCAkGgAwIBAgIQLp5gRG8jG5zi/YWdSNoLFTANBgkqhkiG9w0BAQsFADAV
MRMwEQYDVQQDDAp0ZWFtMTctbmV0MB4XDTIzMDgxNDE0MjIyMloXDTI2MDcyOTE0
MjIyMlowGDEWMBQGA1UEAwwNdGVhbTE3LWNsaWVudDCCASIwDQYJKoZIhvcNAQEB
BQADggEPADCCAQoCggEBAMJxZ1ofeVM9be3Oczum92UMt9H1yFpUK3eLI7LBLuz3
pG+kQU1K2DMiPBpSGL1PAGvm354b2T8XfiroK9JjB/JJDm/I50A+pJIgvOzuRfOq
SucHuNz/UrKRs9kHkV6SPFNoz0WBRe2BFvhwwIWK3uBnfj4XaXWOpXKUXSK/7mHy
7762R8RXDWrIeD6qsQ4dV8kWRVLb808s9TRl6Zh/4A4fadot+vPVCs1ShkxsXsPB
2n8fwNqu6xtJB63J+as7zqOW++YzyhnJ1Qrb5UYL1QCe34FIZCASC1X+rOW+blQN
D31OCrhiBM+/RXPBsIVty2r/tF+vyfbyyJsUs74ISiUCAwEAAaOBoTCBnjAJBgNV
HRMEAjAAMB0GA1UdDgQWBBQCqqEtjt7ZJYwn3hfFktr/c64YxDBQBgNVHSMESTBH
gBSmyf9PtgxZEEdmg3lDe2GNijoMhqEZpBcwFTETMBEGA1UEAwwKdGVhbTE3LW5l
dIIUNrk3iB2UORkofktC6oq4bG484GYwEwYDVR0lBAwwCgYIKwYBBQUHAwIwCwYD
VR0PBAQDAgeAMA0GCSqGSIb3DQEBCwUAA4IBAQBazbsQp5ImWsNNMeFkEU6QVoTe
W85xCUNNUw3lqygvlIR5JQ9IyN/lunf0aO+Uh6bk/izxFs9+mY4JiVwSu7Qzwotu
ovOL7f4te1x5xq2narbw07R4yd59Bc+XKdqSGmMw/3rU/eN4bN/GI9Lx7Mg123F1
WsixGmMLnfq4LLrURXZAM/gb28Cjam79zJ5F4Ks1PzxAEJXut3v5FgrQWQzgJK3W
pzuZ43Sm9P16fu4+AuGqeSj/+OsHd8B1QH4BxnrM2fOYh+GEEZEGpQKAMSq0JoE7
JpacBtxQ6QtQH/DT2F+AFIeBej0sxkH1RBAyXa0yg001syzTiDStA5EONENB
-----END CERTIFICATE-----
