Certificate:
    Data:
        Version: 3 (0x2)
        Serial Number:
            65:b4:ff:a7:63:6f:ac:23:c0:b1:f9:e4:40:22:df:ab
        Signature Algorithm: sha256WithRSAEncryption
        Issuer: CN=team50-net
        Validity
            Not Before: Aug 14 14:23:13 2023 GMT
            Not After : Jul 29 14:23:13 2026 GMT
        Subject: CN=team50-client
        Subject Public Key Info:
            Public Key Algorithm: rsaEncryption
                RSA Public-Key: (2048 bit)
                Modulus:
                    00:bb:7f:43:00:ae:72:1c:7a:e1:43:26:7f:1b:66:
                    cd:0e:4d:8f:79:e7:dd:dc:8f:16:01:47:98:c3:d0:
                    02:f1:c4:4b:53:4f:4a:e9:6b:99:ee:6c:bb:4b:95:
                    26:e9:8d:b7:02:8a:f3:a1:fc:d8:f8:6a:76:da:8a:
                    9d:32:c6:53:bc:7b:f4:a7:3a:95:c0:71:d1:c1:5b:
                    94:ce:e2:04:63:4d:15:00:4d:8e:1b:60:c0:08:35:
                    3a:fb:6c:0b:9c:02:5f:80:2f:91:9e:ce:bd:be:98:
                    56:53:a4:34:a7:ef:54:d6:94:5b:14:f3:0f:35:c5:
                    46:c3:68:98:85:b1:a0:c0:80:43:9b:d8:92:ae:51:
                    1e:ce:4c:bb:0b:13:55:c6:bd:65:2f:e7:80:5e:79:
                    76:32:44:be:ae:f5:42:bc:d7:10:62:45:82:e5:c6:
                    c4:cd:c5:4e:d3:54:22:04:37:41:ed:b9:2d:3a:51:
                    d9:70:e5:52:26:a7:85:4d:f2:fe:bf:80:be:fc:57:
                    fa:7e:ad:35:34:07:4e:cb:00:75:eb:fc:48:2f:f6:
                    98:ef:81:2b:58:97:94:6f:58:f7:73:3a:87:ca:20:
                    24:57:ad:c2:8a:1a:23:54:9e:c2:27:b8:8b:99:ce:
                    ae:cb:2a:03:4d:fa:ef:d5:54:46:3b:6d:c9:4b:a0:
                    bb:85
                Exponent: 65537 (0x10001)
        X509v3 extensions:
            X509v3 Basic Constraints: 
                CA:FALSE
            X509v3 Subject Key Identifier: 
                DE:DD:91:02:DC:25:98:CC:DF:16:53:3B:D4:50:08:56:56:70:2B:70
            X509v3 Authority Key Identifier: 
                keyid:54:6F:1F:F6:FD:F2:E9:EE:0B:AF:A9:B4:F7:D6:83:B9:F6:6F:44:D6
                DirName:/CN=team50-net
                serial:2C:67:E1:CE:39:C5:1B:21:04:11:D7:1A:8D:29:BF:67:C2:BB:4A:19

            X509v3 Extended Key Usage: 
                TLS Web Client Authentication
            X509v3 Key Usage: 
                Digital Signature
    Signature Algorithm: sha256WithRSAEncryption
         1c:b2:de:94:2b:0e:b3:7c:b4:8d:12:bf:32:eb:e5:a4:0a:de:
         dd:bc:bc:cb:42:e9:3c:82:b8:ea:88:40:46:14:b6:e3:16:cc:
         01:34:49:b8:40:3f:67:cb:b8:45:9b:7a:a1:3f:37:71:c0:9a:
         b2:c2:88:8b:49:9d:d0:4c:2f:8f:c9:d5:9a:88:e7:4f:79:85:
         03:45:48:8d:a1:0d:2a:99:25:c2:0d:6a:8d:72:f0:c5:a9:e5:
         4f:f6:9f:8e:b5:0b:2c:5e:8c:7d:4c:8c:93:e8:97:49:9c:54:
         22:57:7a:a0:7f:bf:a7:24:44:bb:29:c6:6e:51:d0:20:d9:af:
         a3:bd:ca:31:79:bd:50:15:b2:93:d2:8f:33:b7:1e:52:1e:e8:
         26:e5:b8:c3:57:5c:55:f4:d7:58:33:ac:60:c0:b1:7e:48:45:
         77:53:5a:a1:40:74:eb:ce:ce:1a:c2:51:39:48:8c:95:3c:0b:
         0e:f6:b1:65:5c:34:e9:bb:a9:09:9c:a0:f9:6b:1f:9d:b1:61:
         e0:b7:0b:14:5d:8a:c2:f7:c5:59:92:1d:6a:9d:74:12:61:ec:
         c3:7c:c7:31:25:1a:77:39:3f:32:e0:45:57:5e:52:74:78:af:
         3b:08:b2:40:7f:e0:08:9e:ff:eb:cd:7f:ba:1a:8b:7f:7a:c9:
         ce:14:2c:46
-----BEGIN CERTIFICATE-----
MIIDWTCCAkGgAwIBAgIQZbT/p2NvrCPAsfnkQCLfqzANBgkqhkiG9w0BAQsFADAV
MRMwEQYDVQQDDAp0ZWFtNTAtbmV0MB4XDTIzMDgxNDE0MjMxM1oXDTI2MDcyOTE0
MjMxM1owGDEWMBQGA1UEAwwNdGVhbTUwLWNsaWVudDCCASIwDQYJKoZIhvcNAQEB
BQADggEPADCCAQoCggEBALt/QwCuchx64UMmfxtmzQ5Nj3nn3dyPFgFHmMPQAvHE
S1NPSulrme5su0uVJumNtwKK86H82PhqdtqKnTLGU7x79Kc6lcBx0cFblM7iBGNN
FQBNjhtgwAg1OvtsC5wCX4AvkZ7Ovb6YVlOkNKfvVNaUWxTzDzXFRsNomIWxoMCA
Q5vYkq5RHs5MuwsTVca9ZS/ngF55djJEvq71QrzXEGJFguXGxM3FTtNUIgQ3Qe25
LTpR2XDlUianhU3y/r+AvvxX+n6tNTQHTssAdev8SC/2mO+BK1iXlG9Y93M6h8og
JFetwooaI1Sewie4i5nOrssqA03679VURjttyUugu4UCAwEAAaOBoTCBnjAJBgNV
HRMEAjAAMB0GA1UdDgQWBBTe3ZEC3CWYzN8WUzvUUAhWVnArcDBQBgNVHSMESTBH
gBRUbx/2/fLp7guvqbT31oO59m9E1qEZpBcwFTETMBEGA1UEAwwKdGVhbTUwLW5l
dIIULGfhzjnFGyEEEdcajSm/Z8K7ShkwEwYDVR0lBAwwCgYIKwYBBQUHAwIwCwYD
VR0PBAQDAgeAMA0GCSqGSIb3DQEBCwUAA4IBAQAcst6UKw6zfLSNEr8y6+WkCt7d
vLzLQuk8grjqiEBGFLbjFswBNEm4QD9ny7hFm3qhPzdxwJqywoiLSZ3QTC+PydWa
iOdPeYUDRUiNoQ0qmSXCDWqNcvDFqeVP9p+OtQssXox9TIyT6JdJnFQiV3qgf7+n
JES7KcZuUdAg2a+jvcoxeb1QFbKT0o8ztx5SHugm5bjDV1xV9NdYM6xgwLF+SEV3
U1qhQHTrzs4awlE5SIyVPAsO9rFlXDTpu6kJnKD5ax+dsWHgtwsUXYrC98VZkh1q
nXQSYezDfMcxJRp3OT8y4EVXXlJ0eK87CLJAf+AInv/rzX+6Got/esnOFCxG
-----END CERTIFICATE-----
