Certificate:
    Data:
        Version: 3 (0x2)
        Serial Number:
            10:c5:54:76:da:69:88:c3:ed:ee:28:c8:ee:e2:27:a8
        Signature Algorithm: sha256WithRSAEncryption
        Issuer: CN=team2-net
        Validity
            Not Before: Aug 14 14:22:05 2023 GMT
            Not After : Jul 29 14:22:05 2026 GMT
        Subject: CN=team2-server
        Subject Public Key Info:
            Public Key Algorithm: rsaEncryption
                RSA Public-Key: (2048 bit)
                Modulus:
                    00:b5:e2:a2:42:96:9d:49:36:59:a9:23:94:31:9e:
                    39:5d:7e:ae:13:4b:39:1c:90:b7:98:c4:18:bb:95:
                    ed:45:15:dc:5e:74:95:41:06:bd:e1:e7:23:c2:0e:
                    4e:5e:b4:51:ab:92:3d:2b:4b:e4:ae:e8:ff:ec:f7:
                    5e:9b:8d:42:2d:f1:9e:79:e8:f1:0e:f2:88:0f:bd:
                    45:6a:b5:cd:6b:e6:ce:4f:c5:d8:e3:7c:0a:9f:61:
                    0d:92:48:e2:06:95:4b:d8:19:19:e4:69:5d:8c:3d:
                    b1:41:96:81:f7:46:0d:60:81:2f:6b:8b:7a:6a:ef:
                    aa:b5:43:49:a6:86:a0:d4:43:f2:bc:72:4b:39:04:
                    06:8f:e0:5c:d1:e6:c8:2d:55:ee:4d:a5:7d:69:76:
                    11:66:08:3e:97:66:98:8d:fe:22:16:75:90:15:d6:
                    04:78:ba:22:31:32:ed:81:db:38:bd:d1:51:39:f8:
                    1d:5b:3d:f1:bd:f5:93:b3:91:c4:ad:77:3a:d2:10:
                    11:b8:66:3d:0a:17:3f:0b:96:7c:13:fa:aa:59:66:
                    01:ea:d6:5f:95:4e:fd:eb:8c:91:61:03:92:2a:72:
                    26:4d:7e:e7:b5:f6:db:20:a0:46:09:11:69:3f:27:
                    be:dc:b4:1f:46:25:5c:73:cc:99:49:d8:87:55:ce:
                    e5:0b
                Exponent: 65537 (0x10001)
        X509v3 extensions:
            X509v3 Basic Constraints: 
                CA:FALSE
            X509v3 Subject Key Identifier: 
                C6:9D:28:20:0A:31:A5:6D:67:E8:E9:91:97:2E:F1:04:8E:7B:30:1E
            X509v3 Authority Key Identifier: 
                keyid:29:17:B3:8E:30:7C:30:37:60:6B:98:B2:18:AD:2E:1D:E6:E1:86:8F
                DirName:/CN=team2-net
                serial:05:7D:71:B1:CE:50:B2:23:D5:2A:C5:FB:30:DB:7F:27:CC:C3:EB:C7

            X509v3 Extended Key Usage: 
                TLS Web Server Authentication
            X509v3 Key Usage: 
                Digital Signature, Key Encipherment
            X509v3 Subject Alternative Name: 
                DNS:team2-server
    Signature Algorithm: sha256WithRSAEncryption
         3e:b5:0e:99:5e:a6:52:67:a3:10:1b:04:3a:f2:a5:70:61:87:
         1f:17:ed:15:f0:85:90:83:73:a2:89:8f:7a:84:d5:7e:dc:55:
         9c:85:98:04:b8:f0:02:cf:82:50:08:2f:d1:82:ea:dd:1a:50:
         1f:18:aa:d2:53:ed:14:55:cb:1e:f2:0c:57:b4:da:85:aa:fc:
         69:79:84:18:07:2a:24:62:58:2e:c2:ed:70:7d:7d:6f:d2:65:
         78:23:94:02:42:9f:df:fc:3b:0e:c7:51:24:fd:04:c6:1b:e7:
         f8:63:3a:93:44:b7:6e:82:38:9e:d7:fa:41:07:f7:f6:e8:2f:
         aa:58:e8:59:be:67:de:00:52:5a:3a:04:c5:c8:81:3a:0c:0a:
         76:2d:fd:c8:dd:63:8e:66:f8:8b:c3:1d:aa:ee:e2:7f:ae:68:
         0a:d4:48:87:10:15:55:64:9e:da:65:e2:99:6a:be:7e:86:8e:
         60:d4:98:26:b9:91:28:f1:2e:94:f5:19:f1:60:12:09:69:c6:
         89:0e:8a:75:e0:0a:a8:2d:09:1e:21:d8:e7:4b:e0:fe:26:65:
         71:1b:06:20:3c:57:09:75:a0:a9:e1:34:3a:db:3c:9e:7f:7d:
         07:31:da:46:de:de:e9:15:88:7a:f6:52:98:bf:31:05:e5:96:
         d8:e4:e4:28
-----BEGIN CERTIFICATE-----
MIIDbzCCAlegAwIBAgIQEMVUdtppiMPt7ijI7uInqDANBgkqhkiG9w0BAQsFADAU
MRIwEAYDVQQDDAl0ZWFtMi1uZXQwHhcNMjMwODE0MTQyMjA1WhcNMjYwNzI5MTQy
MjA1WjAXMRUwEwYDVQQDDAx0ZWFtMi1zZXJ2ZXIwggEiMA0GCSqGSIb3DQEBAQUA
A4IBDwAwggEKAoIBAQC14qJClp1JNlmpI5Qxnjldfq4TSzkckLeYxBi7le1FFdxe
dJVBBr3h5yPCDk5etFGrkj0rS+Su6P/s916bjUIt8Z556PEO8ogPvUVqtc1r5s5P
xdjjfAqfYQ2SSOIGlUvYGRnkaV2MPbFBloH3Rg1ggS9ri3pq76q1Q0mmhqDUQ/K8
cks5BAaP4FzR5sgtVe5NpX1pdhFmCD6XZpiN/iIWdZAV1gR4uiIxMu2B2zi90VE5
+B1bPfG99ZOzkcStdzrSEBG4Zj0KFz8LlnwT+qpZZgHq1l+VTv3rjJFhA5IqciZN
fue19tsgoEYJEWk/J77ctB9GJVxzzJlJ2IdVzuULAgMBAAGjgbkwgbYwCQYDVR0T
BAIwADAdBgNVHQ4EFgQUxp0oIAoxpW1n6OmRly7xBI57MB4wTwYDVR0jBEgwRoAU
KRezjjB8MDdga5iyGK0uHebhho+hGKQWMBQxEjAQBgNVBAMMCXRlYW0yLW5ldIIU
BX1xsc5QsiPVKsX7MNt/J8zD68cwEwYDVR0lBAwwCgYIKwYBBQUHAwEwCwYDVR0P
BAQDAgWgMBcGA1UdEQQQMA6CDHRlYW0yLXNlcnZlcjANBgkqhkiG9w0BAQsFAAOC
AQEAPrUOmV6mUmejEBsEOvKlcGGHHxftFfCFkINzoomPeoTVftxVnIWYBLjwAs+C
UAgv0YLq3RpQHxiq0lPtFFXLHvIMV7Tahar8aXmEGAcqJGJYLsLtcH19b9JleCOU
AkKf3/w7DsdRJP0Exhvn+GM6k0S3boI4ntf6QQf39ugvqljoWb5n3gBSWjoExciB
OgwKdi39yN1jjmb4i8Mdqu7if65oCtRIhxAVVWSe2mXimWq+foaOYNSYJrmRKPEu
lPUZ8WASCWnGiQ6KdeAKqC0JHiHY50vg/iZlcRsGIDxXCXWgqeE0Ots8nn99BzHa
Rt7e6RWIevZSmL8xBeWW2OTkKA==
-----END CERTIFICATE-----
