Certificate:
    Data:
        Version: 3 (0x2)
        Serial Number:
            b4:47:98:a3:62:dc:5d:f6:9b:93:35:61:e2:28:8a:01
        Signature Algorithm: sha256WithRSAEncryption
        Issuer: CN=team269-net
        Validity
            Not Before: Aug 14 14:27:46 2023 GMT
            Not After : Jul 29 14:27:46 2026 GMT
        Subject: CN=team269-client
        Subject Public Key Info:
            Public Key Algorithm: rsaEncryption
                RSA Public-Key: (2048 bit)
                Modulus:
                    00:d1:16:7a:8c:0d:e7:d6:b9:1e:28:29:59:81:09:
                    6e:40:75:e9:b2:23:dc:e4:be:e8:5f:4f:28:19:72:
                    78:8c:67:c8:fa:a6:4c:7c:cf:a1:33:36:c9:69:07:
                    7e:90:26:f8:fa:ee:ef:5a:df:f4:29:1e:26:2e:74:
                    fe:b5:f2:e7:ef:40:2e:e9:3d:c2:da:5e:25:35:b4:
                    a6:f8:4b:80:e2:d7:c7:6a:82:85:7d:fe:de:d0:71:
                    57:bd:85:55:2e:18:af:c5:1a:7a:b7:1f:4d:28:65:
                    72:da:a1:b1:42:38:56:41:b0:57:11:8d:bb:52:24:
                    4c:9e:e0:27:25:67:d6:9c:74:5e:1f:d6:24:24:6f:
                    98:97:9e:ec:94:52:71:31:b0:52:27:f3:4a:47:05:
                    6f:6b:90:1c:e6:3a:27:f8:18:6c:72:19:ee:89:16:
                    8d:5d:c7:74:b8:5e:39:bc:92:b5:3d:5a:d1:c8:75:
                    e4:ce:fa:6a:46:bb:2f:a4:07:d1:e6:73:dc:2f:3c:
                    9c:f8:37:8d:59:80:8e:64:6f:01:29:23:c4:6a:05:
                    44:62:0f:cd:a8:dc:ba:f2:c3:69:94:41:43:f9:0d:
                    04:b1:29:3d:0f:1b:d7:0f:71:62:b6:dd:16:f3:ff:
                    9e:41:94:e0:f7:22:ea:bf:ee:9e:62:fc:77:f3:a3:
                    a8:87
                Exponent: 65537 (0x10001)
        X509v3 extensions:
            X509v3 Basic Constraints: 
                CA:FALSE
            X509v3 Subject Key Identifier: 
                D0:9F:59:72:0D:AE:6A:F5:75:9A:F5:82:EA:5D:A4:51:D3:BA:E3:10
            X509v3 Authority Key Identifier: 
                keyid:16:E0:FA:85:F7:0D:7E:16:E0:CD:65:7A:A8:D9:7B:94:4B:18:B9:22
                DirName:/CN=team269-net
                serial:75:E9:68:B7:B4:1A:A9:E5:80:39:59:AC:70:1A:E9:C4:C3:40:FB:3B

            X509v3 Extended Key Usage: 
                TLS Web Client Authentication
            X509v3 Key Usage: 
                Digital Signature
    Signature Algorithm: sha256WithRSAEncryption
         84:d3:b0:7f:9c:27:79:78:92:88:69:4c:a9:62:f4:ee:59:98:
         fa:40:f9:9f:7e:4b:fe:74:81:d0:d3:70:58:c0:b2:7b:3b:1a:
         35:2f:67:95:81:48:10:59:d6:4e:da:ee:8e:ef:41:4e:6f:68:
         eb:3b:60:ed:e5:fc:ee:cc:f7:d3:66:75:d6:e6:b3:da:ad:18:
         f8:25:cd:57:c6:8e:43:00:b2:41:4d:1a:3b:46:d8:f1:51:3b:
         88:b9:39:62:a4:4b:73:ed:f7:ac:a4:5d:dd:39:f2:49:5f:53:
         42:6b:57:f1:d8:1e:8c:4d:6e:26:9d:03:82:67:b4:41:f4:fe:
         4b:0e:16:8b:bf:21:6c:12:80:ab:26:ad:66:93:5f:e0:d7:c8:
         b7:14:55:62:e4:6c:f0:5c:32:84:4d:9b:22:b8:a1:92:df:05:
         07:14:8b:7b:dc:9e:d2:82:47:41:ed:40:aa:8b:c3:95:9e:70:
         db:f6:6b:de:28:45:af:eb:a4:13:57:4b:38:3f:7f:21:3b:c1:
         a3:af:3d:b6:a8:92:a1:71:da:8b:55:55:3f:ac:76:40:38:7f:
         41:7a:97:12:94:17:2f:ec:1a:99:24:16:3e:01:a6:f9:bf:c4:
         3f:06:52:af:c5:f7:8e:82:6d:b0:d0:73:89:29:f3:d0:5f:75:
         dc:5e:ae:77
-----BEGIN CERTIFICATE-----
MIIDXTCCAkWgAwIBAgIRALRHmKNi3F32m5M1YeIoigEwDQYJKoZIhvcNAQELBQAw
FjEUMBIGA1UEAwwLdGVhbTI2OS1uZXQwHhcNMjMwODE0MTQyNzQ2WhcNMjYwNzI5
MTQyNzQ2WjAZMRcwFQYDVQQDDA50ZWFtMjY5LWNsaWVudDCCASIwDQYJKoZIhvcN
AQEBBQADggEPADCCAQoCggEBANEWeowN59a5HigpWYEJbkB16bIj3OS+6F9PKBly
eIxnyPqmTHzPoTM2yWkHfpAm+Pru71rf9CkeJi50/rXy5+9ALuk9wtpeJTW0pvhL
gOLXx2qChX3+3tBxV72FVS4Yr8UaercfTShlctqhsUI4VkGwVxGNu1IkTJ7gJyVn
1px0Xh/WJCRvmJee7JRScTGwUifzSkcFb2uQHOY6J/gYbHIZ7okWjV3HdLheObyS
tT1a0ch15M76aka7L6QH0eZz3C88nPg3jVmAjmRvASkjxGoFRGIPzajcuvLDaZRB
Q/kNBLEpPQ8b1w9xYrbdFvP/nkGU4Pci6r/unmL8d/OjqIcCAwEAAaOBojCBnzAJ
BgNVHRMEAjAAMB0GA1UdDgQWBBTQn1lyDa5q9XWa9YLqXaRR07rjEDBRBgNVHSME
SjBIgBQW4PqF9w1+FuDNZXqo2XuUSxi5IqEapBgwFjEUMBIGA1UEAwwLdGVhbTI2
OS1uZXSCFHXpaLe0GqnlgDlZrHAa6cTDQPs7MBMGA1UdJQQMMAoGCCsGAQUFBwMC
MAsGA1UdDwQEAwIHgDANBgkqhkiG9w0BAQsFAAOCAQEAhNOwf5wneXiSiGlMqWL0
7lmY+kD5n35L/nSB0NNwWMCyezsaNS9nlYFIEFnWTtruju9BTm9o6ztg7eX87sz3
02Z11uaz2q0Y+CXNV8aOQwCyQU0aO0bY8VE7iLk5YqRLc+33rKRd3TnySV9TQmtX
8dgejE1uJp0Dgme0QfT+Sw4Wi78hbBKAqyatZpNf4NfItxRVYuRs8FwyhE2bIrih
kt8FBxSLe9ye0oJHQe1AqovDlZ5w2/Zr3ihFr+ukE1dLOD9/ITvBo689tqiSoXHa
i1VVP6x2QDh/QXqXEpQXL+wamSQWPgGm+b/EPwZSr8X3joJtsNBziSnz0F913F6u
dw==
-----END CERTIFICATE-----
