Certificate:
    Data:
        Version: 3 (0x2)
        Serial Number:
            30:f0:22:34:b6:48:38:6d:78:ed:66:ff:b4:e8:f7:52
        Signature Algorithm: sha256WithRSAEncryption
        Issuer: CN=team164-net
        Validity
            Not Before: Aug 14 14:25:40 2023 GMT
            Not After : Jul 29 14:25:40 2026 GMT
        Subject: CN=team164-server
        Subject Public Key Info:
            Public Key Algorithm: rsaEncryption
                RSA Public-Key: (2048 bit)
                Modulus:
                    00:ce:59:0a:b2:32:dc:b5:8e:f1:d7:5d:91:4f:28:
                    73:33:cc:81:1b:bb:a0:05:36:c3:ad:3a:c8:21:c6:
                    7e:7f:27:aa:be:f5:a7:f9:64:a6:d5:49:3f:cd:10:
                    5c:de:59:fc:a0:47:ab:b4:c5:11:b8:38:3d:4c:90:
                    16:c3:39:32:c8:cf:c0:d0:6a:56:be:d7:8a:e5:ea:
                    a7:bb:22:ff:2e:de:b5:92:77:aa:94:e3:f1:28:7b:
                    27:28:ae:62:a8:e0:32:48:dc:b0:35:2c:fc:59:0e:
                    b5:3b:4e:8e:09:72:db:37:2c:30:57:9d:a5:a5:06:
                    2a:8d:57:2b:f3:17:48:e3:73:55:10:81:a7:8f:56:
                    10:7d:50:dd:ba:3e:14:da:ee:15:33:10:5c:b2:8f:
                    8e:b8:68:4a:b8:e8:89:78:f8:7c:4c:ed:da:69:b8:
                    31:fe:41:d4:ba:ac:63:c0:79:54:88:99:6a:c3:5e:
                    d0:a3:b3:81:c4:21:8a:ad:38:4d:b7:4f:ab:0f:4d:
                    fb:e7:9d:4e:3c:49:ae:fa:75:43:e7:a5:af:9a:9d:
                    24:fe:34:15:3d:46:05:da:6e:bb:41:b2:17:4a:09:
                    06:eb:91:18:01:f6:e8:02:21:80:65:ae:6c:c2:1a:
                    b0:6f:82:c3:a1:52:60:95:37:48:9e:b2:10:78:f9:
                    07:1b
                Exponent: 65537 (0x10001)
        X509v3 extensions:
            X509v3 Basic Constraints: 
                CA:FALSE
            X509v3 Subject Key Identifier: 
                87:62:45:2A:C4:3F:CC:DC:67:C0:C1:81:7B:A7:9D:52:44:00:F1:4C
            X509v3 Authority Key Identifier: 
                keyid:DE:C4:AC:3A:4D:13:DE:77:02:C5:86:06:19:27:95:58:9C:52:A3:A5
                DirName:/CN=team164-net
                serial:7F:F4:CB:00:80:31:D3:3E:8B:E5:01:BE:B6:B4:E0:EA:7C:C0:67:33

            X509v3 Extended Key Usage: 
                TLS Web Server Authentication
            X509v3 Key Usage: 
                Digital Signature, Key Encipherment
            X509v3 Subject Alternative Name: 
                DNS:team164-server
    Signature Algorithm: sha256WithRSAEncryption
         0b:76:c0:9b:0b:a0:6a:c2:13:ce:08:4a:e1:bd:15:c7:db:b3:
         2e:54:54:85:22:c5:08:e1:ab:ca:e2:f3:d9:d0:d0:28:cd:80:
         ef:a0:f6:75:0f:b1:fb:09:ef:7e:7f:16:92:6f:4d:96:0b:b6:
         78:8c:a3:a9:f6:92:57:9f:5b:6f:90:78:4b:56:f8:3b:a5:b3:
         7a:f7:8f:49:67:da:c4:11:7f:e1:41:f9:68:42:95:07:93:bc:
         f4:aa:da:27:fd:a0:a5:cd:f9:96:aa:d9:4d:31:12:d9:22:c2:
         e0:82:d5:22:c5:3a:5f:b2:e3:bb:c7:99:ed:26:de:44:ce:6e:
         20:4b:32:0d:8a:83:7d:cc:97:4d:a7:21:0d:42:db:a2:a1:15:
         8f:d9:7d:e6:34:e2:60:5a:fa:30:f7:8c:be:45:e1:d4:67:ad:
         2c:81:14:bc:27:70:a8:74:87:6f:6f:72:22:c9:ae:78:84:dd:
         1a:61:95:a9:b2:30:7b:ee:3a:e9:8e:24:b1:6b:2d:9e:9a:40:
         d5:13:e8:6d:c1:76:83:19:30:e3:40:1e:19:54:3d:1e:22:67:
         44:d3:82:b5:28:c3:c1:bf:a5:f6:6a:30:32:87:53:49:c3:3c:
         a2:03:87:92:87:6d:d4:b8:56:ff:82:5a:08:fa:4c:ca:25:b9:
         cf:7f:91:21
-----BEGIN CERTIFICATE-----
MIIDdzCCAl+gAwIBAgIQMPAiNLZIOG147Wb/tOj3UjANBgkqhkiG9w0BAQsFADAW
MRQwEgYDVQQDDAt0ZWFtMTY0LW5ldDAeFw0yMzA4MTQxNDI1NDBaFw0yNjA3Mjkx
NDI1NDBaMBkxFzAVBgNVBAMMDnRlYW0xNjQtc2VydmVyMIIBIjANBgkqhkiG9w0B
AQEFAAOCAQ8AMIIBCgKCAQEAzlkKsjLctY7x112RTyhzM8yBG7ugBTbDrTrIIcZ+
fyeqvvWn+WSm1Uk/zRBc3ln8oEertMURuDg9TJAWwzkyyM/A0GpWvteK5eqnuyL/
Lt61kneqlOPxKHsnKK5iqOAySNywNSz8WQ61O06OCXLbNywwV52lpQYqjVcr8xdI
43NVEIGnj1YQfVDduj4U2u4VMxBcso+OuGhKuOiJePh8TO3aabgx/kHUuqxjwHlU
iJlqw17Qo7OBxCGKrThNt0+rD037551OPEmu+nVD56Wvmp0k/jQVPUYF2m67QbIX
SgkG65EYAfboAiGAZa5swhqwb4LDoVJglTdInrIQePkHGwIDAQABo4G9MIG6MAkG
A1UdEwQCMAAwHQYDVR0OBBYEFIdiRSrEP8zcZ8DBgXunnVJEAPFMMFEGA1UdIwRK
MEiAFN7ErDpNE953AsWGBhknlVicUqOloRqkGDAWMRQwEgYDVQQDDAt0ZWFtMTY0
LW5ldIIUf/TLAIAx0z6L5QG+trTg6nzAZzMwEwYDVR0lBAwwCgYIKwYBBQUHAwEw
CwYDVR0PBAQDAgWgMBkGA1UdEQQSMBCCDnRlYW0xNjQtc2VydmVyMA0GCSqGSIb3
DQEBCwUAA4IBAQALdsCbC6BqwhPOCErhvRXH27MuVFSFIsUI4avK4vPZ0NAozYDv
oPZ1D7H7Ce9+fxaSb02WC7Z4jKOp9pJXn1tvkHhLVvg7pbN6949JZ9rEEX/hQflo
QpUHk7z0qton/aClzfmWqtlNMRLZIsLggtUixTpfsuO7x5ntJt5Ezm4gSzINioN9
zJdNpyENQtuioRWP2X3mNOJgWvow94y+ReHUZ60sgRS8J3CodIdvb3Iiya54hN0a
YZWpsjB77jrpjiSxay2emkDVE+htwXaDGTDjQB4ZVD0eImdE04K1KMPBv6X2ajAy
h1NJwzyiA4eSh23UuFb/gloI+kzKJbnPf5Eh
-----END CERTIFICATE-----
