Certificate:
    Data:
        Version: 3 (0x2)
        Serial Number:
            10:fb:a1:d7:ac:a3:f4:42:be:9a:17:7c:d3:93:fa:e3
        Signature Algorithm: sha256WithRSAEncryption
        Issuer: CN=team108-net
        Validity
            Not Before: Aug 14 14:24:28 2023 GMT
            Not After : Jul 29 14:24:28 2026 GMT
        Subject: CN=team108-client
        Subject Public Key Info:
            Public Key Algorithm: rsaEncryption
                RSA Public-Key: (2048 bit)
                Modulus:
                    00:ac:1a:19:12:76:ae:3a:79:5a:e8:11:66:ba:fc:
                    e2:79:a5:b2:fd:42:4d:d8:56:06:ef:bd:e6:eb:a4:
                    d6:ce:f7:02:d2:82:b3:70:86:6b:f7:51:3d:59:51:
                    54:68:b2:39:c5:bf:7b:8e:b9:b0:4d:7c:17:42:1b:
                    1e:e6:c1:a2:60:e2:fb:1d:29:11:cf:1f:ac:5e:d2:
                    aa:89:61:03:6b:84:da:3c:f1:90:d3:76:d1:ff:48:
                    1e:c7:75:09:ce:09:df:41:70:5d:97:45:e6:83:55:
                    5d:7d:86:56:29:24:35:87:2d:93:e1:af:09:3b:94:
                    06:26:90:fb:47:37:b7:5b:eb:bf:5f:4e:5d:2b:60:
                    d0:be:54:bc:37:1d:28:41:34:a4:af:ce:ae:5b:c8:
                    d5:69:75:fb:da:4b:e5:c5:89:e9:7d:5c:1c:11:48:
                    2c:c2:03:f5:db:64:a7:32:18:99:b6:c1:8a:e7:c5:
                    50:08:7b:4a:33:53:77:dc:20:25:8b:50:21:21:91:
                    10:4f:3c:a5:2a:17:90:a8:e0:6a:25:b1:31:8a:72:
                    18:d1:c2:35:87:1d:e5:73:6a:af:41:bf:5e:ea:7e:
                    29:5a:ea:df:27:ad:6e:2f:18:13:f4:ad:42:94:7d:
                    a3:ea:ad:76:a2:24:f4:de:44:a4:6d:79:40:af:87:
                    8c:fb
                Exponent: 65537 (0x10001)
        X509v3 extensions:
            X509v3 Basic Constraints: 
                CA:FALSE
            X509v3 Subject Key Identifier: 
                59:37:7E:9E:2F:A0:73:F1:FA:55:2E:05:90:C1:82:A2:C8:14:2A:53
            X509v3 Authority Key Identifier: 
                keyid:60:B0:F1:D7:A0:7D:0A:5A:B3:B7:36:CA:F5:9A:E7:59:51:13:2A:7E
                DirName:/CN=team108-net
                serial:77:2F:3A:03:8D:68:65:C9:5D:07:D7:58:22:40:9F:0A:6C:BE:87:61

            X509v3 Extended Key Usage: 
                TLS Web Client Authentication
            X509v3 Key Usage: 
                Digital Signature
    Signature Algorithm: sha256WithRSAEncryption
         82:84:ca:3f:2c:62:95:95:cd:96:04:98:a2:39:31:15:a3:1b:
         3b:85:9f:c0:be:90:72:3b:23:3f:e1:cb:c5:60:03:dc:f3:8f:
         70:6d:f9:86:ae:9a:cb:85:49:ed:06:17:1d:ad:2a:f7:c9:77:
         83:18:4c:6c:85:08:7e:46:3f:a0:ee:ec:c3:1d:5e:b6:4a:38:
         74:80:59:c8:c6:30:79:46:33:c0:c6:d4:f1:13:50:de:15:01:
         00:59:68:00:cf:2a:94:10:27:ff:95:c9:85:76:37:bd:c9:2e:
         82:d6:bd:88:90:2d:66:c1:6b:c8:21:36:a2:d3:4a:a2:ef:f5:
         0e:90:48:e2:90:0c:e2:b9:7f:1e:2d:e7:d8:1c:84:2e:1f:71:
         8b:d9:1d:52:9d:30:65:59:3b:f2:d5:d1:62:9d:9c:14:5d:75:
         c2:9a:5b:a0:9b:aa:9a:d3:08:6c:75:da:67:e1:c0:5d:79:83:
         b3:99:75:2a:5a:a7:93:e1:59:06:69:ad:cb:4f:fa:aa:cb:48:
         fa:dd:c9:19:67:fb:1e:f8:b6:a2:f8:53:8d:98:c5:35:73:d2:
         d4:53:18:ca:cf:39:44:77:9c:4b:91:a9:0d:be:39:e0:36:ec:
         b2:6d:a9:27:9f:8c:3d:8a:b4:6d:13:01:de:8e:f0:73:a9:44:
         59:6b:ba:ce
-----BEGIN CERTIFICATE-----
MIIDXDCCAkSgAwIBAgIQEPuh16yj9EK+mhd805P64zANBgkqhkiG9w0BAQsFADAW
MRQwEgYDVQQDDAt0ZWFtMTA4LW5ldDAeFw0yMzA4MTQxNDI0MjhaFw0yNjA3Mjkx
NDI0MjhaMBkxFzAVBgNVBAMMDnRlYW0xMDgtY2xpZW50MIIBIjANBgkqhkiG9w0B
AQEFAAOCAQ8AMIIBCgKCAQEArBoZEnauOnla6BFmuvzieaWy/UJN2FYG773m66TW
zvcC0oKzcIZr91E9WVFUaLI5xb97jrmwTXwXQhse5sGiYOL7HSkRzx+sXtKqiWED
a4TaPPGQ03bR/0gex3UJzgnfQXBdl0Xmg1VdfYZWKSQ1hy2T4a8JO5QGJpD7Rze3
W+u/X05dK2DQvlS8Nx0oQTSkr86uW8jVaXX72kvlxYnpfVwcEUgswgP122SnMhiZ
tsGK58VQCHtKM1N33CAli1AhIZEQTzylKheQqOBqJbExinIY0cI1hx3lc2qvQb9e
6n4pWurfJ61uLxgT9K1ClH2j6q12oiT03kSkbXlAr4eM+wIDAQABo4GiMIGfMAkG
A1UdEwQCMAAwHQYDVR0OBBYEFFk3fp4voHPx+lUuBZDBgqLIFCpTMFEGA1UdIwRK
MEiAFGCw8degfQpas7c2yvWa51lREyp+oRqkGDAWMRQwEgYDVQQDDAt0ZWFtMTA4
LW5ldIIUdy86A41oZcldB9dYIkCfCmy+h2EwEwYDVR0lBAwwCgYIKwYBBQUHAwIw
CwYDVR0PBAQDAgeAMA0GCSqGSIb3DQEBCwUAA4IBAQCChMo/LGKVlc2WBJiiOTEV
oxs7hZ/AvpByOyM/4cvFYAPc849wbfmGrprLhUntBhcdrSr3yXeDGExshQh+Rj+g
7uzDHV62Sjh0gFnIxjB5RjPAxtTxE1DeFQEAWWgAzyqUECf/lcmFdje9yS6C1r2I
kC1mwWvIITai00qi7/UOkEjikAziuX8eLefYHIQuH3GL2R1SnTBlWTvy1dFinZwU
XXXCmlugm6qa0whsddpn4cBdeYOzmXUqWqeT4VkGaa3LT/qqy0j63ckZZ/se+Lai
+FONmMU1c9LUUxjKzzlEd5xLkakNvjngNuyybaknn4w9irRtEwHejvBzqURZa7rO
-----END CERTIFICATE-----
