Certificate:
    Data:
        Version: 3 (0x2)
        Serial Number:
            cb:62:c7:84:5b:2a:78:9e:34:77:74:b7:06:f0:8a:43
        Signature Algorithm: sha256WithRSAEncryption
        Issuer: CN=team108-net
        Validity
            Not Before: Aug 14 14:24:29 2023 GMT
            Not After : Jul 29 14:24:29 2026 GMT
        Subject: CN=team108-server
        Subject Public Key Info:
            Public Key Algorithm: rsaEncryption
                RSA Public-Key: (2048 bit)
                Modulus:
                    00:bc:2f:71:03:07:ec:1a:ca:03:95:ca:09:07:19:
                    d7:58:ec:b1:2a:79:8a:6f:90:f4:4e:52:b9:e6:9b:
                    b0:4d:f9:58:3d:76:c1:fb:1a:00:3f:de:05:60:e6:
                    fa:b3:4d:bc:79:c1:24:f2:06:ac:02:97:d0:3f:1d:
                    f3:36:2c:fc:94:d7:d9:39:35:52:91:90:79:85:00:
                    da:56:b2:9f:c7:8b:3a:8c:d1:c5:fc:de:83:b5:db:
                    8d:da:c1:1b:97:7c:34:71:13:36:30:e1:e1:4d:9f:
                    56:da:39:1e:88:92:6e:7f:64:33:2d:90:aa:22:6d:
                    ba:9b:00:11:86:01:e3:74:d0:53:6b:cd:7b:80:3f:
                    ff:64:22:64:58:64:c5:8c:04:ab:b4:7e:79:45:c8:
                    4c:35:77:2a:45:fe:71:61:b5:0d:1d:45:d4:1d:2d:
                    28:5d:c7:0a:9b:68:71:be:23:de:a6:5c:c0:d0:cb:
                    de:d7:86:2d:0c:7e:c7:f8:6e:2e:0d:47:ec:93:f2:
                    b1:c3:9d:1f:55:8e:1e:9f:7c:8d:0b:d5:a1:c5:e9:
                    2f:15:96:f7:e7:d4:90:f4:27:1e:0b:e7:be:96:6e:
                    c0:f3:c6:6f:84:18:7a:6f:bb:64:66:fa:d1:48:57:
                    41:58:c9:a3:ad:86:db:33:7c:4a:e9:60:9e:8f:af:
                    8c:9d
                Exponent: 65537 (0x10001)
        X509v3 extensions:
            X509v3 Basic Constraints: 
                CA:FALSE
            X509v3 Subject Key Identifier: 
                BF:59:7C:24:15:AA:14:04:E6:CD:F2:43:16:C7:5E:4E:92:D0:09:5D
            X509v3 Authority Key Identifier: 
                keyid:60:B0:F1:D7:A0:7D:0A:5A:B3:B7:36:CA:F5:9A:E7:59:51:13:2A:7E
                DirName:/CN=team108-net
                serial:77:2F:3A:03:8D:68:65:C9:5D:07:D7:58:22:40:9F:0A:6C:BE:87:61

            X509v3 Extended Key Usage: 
                TLS Web Server Authentication
            X509v3 Key Usage: 
                Digital Signature, Key Encipherment
            X509v3 Subject Alternative Name: 
                DNS:team108-server
    Signature Algorithm: sha256WithRSAEncryption
         54:8c:31:ea:70:02:cf:cd:1c:12:ee:38:b3:f2:c5:68:99:ae:
         ed:50:02:d6:f4:29:77:6f:ba:f0:f0:38:de:b3:36:de:73:88:
         08:74:2d:ec:f9:e4:13:87:3f:c8:7b:ce:96:4b:5c:59:83:4c:
         62:be:ac:df:4f:b7:94:84:f1:8e:ad:77:11:6b:a0:07:1a:d0:
         6e:ac:ea:94:7c:4b:c8:53:b9:a7:81:0f:88:a2:88:1f:cc:18:
         a7:91:8a:da:e4:9a:82:e0:c9:88:e4:c9:21:ff:0a:3b:1b:fe:
         bc:ca:cc:61:9c:e1:78:a5:b5:4e:99:f9:4a:1f:96:45:5d:f4:
         b9:89:e4:df:c2:90:07:96:ab:27:ca:cb:ee:a4:54:e8:5e:bd:
         74:dd:69:94:af:18:81:37:ef:2d:cf:71:6d:56:e4:44:33:ea:
         6b:93:8e:79:90:50:5b:65:fa:1e:f3:ac:29:fb:14:03:ea:c5:
         c2:d3:79:2e:71:bc:63:6d:34:62:d3:e4:4c:f7:4b:5a:89:f9:
         7e:6d:f2:7e:08:61:20:96:f6:1b:42:72:41:89:12:92:62:fb:
         71:5f:f7:de:a7:ec:66:7d:cf:ef:e4:19:aa:96:d2:b4:41:da:
         a5:d7:bf:6f:58:56:d4:8c:e2:25:40:92:c2:eb:2d:24:86:4d:
         45:7c:e6:d2
-----BEGIN CERTIFICATE-----
MIIDeDCCAmCgAwIBAgIRAMtix4RbKnieNHd0twbwikMwDQYJKoZIhvcNAQELBQAw
FjEUMBIGA1UEAwwLdGVhbTEwOC1uZXQwHhcNMjMwODE0MTQyNDI5WhcNMjYwNzI5
MTQyNDI5WjAZMRcwFQYDVQQDDA50ZWFtMTA4LXNlcnZlcjCCASIwDQYJKoZIhvcN
AQEBBQADggEPADCCAQoCggEBALwvcQMH7BrKA5XKCQcZ11jssSp5im+Q9E5Sueab
sE35WD12wfsaAD/eBWDm+rNNvHnBJPIGrAKX0D8d8zYs/JTX2Tk1UpGQeYUA2lay
n8eLOozRxfzeg7XbjdrBG5d8NHETNjDh4U2fVto5HoiSbn9kMy2QqiJtupsAEYYB
43TQU2vNe4A//2QiZFhkxYwEq7R+eUXITDV3KkX+cWG1DR1F1B0tKF3HCptocb4j
3qZcwNDL3teGLQx+x/huLg1H7JPyscOdH1WOHp98jQvVocXpLxWW9+fUkPQnHgvn
vpZuwPPGb4QYem+7ZGb60UhXQVjJo62G2zN8Sulgno+vjJ0CAwEAAaOBvTCBujAJ
BgNVHRMEAjAAMB0GA1UdDgQWBBS/WXwkFaoUBObN8kMWx15OktAJXTBRBgNVHSME
SjBIgBRgsPHXoH0KWrO3Nsr1mudZURMqfqEapBgwFjEUMBIGA1UEAwwLdGVhbTEw
OC1uZXSCFHcvOgONaGXJXQfXWCJAnwpsvodhMBMGA1UdJQQMMAoGCCsGAQUFBwMB
MAsGA1UdDwQEAwIFoDAZBgNVHREEEjAQgg50ZWFtMTA4LXNlcnZlcjANBgkqhkiG
9w0BAQsFAAOCAQEAVIwx6nACz80cEu44s/LFaJmu7VAC1vQpd2+68PA43rM23nOI
CHQt7PnkE4c/yHvOlktcWYNMYr6s30+3lITxjq13EWugBxrQbqzqlHxLyFO5p4EP
iKKIH8wYp5GK2uSaguDJiOTJIf8KOxv+vMrMYZzheKW1Tpn5Sh+WRV30uYnk38KQ
B5arJ8rL7qRU6F69dN1plK8YgTfvLc9xbVbkRDPqa5OOeZBQW2X6HvOsKfsUA+rF
wtN5LnG8Y200YtPkTPdLWon5fm3yfghhIJb2G0JyQYkSkmL7cV/33qfsZn3P7+QZ
qpbStEHapde/b1hW1IziJUCSwustJIZNRXzm0g==
-----END CERTIFICATE-----
