Certificate:
    Data:
        Version: 3 (0x2)
        Serial Number:
            b2:03:8b:8a:f6:f6:02:55:3f:f6:c7:43:09:f0:d8:96
        Signature Algorithm: sha256WithRSAEncryption
        Issuer: CN=team165-net
        Validity
            Not Before: Aug 14 14:25:41 2023 GMT
            Not After : Jul 29 14:25:41 2026 GMT
        Subject: CN=team165-client
        Subject Public Key Info:
            Public Key Algorithm: rsaEncryption
                RSA Public-Key: (2048 bit)
                Modulus:
                    00:b2:1f:d9:5f:3c:73:18:d9:6a:e0:8d:ff:24:23:
                    d1:31:e3:bd:58:82:f6:03:86:aa:d5:3c:ab:35:ab:
                    cc:03:70:a8:d7:71:bb:a4:41:c5:b2:00:9a:97:20:
                    93:5f:c4:b8:6c:c2:a4:d6:00:3a:f1:2d:96:fc:ac:
                    66:d8:07:a8:6b:1e:77:63:95:36:9c:c5:30:79:76:
                    cf:54:95:0b:97:a4:00:9a:d8:82:74:25:e7:fa:a4:
                    ea:3b:67:4e:a0:54:0b:5c:67:a7:79:8a:1f:d7:f6:
                    9a:fd:73:8a:15:d7:54:a8:aa:8e:8e:60:6a:d3:56:
                    85:51:fa:2e:8f:49:93:4c:95:6c:dd:d6:c8:dc:4a:
                    bf:4f:c1:7f:ec:b5:04:f6:49:a6:60:c8:33:91:79:
                    e8:3c:c5:3d:24:5d:c6:b0:7e:cb:6f:ae:68:74:81:
                    7c:92:fc:ca:cf:94:41:c6:fb:81:0d:c0:4d:42:2f:
                    1c:5d:3a:3d:b1:c3:c6:fd:90:4f:38:08:41:68:9d:
                    ac:8b:02:98:46:0d:40:16:65:6c:16:68:1c:b0:a3:
                    7c:da:82:41:c2:5c:cd:48:88:07:d5:ff:d1:28:a9:
                    ef:b9:e4:52:4e:53:24:97:a9:c9:07:6e:cf:d8:8e:
                    15:f4:e4:08:8e:aa:d0:4b:db:9f:98:e2:0a:e8:b4:
                    32:4d
                Exponent: 65537 (0x10001)
        X509v3 extensions:
            X509v3 Basic Constraints: 
                CA:FALSE
            X509v3 Subject Key Identifier: 
                2B:82:BB:47:9B:5D:86:92:5B:C0:DE:E4:56:0F:C9:D5:59:79:02:E2
            X509v3 Authority Key Identifier: 
                keyid:B9:7A:28:E2:43:CA:14:7D:73:4A:85:8E:4C:4B:8F:02:29:E2:C5:E8
                DirName:/CN=team165-net
                serial:47:E7:98:26:B7:06:E5:D0:6C:42:E1:63:2E:FA:7C:D6:EF:D6:E0:03

            X509v3 Extended Key Usage: 
                TLS Web Client Authentication
            X509v3 Key Usage: 
                Digital Signature
    Signature Algorithm: sha256WithRSAEncryption
         45:85:36:52:e4:79:4c:38:1c:23:24:c9:d0:64:12:be:82:b2:
         aa:f2:e1:b1:40:5e:14:00:d6:56:64:62:63:27:66:ce:f4:d4:
         b8:ab:e3:f6:e9:fd:ee:32:3c:8f:5b:d5:7c:ef:0b:ad:a4:b2:
         d8:f8:09:db:ae:2e:0d:f9:91:ed:99:34:14:7e:2f:3c:d0:97:
         22:61:9b:41:8d:f8:8e:20:f7:c2:2c:94:af:b4:c9:33:52:82:
         1a:9e:23:97:6a:58:a4:3e:c4:04:e5:07:8d:20:ad:59:8a:61:
         9e:f8:13:cb:5d:ce:52:6b:df:95:e7:5a:13:58:db:f9:dd:a4:
         e9:21:e5:45:54:b4:a4:71:52:16:a7:f7:96:34:f3:4f:70:72:
         28:08:33:c9:6c:39:40:ce:bc:94:c6:f4:d2:4c:dd:0d:40:4b:
         ab:ab:05:ae:99:76:f1:48:31:8d:2b:e7:37:2e:59:f6:ed:62:
         d0:ca:2a:0e:76:7b:46:f6:a6:00:4c:dd:7d:12:03:0f:0a:6e:
         e4:2c:bd:83:46:1a:30:69:c9:1b:c2:2f:2c:0e:9f:e9:37:4a:
         a0:86:e4:0a:58:40:72:6a:4f:05:0b:2f:0d:f9:47:36:4b:bb:
         1a:26:74:be:81:6a:06:34:87:68:9e:2b:f2:a9:81:49:8a:6b:
         d0:b8:d1:85
-----BEGIN CERTIFICATE-----
MIIDXTCCAkWgAwIBAgIRALIDi4r29gJVP/bHQwnw2JYwDQYJKoZIhvcNAQELBQAw
FjEUMBIGA1UEAwwLdGVhbTE2NS1uZXQwHhcNMjMwODE0MTQyNTQxWhcNMjYwNzI5
MTQyNTQxWjAZMRcwFQYDVQQDDA50ZWFtMTY1LWNsaWVudDCCASIwDQYJKoZIhvcN
AQEBBQADggEPADCCAQoCggEBALIf2V88cxjZauCN/yQj0THjvViC9gOGqtU8qzWr
zANwqNdxu6RBxbIAmpcgk1/EuGzCpNYAOvEtlvysZtgHqGsed2OVNpzFMHl2z1SV
C5ekAJrYgnQl5/qk6jtnTqBUC1xnp3mKH9f2mv1zihXXVKiqjo5gatNWhVH6Lo9J
k0yVbN3WyNxKv0/Bf+y1BPZJpmDIM5F56DzFPSRdxrB+y2+uaHSBfJL8ys+UQcb7
gQ3ATUIvHF06PbHDxv2QTzgIQWidrIsCmEYNQBZlbBZoHLCjfNqCQcJczUiIB9X/
0Sip77nkUk5TJJepyQduz9iOFfTkCI6q0Evbn5jiCui0Mk0CAwEAAaOBojCBnzAJ
BgNVHRMEAjAAMB0GA1UdDgQWBBQrgrtHm12GklvA3uRWD8nVWXkC4jBRBgNVHSME
SjBIgBS5eijiQ8oUfXNKhY5MS48CKeLF6KEapBgwFjEUMBIGA1UEAwwLdGVhbTE2
NS1uZXSCFEfnmCa3BuXQbELhYy76fNbv1uADMBMGA1UdJQQMMAoGCCsGAQUFBwMC
MAsGA1UdDwQEAwIHgDANBgkqhkiG9w0BAQsFAAOCAQEARYU2UuR5TDgcIyTJ0GQS
voKyqvLhsUBeFADWVmRiYydmzvTUuKvj9un97jI8j1vVfO8LraSy2PgJ264uDfmR
7Zk0FH4vPNCXImGbQY34jiD3wiyUr7TJM1KCGp4jl2pYpD7EBOUHjSCtWYphnvgT
y13OUmvfledaE1jb+d2k6SHlRVS0pHFSFqf3ljTzT3ByKAgzyWw5QM68lMb00kzd
DUBLq6sFrpl28UgxjSvnNy5Z9u1i0MoqDnZ7RvamAEzdfRIDDwpu5Cy9g0YaMGnJ
G8IvLA6f6TdKoIbkClhAcmpPBQsvDflHNku7GiZ0voFqBjSHaJ4r8qmBSYpr0LjR
hQ==
-----END CERTIFICATE-----
