Certificate:
    Data:
        Version: 3 (0x2)
        Serial Number:
            31:4f:f6:75:a2:14:84:10:7d:ba:a8:c8:67:1b:3d:dd
        Signature Algorithm: sha256WithRSAEncryption
        Issuer: CN=team29-net
        Validity
            Not Before: Aug 14 14:22:39 2023 GMT
            Not After : Jul 29 14:22:39 2026 GMT
        Subject: CN=team29-client
        Subject Public Key Info:
            Public Key Algorithm: rsaEncryption
                RSA Public-Key: (2048 bit)
                Modulus:
                    00:98:84:ee:5f:ea:8f:35:83:fd:c2:c7:17:54:83:
                    d8:68:11:b4:25:d0:95:02:b7:b0:c3:86:12:cf:64:
                    83:e4:65:67:66:8e:f3:c5:6d:35:61:ef:22:59:97:
                    9e:b3:5c:52:36:12:cf:98:24:6d:87:c7:c9:11:12:
                    78:6b:c6:05:68:bc:49:a5:e4:92:46:e8:1e:0c:7c:
                    cf:81:c0:e7:e1:f4:8a:75:72:e3:98:80:7d:1d:de:
                    69:cc:ca:b4:0e:ad:c2:e7:29:78:f0:4e:2d:d3:50:
                    e6:35:3c:c7:b2:61:da:66:a9:80:a4:0f:a8:5c:74:
                    33:8b:57:4c:7b:b2:27:21:a6:9f:a7:7b:50:c0:56:
                    cb:d1:58:1e:4a:16:17:0b:30:ed:c3:42:ff:21:05:
                    fe:ab:15:fe:2e:ba:81:e7:fd:7e:17:9d:ed:31:26:
                    57:92:8b:00:29:15:6b:3e:4a:2d:8e:d4:9e:9d:5b:
                    83:fa:97:ae:b7:74:bf:74:9b:48:87:4a:cc:ed:75:
                    99:71:bd:48:45:23:1d:e6:1a:07:5b:90:a4:a6:dd:
                    a3:8b:cc:a9:f9:90:83:b4:83:76:51:4d:eb:d7:41:
                    2a:e9:51:cf:d0:71:ae:e0:7f:63:71:16:82:d5:2c:
                    50:73:26:3c:07:59:ef:25:11:a6:fb:66:14:a0:02:
                    67:9d
                Exponent: 65537 (0x10001)
        X509v3 extensions:
            X509v3 Basic Constraints: 
                CA:FALSE
            X509v3 Subject Key Identifier: 
                C6:7D:7D:A3:AA:B1:13:AF:BF:CF:97:D4:3D:E2:3B:D0:BE:4A:C1:12
            X509v3 Authority Key Identifier: 
                keyid:C0:04:09:88:1B:82:BB:08:6E:46:41:1A:8A:BF:8F:EF:46:94:C1:2F
                DirName:/CN=team29-net
                serial:36:D4:E0:39:1C:55:AB:C6:91:85:F5:A5:B6:B8:61:4C:D6:CD:50:26

            X509v3 Extended Key Usage: 
                TLS Web Client Authentication
            X509v3 Key Usage: 
                Digital Signature
    Signature Algorithm: sha256WithRSAEncryption
         98:17:96:0c:b6:ef:0c:01:eb:a0:cf:2e:62:32:b4:c3:d7:60:
         02:ec:c4:39:70:17:96:b9:50:bd:96:58:86:b4:a2:b9:35:2a:
         99:48:bf:78:9c:61:16:b1:d9:8f:68:00:79:da:48:77:9b:33:
         4d:2c:5d:d9:ea:4f:5e:47:19:c8:be:31:8a:ab:c7:f9:e6:71:
         8d:ca:af:4d:c6:c4:64:17:98:37:87:05:21:84:02:de:09:77:
         7a:4e:ee:6e:cb:ad:01:f7:cd:7b:87:e3:ca:8e:f7:ce:a7:03:
         8e:96:fc:02:88:93:da:97:76:bb:75:8c:fd:bf:53:3c:04:34:
         6a:cf:16:c7:28:78:b8:64:07:78:64:6f:0c:ea:2c:19:fd:67:
         2f:df:63:18:4c:a6:9b:0e:3c:10:58:6c:82:e1:6d:44:9b:1f:
         4b:3b:72:5d:41:00:c7:72:8a:79:a1:da:9a:4f:89:04:3b:28:
         dc:c0:0e:2e:77:88:be:6a:41:3a:33:34:d0:2e:b3:3a:a1:c5:
         2c:b4:0d:e5:91:fe:f5:68:80:a1:e2:e3:5e:0c:9e:aa:fc:e6:
         39:22:8b:47:29:a2:a2:1c:99:6b:d1:60:b1:b7:a8:7d:39:57:
         67:ba:06:d2:fb:4c:25:92:4c:88:98:35:ce:3f:de:31:bb:97:
         91:8e:a7:94
-----BEGIN CERTIFICATE-----
MIIDWTCCAkGgAwIBAgIQMU/2daIUhBB9uqjIZxs93TANBgkqhkiG9w0BAQsFADAV
MRMwEQYDVQQDDAp0ZWFtMjktbmV0MB4XDTIzMDgxNDE0MjIzOVoXDTI2MDcyOTE0
MjIzOVowGDEWMBQGA1UEAwwNdGVhbTI5LWNsaWVudDCCASIwDQYJKoZIhvcNAQEB
BQADggEPADCCAQoCggEBAJiE7l/qjzWD/cLHF1SD2GgRtCXQlQK3sMOGEs9kg+Rl
Z2aO88VtNWHvIlmXnrNcUjYSz5gkbYfHyRESeGvGBWi8SaXkkkboHgx8z4HA5+H0
inVy45iAfR3eaczKtA6twucpePBOLdNQ5jU8x7Jh2mapgKQPqFx0M4tXTHuyJyGm
n6d7UMBWy9FYHkoWFwsw7cNC/yEF/qsV/i66gef9fhed7TEmV5KLACkVaz5KLY7U
np1bg/qXrrd0v3SbSIdKzO11mXG9SEUjHeYaB1uQpKbdo4vMqfmQg7SDdlFN69dB
KulRz9BxruB/Y3EWgtUsUHMmPAdZ7yURpvtmFKACZ50CAwEAAaOBoTCBnjAJBgNV
HRMEAjAAMB0GA1UdDgQWBBTGfX2jqrETr7/Pl9Q94jvQvkrBEjBQBgNVHSMESTBH
gBTABAmIG4K7CG5GQRqKv4/vRpTBL6EZpBcwFTETMBEGA1UEAwwKdGVhbTI5LW5l
dIIUNtTgORxVq8aRhfWltrhhTNbNUCYwEwYDVR0lBAwwCgYIKwYBBQUHAwIwCwYD
VR0PBAQDAgeAMA0GCSqGSIb3DQEBCwUAA4IBAQCYF5YMtu8MAeugzy5iMrTD12AC
7MQ5cBeWuVC9lliGtKK5NSqZSL94nGEWsdmPaAB52kh3mzNNLF3Z6k9eRxnIvjGK
q8f55nGNyq9NxsRkF5g3hwUhhALeCXd6Tu5uy60B9817h+PKjvfOpwOOlvwCiJPa
l3a7dYz9v1M8BDRqzxbHKHi4ZAd4ZG8M6iwZ/Wcv32MYTKabDjwQWGyC4W1Emx9L
O3JdQQDHcop5odqaT4kEOyjcwA4ud4i+akE6MzTQLrM6ocUstA3lkf71aICh4uNe
DJ6q/OY5IotHKaKiHJlr0WCxt6h9OVdnugbS+0wlkkyImDXOP94xu5eRjqeU
-----END CERTIFICATE-----
