Certificate:
    Data:
        Version: 3 (0x2)
        Serial Number:
            28:dc:f5:a0:10:ba:aa:de:4b:4c:ad:5f:99:9a:13:a2
        Signature Algorithm: sha256WithRSAEncryption
        Issuer: CN=team32-net
        Validity
            Not Before: Aug 14 14:22:44 2023 GMT
            Not After : Jul 29 14:22:44 2026 GMT
        Subject: CN=team32-server
        Subject Public Key Info:
            Public Key Algorithm: rsaEncryption
                RSA Public-Key: (2048 bit)
                Modulus:
                    00:e4:5e:df:bd:28:c7:3c:53:8f:99:2a:27:20:65:
                    a1:ae:dc:fd:05:e5:06:89:e3:b7:ee:1c:32:1f:a2:
                    4a:88:bf:0c:ed:1c:75:78:fe:35:f8:48:f3:6b:88:
                    8c:dd:f0:5c:9a:f7:b9:3e:18:84:6c:16:d4:f6:d1:
                    e8:be:ad:2a:d5:aa:b5:31:de:f9:b7:26:0b:6f:b8:
                    62:b7:f9:87:0c:be:28:28:3a:3b:e5:6e:ec:f1:1c:
                    9f:25:ea:43:f5:23:03:d1:13:75:80:a6:6c:a0:03:
                    af:c4:cf:35:27:33:90:2e:10:f7:a2:34:7a:21:ba:
                    c0:d8:31:63:67:2d:88:e6:09:b5:7a:e6:49:a3:71:
                    67:9c:4a:a6:01:89:9d:f9:af:3b:90:55:6a:42:73:
                    7e:fa:11:a1:40:1e:cf:c4:2d:6a:a5:12:77:2d:51:
                    f7:70:80:1b:1a:6c:1e:8f:6e:a4:fe:90:1f:eb:14:
                    88:0c:04:f6:8e:b8:96:76:09:8b:87:ea:6f:8d:3b:
                    4c:5d:90:21:1c:8b:8b:85:c7:82:75:f0:28:13:18:
                    b7:ab:f8:8c:bc:ba:09:8b:fe:c0:26:0f:05:04:75:
                    b5:c4:8a:61:19:bb:20:c5:c7:8a:a9:54:86:8e:05:
                    f9:b2:d3:13:15:56:8f:2e:37:4e:e3:1d:b2:ad:49:
                    4d:d1
                Exponent: 65537 (0x10001)
        X509v3 extensions:
            X509v3 Basic Constraints: 
                CA:FALSE
            X509v3 Subject Key Identifier: 
                EC:6D:72:47:EA:D1:21:7A:A9:F7:47:9A:66:BB:AE:F6:16:DB:25:CB
            X509v3 Authority Key Identifier: 
                keyid:82:FD:3A:72:99:DE:55:9D:0D:62:15:5A:4B:16:2F:91:00:2A:ED:5A
                DirName:/CN=team32-net
                serial:7B:3F:A0:5B:B4:B4:7D:95:CA:B2:2B:41:4C:0C:06:B9:AB:C6:5F:32

            X509v3 Extended Key Usage: 
                TLS Web Server Authentication
            X509v3 Key Usage: 
                Digital Signature, Key Encipherment
            X509v3 Subject Alternative Name: 
                DNS:team32-server
    Signature Algorithm: sha256WithRSAEncryption
         8e:aa:15:b1:eb:90:46:99:f2:e4:2c:3f:99:ff:f6:46:84:e1:
         7d:38:c6:83:11:61:00:9d:bd:04:94:82:f7:50:9a:62:2f:7f:
         ec:5f:8f:84:d2:dc:c2:39:dc:02:75:9c:86:27:77:e2:e2:d5:
         e0:23:c0:24:37:63:13:37:a9:57:be:b3:c8:a6:63:5f:21:6a:
         52:e3:e9:6e:7d:6a:8e:a0:86:50:eb:02:8a:15:4b:2c:dd:02:
         57:9d:c3:cd:76:1d:8c:33:8c:38:0e:10:b5:85:e5:ae:29:e0:
         85:05:ac:0d:bb:7f:33:e6:ed:9f:d7:fb:d2:7d:ee:88:dd:2d:
         23:f9:6d:3d:46:4e:18:74:68:48:a9:68:b4:f7:0a:17:d5:90:
         fa:69:b8:dc:fa:38:94:98:34:4c:08:7d:bc:02:dd:f9:76:b4:
         d3:22:c3:6e:2c:cd:90:43:aa:1a:33:7e:19:b9:4f:07:4d:aa:
         87:aa:63:38:3a:59:42:58:46:d3:04:32:a7:b4:c8:e3:8e:e0:
         86:7a:11:b6:60:a8:bc:45:2c:f8:1c:de:a2:71:0a:dc:13:87:
         6e:8f:ea:13:34:f1:9b:cc:af:8e:f5:5f:af:d6:f2:97:9d:a6:
         fa:85:41:4f:a4:16:db:90:b2:7b:1e:eb:c8:8c:d6:7f:94:1e:
         dc:bf:ff:73
-----BEGIN CERTIFICATE-----
MIIDczCCAlugAwIBAgIQKNz1oBC6qt5LTK1fmZoTojANBgkqhkiG9w0BAQsFADAV
MRMwEQYDVQQDDAp0ZWFtMzItbmV0MB4XDTIzMDgxNDE0MjI0NFoXDTI2MDcyOTE0
MjI0NFowGDEWMBQGA1UEAwwNdGVhbTMyLXNlcnZlcjCCASIwDQYJKoZIhvcNAQEB
BQADggEPADCCAQoCggEBAORe370oxzxTj5kqJyBloa7c/QXlBonjt+4cMh+iSoi/
DO0cdXj+NfhI82uIjN3wXJr3uT4YhGwW1PbR6L6tKtWqtTHe+bcmC2+4Yrf5hwy+
KCg6O+Vu7PEcnyXqQ/UjA9ETdYCmbKADr8TPNSczkC4Q96I0eiG6wNgxY2ctiOYJ
tXrmSaNxZ5xKpgGJnfmvO5BVakJzfvoRoUAez8QtaqUSdy1R93CAGxpsHo9upP6Q
H+sUiAwE9o64lnYJi4fqb407TF2QIRyLi4XHgnXwKBMYt6v4jLy6CYv+wCYPBQR1
tcSKYRm7IMXHiqlUho4F+bLTExVWjy43TuMdsq1JTdECAwEAAaOBuzCBuDAJBgNV
HRMEAjAAMB0GA1UdDgQWBBTsbXJH6tEheqn3R5pmu672FtslyzBQBgNVHSMESTBH
gBSC/Tpymd5VnQ1iFVpLFi+RACrtWqEZpBcwFTETMBEGA1UEAwwKdGVhbTMyLW5l
dIIUez+gW7S0fZXKsitBTAwGuavGXzIwEwYDVR0lBAwwCgYIKwYBBQUHAwEwCwYD
VR0PBAQDAgWgMBgGA1UdEQQRMA+CDXRlYW0zMi1zZXJ2ZXIwDQYJKoZIhvcNAQEL
BQADggEBAI6qFbHrkEaZ8uQsP5n/9kaE4X04xoMRYQCdvQSUgvdQmmIvf+xfj4TS
3MI53AJ1nIYnd+Li1eAjwCQ3YxM3qVe+s8imY18halLj6W59ao6ghlDrAooVSyzd
Aledw812HYwzjDgOELWF5a4p4IUFrA27fzPm7Z/X+9J97ojdLSP5bT1GThh0aEip
aLT3ChfVkPppuNz6OJSYNEwIfbwC3fl2tNMiw24szZBDqhozfhm5TwdNqoeqYzg6
WUJYRtMEMqe0yOOO4IZ6EbZgqLxFLPgc3qJxCtwTh26P6hM08ZvMr471X6/W8ped
pvqFQU+kFtuQsnse68iM1n+UHty//3M=
-----END CERTIFICATE-----
