Certificate:
    Data:
        Version: 3 (0x2)
        Serial Number:
            f5:fd:5b:f3:13:ad:b2:30:f0:ae:67:79:b6:a5:1f:09
        Signature Algorithm: sha256WithRSAEncryption
        Issuer: CN=team32-net
        Validity
            Not Before: Aug 14 14:22:44 2023 GMT
            Not After : Jul 29 14:22:44 2026 GMT
        Subject: CN=team32-client
        Subject Public Key Info:
            Public Key Algorithm: rsaEncryption
                RSA Public-Key: (2048 bit)
                Modulus:
                    00:d1:29:27:dc:b5:4a:8a:53:ec:ba:21:72:fd:51:
                    7b:54:4d:90:7e:98:00:c8:a2:9f:ee:67:1e:09:fa:
                    4d:a9:90:a9:7f:92:66:7a:20:53:88:48:a1:3c:e1:
                    b8:22:90:13:b5:48:1c:bf:40:89:71:a5:da:e0:78:
                    f3:e6:1d:35:a2:41:23:c0:95:2e:54:44:a0:22:eb:
                    16:f8:a6:82:91:67:89:25:5f:2f:67:25:90:c6:9d:
                    71:75:38:4c:cb:62:dc:ca:48:f9:90:15:16:c8:57:
                    ed:b4:46:50:bf:31:7e:8d:55:ee:c5:f2:53:11:f3:
                    49:d5:ae:9e:96:46:e6:fb:2f:20:d8:61:4c:69:c4:
                    0e:49:2d:dd:1a:6f:0e:dd:89:92:f4:ad:b4:37:8b:
                    79:6c:01:d8:cc:b8:ab:64:1a:37:5c:19:24:c6:17:
                    2e:fb:d4:ed:63:cf:6b:ca:61:dc:c6:f6:cd:71:7f:
                    99:ca:d5:3c:06:67:94:54:8f:a2:22:f8:de:b8:5c:
                    86:1b:47:f5:62:0f:f0:3b:ec:42:a0:97:04:8c:a8:
                    3f:58:0d:fb:6b:5e:79:9d:34:95:a0:05:2f:ac:b5:
                    aa:c4:57:36:f8:31:43:49:65:74:df:ab:c8:3b:0d:
                    3e:0b:d4:83:77:5c:90:59:0d:e2:30:d8:e5:3c:d0:
                    1c:1d
                Exponent: 65537 (0x10001)
        X509v3 extensions:
            X509v3 Basic Constraints: 
                CA:FALSE
            X509v3 Subject Key Identifier: 
                4F:EA:8F:A4:4D:1F:B6:11:86:77:D9:F1:96:F4:C7:C6:BC:D6:B3:4B
            X509v3 Authority Key Identifier: 
                keyid:82:FD:3A:72:99:DE:55:9D:0D:62:15:5A:4B:16:2F:91:00:2A:ED:5A
                DirName:/CN=team32-net
                serial:7B:3F:A0:5B:B4:B4:7D:95:CA:B2:2B:41:4C:0C:06:B9:AB:C6:5F:32

            X509v3 Extended Key Usage: 
                TLS Web Client Authentication
            X509v3 Key Usage: 
                Digital Signature
    Signature Algorithm: sha256WithRSAEncryption
         73:2c:79:c8:b2:d9:75:dc:15:aa:c8:35:8b:9b:85:8e:4f:51:
         34:20:17:79:dd:2a:3c:06:bf:95:18:38:99:f5:40:6a:78:95:
         94:f3:c9:0c:3b:58:a2:64:9d:88:7e:cb:c0:34:65:9a:2e:59:
         95:0c:bd:34:8a:e7:4c:66:b8:de:bc:cf:36:b7:90:2a:50:67:
         56:5a:10:90:a8:64:d7:c4:16:cb:c1:4a:61:f3:ba:19:8f:97:
         ea:0d:f4:e8:77:7e:f2:ea:c9:0c:27:c9:bc:ab:07:50:97:20:
         89:27:b0:72:14:59:f0:0a:25:47:29:e1:6c:56:a7:59:bd:a0:
         51:7a:a2:de:03:e5:f6:c9:ce:b2:6f:87:6c:a7:69:4d:79:6f:
         93:1e:d3:bc:4a:41:7f:6c:7d:04:d9:9a:e2:5d:bd:45:a1:08:
         89:8b:35:44:b0:96:66:64:c3:16:1d:fe:97:52:a6:86:9d:f4:
         54:de:b8:d1:d8:ce:db:aa:19:f8:9c:47:1f:d7:36:bb:40:d8:
         96:7e:8b:34:d0:b8:10:30:93:e3:c0:cf:45:9a:0f:c1:27:47:
         56:5e:33:ef:90:22:dc:dc:2f:07:47:7b:5e:30:6e:41:a4:bf:
         ff:00:39:ad:06:3a:a3:d6:e6:8b:0e:4e:04:bb:c9:f6:95:0a:
         2f:8e:26:83
-----BEGIN CERTIFICATE-----
MIIDWjCCAkKgAwIBAgIRAPX9W/MTrbIw8K5nebalHwkwDQYJKoZIhvcNAQELBQAw
FTETMBEGA1UEAwwKdGVhbTMyLW5ldDAeFw0yMzA4MTQxNDIyNDRaFw0yNjA3Mjkx
NDIyNDRaMBgxFjAUBgNVBAMMDXRlYW0zMi1jbGllbnQwggEiMA0GCSqGSIb3DQEB
AQUAA4IBDwAwggEKAoIBAQDRKSfctUqKU+y6IXL9UXtUTZB+mADIop/uZx4J+k2p
kKl/kmZ6IFOISKE84bgikBO1SBy/QIlxpdrgePPmHTWiQSPAlS5URKAi6xb4poKR
Z4klXy9nJZDGnXF1OEzLYtzKSPmQFRbIV+20RlC/MX6NVe7F8lMR80nVrp6WRub7
LyDYYUxpxA5JLd0abw7diZL0rbQ3i3lsAdjMuKtkGjdcGSTGFy771O1jz2vKYdzG
9s1xf5nK1TwGZ5RUj6Ii+N64XIYbR/ViD/A77EKglwSMqD9YDftrXnmdNJWgBS+s
tarEVzb4MUNJZXTfq8g7DT4L1IN3XJBZDeIw2OU80BwdAgMBAAGjgaEwgZ4wCQYD
VR0TBAIwADAdBgNVHQ4EFgQUT+qPpE0fthGGd9nxlvTHxrzWs0swUAYDVR0jBEkw
R4AUgv06cpneVZ0NYhVaSxYvkQAq7VqhGaQXMBUxEzARBgNVBAMMCnRlYW0zMi1u
ZXSCFHs/oFu0tH2VyrIrQUwMBrmrxl8yMBMGA1UdJQQMMAoGCCsGAQUFBwMCMAsG
A1UdDwQEAwIHgDANBgkqhkiG9w0BAQsFAAOCAQEAcyx5yLLZddwVqsg1i5uFjk9R
NCAXed0qPAa/lRg4mfVAaniVlPPJDDtYomSdiH7LwDRlmi5ZlQy9NIrnTGa43rzP
NreQKlBnVloQkKhk18QWy8FKYfO6GY+X6g306Hd+8urJDCfJvKsHUJcgiSewchRZ
8AolRynhbFanWb2gUXqi3gPl9snOsm+HbKdpTXlvkx7TvEpBf2x9BNma4l29RaEI
iYs1RLCWZmTDFh3+l1Kmhp30VN640djO26oZ+JxHH9c2u0DYln6LNNC4EDCT48DP
RZoPwSdHVl4z75Ai3NwvB0d7XjBuQaS//wA5rQY6o9bmiw5OBLvJ9pUKL44mgw==
-----END CERTIFICATE-----
