Certificate:
    Data:
        Version: 3 (0x2)
        Serial Number:
            d9:58:cf:c5:f8:79:14:c2:61:a7:49:0e:e5:39:6b:47
        Signature Algorithm: sha256WithRSAEncryption
        Issuer: CN=team88-net
        Validity
            Not Before: Aug 14 14:24:01 2023 GMT
            Not After : Jul 29 14:24:01 2026 GMT
        Subject: CN=team88-client
        Subject Public Key Info:
            Public Key Algorithm: rsaEncryption
                RSA Public-Key: (2048 bit)
                Modulus:
                    00:db:53:7d:fd:1e:9b:97:ad:f7:a0:89:85:2c:82:
                    77:08:c1:64:1d:a2:d8:42:25:56:66:50:89:8c:70:
                    8e:35:b0:5f:39:a9:b9:1c:c8:5c:7f:13:13:06:c8:
                    a4:52:fb:1e:c3:e5:46:db:91:cb:53:b1:5c:c3:3b:
                    14:93:1d:de:73:90:f7:85:a8:a8:a6:70:de:53:81:
                    8b:9c:da:56:9b:74:a8:44:3a:6c:0a:5b:33:ff:af:
                    5e:b7:64:a5:f1:e5:86:94:88:05:b3:8e:0e:5a:49:
                    7f:70:cb:ce:eb:56:be:9e:02:52:6d:64:5a:95:22:
                    d9:6a:ee:6a:df:37:e6:e1:69:15:2c:e7:80:2d:26:
                    f6:78:b8:30:8c:55:2d:86:6a:d1:78:2c:95:bd:5d:
                    ef:01:e6:1c:31:83:30:63:59:18:70:45:c6:ac:52:
                    43:ff:f0:25:f0:46:d1:fe:1c:fe:3f:92:a4:5f:36:
                    06:d2:22:e1:61:0c:e8:88:66:c8:a3:4d:ea:39:87:
                    63:3a:1b:8d:1b:b9:83:ee:d7:fc:78:3a:0c:fb:20:
                    3f:64:ce:80:0d:b8:33:c5:e8:6d:04:9d:de:61:df:
                    ac:5a:28:01:8f:3e:70:e9:ef:6f:68:1d:cf:82:40:
                    7a:f9:cc:d5:5e:5b:24:5e:02:b1:fa:07:ad:4a:64:
                    4b:11
                Exponent: 65537 (0x10001)
        X509v3 extensions:
            X509v3 Basic Constraints: 
                CA:FALSE
            X509v3 Subject Key Identifier: 
                CE:9F:46:D2:BC:82:84:CE:A0:84:2E:99:BB:E7:8E:24:F2:F9:59:F8
            X509v3 Authority Key Identifier: 
                keyid:F5:9B:91:6D:D0:AD:E7:72:B5:BB:38:B5:65:57:75:92:01:49:30:5A
                DirName:/CN=team88-net
                serial:45:56:29:57:37:72:39:E5:CC:22:3A:EC:B2:7A:AF:79:63:DD:E3:7F

            X509v3 Extended Key Usage: 
                TLS Web Client Authentication
            X509v3 Key Usage: 
                Digital Signature
    Signature Algorithm: sha256WithRSAEncryption
         56:a2:5e:32:8d:5a:01:62:1e:6b:34:9f:05:0f:9e:6a:04:f4:
         ae:32:58:2e:52:5b:8e:5b:2a:a4:56:20:85:8d:6d:b0:68:67:
         43:a9:e4:e9:fe:1a:f5:93:a1:ba:1d:60:1e:5a:23:ce:3e:a0:
         2f:6d:26:fc:5d:36:6c:7d:86:b2:74:89:f4:b6:e9:16:c6:37:
         6f:46:ae:3f:f1:66:11:60:5d:85:dc:83:05:47:a0:bc:ac:17:
         f3:ab:88:07:4b:51:d4:f0:e5:6b:71:85:96:fa:bd:31:0e:c5:
         1d:77:65:0e:f1:37:b8:7a:9c:80:a0:c6:05:23:db:80:00:d4:
         5d:01:40:90:92:53:ad:60:c1:16:a2:8c:8a:bf:c6:5b:a7:b6:
         64:29:7f:c1:94:6d:05:33:17:8c:6f:74:c7:7d:6b:99:f5:55:
         ca:a8:3a:0d:be:11:44:47:f7:0c:0f:e9:ae:b4:82:69:6c:c7:
         5c:de:44:df:7d:da:9d:64:44:25:7f:04:64:75:f0:1a:0f:dd:
         34:79:2c:8d:2c:06:4b:e7:9d:f7:b3:14:c7:d5:62:30:f7:2c:
         cb:e0:70:9e:ca:84:a9:e9:11:09:7c:9e:65:b3:fb:ac:ea:0a:
         95:a0:90:5f:75:90:74:70:0c:4a:40:e4:20:49:84:11:15:e7:
         55:28:2a:5f
-----BEGIN CERTIFICATE-----
MIIDWjCCAkKgAwIBAgIRANlYz8X4eRTCYadJDuU5a0cwDQYJKoZIhvcNAQELBQAw
FTETMBEGA1UEAwwKdGVhbTg4LW5ldDAeFw0yMzA4MTQxNDI0MDFaFw0yNjA3Mjkx
NDI0MDFaMBgxFjAUBgNVBAMMDXRlYW04OC1jbGllbnQwggEiMA0GCSqGSIb3DQEB
AQUAA4IBDwAwggEKAoIBAQDbU339HpuXrfegiYUsgncIwWQdothCJVZmUImMcI41
sF85qbkcyFx/ExMGyKRS+x7D5UbbkctTsVzDOxSTHd5zkPeFqKimcN5TgYuc2lab
dKhEOmwKWzP/r163ZKXx5YaUiAWzjg5aSX9wy87rVr6eAlJtZFqVItlq7mrfN+bh
aRUs54AtJvZ4uDCMVS2GatF4LJW9Xe8B5hwxgzBjWRhwRcasUkP/8CXwRtH+HP4/
kqRfNgbSIuFhDOiIZsijTeo5h2M6G40buYPu1/x4Ogz7ID9kzoANuDPF6G0End5h
36xaKAGPPnDp729oHc+CQHr5zNVeWyReArH6B61KZEsRAgMBAAGjgaEwgZ4wCQYD
VR0TBAIwADAdBgNVHQ4EFgQUzp9G0ryChM6ghC6Zu+eOJPL5WfgwUAYDVR0jBEkw
R4AU9ZuRbdCt53K1uzi1ZVd1kgFJMFqhGaQXMBUxEzARBgNVBAMMCnRlYW04OC1u
ZXSCFEVWKVc3cjnlzCI67LJ6r3lj3eN/MBMGA1UdJQQMMAoGCCsGAQUFBwMCMAsG
A1UdDwQEAwIHgDANBgkqhkiG9w0BAQsFAAOCAQEAVqJeMo1aAWIeazSfBQ+eagT0
rjJYLlJbjlsqpFYghY1tsGhnQ6nk6f4a9ZOhuh1gHlojzj6gL20m/F02bH2GsnSJ
9LbpFsY3b0auP/FmEWBdhdyDBUegvKwX86uIB0tR1PDla3GFlvq9MQ7FHXdlDvE3
uHqcgKDGBSPbgADUXQFAkJJTrWDBFqKMir/GW6e2ZCl/wZRtBTMXjG90x31rmfVV
yqg6Db4RREf3DA/prrSCaWzHXN5E333anWREJX8EZHXwGg/dNHksjSwGS+ed97MU
x9ViMPcsy+BwnsqEqekRCXyeZbP7rOoKlaCQX3WQdHAMSkDkIEmEERXnVSgqXw==
-----END CERTIFICATE-----
