Certificate:
    Data:
        Version: 3 (0x2)
        Serial Number:
            2c:ab:5e:de:a4:13:65:dc:90:36:74:8b:09:70:ef:1d
        Signature Algorithm: sha256WithRSAEncryption
        Issuer: CN=team149-net
        Validity
            Not Before: Aug 14 14:25:22 2023 GMT
            Not After : Jul 29 14:25:22 2026 GMT
        Subject: CN=team149-client
        Subject Public Key Info:
            Public Key Algorithm: rsaEncryption
                RSA Public-Key: (2048 bit)
                Modulus:
                    00:c0:e0:8a:37:bb:d3:b7:a5:45:16:31:8b:f9:af:
                    38:c0:0a:e3:3b:d7:fa:a1:f9:76:68:39:87:ce:c3:
                    3a:e1:3a:1a:45:22:04:0c:04:d3:98:97:61:63:a7:
                    1c:26:2c:c8:99:d5:55:4d:0e:bb:10:d5:b9:d6:ff:
                    eb:ff:b2:66:15:0f:95:41:7c:83:ee:eb:d6:96:28:
                    cb:6b:61:b1:12:2c:ef:21:5f:5a:73:8c:47:d8:13:
                    d7:49:64:69:32:98:a6:91:08:81:03:2c:89:40:6f:
                    d6:1a:a3:c4:cd:72:f1:de:a4:77:53:fd:ac:eb:ac:
                    89:62:25:cb:79:ba:74:ec:04:18:e0:48:5d:48:7b:
                    81:87:45:00:40:ca:6b:0c:1f:ee:a7:f2:41:37:ed:
                    c9:51:d2:ff:da:fa:90:ed:8c:b0:3a:5c:24:de:2f:
                    b0:b4:ed:3f:29:92:e3:a0:d0:bd:a6:5d:30:c1:1c:
                    71:b2:4e:a5:c2:38:aa:1c:11:74:f4:b7:36:cc:13:
                    a0:ee:94:e9:23:75:93:0b:db:c3:96:92:9c:0c:d1:
                    53:e6:2b:49:34:a9:40:fb:72:14:5d:cf:79:f1:a2:
                    a4:8b:a6:de:3a:48:e7:28:37:25:ab:57:b0:41:d1:
                    02:56:c9:d3:fd:46:60:62:84:d1:41:0d:69:34:71:
                    46:25
                Exponent: 65537 (0x10001)
        X509v3 extensions:
            X509v3 Basic Constraints: 
                CA:FALSE
            X509v3 Subject Key Identifier: 
                4E:28:44:FD:20:00:0A:C4:00:CA:A1:A5:F2:55:D2:47:69:E7:20:B7
            X509v3 Authority Key Identifier: 
                keyid:7D:38:C8:4B:48:AC:CE:D5:EC:25:3F:D4:A8:CE:9A:8A:58:99:C2:A5
                DirName:/CN=team149-net
                serial:26:CF:96:DA:DB:01:67:F3:10:24:98:7C:28:0C:8D:37:6F:52:19:10

            X509v3 Extended Key Usage: 
                TLS Web Client Authentication
            X509v3 Key Usage: 
                Digital Signature
    Signature Algorithm: sha256WithRSAEncryption
         38:ba:c7:d7:20:05:e9:cf:0f:01:9f:d9:a9:b1:e8:5f:88:61:
         41:59:bd:bb:b1:0f:fe:d5:ce:65:df:4a:62:60:45:97:ee:46:
         79:ed:44:a0:61:c5:06:f7:44:e2:1c:49:0a:c3:ac:cd:7a:43:
         b3:2f:d3:51:84:66:93:c8:b9:2e:a7:fa:de:28:e6:b5:4a:c0:
         97:bc:8d:5c:cf:6f:d7:79:d5:7a:d1:93:94:0b:1b:00:89:a8:
         2f:e5:a3:88:da:85:43:97:84:2c:c2:b2:d5:f6:95:96:fc:e0:
         8f:eb:3b:d5:41:a9:2e:74:85:ee:94:b8:30:06:9a:69:43:ba:
         8a:24:e7:7e:92:f8:f1:6f:46:fd:c1:ca:d6:fa:91:91:30:89:
         c6:7e:f1:c1:61:d4:5c:1f:7f:f8:24:d6:ef:ca:4b:56:b7:c7:
         c4:e9:5d:9b:a8:b4:39:f5:94:36:a5:cb:ca:0e:92:ff:91:f3:
         bf:b6:1d:7d:27:d2:95:f7:4a:aa:0d:14:a5:9c:fc:e8:87:85:
         3a:42:27:2b:44:9b:fb:2c:ce:37:8c:71:7f:cb:fd:78:0e:2c:
         c8:92:09:ea:8d:fc:49:24:bf:85:38:b9:cb:9f:3b:cd:1c:c6:
         e6:f9:04:61:4b:42:ed:9c:64:9d:ec:e5:89:da:c7:ed:36:34:
         2b:1d:dd:8b
-----BEGIN CERTIFICATE-----
MIIDXDCCAkSgAwIBAgIQLKte3qQTZdyQNnSLCXDvHTANBgkqhkiG9w0BAQsFADAW
MRQwEgYDVQQDDAt0ZWFtMTQ5LW5ldDAeFw0yMzA4MTQxNDI1MjJaFw0yNjA3Mjkx
NDI1MjJaMBkxFzAVBgNVBAMMDnRlYW0xNDktY2xpZW50MIIBIjANBgkqhkiG9w0B
AQEFAAOCAQ8AMIIBCgKCAQEAwOCKN7vTt6VFFjGL+a84wArjO9f6ofl2aDmHzsM6
4ToaRSIEDATTmJdhY6ccJizImdVVTQ67ENW51v/r/7JmFQ+VQXyD7uvWlijLa2Gx
EizvIV9ac4xH2BPXSWRpMpimkQiBAyyJQG/WGqPEzXLx3qR3U/2s66yJYiXLebp0
7AQY4EhdSHuBh0UAQMprDB/up/JBN+3JUdL/2vqQ7YywOlwk3i+wtO0/KZLjoNC9
pl0wwRxxsk6lwjiqHBF09Lc2zBOg7pTpI3WTC9vDlpKcDNFT5itJNKlA+3IUXc95
8aKki6beOkjnKDclq1ewQdECVsnT/UZgYoTRQQ1pNHFGJQIDAQABo4GiMIGfMAkG
A1UdEwQCMAAwHQYDVR0OBBYEFE4oRP0gAArEAMqhpfJV0kdp5yC3MFEGA1UdIwRK
MEiAFH04yEtIrM7V7CU/1KjOmopYmcKloRqkGDAWMRQwEgYDVQQDDAt0ZWFtMTQ5
LW5ldIIUJs+W2tsBZ/MQJJh8KAyNN29SGRAwEwYDVR0lBAwwCgYIKwYBBQUHAwIw
CwYDVR0PBAQDAgeAMA0GCSqGSIb3DQEBCwUAA4IBAQA4usfXIAXpzw8Bn9mpsehf
iGFBWb27sQ/+1c5l30piYEWX7kZ57USgYcUG90TiHEkKw6zNekOzL9NRhGaTyLku
p/reKOa1SsCXvI1cz2/XedV60ZOUCxsAiagv5aOI2oVDl4QswrLV9pWW/OCP6zvV
QakudIXulLgwBpppQ7qKJOd+kvjxb0b9wcrW+pGRMInGfvHBYdRcH3/4JNbvyktW
t8fE6V2bqLQ59ZQ2pcvKDpL/kfO/th19J9KV90qqDRSlnPzoh4U6QicrRJv7LM43
jHF/y/14DizIkgnqjfxJJL+FOLnLnzvNHMbm+QRhS0LtnGSd7OWJ2sftNjQrHd2L
-----END CERTIFICATE-----
