Certificate:
    Data:
        Version: 3 (0x2)
        Serial Number:
            a8:e7:72:b4:c9:0f:cd:d2:53:f1:a4:5f:c7:e5:52:00
        Signature Algorithm: sha256WithRSAEncryption
        Issuer: CN=team149-net
        Validity
            Not Before: Aug 14 14:25:22 2023 GMT
            Not After : Jul 29 14:25:22 2026 GMT
        Subject: CN=team149-server
        Subject Public Key Info:
            Public Key Algorithm: rsaEncryption
                RSA Public-Key: (2048 bit)
                Modulus:
                    00:bc:c6:65:90:ec:34:a0:39:e9:03:03:c8:17:27:
                    ee:54:4d:7b:27:ea:05:67:e3:2a:de:45:ce:fe:ac:
                    a0:e3:9e:61:65:72:dd:f9:f6:03:d2:ac:b9:31:a1:
                    6b:ec:4e:ab:e8:d9:6e:7b:7d:8d:b1:ed:2a:47:14:
                    f2:c7:3d:82:46:3e:8d:1a:7c:e3:be:91:5c:a7:24:
                    25:81:ae:01:db:9b:e7:90:fb:43:e9:47:84:0b:d9:
                    6a:da:7a:91:b2:8e:f8:0a:bb:a9:64:71:c3:34:26:
                    60:51:fe:3c:17:60:ab:88:9a:1e:d1:25:b9:19:c8:
                    73:6e:50:8c:5f:ee:b1:88:96:fb:42:00:d3:69:63:
                    e8:a4:1a:d7:9c:36:d1:8c:aa:be:2f:ba:da:12:5a:
                    32:c5:6a:b6:86:17:ef:62:db:74:d6:fa:18:a1:c7:
                    fd:44:f6:be:7c:72:01:8d:a3:53:a3:28:00:a6:29:
                    3e:16:27:9c:3f:e1:c7:8d:d0:53:34:62:01:95:86:
                    0a:b8:3e:07:fd:21:db:c0:6d:b0:e9:e8:f6:39:31:
                    6d:5f:1d:35:af:06:7b:ec:42:65:e5:5d:33:ec:93:
                    08:22:b5:a3:b5:0f:4e:ac:44:e4:cd:b2:57:63:ac:
                    72:69:be:ab:5f:5a:f1:50:7d:c0:b0:47:f1:7d:b2:
                    cb:97
                Exponent: 65537 (0x10001)
        X509v3 extensions:
            X509v3 Basic Constraints: 
                CA:FALSE
            X509v3 Subject Key Identifier: 
                53:2F:57:EC:57:99:6B:B3:33:13:59:99:E4:5F:6D:43:36:92:D7:32
            X509v3 Authority Key Identifier: 
                keyid:7D:38:C8:4B:48:AC:CE:D5:EC:25:3F:D4:A8:CE:9A:8A:58:99:C2:A5
                DirName:/CN=team149-net
                serial:26:CF:96:DA:DB:01:67:F3:10:24:98:7C:28:0C:8D:37:6F:52:19:10

            X509v3 Extended Key Usage: 
                TLS Web Server Authentication
            X509v3 Key Usage: 
                Digital Signature, Key Encipherment
            X509v3 Subject Alternative Name: 
                DNS:team149-server
    Signature Algorithm: sha256WithRSAEncryption
         26:3c:3d:09:7f:02:ef:f0:e4:87:33:78:e7:c5:94:5f:0d:7e:
         86:c7:de:fa:41:5c:da:7f:15:52:bf:a5:41:85:ff:69:c5:d1:
         9c:c1:14:d2:e6:d4:36:a5:12:97:47:f7:88:df:0b:19:a6:5c:
         d1:5a:3b:e4:10:63:0f:ad:20:c3:f6:d9:33:31:cb:a5:4f:0c:
         be:9e:30:d5:f6:49:0a:3f:27:b8:60:23:6c:83:69:3b:f0:e9:
         b7:7e:fb:db:8a:19:7d:00:97:42:c0:bf:d1:91:5b:ba:e0:49:
         64:bf:fb:23:9c:bf:f3:a9:4a:a1:99:fe:14:18:21:57:d2:db:
         d7:d2:51:d0:91:5f:ff:34:1e:4e:ce:05:ef:90:21:20:67:c0:
         92:ff:3d:8b:84:3f:bd:32:01:f3:12:c7:4f:82:02:f1:3f:81:
         f2:b4:da:d8:d9:6d:6a:34:9b:48:7b:f9:47:ed:10:be:cb:bc:
         93:66:2c:fc:ea:f9:7a:07:b6:eb:9f:25:49:75:f6:f8:8a:0b:
         56:61:14:0a:c7:a4:ce:b6:ee:ec:fe:c3:b6:c1:4a:0e:49:61:
         8b:25:97:7a:e8:e7:63:be:c6:29:78:c9:8e:bb:bb:dc:52:9b:
         4d:ef:93:9b:d8:25:b1:a6:62:32:6e:02:34:56:59:30:a4:45:
         b7:ea:9a:cf
-----BEGIN CERTIFICATE-----
MIIDeDCCAmCgAwIBAgIRAKjncrTJD83SU/GkX8flUgAwDQYJKoZIhvcNAQELBQAw
FjEUMBIGA1UEAwwLdGVhbTE0OS1uZXQwHhcNMjMwODE0MTQyNTIyWhcNMjYwNzI5
MTQyNTIyWjAZMRcwFQYDVQQDDA50ZWFtMTQ5LXNlcnZlcjCCASIwDQYJKoZIhvcN
AQEBBQADggEPADCCAQoCggEBALzGZZDsNKA56QMDyBcn7lRNeyfqBWfjKt5Fzv6s
oOOeYWVy3fn2A9KsuTGha+xOq+jZbnt9jbHtKkcU8sc9gkY+jRp8476RXKckJYGu
Adub55D7Q+lHhAvZatp6kbKO+Aq7qWRxwzQmYFH+PBdgq4iaHtEluRnIc25QjF/u
sYiW+0IA02lj6KQa15w20Yyqvi+62hJaMsVqtoYX72LbdNb6GKHH/UT2vnxyAY2j
U6MoAKYpPhYnnD/hx43QUzRiAZWGCrg+B/0h28BtsOno9jkxbV8dNa8Ge+xCZeVd
M+yTCCK1o7UPTqxE5M2yV2Oscmm+q19a8VB9wLBH8X2yy5cCAwEAAaOBvTCBujAJ
BgNVHRMEAjAAMB0GA1UdDgQWBBRTL1fsV5lrszMTWZnkX21DNpLXMjBRBgNVHSME
SjBIgBR9OMhLSKzO1ewlP9SozpqKWJnCpaEapBgwFjEUMBIGA1UEAwwLdGVhbTE0
OS1uZXSCFCbPltrbAWfzECSYfCgMjTdvUhkQMBMGA1UdJQQMMAoGCCsGAQUFBwMB
MAsGA1UdDwQEAwIFoDAZBgNVHREEEjAQgg50ZWFtMTQ5LXNlcnZlcjANBgkqhkiG
9w0BAQsFAAOCAQEAJjw9CX8C7/DkhzN458WUXw1+hsfe+kFc2n8VUr+lQYX/acXR
nMEU0ubUNqUSl0f3iN8LGaZc0Vo75BBjD60gw/bZMzHLpU8Mvp4w1fZJCj8nuGAj
bINpO/Dpt37724oZfQCXQsC/0ZFbuuBJZL/7I5y/86lKoZn+FBghV9Lb19JR0JFf
/zQeTs4F75AhIGfAkv89i4Q/vTIB8xLHT4IC8T+B8rTa2NltajSbSHv5R+0Qvsu8
k2Ys/Or5ege2658lSXX2+IoLVmEUCsekzrbu7P7DtsFKDklhiyWXeujnY77GKXjJ
jru73FKbTe+Tm9glsaZiMm4CNFZZMKRFt+qazw==
-----END CERTIFICATE-----
