Certificate:
    Data:
        Version: 3 (0x2)
        Serial Number:
            89:10:cc:13:42:58:28:1d:2c:ab:8e:e1:e7:41:cc:6d
        Signature Algorithm: sha256WithRSAEncryption
        Issuer: CN=team134-net
        Validity
            Not Before: Aug 14 14:25:02 2023 GMT
            Not After : Jul 29 14:25:02 2026 GMT
        Subject: CN=team134-server
        Subject Public Key Info:
            Public Key Algorithm: rsaEncryption
                RSA Public-Key: (2048 bit)
                Modulus:
                    00:b6:9c:df:31:5e:58:99:6a:8c:05:f8:df:37:05:
                    f0:43:4f:df:24:df:35:5e:21:bf:06:6d:fa:06:fb:
                    51:b9:73:6d:02:61:fc:3f:f5:08:cd:39:73:83:1a:
                    5f:3e:d5:b3:f7:b3:99:61:30:de:5b:2b:a1:39:18:
                    39:64:8e:ae:d7:84:82:5d:15:9d:74:d2:4c:ef:ad:
                    21:68:48:5e:ff:d4:ea:1d:bf:e4:f4:90:f2:2a:e2:
                    bf:04:6e:29:41:6d:b2:dd:62:18:aa:2e:5a:75:0f:
                    51:4b:0d:65:81:66:48:85:91:d9:da:2a:b0:50:b8:
                    91:63:f5:54:ee:8e:07:ec:b1:0e:41:92:a9:0f:42:
                    58:4f:1b:da:aa:0a:03:c0:09:dd:22:c4:d2:f1:e3:
                    17:aa:a7:02:35:90:fb:89:2b:b4:af:25:0e:a4:45:
                    45:e2:fa:d3:1a:b1:19:e7:27:4b:fe:54:a7:c8:29:
                    90:ae:ae:e5:b7:f4:32:b2:a9:44:60:d9:de:98:50:
                    c1:29:1d:be:60:55:f7:72:49:96:57:2a:fa:64:3a:
                    58:be:4a:54:64:3d:62:50:82:9e:62:c8:91:45:43:
                    95:76:bf:72:ea:68:88:21:43:36:e9:e9:d5:12:90:
                    d1:31:35:19:26:60:3c:5e:ef:14:d0:53:62:bf:7e:
                    4b:d9
                Exponent: 65537 (0x10001)
        X509v3 extensions:
            X509v3 Basic Constraints: 
                CA:FALSE
            X509v3 Subject Key Identifier: 
                BB:EC:76:C6:A0:B1:45:C7:6A:4D:0F:AF:6E:4D:18:4A:77:65:9A:F0
            X509v3 Authority Key Identifier: 
                keyid:08:80:02:17:61:A7:14:6E:C7:E0:CF:27:88:D2:4C:EC:DF:2D:F2:23
                DirName:/CN=team134-net
                serial:6E:65:36:65:54:A9:A2:07:1A:56:A9:C0:3A:91:45:9A:71:1C:10:C9

            X509v3 Extended Key Usage: 
                TLS Web Server Authentication
            X509v3 Key Usage: 
                Digital Signature, Key Encipherment
            X509v3 Subject Alternative Name: 
                DNS:team134-server
    Signature Algorithm: sha256WithRSAEncryption
         18:f8:13:71:88:c0:8b:4a:fb:bb:09:dd:b3:52:2b:65:98:14:
         9c:c8:c9:43:3d:09:8b:39:ea:0a:a2:fe:af:4e:5a:21:26:9f:
         a6:30:f9:03:c4:6e:e3:92:63:1a:3f:d0:a9:45:e0:53:f8:62:
         dc:08:f9:b6:ec:f8:f0:30:05:25:cb:b8:ba:bc:eb:43:7b:88:
         04:ea:cd:9d:63:b6:cd:fc:19:26:3e:47:ba:11:de:6e:ce:f9:
         28:c0:e8:95:ce:3b:f6:b2:8c:c4:2c:14:71:32:0b:6c:c7:dc:
         4c:33:37:e1:95:6e:5e:b9:4a:a8:19:cf:51:d4:43:49:55:8c:
         a4:76:a9:8e:73:d0:4c:f1:37:b4:67:92:c9:16:37:0a:64:d7:
         df:37:99:10:ff:de:14:ac:7e:b2:4e:f5:f2:4a:b1:83:d7:30:
         ef:53:a7:98:8f:0e:6c:f7:cc:23:87:d6:aa:32:62:ba:e4:55:
         65:5c:df:77:c7:20:bc:5f:c5:a8:72:fa:b8:88:4d:6b:95:9e:
         2f:65:3b:6c:6a:64:a3:07:2f:c1:ce:d7:d1:13:52:bc:bd:4c:
         2e:1f:7b:8b:e5:54:a2:1b:9a:e3:88:2e:7b:2b:42:60:d9:42:
         24:5e:6b:05:3b:2b:1d:11:dc:ae:ac:f1:89:22:6a:fa:00:25:
         77:70:96:58
-----BEGIN CERTIFICATE-----
MIIDeDCCAmCgAwIBAgIRAIkQzBNCWCgdLKuO4edBzG0wDQYJKoZIhvcNAQELBQAw
FjEUMBIGA1UEAwwLdGVhbTEzNC1uZXQwHhcNMjMwODE0MTQyNTAyWhcNMjYwNzI5
MTQyNTAyWjAZMRcwFQYDVQQDDA50ZWFtMTM0LXNlcnZlcjCCASIwDQYJKoZIhvcN
AQEBBQADggEPADCCAQoCggEBALac3zFeWJlqjAX43zcF8ENP3yTfNV4hvwZt+gb7
UblzbQJh/D/1CM05c4MaXz7Vs/ezmWEw3lsroTkYOWSOrteEgl0VnXTSTO+tIWhI
Xv/U6h2/5PSQ8irivwRuKUFtst1iGKouWnUPUUsNZYFmSIWR2doqsFC4kWP1VO6O
B+yxDkGSqQ9CWE8b2qoKA8AJ3SLE0vHjF6qnAjWQ+4krtK8lDqRFReL60xqxGecn
S/5Up8gpkK6u5bf0MrKpRGDZ3phQwSkdvmBV93JJllcq+mQ6WL5KVGQ9YlCCnmLI
kUVDlXa/cupoiCFDNunp1RKQ0TE1GSZgPF7vFNBTYr9+S9kCAwEAAaOBvTCBujAJ
BgNVHRMEAjAAMB0GA1UdDgQWBBS77HbGoLFFx2pND69uTRhKd2Wa8DBRBgNVHSME
SjBIgBQIgAIXYacUbsfgzyeI0kzs3y3yI6EapBgwFjEUMBIGA1UEAwwLdGVhbTEz
NC1uZXSCFG5lNmVUqaIHGlapwDqRRZpxHBDJMBMGA1UdJQQMMAoGCCsGAQUFBwMB
MAsGA1UdDwQEAwIFoDAZBgNVHREEEjAQgg50ZWFtMTM0LXNlcnZlcjANBgkqhkiG
9w0BAQsFAAOCAQEAGPgTcYjAi0r7uwnds1IrZZgUnMjJQz0JiznqCqL+r05aISaf
pjD5A8Ru45JjGj/QqUXgU/hi3Aj5tuz48DAFJcu4urzrQ3uIBOrNnWO2zfwZJj5H
uhHebs75KMDolc479rKMxCwUcTILbMfcTDM34ZVuXrlKqBnPUdRDSVWMpHapjnPQ
TPE3tGeSyRY3CmTX3zeZEP/eFKx+sk718kqxg9cw71OnmI8ObPfMI4fWqjJiuuRV
ZVzfd8cgvF/FqHL6uIhNa5WeL2U7bGpkowcvwc7X0RNSvL1MLh97i+VUohua44gu
eytCYNlCJF5rBTsrHRHcrqzxiSJq+gAld3CWWA==
-----END CERTIFICATE-----
