Certificate:
    Data:
        Version: 3 (0x2)
        Serial Number:
            fc:40:b7:52:22:85:24:bf:1e:08:1c:c7:fd:18:c2:02
        Signature Algorithm: sha256WithRSAEncryption
        Issuer: CN=team134-net
        Validity
            Not Before: Aug 14 14:25:02 2023 GMT
            Not After : Jul 29 14:25:02 2026 GMT
        Subject: CN=team134-client
        Subject Public Key Info:
            Public Key Algorithm: rsaEncryption
                RSA Public-Key: (2048 bit)
                Modulus:
                    00:c9:2c:4a:22:3d:52:57:d4:12:a9:74:ba:79:a0:
                    57:7f:6e:15:d6:33:a8:7c:3a:85:22:fb:5e:57:d5:
                    68:5a:82:f1:a4:90:4a:03:9b:6f:1a:53:51:b7:1e:
                    6e:6e:07:4f:fe:4e:93:09:32:32:c7:32:b1:49:6e:
                    64:fe:38:b9:57:90:e2:87:3f:28:bf:6b:97:b9:f3:
                    73:ab:a3:b2:99:9a:8a:6b:1a:fe:83:1f:c3:d8:26:
                    82:b1:7e:27:65:b1:11:de:f9:35:5a:9e:47:cd:19:
                    f6:4b:f0:cd:85:0d:48:e9:5f:14:8b:7a:23:94:e5:
                    d3:b1:82:b0:a9:07:17:3b:eb:a2:df:12:1b:a7:e6:
                    c2:6a:08:74:3b:e6:fc:ff:4d:18:de:c4:31:4b:ab:
                    52:68:4b:b1:7b:48:d2:50:01:04:f0:26:6d:57:ed:
                    ba:e4:e2:df:23:80:75:23:ba:0d:5b:f0:92:b8:10:
                    f3:b6:26:74:03:14:f1:df:ef:64:38:d3:46:64:6f:
                    37:d1:a1:75:78:22:83:0a:b9:4d:3c:8e:53:31:b9:
                    3a:38:ae:cf:f6:5a:bc:a7:c3:62:3e:2f:e6:11:c9:
                    8f:3f:89:44:7c:ed:0d:1d:21:63:c9:59:a3:fe:5f:
                    83:69:46:d5:30:f3:04:dd:24:1c:95:c9:bb:42:e0:
                    06:fd
                Exponent: 65537 (0x10001)
        X509v3 extensions:
            X509v3 Basic Constraints: 
                CA:FALSE
            X509v3 Subject Key Identifier: 
                16:B0:35:4E:8B:3E:A3:A8:6F:B4:DE:00:C4:CD:30:44:FC:2F:68:0F
            X509v3 Authority Key Identifier: 
                keyid:08:80:02:17:61:A7:14:6E:C7:E0:CF:27:88:D2:4C:EC:DF:2D:F2:23
                DirName:/CN=team134-net
                serial:6E:65:36:65:54:A9:A2:07:1A:56:A9:C0:3A:91:45:9A:71:1C:10:C9

            X509v3 Extended Key Usage: 
                TLS Web Client Authentication
            X509v3 Key Usage: 
                Digital Signature
    Signature Algorithm: sha256WithRSAEncryption
         2d:80:12:16:1e:77:03:31:79:34:9d:ed:1f:16:06:f3:63:9e:
         d2:9b:45:f1:7e:54:41:54:80:2e:df:ad:cb:c9:a5:3e:26:9e:
         cc:e6:7b:41:ac:f7:f1:09:be:8d:db:58:25:5d:4d:2d:ca:0b:
         26:3e:69:d7:84:ca:28:13:95:df:b4:26:25:b8:4c:ec:26:b1:
         e4:91:49:18:75:6a:f0:15:1e:bd:98:12:44:8a:15:78:8e:db:
         1c:45:7f:a6:1e:52:9c:a8:d7:25:be:c4:12:1d:7a:72:16:62:
         f6:50:2c:5e:8b:fb:c5:36:e2:20:1e:95:19:fe:d2:e8:ea:38:
         3f:6b:ed:6a:bb:f0:4d:d6:30:06:47:e6:30:31:e8:1d:f5:89:
         5a:1f:d4:42:df:a1:50:dc:f9:57:60:e0:32:2f:2e:26:c8:39:
         ab:df:7d:9a:ae:c0:e7:b6:c6:eb:1e:49:bb:e7:56:30:40:32:
         76:33:c3:98:a8:e3:37:9a:90:7e:08:c6:85:a2:a9:9b:1e:a3:
         dc:1c:d4:1d:9e:98:a9:6f:33:a6:d0:84:e8:28:ea:35:c6:56:
         b0:f7:89:23:81:d0:16:8e:c7:7c:90:e7:ab:62:28:21:f1:a4:
         81:0f:5e:6b:14:c2:91:6e:97:2f:07:1e:b1:a8:dc:a5:88:21:
         1c:b7:37:a3
-----BEGIN CERTIFICATE-----
MIIDXTCCAkWgAwIBAgIRAPxAt1IihSS/Hggcx/0YwgIwDQYJKoZIhvcNAQELBQAw
FjEUMBIGA1UEAwwLdGVhbTEzNC1uZXQwHhcNMjMwODE0MTQyNTAyWhcNMjYwNzI5
MTQyNTAyWjAZMRcwFQYDVQQDDA50ZWFtMTM0LWNsaWVudDCCASIwDQYJKoZIhvcN
AQEBBQADggEPADCCAQoCggEBAMksSiI9UlfUEql0unmgV39uFdYzqHw6hSL7XlfV
aFqC8aSQSgObbxpTUbcebm4HT/5OkwkyMscysUluZP44uVeQ4oc/KL9rl7nzc6uj
spmaimsa/oMfw9gmgrF+J2WxEd75NVqeR80Z9kvwzYUNSOlfFIt6I5Tl07GCsKkH
Fzvrot8SG6fmwmoIdDvm/P9NGN7EMUurUmhLsXtI0lABBPAmbVftuuTi3yOAdSO6
DVvwkrgQ87YmdAMU8d/vZDjTRmRvN9GhdXgigwq5TTyOUzG5Ojiuz/ZavKfDYj4v
5hHJjz+JRHztDR0hY8lZo/5fg2lG1TDzBN0kHJXJu0LgBv0CAwEAAaOBojCBnzAJ
BgNVHRMEAjAAMB0GA1UdDgQWBBQWsDVOiz6jqG+03gDEzTBE/C9oDzBRBgNVHSME
SjBIgBQIgAIXYacUbsfgzyeI0kzs3y3yI6EapBgwFjEUMBIGA1UEAwwLdGVhbTEz
NC1uZXSCFG5lNmVUqaIHGlapwDqRRZpxHBDJMBMGA1UdJQQMMAoGCCsGAQUFBwMC
MAsGA1UdDwQEAwIHgDANBgkqhkiG9w0BAQsFAAOCAQEALYASFh53AzF5NJ3tHxYG
82Oe0ptF8X5UQVSALt+ty8mlPiaezOZ7Qaz38Qm+jdtYJV1NLcoLJj5p14TKKBOV
37QmJbhM7Cax5JFJGHVq8BUevZgSRIoVeI7bHEV/ph5SnKjXJb7EEh16chZi9lAs
Xov7xTbiIB6VGf7S6Oo4P2vtarvwTdYwBkfmMDHoHfWJWh/UQt+hUNz5V2DgMi8u
Jsg5q999mq7A57bG6x5Ju+dWMEAydjPDmKjjN5qQfgjGhaKpmx6j3BzUHZ6YqW8z
ptCE6CjqNcZWsPeJI4HQFo7HfJDnq2IoIfGkgQ9eaxTCkW6XLwcesajcpYghHLc3
ow==
-----END CERTIFICATE-----
