Certificate:
    Data:
        Version: 3 (0x2)
        Serial Number:
            17:a1:e8:d5:95:a3:80:96:04:21:c0:c9:bd:18:31:7f
        Signature Algorithm: sha256WithRSAEncryption
        Issuer: CN=team86-net
        Validity
            Not Before: Aug 14 14:23:58 2023 GMT
            Not After : Jul 29 14:23:58 2026 GMT
        Subject: CN=team86-client
        Subject Public Key Info:
            Public Key Algorithm: rsaEncryption
                RSA Public-Key: (2048 bit)
                Modulus:
                    00:be:0b:53:2f:af:db:1a:e1:37:8b:ad:e5:92:b7:
                    f4:4a:09:08:8b:4b:44:c3:99:73:e1:23:35:5f:f7:
                    67:ca:a8:31:04:f6:a4:c1:2f:fa:d2:7a:d1:16:71:
                    ee:a7:e6:9e:6e:af:c8:59:6d:e3:c0:2c:35:4d:80:
                    d2:9e:b2:22:32:3f:2e:ad:97:91:6b:40:79:c8:2f:
                    43:46:07:db:e5:a3:2b:41:44:6e:85:d7:1f:55:eb:
                    a0:6b:63:5f:ea:1c:22:43:ad:d1:3c:8b:f3:93:0a:
                    e8:68:be:be:ec:c0:f8:7d:d3:7a:18:95:8f:02:fc:
                    f2:1a:f5:07:b1:3c:58:8a:ff:ae:1a:08:97:3f:ae:
                    3b:bf:0b:65:17:b1:0b:79:d6:a5:5b:14:e9:31:aa:
                    1b:1b:fe:a0:62:26:20:89:f8:35:4a:ea:d0:3c:2b:
                    89:eb:24:9e:d5:0b:c6:fd:78:ff:ef:1e:6f:19:90:
                    ff:af:a5:69:b9:90:f3:30:fd:5f:bc:a9:04:2f:e3:
                    ad:0b:84:88:12:1a:9c:5a:2e:e1:87:0b:bc:05:49:
                    26:30:fa:51:da:80:96:e1:a1:ee:9b:b2:20:c8:4e:
                    0d:e7:e6:09:55:a2:f8:15:8b:ba:04:42:71:dc:29:
                    55:ac:8f:35:d9:52:49:15:99:ec:26:47:41:f4:30:
                    1f:b7
                Exponent: 65537 (0x10001)
        X509v3 extensions:
            X509v3 Basic Constraints: 
                CA:FALSE
            X509v3 Subject Key Identifier: 
                DE:16:E2:AE:81:D3:65:59:D2:95:D7:63:9A:DC:B7:99:77:67:A5:59
            X509v3 Authority Key Identifier: 
                keyid:06:7F:18:1B:F2:BD:7A:28:DF:EA:B1:43:59:97:76:EF:25:E2:AC:5D
                DirName:/CN=team86-net
                serial:06:C5:39:90:77:F3:07:98:18:26:C8:39:A8:46:75:73:A2:A8:48:46

            X509v3 Extended Key Usage: 
                TLS Web Client Authentication
            X509v3 Key Usage: 
                Digital Signature
    Signature Algorithm: sha256WithRSAEncryption
         5c:75:18:3e:61:e7:6c:66:a7:09:a1:2a:a4:3f:00:46:d3:ab:
         89:56:c7:0a:16:de:53:44:78:ff:4b:dd:92:be:58:81:1f:c0:
         7c:f0:eb:a8:86:97:a8:29:0c:13:1e:84:31:19:f8:10:01:54:
         5a:12:b9:7e:72:25:1d:f0:78:5a:d3:d6:c3:0a:59:6b:5e:76:
         6e:31:e0:34:6b:49:e1:45:a8:3e:84:55:4f:fe:02:bf:03:70:
         68:2a:c6:98:8d:1d:54:c1:e9:30:9c:2f:a3:23:e0:ac:97:88:
         9e:fd:5e:01:f1:a2:8d:1b:e3:4d:0d:0d:d9:d1:7e:48:bd:8d:
         79:e2:ba:5c:09:0c:12:5b:29:95:a0:41:65:45:14:72:76:88:
         a1:0c:f7:51:74:15:da:a3:2c:57:11:bc:c6:35:b5:27:89:e3:
         d8:49:8b:6e:86:5d:b8:92:04:57:a1:eb:25:02:b4:8e:bf:21:
         24:45:d9:76:e4:14:95:6a:45:02:a5:7a:f8:91:28:43:19:18:
         75:06:f5:9f:65:ee:d2:d2:94:a2:15:55:51:92:a9:e7:2f:1d:
         29:24:15:43:63:76:55:7e:d4:3b:2e:79:3b:ab:16:87:de:e1:
         c5:c4:ac:18:1c:dd:03:e1:f5:37:68:0e:f4:a3:ab:ba:36:f6:
         d7:b7:12:b7
-----BEGIN CERTIFICATE-----
MIIDWTCCAkGgAwIBAgIQF6Ho1ZWjgJYEIcDJvRgxfzANBgkqhkiG9w0BAQsFADAV
MRMwEQYDVQQDDAp0ZWFtODYtbmV0MB4XDTIzMDgxNDE0MjM1OFoXDTI2MDcyOTE0
MjM1OFowGDEWMBQGA1UEAwwNdGVhbTg2LWNsaWVudDCCASIwDQYJKoZIhvcNAQEB
BQADggEPADCCAQoCggEBAL4LUy+v2xrhN4ut5ZK39EoJCItLRMOZc+EjNV/3Z8qo
MQT2pMEv+tJ60RZx7qfmnm6vyFlt48AsNU2A0p6yIjI/Lq2XkWtAecgvQ0YH2+Wj
K0FEboXXH1XroGtjX+ocIkOt0TyL85MK6Gi+vuzA+H3TehiVjwL88hr1B7E8WIr/
rhoIlz+uO78LZRexC3nWpVsU6TGqGxv+oGImIIn4NUrq0DwrieskntULxv14/+8e
bxmQ/6+labmQ8zD9X7ypBC/jrQuEiBIanFou4YcLvAVJJjD6UdqAluGh7puyIMhO
DefmCVWi+BWLugRCcdwpVayPNdlSSRWZ7CZHQfQwH7cCAwEAAaOBoTCBnjAJBgNV
HRMEAjAAMB0GA1UdDgQWBBTeFuKugdNlWdKV12Oa3LeZd2elWTBQBgNVHSMESTBH
gBQGfxgb8r16KN/qsUNZl3bvJeKsXaEZpBcwFTETMBEGA1UEAwwKdGVhbTg2LW5l
dIIUBsU5kHfzB5gYJsg5qEZ1c6KoSEYwEwYDVR0lBAwwCgYIKwYBBQUHAwIwCwYD
VR0PBAQDAgeAMA0GCSqGSIb3DQEBCwUAA4IBAQBcdRg+YedsZqcJoSqkPwBG06uJ
VscKFt5TRHj/S92SvliBH8B88OuohpeoKQwTHoQxGfgQAVRaErl+ciUd8Hha09bD
CllrXnZuMeA0a0nhRag+hFVP/gK/A3BoKsaYjR1UwekwnC+jI+Csl4ie/V4B8aKN
G+NNDQ3Z0X5IvY154rpcCQwSWymVoEFlRRRydoihDPdRdBXaoyxXEbzGNbUniePY
SYtuhl24kgRXoeslArSOvyEkRdl25BSVakUCpXr4kShDGRh1BvWfZe7S0pSiFVVR
kqnnLx0pJBVDY3ZVftQ7Lnk7qxaH3uHFxKwYHN0D4fU3aA70o6u6NvbXtxK3
-----END CERTIFICATE-----
