Certificate:
    Data:
        Version: 3 (0x2)
        Serial Number:
            bd:14:68:32:5f:7e:79:3d:1b:b8:4c:0f:29:e4:9f:69
        Signature Algorithm: sha256WithRSAEncryption
        Issuer: CN=team86-net
        Validity
            Not Before: Aug 14 14:23:59 2023 GMT
            Not After : Jul 29 14:23:59 2026 GMT
        Subject: CN=team86-server
        Subject Public Key Info:
            Public Key Algorithm: rsaEncryption
                RSA Public-Key: (2048 bit)
                Modulus:
                    00:eb:df:f7:90:7b:ee:91:c9:68:fb:a0:68:b2:eb:
                    85:0c:23:2a:d3:10:ed:e5:7f:53:ff:93:c1:e8:0a:
                    cf:28:f4:85:08:e9:9b:e8:49:58:b7:1b:22:50:2e:
                    e6:3e:7c:33:79:36:23:0f:aa:14:2e:cd:78:54:26:
                    7d:01:78:9e:08:bd:ca:30:97:79:50:26:c7:65:2f:
                    63:71:f8:b4:52:bf:9a:2b:b5:e7:33:29:2f:da:1a:
                    53:72:98:37:56:62:d1:52:86:f7:c8:21:49:e2:cd:
                    94:92:82:9c:3a:86:ee:3f:60:d7:d8:58:a9:fd:5e:
                    a1:33:eb:d9:01:85:ca:cb:f9:d4:4f:03:af:27:95:
                    99:9f:d5:11:55:2c:ea:f2:48:4b:0d:33:c1:80:f5:
                    af:38:20:de:83:46:89:db:79:82:58:b6:aa:0c:b9:
                    63:98:a9:d3:18:09:24:41:39:71:07:81:d0:ee:74:
                    aa:48:96:1e:ac:dc:44:75:33:f1:f9:13:b7:7f:26:
                    8e:e8:51:ab:2a:23:5b:e9:65:d3:e9:e2:67:bf:76:
                    67:92:94:e0:4f:6e:d4:1a:bf:80:36:b5:b0:e1:de:
                    4c:a7:fa:eb:bf:bb:aa:b4:61:c7:55:d9:47:d2:77:
                    6d:51:09:5c:45:40:fa:38:87:ea:0f:73:d3:47:47:
                    c1:57
                Exponent: 65537 (0x10001)
        X509v3 extensions:
            X509v3 Basic Constraints: 
                CA:FALSE
            X509v3 Subject Key Identifier: 
                2F:0D:20:EB:9D:BB:F4:32:BB:41:D7:05:68:0D:D2:3C:41:8A:E1:52
            X509v3 Authority Key Identifier: 
                keyid:06:7F:18:1B:F2:BD:7A:28:DF:EA:B1:43:59:97:76:EF:25:E2:AC:5D
                DirName:/CN=team86-net
                serial:06:C5:39:90:77:F3:07:98:18:26:C8:39:A8:46:75:73:A2:A8:48:46

            X509v3 Extended Key Usage: 
                TLS Web Server Authentication
            X509v3 Key Usage: 
                Digital Signature, Key Encipherment
            X509v3 Subject Alternative Name: 
                DNS:team86-server
    Signature Algorithm: sha256WithRSAEncryption
         45:7c:03:32:29:a7:f1:af:94:a4:6e:96:59:4a:e4:62:b5:c7:
         5e:24:fb:ce:a1:29:66:4a:a4:c0:4b:3e:7c:51:11:0c:47:f7:
         8a:90:2a:1a:63:59:f7:2a:f1:30:30:a7:6b:e2:43:a6:bf:90:
         56:bb:cf:58:35:46:51:fa:db:ca:6c:6a:ab:15:46:83:57:e7:
         5e:b3:ff:41:9f:af:33:b8:1a:13:a3:ce:e1:03:be:05:e0:d1:
         93:bd:64:50:08:ee:c5:61:10:1b:a7:7d:8e:2a:14:95:e9:7f:
         38:59:35:8f:49:2d:f9:2c:f0:e1:3e:6b:f3:a9:f6:d1:24:3e:
         5b:d3:e1:0b:6c:30:6f:3f:d4:52:ae:11:bf:62:f6:6c:71:2a:
         de:44:f1:58:79:60:2f:86:a6:75:fc:7d:00:c0:6c:a8:94:df:
         ae:c1:ea:77:e0:70:f0:b9:5f:db:b9:34:68:72:77:90:93:07:
         07:d4:9b:8a:86:05:b4:93:34:3a:43:1c:7b:f3:22:3d:d4:23:
         cc:1e:79:1e:29:c3:51:f1:be:08:73:f4:21:b7:fe:b0:58:6a:
         7c:e7:8f:69:b8:08:51:b4:d0:de:d2:a6:15:f4:43:08:cc:2e:
         57:55:84:7a:96:83:b8:ee:ac:fa:e8:cb:8d:18:c2:a7:d5:a9:
         a8:83:51:74
-----BEGIN CERTIFICATE-----
MIIDdDCCAlygAwIBAgIRAL0UaDJffnk9G7hMDynkn2kwDQYJKoZIhvcNAQELBQAw
FTETMBEGA1UEAwwKdGVhbTg2LW5ldDAeFw0yMzA4MTQxNDIzNTlaFw0yNjA3Mjkx
NDIzNTlaMBgxFjAUBgNVBAMMDXRlYW04Ni1zZXJ2ZXIwggEiMA0GCSqGSIb3DQEB
AQUAA4IBDwAwggEKAoIBAQDr3/eQe+6RyWj7oGiy64UMIyrTEO3lf1P/k8HoCs8o
9IUI6ZvoSVi3GyJQLuY+fDN5NiMPqhQuzXhUJn0BeJ4Ivcowl3lQJsdlL2Nx+LRS
v5orteczKS/aGlNymDdWYtFShvfIIUnizZSSgpw6hu4/YNfYWKn9XqEz69kBhcrL
+dRPA68nlZmf1RFVLOrySEsNM8GA9a84IN6DRonbeYJYtqoMuWOYqdMYCSRBOXEH
gdDudKpIlh6s3ER1M/H5E7d/Jo7oUasqI1vpZdPp4me/dmeSlOBPbtQav4A2tbDh
3kyn+uu/u6q0YcdV2UfSd21RCVxFQPo4h+oPc9NHR8FXAgMBAAGjgbswgbgwCQYD
VR0TBAIwADAdBgNVHQ4EFgQULw0g65279DK7QdcFaA3SPEGK4VIwUAYDVR0jBEkw
R4AUBn8YG/K9eijf6rFDWZd27yXirF2hGaQXMBUxEzARBgNVBAMMCnRlYW04Ni1u
ZXSCFAbFOZB38weYGCbIOahGdXOiqEhGMBMGA1UdJQQMMAoGCCsGAQUFBwMBMAsG
A1UdDwQEAwIFoDAYBgNVHREEETAPgg10ZWFtODYtc2VydmVyMA0GCSqGSIb3DQEB
CwUAA4IBAQBFfAMyKafxr5SkbpZZSuRitcdeJPvOoSlmSqTASz58UREMR/eKkCoa
Y1n3KvEwMKdr4kOmv5BWu89YNUZR+tvKbGqrFUaDV+des/9Bn68zuBoTo87hA74F
4NGTvWRQCO7FYRAbp32OKhSV6X84WTWPSS35LPDhPmvzqfbRJD5b0+ELbDBvP9RS
rhG/YvZscSreRPFYeWAvhqZ1/H0AwGyolN+uwep34HDwuV/buTRocneQkwcH1JuK
hgW0kzQ6Qxx78yI91CPMHnkeKcNR8b4Ic/Qht/6wWGp8549puAhRtNDe0qYV9EMI
zC5XVYR6loO47qz66MuNGMKn1amog1F0
-----END CERTIFICATE-----
