Certificate:
    Data:
        Version: 3 (0x2)
        Serial Number:
            a7:fc:9a:c7:b7:49:57:71:91:fb:76:ed:54:36:76:e2
        Signature Algorithm: sha256WithRSAEncryption
        Issuer: CN=team103-net
        Validity
            Not Before: Aug 14 14:24:20 2023 GMT
            Not After : Jul 29 14:24:20 2026 GMT
        Subject: CN=team103-client
        Subject Public Key Info:
            Public Key Algorithm: rsaEncryption
                RSA Public-Key: (2048 bit)
                Modulus:
                    00:9e:ad:08:31:25:81:64:4f:fa:9f:69:c6:e5:59:
                    a7:5d:a9:67:23:41:1a:f3:36:2d:07:c5:10:aa:c7:
                    35:3b:d1:77:54:2f:70:9b:ce:db:ad:e8:09:aa:68:
                    61:48:ef:95:f7:32:57:5d:23:a2:8e:0c:aa:49:04:
                    e6:0a:7b:78:54:26:1b:df:63:65:ee:5f:89:7d:ea:
                    19:f1:31:b3:6b:90:2c:81:7f:66:bd:7c:d5:f0:ed:
                    6c:47:65:59:b6:15:c8:73:b1:ed:19:ff:ae:a5:91:
                    9a:b5:4a:72:fd:80:c5:57:14:29:87:2c:d6:83:29:
                    71:45:c3:ea:51:50:42:e7:b6:db:f4:29:80:09:48:
                    6a:dd:c4:18:e2:1b:29:7f:d0:73:19:fc:83:ec:53:
                    47:d1:88:91:b1:87:3c:31:d3:d8:be:46:06:1f:17:
                    57:60:5c:a6:e4:57:63:6f:e2:3a:09:0f:95:47:76:
                    88:2b:ec:79:37:38:d0:51:d0:78:1c:03:7c:5e:f2:
                    9a:aa:94:3e:dc:07:56:16:ee:51:e4:f6:ad:8f:a9:
                    e7:8a:c3:b4:eb:4f:d0:13:73:84:55:05:21:01:ca:
                    ca:c0:f1:f1:cc:fb:b0:18:32:ce:68:2c:1a:de:82:
                    53:59:98:24:b4:5a:ca:5a:33:02:c1:96:16:4d:71:
                    a6:b1
                Exponent: 65537 (0x10001)
        X509v3 extensions:
            X509v3 Basic Constraints: 
                CA:FALSE
            X509v3 Subject Key Identifier: 
                9B:0F:95:9E:6C:75:EC:FB:73:9F:D8:9A:4D:10:54:68:2B:1F:63:1B
            X509v3 Authority Key Identifier: 
                keyid:BB:D3:99:2B:14:63:38:C4:25:A7:91:21:05:11:96:A9:68:D9:40:F3
                DirName:/CN=team103-net
                serial:72:9F:70:C6:8D:A6:A7:E6:2F:73:C7:81:04:6E:68:2A:2C:FC:08:61

            X509v3 Extended Key Usage: 
                TLS Web Client Authentication
            X509v3 Key Usage: 
                Digital Signature
    Signature Algorithm: sha256WithRSAEncryption
         02:cd:b2:1f:24:2f:92:3f:ad:e1:c7:c5:ff:fa:eb:99:96:7a:
         6f:b6:24:63:82:c0:1d:b9:19:95:2e:95:f9:a8:03:e3:b5:d9:
         c1:b0:2f:02:3b:20:1e:be:37:2e:d8:0f:73:74:a2:f5:56:0e:
         e1:ca:9f:e1:47:77:17:e3:81:49:e8:91:da:f8:4c:63:6f:6e:
         f1:5e:4f:98:c8:e1:8d:6d:fe:68:96:d6:a7:12:2d:b2:62:c5:
         f5:da:5f:30:cd:68:94:93:dd:d3:21:9c:1c:f4:72:4d:32:ce:
         3b:68:c0:ab:ae:04:d4:ee:69:a0:95:24:44:3d:5d:fd:78:6a:
         6b:d4:ae:db:0f:5f:1e:92:c3:bf:44:9c:07:75:3c:b6:fd:b0:
         88:7e:65:f6:2d:08:42:4a:56:10:8a:4d:e2:01:17:70:b0:ce:
         23:d1:b6:a9:6f:21:cd:7e:78:c4:49:0b:f6:86:3c:70:50:a1:
         f2:08:ac:9e:19:ac:62:cd:60:d9:ab:dd:1c:20:64:65:3c:59:
         c6:d5:94:f3:33:d2:2c:a6:ce:79:60:22:92:c7:6b:17:8b:06:
         85:0a:f0:4b:4a:be:6b:02:d7:2d:bf:e3:46:a4:a2:ef:eb:e4:
         1e:10:96:42:51:10:37:96:a5:34:2e:06:b9:88:41:9d:c5:d6:
         01:99:26:cd
-----BEGIN CERTIFICATE-----
MIIDXTCCAkWgAwIBAgIRAKf8mse3SVdxkft27VQ2duIwDQYJKoZIhvcNAQELBQAw
FjEUMBIGA1UEAwwLdGVhbTEwMy1uZXQwHhcNMjMwODE0MTQyNDIwWhcNMjYwNzI5
MTQyNDIwWjAZMRcwFQYDVQQDDA50ZWFtMTAzLWNsaWVudDCCASIwDQYJKoZIhvcN
AQEBBQADggEPADCCAQoCggEBAJ6tCDElgWRP+p9pxuVZp12pZyNBGvM2LQfFEKrH
NTvRd1QvcJvO263oCapoYUjvlfcyV10joo4MqkkE5gp7eFQmG99jZe5fiX3qGfEx
s2uQLIF/Zr181fDtbEdlWbYVyHOx7Rn/rqWRmrVKcv2AxVcUKYcs1oMpcUXD6lFQ
Que22/QpgAlIat3EGOIbKX/Qcxn8g+xTR9GIkbGHPDHT2L5GBh8XV2BcpuRXY2/i
OgkPlUd2iCvseTc40FHQeBwDfF7ymqqUPtwHVhbuUeT2rY+p54rDtOtP0BNzhFUF
IQHKysDx8cz7sBgyzmgsGt6CU1mYJLRaylozAsGWFk1xprECAwEAAaOBojCBnzAJ
BgNVHRMEAjAAMB0GA1UdDgQWBBSbD5WebHXs+3Of2JpNEFRoKx9jGzBRBgNVHSME
SjBIgBS705krFGM4xCWnkSEFEZapaNlA86EapBgwFjEUMBIGA1UEAwwLdGVhbTEw
My1uZXSCFHKfcMaNpqfmL3PHgQRuaCos/AhhMBMGA1UdJQQMMAoGCCsGAQUFBwMC
MAsGA1UdDwQEAwIHgDANBgkqhkiG9w0BAQsFAAOCAQEAAs2yHyQvkj+t4cfF//rr
mZZ6b7YkY4LAHbkZlS6V+agD47XZwbAvAjsgHr43LtgPc3Si9VYO4cqf4Ud3F+OB
SeiR2vhMY29u8V5PmMjhjW3+aJbWpxItsmLF9dpfMM1olJPd0yGcHPRyTTLOO2jA
q64E1O5poJUkRD1d/Xhqa9Su2w9fHpLDv0ScB3U8tv2wiH5l9i0IQkpWEIpN4gEX
cLDOI9G2qW8hzX54xEkL9oY8cFCh8gisnhmsYs1g2avdHCBkZTxZxtWU8zPSLKbO
eWAiksdrF4sGhQrwS0q+awLXLb/jRqSi7+vkHhCWQlEQN5alNC4GuYhBncXWAZkm
zQ==
-----END CERTIFICATE-----
