Certificate:
    Data:
        Version: 3 (0x2)
        Serial Number:
            79:7d:52:86:88:e0:4e:9b:d8:1b:5a:83:5f:2c:fe:26
        Signature Algorithm: sha256WithRSAEncryption
        Issuer: CN=team273-net
        Validity
            Not Before: Aug 14 14:27:51 2023 GMT
            Not After : Jul 29 14:27:51 2026 GMT
        Subject: CN=team273-server
        Subject Public Key Info:
            Public Key Algorithm: rsaEncryption
                RSA Public-Key: (2048 bit)
                Modulus:
                    00:b6:b1:26:cb:16:9e:17:55:0f:86:31:4b:80:25:
                    08:08:ec:2c:64:11:ba:97:3c:49:3b:ed:f0:c2:7b:
                    9d:1a:b8:bd:bc:5b:76:96:ff:84:bb:e5:b0:f6:8f:
                    68:11:68:47:55:ed:b8:91:ab:9c:e0:24:f3:9d:ef:
                    da:b0:9b:e3:e1:13:9b:d4:fc:11:a6:4b:71:99:d4:
                    3c:40:5b:a5:42:fa:ec:f6:23:b6:de:07:e1:70:08:
                    1e:5b:ff:f8:13:c8:d3:4a:1f:25:d1:6f:9e:d4:c8:
                    f8:bd:53:90:1d:a6:29:da:13:dc:90:08:6c:db:11:
                    3a:9b:cf:fa:3a:aa:70:dd:56:ee:bc:96:15:1e:2b:
                    a0:cc:eb:9f:98:00:dc:c0:be:76:f0:1c:4b:b2:94:
                    bd:d4:de:2d:4e:79:12:3e:6b:d2:10:9b:5f:c3:37:
                    f2:e8:2e:19:9c:f3:e3:79:ec:28:db:fa:df:9a:5d:
                    9c:e2:81:f2:6f:d3:29:50:c4:6b:5b:f2:07:ab:72:
                    85:07:9b:cf:a8:64:ff:13:66:29:f7:42:2f:ad:e2:
                    d6:9d:36:92:08:39:a9:eb:d4:a3:28:2c:db:5b:bd:
                    b7:f8:db:7e:ef:30:90:ac:ce:32:33:55:60:30:17:
                    a1:cc:2b:8c:fd:8d:4a:bb:5f:7f:6a:f5:e3:9b:c7:
                    23:61
                Exponent: 65537 (0x10001)
        X509v3 extensions:
            X509v3 Basic Constraints: 
                CA:FALSE
            X509v3 Subject Key Identifier: 
                1D:06:6A:F7:3C:23:12:A5:D9:D7:0A:3A:54:AF:F2:4F:26:E5:ED:41
            X509v3 Authority Key Identifier: 
                keyid:B1:FF:AE:AD:59:27:91:51:48:47:8A:6F:35:02:BD:4D:F4:8E:8A:9A
                DirName:/CN=team273-net
                serial:18:6C:FC:0E:F2:C7:F7:B2:46:FD:C3:7C:D9:BF:A1:1D:9B:DB:44:59

            X509v3 Extended Key Usage: 
                TLS Web Server Authentication
            X509v3 Key Usage: 
                Digital Signature, Key Encipherment
            X509v3 Subject Alternative Name: 
                DNS:team273-server
    Signature Algorithm: sha256WithRSAEncryption
         1f:dc:40:c5:f6:2a:09:02:41:b7:5e:5e:03:23:9b:d3:92:85:
         3f:72:8b:9c:d3:02:c4:0d:75:14:e8:0e:a5:bb:2e:9d:72:30:
         57:91:52:62:a3:25:3b:9f:78:1f:45:d4:db:02:a2:b0:5c:da:
         9f:67:9c:ba:66:7b:07:b9:ee:17:3a:db:8f:91:37:cd:48:52:
         40:b2:b9:b7:ea:4a:da:b9:0b:31:5f:52:83:65:ec:d8:84:0d:
         53:0e:c3:b7:ab:8c:98:b5:50:c1:0e:f9:b6:d1:2e:35:21:49:
         bb:69:e7:be:36:31:22:12:95:9b:f0:56:c9:d9:19:16:5a:75:
         fd:b3:be:fd:71:3c:82:4e:f7:39:3d:4a:04:f0:90:26:72:db:
         a1:2a:f7:b5:e9:7f:01:9e:c6:88:07:80:2e:1a:a6:b8:0d:f0:
         c9:5a:6c:ef:c7:2a:0b:63:1c:08:f4:06:90:3a:1b:ae:d9:dc:
         40:7b:f5:6d:a2:6e:e2:75:74:43:61:a2:40:1b:d1:58:df:0a:
         56:d8:21:de:ab:be:72:87:88:53:c9:c7:ba:ad:d4:76:38:6e:
         69:15:6a:94:a2:f5:ee:ef:be:9c:58:2c:b7:81:b8:44:75:95:
         97:3e:d7:29:af:13:55:db:a4:52:53:e4:83:26:2b:9d:46:49:
         ea:f4:0b:24
-----BEGIN CERTIFICATE-----
MIIDdzCCAl+gAwIBAgIQeX1ShojgTpvYG1qDXyz+JjANBgkqhkiG9w0BAQsFADAW
MRQwEgYDVQQDDAt0ZWFtMjczLW5ldDAeFw0yMzA4MTQxNDI3NTFaFw0yNjA3Mjkx
NDI3NTFaMBkxFzAVBgNVBAMMDnRlYW0yNzMtc2VydmVyMIIBIjANBgkqhkiG9w0B
AQEFAAOCAQ8AMIIBCgKCAQEAtrEmyxaeF1UPhjFLgCUICOwsZBG6lzxJO+3wwnud
Gri9vFt2lv+Eu+Ww9o9oEWhHVe24kauc4CTzne/asJvj4ROb1PwRpktxmdQ8QFul
Qvrs9iO23gfhcAgeW//4E8jTSh8l0W+e1Mj4vVOQHaYp2hPckAhs2xE6m8/6Oqpw
3VbuvJYVHiugzOufmADcwL528BxLspS91N4tTnkSPmvSEJtfwzfy6C4ZnPPjeewo
2/rfml2c4oHyb9MpUMRrW/IHq3KFB5vPqGT/E2Yp90IvreLWnTaSCDmp69SjKCzb
W723+Nt+7zCQrM4yM1VgMBehzCuM/Y1Ku19/avXjm8cjYQIDAQABo4G9MIG6MAkG
A1UdEwQCMAAwHQYDVR0OBBYEFB0Gavc8IxKl2dcKOlSv8k8m5e1BMFEGA1UdIwRK
MEiAFLH/rq1ZJ5FRSEeKbzUCvU30joqaoRqkGDAWMRQwEgYDVQQDDAt0ZWFtMjcz
LW5ldIIUGGz8DvLH97JG/cN82b+hHZvbRFkwEwYDVR0lBAwwCgYIKwYBBQUHAwEw
CwYDVR0PBAQDAgWgMBkGA1UdEQQSMBCCDnRlYW0yNzMtc2VydmVyMA0GCSqGSIb3
DQEBCwUAA4IBAQAf3EDF9ioJAkG3Xl4DI5vTkoU/couc0wLEDXUU6A6luy6dcjBX
kVJioyU7n3gfRdTbAqKwXNqfZ5y6ZnsHue4XOtuPkTfNSFJAsrm36krauQsxX1KD
ZezYhA1TDsO3q4yYtVDBDvm20S41IUm7aee+NjEiEpWb8FbJ2RkWWnX9s779cTyC
Tvc5PUoE8JAmctuhKve16X8BnsaIB4AuGqa4DfDJWmzvxyoLYxwI9AaQOhuu2dxA
e/Vtom7idXRDYaJAG9FY3wpW2CHeq75yh4hTyce6rdR2OG5pFWqUovXu776cWCy3
gbhEdZWXPtcprxNV26RSU+SDJiudRknq9Ask
-----END CERTIFICATE-----
