Certificate:
    Data:
        Version: 3 (0x2)
        Serial Number:
            88:35:9e:2e:c8:f8:92:d4:6b:0a:2f:50:7a:3e:96:7d
        Signature Algorithm: sha256WithRSAEncryption
        Issuer: CN=team18-net
        Validity
            Not Before: Aug 14 14:22:24 2023 GMT
            Not After : Jul 29 14:22:24 2026 GMT
        Subject: CN=team18-client
        Subject Public Key Info:
            Public Key Algorithm: rsaEncryption
                RSA Public-Key: (2048 bit)
                Modulus:
                    00:ab:75:d6:89:c3:46:20:54:51:00:fe:71:e0:f8:
                    aa:a2:f4:23:49:1e:bf:e7:4b:18:33:75:d5:d0:1a:
                    7b:42:09:ec:e6:3e:08:61:f0:ca:96:31:52:39:0c:
                    38:d9:1d:16:74:88:2a:06:57:fe:d5:af:3d:93:c6:
                    2a:83:71:55:a4:b5:f3:05:50:4a:68:53:03:8e:46:
                    4d:f5:b4:d6:a9:e5:5d:6c:94:e2:60:bd:8a:b6:e7:
                    1f:95:f7:3a:22:24:35:e0:f7:83:96:6e:62:e5:3d:
                    3f:6f:a4:10:ca:c1:ea:15:18:52:24:8b:32:48:a2:
                    17:83:97:8a:c6:29:37:55:d9:e9:09:b0:6b:fa:81:
                    e9:41:ad:b8:c9:1a:28:e8:a3:d1:0c:27:38:35:e3:
                    a8:76:7e:d1:73:f0:95:05:b1:bb:84:b4:2b:8c:7c:
                    05:c3:5a:eb:bd:19:8a:87:06:c3:14:92:5f:df:52:
                    da:98:d0:c5:f4:dc:d0:b6:6c:b7:1a:bf:d7:e4:a4:
                    38:01:6a:ec:7c:ce:49:97:8e:1f:ba:7e:3e:67:d5:
                    b9:23:e7:f5:13:8d:30:bb:0f:ce:03:9b:f9:36:95:
                    4a:95:b4:1a:17:d3:df:20:2d:4e:8a:8c:1f:9e:85:
                    96:e4:bf:90:88:b4:a9:14:14:f2:a5:31:c5:6f:72:
                    ea:5b
                Exponent: 65537 (0x10001)
        X509v3 extensions:
            X509v3 Basic Constraints: 
                CA:FALSE
            X509v3 Subject Key Identifier: 
                93:F4:DF:C2:D8:82:2B:F2:5A:A9:AA:DD:A3:E0:FA:4D:20:16:6D:6C
            X509v3 Authority Key Identifier: 
                keyid:A2:69:8E:1D:6C:3A:19:18:BB:B2:17:44:11:A8:C6:3F:B4:B7:49:44
                DirName:/CN=team18-net
                serial:0B:59:2C:A3:10:92:7A:7F:E7:D3:84:5F:08:29:F6:9D:4F:3A:25:9D

            X509v3 Extended Key Usage: 
                TLS Web Client Authentication
            X509v3 Key Usage: 
                Digital Signature
    Signature Algorithm: sha256WithRSAEncryption
         9c:5e:be:b2:d7:59:2c:7a:08:76:07:a9:f4:ad:55:eb:9e:d5:
         f3:ea:b8:cf:3d:78:4f:5f:d3:ad:4f:4d:85:bc:a3:70:8a:db:
         75:8d:b7:1b:78:99:3d:37:0c:6c:02:f7:9a:62:45:34:8a:58:
         44:b9:7d:97:5e:2d:3b:9c:2a:cd:1e:9e:19:69:f6:0a:cd:fb:
         e7:49:42:49:05:5f:31:75:56:11:6d:f3:a8:0d:92:ff:2c:71:
         1c:eb:a8:72:5c:5c:1d:b9:af:5d:8f:3f:31:eb:1b:95:96:65:
         78:5e:b9:7e:de:9b:ab:e6:db:4f:ee:72:13:5c:61:7e:3b:ed:
         29:d5:e1:4a:0f:ba:9d:71:c3:aa:4f:eb:7c:88:6f:c2:7d:69:
         a6:a6:87:b1:92:90:12:b4:51:2b:31:32:b8:4a:a1:51:75:d5:
         76:ba:8a:ae:cb:ad:fd:b4:ff:53:78:ac:89:df:d4:11:36:eb:
         1d:f5:39:e9:40:7d:fe:6a:b0:c0:8f:31:a0:86:4d:e6:0f:90:
         5e:eb:bd:46:f5:9f:38:18:09:3c:61:55:20:9a:d7:9f:0c:cb:
         9e:77:fa:6c:9e:a5:fe:25:72:32:98:c5:83:c4:37:81:46:73:
         46:4b:88:4e:c0:94:c5:82:d5:05:d4:c5:e5:2b:53:63:a3:9c:
         f1:2d:db:e8
-----BEGIN CERTIFICATE-----
MIIDWjCCAkKgAwIBAgIRAIg1ni7I+JLUawovUHo+ln0wDQYJKoZIhvcNAQELBQAw
FTETMBEGA1UEAwwKdGVhbTE4LW5ldDAeFw0yMzA4MTQxNDIyMjRaFw0yNjA3Mjkx
NDIyMjRaMBgxFjAUBgNVBAMMDXRlYW0xOC1jbGllbnQwggEiMA0GCSqGSIb3DQEB
AQUAA4IBDwAwggEKAoIBAQCrddaJw0YgVFEA/nHg+Kqi9CNJHr/nSxgzddXQGntC
CezmPghh8MqWMVI5DDjZHRZ0iCoGV/7Vrz2TxiqDcVWktfMFUEpoUwOORk31tNap
5V1slOJgvYq25x+V9zoiJDXg94OWbmLlPT9vpBDKweoVGFIkizJIoheDl4rGKTdV
2ekJsGv6gelBrbjJGijoo9EMJzg146h2ftFz8JUFsbuEtCuMfAXDWuu9GYqHBsMU
kl/fUtqY0MX03NC2bLcav9fkpDgBaux8zkmXjh+6fj5n1bkj5/UTjTC7D84Dm/k2
lUqVtBoX098gLU6KjB+ehZbkv5CItKkUFPKlMcVvcupbAgMBAAGjgaEwgZ4wCQYD
VR0TBAIwADAdBgNVHQ4EFgQUk/TfwtiCK/Jaqardo+D6TSAWbWwwUAYDVR0jBEkw
R4AUommOHWw6GRi7shdEEajGP7S3SUShGaQXMBUxEzARBgNVBAMMCnRlYW0xOC1u
ZXSCFAtZLKMQknp/59OEXwgp9p1POiWdMBMGA1UdJQQMMAoGCCsGAQUFBwMCMAsG
A1UdDwQEAwIHgDANBgkqhkiG9w0BAQsFAAOCAQEAnF6+stdZLHoIdgep9K1V657V
8+q4zz14T1/TrU9NhbyjcIrbdY23G3iZPTcMbAL3mmJFNIpYRLl9l14tO5wqzR6e
GWn2Cs3750lCSQVfMXVWEW3zqA2S/yxxHOuoclxcHbmvXY8/MesblZZleF65ft6b
q+bbT+5yE1xhfjvtKdXhSg+6nXHDqk/rfIhvwn1ppqaHsZKQErRRKzEyuEqhUXXV
drqKrsut/bT/U3isid/UETbrHfU56UB9/mqwwI8xoIZN5g+QXuu9RvWfOBgJPGFV
IJrXnwzLnnf6bJ6l/iVyMpjFg8Q3gUZzRkuITsCUxYLVBdTF5StTY6Oc8S3b6A==
-----END CERTIFICATE-----
