Certificate:
    Data:
        Version: 3 (0x2)
        Serial Number:
            de:8a:a0:41:7c:63:9e:65:f5:0c:ac:ca:e5:56:3e:fd
        Signature Algorithm: sha256WithRSAEncryption
        Issuer: CN=team15-net
        Validity
            Not Before: Aug 14 14:22:20 2023 GMT
            Not After : Jul 29 14:22:20 2026 GMT
        Subject: CN=team15-server
        Subject Public Key Info:
            Public Key Algorithm: rsaEncryption
                RSA Public-Key: (2048 bit)
                Modulus:
                    00:ad:b6:73:cf:d1:29:2d:6f:a0:27:57:91:f0:05:
                    70:1f:79:50:7b:9f:f0:49:fe:43:87:a2:ef:83:3f:
                    de:c2:ee:8f:32:54:cd:01:1c:2e:fd:f3:ca:cf:e8:
                    cb:c2:61:47:c2:57:ad:0d:a2:5b:60:29:57:2f:b4:
                    28:5c:a8:06:2a:2e:51:90:d3:33:25:79:34:0b:0b:
                    06:f9:21:02:4d:00:67:a5:a7:e7:51:dd:ee:90:73:
                    18:62:bf:00:b8:f1:eb:81:f1:d2:16:3a:92:70:b4:
                    0f:55:f1:1e:fe:58:7e:fa:2a:83:e3:8a:5b:58:96:
                    a8:43:71:b5:f8:23:a3:b3:56:86:38:49:45:10:e7:
                    52:b8:e8:53:55:42:14:94:64:58:27:53:26:b5:b1:
                    2c:1e:e5:51:6e:7a:0a:4a:6b:aa:46:fc:f4:7d:fe:
                    ae:e5:dd:45:13:93:ec:ff:b2:d8:18:6c:11:ae:69:
                    bc:4a:1a:a4:33:1d:dc:18:dc:e6:6c:47:ba:4b:ac:
                    0f:20:b9:b3:e0:54:c5:8d:5e:81:a7:4c:73:d2:fd:
                    94:0c:c8:07:b5:ba:e3:1e:e4:a9:15:98:3f:d2:03:
                    32:c6:65:78:da:23:f1:47:33:cc:2e:98:0d:cf:a3:
                    25:53:b5:ca:8a:18:b2:a5:46:ab:19:e8:34:fb:78:
                    37:a5
                Exponent: 65537 (0x10001)
        X509v3 extensions:
            X509v3 Basic Constraints: 
                CA:FALSE
            X509v3 Subject Key Identifier: 
                13:C1:38:8D:D0:15:84:A2:30:32:85:32:52:E2:AF:CD:AF:C7:58:5B
            X509v3 Authority Key Identifier: 
                keyid:DF:D1:3F:A6:0D:1A:08:53:8E:1D:B7:6D:EB:8A:82:8C:F4:96:63:17
                DirName:/CN=team15-net
                serial:0C:D4:E2:EE:35:45:EF:0B:3C:DD:02:D9:25:E9:4A:A4:D5:D4:A0:8D

            X509v3 Extended Key Usage: 
                TLS Web Server Authentication
            X509v3 Key Usage: 
                Digital Signature, Key Encipherment
            X509v3 Subject Alternative Name: 
                DNS:team15-server
    Signature Algorithm: sha256WithRSAEncryption
         bd:c6:fc:c4:17:b5:fa:18:f6:10:e5:12:ff:90:bb:c5:61:1b:
         bf:b8:e5:dc:c3:e6:81:d7:3b:9f:06:8a:61:cf:7d:66:11:2a:
         20:16:aa:67:7a:79:33:88:51:d2:50:3c:27:0d:be:0a:27:9a:
         30:2e:15:a8:89:d4:0f:83:34:1a:b3:ba:a5:f8:8f:8e:b9:32:
         51:44:b2:74:ba:64:46:f3:dc:41:55:19:08:e3:3c:cb:ae:8b:
         1b:0e:27:29:b6:f7:a9:05:e3:0a:a2:a0:71:f5:ec:1f:f3:62:
         2d:07:19:d2:84:4f:e9:60:47:8e:95:ae:88:28:f8:0e:5c:f0:
         e0:0e:75:09:66:cc:e2:f0:31:97:b7:ff:c4:20:aa:5b:b9:96:
         5d:91:1d:8b:f4:6f:e1:96:45:4f:34:ed:b2:ed:2f:4e:28:07:
         66:6d:a9:0e:7c:cd:18:a7:22:cf:fd:53:35:09:5d:18:22:8d:
         92:94:e6:97:b5:fb:c2:f1:cf:60:92:c3:01:9e:f9:29:d8:45:
         19:6f:1f:88:5b:e0:41:93:b7:4b:d2:d8:b0:71:32:e7:68:a3:
         32:ab:53:d5:4f:bc:3d:1c:27:fb:96:21:ed:7d:2c:3f:e4:3e:
         09:1d:3c:63:66:4d:2b:1f:89:8b:23:1a:f6:70:70:10:50:a2:
         18:44:87:0a
-----BEGIN CERTIFICATE-----
MIIDdDCCAlygAwIBAgIRAN6KoEF8Y55l9QysyuVWPv0wDQYJKoZIhvcNAQELBQAw
FTETMBEGA1UEAwwKdGVhbTE1LW5ldDAeFw0yMzA4MTQxNDIyMjBaFw0yNjA3Mjkx
NDIyMjBaMBgxFjAUBgNVBAMMDXRlYW0xNS1zZXJ2ZXIwggEiMA0GCSqGSIb3DQEB
AQUAA4IBDwAwggEKAoIBAQCttnPP0Sktb6AnV5HwBXAfeVB7n/BJ/kOHou+DP97C
7o8yVM0BHC7988rP6MvCYUfCV60NoltgKVcvtChcqAYqLlGQ0zMleTQLCwb5IQJN
AGelp+dR3e6QcxhivwC48euB8dIWOpJwtA9V8R7+WH76KoPjiltYlqhDcbX4I6Oz
VoY4SUUQ51K46FNVQhSUZFgnUya1sSwe5VFuegpKa6pG/PR9/q7l3UUTk+z/stgY
bBGuabxKGqQzHdwY3OZsR7pLrA8gubPgVMWNXoGnTHPS/ZQMyAe1uuMe5KkVmD/S
AzLGZXjaI/FHM8wumA3PoyVTtcqKGLKlRqsZ6DT7eDelAgMBAAGjgbswgbgwCQYD
VR0TBAIwADAdBgNVHQ4EFgQUE8E4jdAVhKIwMoUyUuKvza/HWFswUAYDVR0jBEkw
R4AU39E/pg0aCFOOHbdt64qCjPSWYxehGaQXMBUxEzARBgNVBAMMCnRlYW0xNS1u
ZXSCFAzU4u41Re8LPN0C2SXpSqTV1KCNMBMGA1UdJQQMMAoGCCsGAQUFBwMBMAsG
A1UdDwQEAwIFoDAYBgNVHREEETAPgg10ZWFtMTUtc2VydmVyMA0GCSqGSIb3DQEB
CwUAA4IBAQC9xvzEF7X6GPYQ5RL/kLvFYRu/uOXcw+aB1zufBophz31mESogFqpn
enkziFHSUDwnDb4KJ5owLhWoidQPgzQas7ql+I+OuTJRRLJ0umRG89xBVRkI4zzL
rosbDicptvepBeMKoqBx9ewf82ItBxnShE/pYEeOla6IKPgOXPDgDnUJZszi8DGX
t//EIKpbuZZdkR2L9G/hlkVPNO2y7S9OKAdmbakOfM0YpyLP/VM1CV0YIo2SlOaX
tfvC8c9gksMBnvkp2EUZbx+IW+BBk7dL0tiwcTLnaKMyq1PVT7w9HCf7liHtfSw/
5D4JHTxjZk0rH4mLIxr2cHAQUKIYRIcK
-----END CERTIFICATE-----
