Certificate:
    Data:
        Version: 3 (0x2)
        Serial Number:
            b9:53:1f:2f:fa:b4:a3:a1:a2:e6:e4:4b:ee:e6:75:1e
        Signature Algorithm: sha256WithRSAEncryption
        Issuer: CN=team4-net
        Validity
            Not Before: Aug 14 14:22:08 2023 GMT
            Not After : Jul 29 14:22:08 2026 GMT
        Subject: CN=team4-client
        Subject Public Key Info:
            Public Key Algorithm: rsaEncryption
                RSA Public-Key: (2048 bit)
                Modulus:
                    00:cd:b0:40:10:b4:9e:71:28:55:b3:f6:23:43:bd:
                    f6:ce:68:53:ad:91:34:5f:83:26:36:4f:b3:1f:1b:
                    e0:75:2a:d9:f9:7b:32:2f:9c:06:08:82:9b:6c:eb:
                    b8:d1:3a:58:bc:b8:78:b0:8c:43:62:dc:a2:e2:d8:
                    98:99:8f:8f:0f:36:21:8d:94:c4:13:f0:79:86:59:
                    f8:be:72:3b:0f:51:da:46:c2:38:56:de:34:62:83:
                    a2:39:d4:e0:b1:46:5e:91:11:fb:d0:c8:10:3d:a5:
                    4e:ff:3e:aa:f1:19:8f:a4:95:7f:df:d6:e5:11:94:
                    e1:be:44:58:d5:9d:f5:55:8b:8e:38:e6:83:1f:46:
                    a4:c4:c2:fc:92:7c:77:4b:e7:70:10:14:5f:9e:cc:
                    91:9d:75:a6:3d:c9:12:13:f1:e3:b0:bf:5a:a5:29:
                    8e:93:23:44:3b:1d:72:e5:d7:e6:43:98:4c:cc:35:
                    6a:9d:12:70:39:5c:82:2e:5a:2f:ea:b5:13:72:f9:
                    f9:35:f2:93:eb:e9:67:f0:70:b9:a5:11:39:ae:83:
                    00:84:77:e3:17:25:2f:c1:1e:f7:c9:ad:9f:d9:75:
                    ce:ec:0a:cd:4e:65:09:43:b2:18:3b:3c:3b:4c:4a:
                    b3:59:ff:5b:33:b9:5e:41:77:73:b3:76:75:71:3e:
                    4a:75
                Exponent: 65537 (0x10001)
        X509v3 extensions:
            X509v3 Basic Constraints: 
                CA:FALSE
            X509v3 Subject Key Identifier: 
                AB:89:BD:C7:69:80:19:77:FE:2B:D3:4D:1D:1C:DD:35:3F:76:72:FF
            X509v3 Authority Key Identifier: 
                keyid:D9:2C:45:1C:97:C6:D9:C4:3B:62:4A:B2:FF:F4:55:64:3A:97:E2:BF
                DirName:/CN=team4-net
                serial:6A:A8:C4:29:59:CD:87:35:BA:A8:AE:55:C3:22:50:E9:D9:70:C8:E7

            X509v3 Extended Key Usage: 
                TLS Web Client Authentication
            X509v3 Key Usage: 
                Digital Signature
    Signature Algorithm: sha256WithRSAEncryption
         46:13:7a:c4:e7:ce:50:30:74:34:24:e6:c9:1e:66:36:5d:22:
         23:28:7c:47:4d:35:0d:7e:61:1f:b9:d2:b8:9f:b2:70:79:7d:
         76:a8:9d:b8:50:53:89:5a:3c:f8:ea:73:3c:60:c1:af:b5:12:
         19:fd:48:f7:d1:95:86:8d:a2:a7:ee:7a:62:5d:64:6d:c8:4d:
         98:41:c9:f5:3b:47:7a:dc:6b:ac:04:44:4d:d3:83:09:ef:72:
         1b:17:d5:47:4f:26:a7:bc:d8:f1:63:b2:f8:7e:e6:df:62:d3:
         c7:1b:21:73:e1:6a:ec:fe:64:1c:a2:de:44:89:aa:0b:fd:61:
         f8:22:ab:55:bc:a7:0e:f4:6c:d6:98:42:12:8f:af:57:89:15:
         e2:6e:8b:17:f7:8d:5b:55:60:e9:8d:27:6d:87:32:67:73:1c:
         1c:cd:18:89:e6:c4:6e:fa:21:34:7d:bf:a1:f0:b0:65:e0:fb:
         53:a5:79:7d:da:82:0a:b8:b6:63:9c:8f:47:ef:17:44:f5:f0:
         bb:bd:f2:cf:f3:32:7b:93:ff:c8:11:3f:38:18:39:4a:28:b3:
         c6:7a:f4:4b:36:cb:d7:3b:56:57:d2:14:c1:95:a9:6f:7c:48:
         b9:27:30:81:97:c2:d7:97:f3:ba:22:64:88:fa:b6:a1:ce:4d:
         e3:fb:fa:5a
-----BEGIN CERTIFICATE-----
MIIDVzCCAj+gAwIBAgIRALlTHy/6tKOhoubkS+7mdR4wDQYJKoZIhvcNAQELBQAw
FDESMBAGA1UEAwwJdGVhbTQtbmV0MB4XDTIzMDgxNDE0MjIwOFoXDTI2MDcyOTE0
MjIwOFowFzEVMBMGA1UEAwwMdGVhbTQtY2xpZW50MIIBIjANBgkqhkiG9w0BAQEF
AAOCAQ8AMIIBCgKCAQEAzbBAELSecShVs/YjQ732zmhTrZE0X4MmNk+zHxvgdSrZ
+XsyL5wGCIKbbOu40TpYvLh4sIxDYtyi4tiYmY+PDzYhjZTEE/B5hln4vnI7D1Ha
RsI4Vt40YoOiOdTgsUZekRH70MgQPaVO/z6q8RmPpJV/39blEZThvkRY1Z31VYuO
OOaDH0akxML8knx3S+dwEBRfnsyRnXWmPckSE/HjsL9apSmOkyNEOx1y5dfmQ5hM
zDVqnRJwOVyCLlov6rUTcvn5NfKT6+ln8HC5pRE5roMAhHfjFyUvwR73ya2f2XXO
7ArNTmUJQ7IYOzw7TEqzWf9bM7leQXdzs3Z1cT5KdQIDAQABo4GgMIGdMAkGA1Ud
EwQCMAAwHQYDVR0OBBYEFKuJvcdpgBl3/ivTTR0c3TU/dnL/ME8GA1UdIwRIMEaA
FNksRRyXxtnEO2JKsv/0VWQ6l+K/oRikFjAUMRIwEAYDVQQDDAl0ZWFtNC1uZXSC
FGqoxClZzYc1uqiuVcMiUOnZcMjnMBMGA1UdJQQMMAoGCCsGAQUFBwMCMAsGA1Ud
DwQEAwIHgDANBgkqhkiG9w0BAQsFAAOCAQEARhN6xOfOUDB0NCTmyR5mNl0iIyh8
R001DX5hH7nSuJ+ycHl9dqiduFBTiVo8+OpzPGDBr7USGf1I99GVho2ip+56Yl1k
bchNmEHJ9TtHetxrrARETdODCe9yGxfVR08mp7zY8WOy+H7m32LTxxshc+Fq7P5k
HKLeRImqC/1h+CKrVbynDvRs1phCEo+vV4kV4m6LF/eNW1Vg6Y0nbYcyZ3McHM0Y
iebEbvohNH2/ofCwZeD7U6V5fdqCCri2Y5yPR+8XRPXwu73yz/Mye5P/yBE/OBg5
Siizxnr0SzbL1ztWV9IUwZWpb3xIuScwgZfC15fzuiJkiPq2oc5N4/v6Wg==
-----END CERTIFICATE-----
