Certificate:
    Data:
        Version: 3 (0x2)
        Serial Number:
            d0:5a:d5:84:8b:d2:6d:a0:4a:de:65:07:b9:a5:0b:19
        Signature Algorithm: sha256WithRSAEncryption
        Issuer: CN=team4-net
        Validity
            Not Before: Aug 14 14:22:08 2023 GMT
            Not After : Jul 29 14:22:08 2026 GMT
        Subject: CN=team4-server
        Subject Public Key Info:
            Public Key Algorithm: rsaEncryption
                RSA Public-Key: (2048 bit)
                Modulus:
                    00:d3:e7:d6:8d:8a:fc:c9:4c:01:26:99:88:c5:86:
                    62:55:f3:4e:c2:62:28:63:95:fb:ba:7d:f3:9a:32:
                    3d:d2:19:9f:42:c7:39:19:11:40:56:ce:41:67:46:
                    67:11:09:08:fe:f2:f8:68:31:6a:7a:fa:62:ed:32:
                    e1:be:0d:70:38:47:1b:c9:3d:34:c9:78:2c:17:d4:
                    62:e7:06:14:8b:77:c2:28:6c:72:a0:2d:fc:0c:5b:
                    6e:9a:b4:85:34:96:eb:0f:80:5a:39:10:5f:3a:24:
                    5c:f0:1e:ed:b8:4e:10:ff:b3:6a:59:47:62:f4:1b:
                    b6:e2:8a:c6:37:ca:09:28:70:f7:24:aa:14:7c:e3:
                    0a:da:0c:30:33:13:d3:f2:21:0f:07:be:14:ec:34:
                    9e:e2:02:60:2e:cf:b3:13:eb:01:03:9f:a4:35:13:
                    7b:38:a1:6d:87:2f:61:6a:43:08:64:86:23:85:a4:
                    60:b4:63:4d:0b:a5:a8:21:7d:81:e3:8c:96:08:f3:
                    73:95:16:c9:25:85:af:41:ba:24:69:d8:b8:40:25:
                    f5:1c:73:6e:49:8a:fc:05:48:3d:1b:23:48:c1:b2:
                    51:24:3c:58:13:23:fd:e3:8a:8c:38:57:ba:9f:5c:
                    f4:97:c1:f8:c2:6e:f2:9c:4d:a4:e9:e8:84:b5:93:
                    7b:c1
                Exponent: 65537 (0x10001)
        X509v3 extensions:
            X509v3 Basic Constraints: 
                CA:FALSE
            X509v3 Subject Key Identifier: 
                DD:A9:C1:89:C6:3A:7B:4B:D1:D5:61:71:46:91:F2:A1:04:B3:7A:D6
            X509v3 Authority Key Identifier: 
                keyid:D9:2C:45:1C:97:C6:D9:C4:3B:62:4A:B2:FF:F4:55:64:3A:97:E2:BF
                DirName:/CN=team4-net
                serial:6A:A8:C4:29:59:CD:87:35:BA:A8:AE:55:C3:22:50:E9:D9:70:C8:E7

            X509v3 Extended Key Usage: 
                TLS Web Server Authentication
            X509v3 Key Usage: 
                Digital Signature, Key Encipherment
            X509v3 Subject Alternative Name: 
                DNS:team4-server
    Signature Algorithm: sha256WithRSAEncryption
         3b:cf:8c:fd:32:14:7a:da:69:5c:54:7a:3b:03:b5:fa:7c:3d:
         3c:2f:c6:ce:9c:c6:75:be:25:e8:80:bd:cc:12:3d:14:4f:96:
         fd:06:0b:30:d2:c2:c7:99:3c:3c:f7:a1:58:18:e6:6f:51:01:
         d7:fc:d2:38:8e:83:49:87:d7:7f:c7:22:4a:f7:9f:24:b9:6e:
         bf:e2:5e:03:9e:58:e6:90:fc:6e:eb:24:6c:91:3a:bc:a1:bf:
         d1:be:7b:f2:72:94:d3:ff:2e:68:63:ea:08:cf:b6:9e:68:66:
         0d:5d:e0:4b:3e:72:31:a8:5a:e3:38:1d:b7:7c:87:4a:39:69:
         63:ff:25:44:b8:fa:27:e2:02:b6:95:88:c0:45:12:ee:35:79:
         39:9d:db:04:7b:30:50:2a:46:11:75:6f:90:28:f2:ff:8c:e8:
         37:8c:1c:fd:85:de:a9:4f:ff:56:c9:6a:3e:22:39:2f:ad:cf:
         97:0a:c6:93:18:f9:8b:1d:90:29:b4:75:7f:f4:75:59:a7:1a:
         ce:60:d0:c3:43:11:29:8f:ab:24:18:68:f6:bf:61:81:fc:ba:
         91:f1:a0:b0:84:77:9b:29:b4:ec:da:22:72:2e:69:ff:be:04:
         47:a2:fa:ba:7c:8b:3d:71:77:a2:49:e1:8f:34:2e:38:2c:9b:
         c4:70:7d:fa
-----BEGIN CERTIFICATE-----
MIIDcDCCAligAwIBAgIRANBa1YSL0m2gSt5lB7mlCxkwDQYJKoZIhvcNAQELBQAw
FDESMBAGA1UEAwwJdGVhbTQtbmV0MB4XDTIzMDgxNDE0MjIwOFoXDTI2MDcyOTE0
MjIwOFowFzEVMBMGA1UEAwwMdGVhbTQtc2VydmVyMIIBIjANBgkqhkiG9w0BAQEF
AAOCAQ8AMIIBCgKCAQEA0+fWjYr8yUwBJpmIxYZiVfNOwmIoY5X7un3zmjI90hmf
Qsc5GRFAVs5BZ0ZnEQkI/vL4aDFqevpi7TLhvg1wOEcbyT00yXgsF9Ri5wYUi3fC
KGxyoC38DFtumrSFNJbrD4BaORBfOiRc8B7tuE4Q/7NqWUdi9Bu24orGN8oJKHD3
JKoUfOMK2gwwMxPT8iEPB74U7DSe4gJgLs+zE+sBA5+kNRN7OKFthy9hakMIZIYj
haRgtGNNC6WoIX2B44yWCPNzlRbJJYWvQbokadi4QCX1HHNuSYr8BUg9GyNIwbJR
JDxYEyP944qMOFe6n1z0l8H4wm7ynE2k6eiEtZN7wQIDAQABo4G5MIG2MAkGA1Ud
EwQCMAAwHQYDVR0OBBYEFN2pwYnGOntL0dVhcUaR8qEEs3rWME8GA1UdIwRIMEaA
FNksRRyXxtnEO2JKsv/0VWQ6l+K/oRikFjAUMRIwEAYDVQQDDAl0ZWFtNC1uZXSC
FGqoxClZzYc1uqiuVcMiUOnZcMjnMBMGA1UdJQQMMAoGCCsGAQUFBwMBMAsGA1Ud
DwQEAwIFoDAXBgNVHREEEDAOggx0ZWFtNC1zZXJ2ZXIwDQYJKoZIhvcNAQELBQAD
ggEBADvPjP0yFHraaVxUejsDtfp8PTwvxs6cxnW+JeiAvcwSPRRPlv0GCzDSwseZ
PDz3oVgY5m9RAdf80jiOg0mH13/HIkr3nyS5br/iXgOeWOaQ/G7rJGyROryhv9G+
e/JylNP/Lmhj6gjPtp5oZg1d4Es+cjGoWuM4Hbd8h0o5aWP/JUS4+ifiAraViMBF
Eu41eTmd2wR7MFAqRhF1b5Ao8v+M6DeMHP2F3qlP/1bJaj4iOS+tz5cKxpMY+Ysd
kCm0dX/0dVmnGs5g0MNDESmPqyQYaPa/YYH8upHxoLCEd5sptOzaInIuaf++BEei
+rp8iz1xd6JJ4Y80Ljgsm8Rwffo=
-----END CERTIFICATE-----
