Certificate:
    Data:
        Version: 3 (0x2)
        Serial Number:
            8a:02:52:5f:fa:d4:f5:d7:b9:f2:28:0f:08:f0:b9:82
        Signature Algorithm: sha256WithRSAEncryption
        Issuer: CN=team231-net
        Validity
            Not Before: Aug 14 14:26:57 2023 GMT
            Not After : Jul 29 14:26:57 2026 GMT
        Subject: CN=team231-client
        Subject Public Key Info:
            Public Key Algorithm: rsaEncryption
                RSA Public-Key: (2048 bit)
                Modulus:
                    00:bc:df:5c:b5:6a:b5:5a:70:43:ae:8b:98:de:a1:
                    b6:66:bd:31:18:50:4f:25:4b:32:98:79:ab:58:75:
                    38:3e:03:59:21:f3:24:8b:ba:64:a9:50:a7:13:e8:
                    1b:8c:50:75:91:9f:3b:ac:9c:0c:6f:68:46:0e:c1:
                    5d:e4:13:1b:05:9e:08:e5:5c:de:a5:d9:9c:30:32:
                    5b:bf:2b:d6:d4:03:b2:d1:d9:43:d1:72:75:84:44:
                    00:97:d0:be:08:84:98:e5:f2:59:93:2f:d8:26:25:
                    a0:41:a0:12:13:e7:48:26:fc:70:32:2f:81:e7:0c:
                    cd:e6:5b:6d:61:a0:63:eb:ff:ed:c0:c8:04:42:28:
                    d7:6a:cb:49:8e:4e:33:17:bd:f5:a7:7a:3c:e0:68:
                    17:5a:b0:c2:8e:42:96:c8:9b:63:aa:6b:67:3a:10:
                    83:ba:1f:b6:d0:88:a4:06:cb:78:da:88:f6:69:74:
                    35:e9:38:53:41:10:b8:94:81:7d:21:b2:e8:b6:cf:
                    6b:e0:bf:0f:d5:00:4d:e2:7b:fc:6f:7d:2f:6f:e4:
                    0e:45:0d:74:b7:09:42:4c:cd:85:f4:59:7e:54:7d:
                    28:e9:dc:a5:66:ac:4e:76:f4:17:88:6b:b9:33:93:
                    39:1b:16:66:3b:97:76:8f:f3:b3:aa:c7:18:76:49:
                    f0:37
                Exponent: 65537 (0x10001)
        X509v3 extensions:
            X509v3 Basic Constraints: 
                CA:FALSE
            X509v3 Subject Key Identifier: 
                5A:89:20:C2:C7:F5:51:83:A8:50:ED:44:58:3A:17:4B:5E:59:A4:58
            X509v3 Authority Key Identifier: 
                keyid:B9:A5:AB:5D:2C:D9:46:F4:4A:8C:8F:58:40:75:A3:B5:4A:A3:EF:48
                DirName:/CN=team231-net
                serial:7C:6D:E8:DF:6A:FC:4E:92:8B:E2:4C:A6:9A:60:D4:92:C2:EA:1E:EE

            X509v3 Extended Key Usage: 
                TLS Web Client Authentication
            X509v3 Key Usage: 
                Digital Signature
    Signature Algorithm: sha256WithRSAEncryption
         73:b9:0d:73:36:52:00:d2:91:fb:c3:a5:27:31:49:d8:b9:b7:
         fc:92:93:45:96:1b:9d:25:5f:ed:ac:9b:a3:9a:8a:3d:fa:9c:
         18:24:77:1d:db:a8:f6:d8:1e:0e:71:03:22:14:a5:75:7a:74:
         be:36:33:53:15:6a:70:fb:23:cb:ca:c7:fc:b5:d9:97:f7:28:
         04:fe:56:3e:f0:8c:40:fd:e4:b0:57:62:0c:b5:b3:0d:72:4c:
         b0:6f:4b:f2:12:b3:56:9d:c5:e8:08:bc:6d:93:72:37:35:b9:
         e1:25:a6:89:f9:62:1c:d9:9b:88:8f:1e:a3:bf:8c:c0:33:2b:
         a7:e9:c7:3d:7b:7c:4c:01:01:06:83:4c:c8:09:67:c4:08:88:
         01:52:4a:18:1b:f3:e7:ea:e8:6c:ce:7e:dd:63:d7:7d:26:28:
         95:98:94:8f:bb:4f:f9:95:c6:69:85:17:1d:46:e3:88:f4:19:
         63:bb:c2:07:4e:4f:9a:45:9b:d3:8a:e7:d2:f7:4f:5f:5c:e5:
         0c:74:23:bc:4d:70:b1:be:0a:83:b8:58:44:d2:46:b8:15:58:
         ab:39:26:f1:a9:0d:96:7d:d4:13:56:e7:82:e0:00:e5:25:11:
         2d:d2:ec:ca:49:08:4d:2b:81:c8:60:16:27:e3:05:b0:ec:74:
         89:78:6c:26
-----BEGIN CERTIFICATE-----
MIIDXTCCAkWgAwIBAgIRAIoCUl/61PXXufIoDwjwuYIwDQYJKoZIhvcNAQELBQAw
FjEUMBIGA1UEAwwLdGVhbTIzMS1uZXQwHhcNMjMwODE0MTQyNjU3WhcNMjYwNzI5
MTQyNjU3WjAZMRcwFQYDVQQDDA50ZWFtMjMxLWNsaWVudDCCASIwDQYJKoZIhvcN
AQEBBQADggEPADCCAQoCggEBALzfXLVqtVpwQ66LmN6htma9MRhQTyVLMph5q1h1
OD4DWSHzJIu6ZKlQpxPoG4xQdZGfO6ycDG9oRg7BXeQTGwWeCOVc3qXZnDAyW78r
1tQDstHZQ9FydYREAJfQvgiEmOXyWZMv2CYloEGgEhPnSCb8cDIvgecMzeZbbWGg
Y+v/7cDIBEIo12rLSY5OMxe99ad6POBoF1qwwo5ClsibY6prZzoQg7ofttCIpAbL
eNqI9ml0Nek4U0EQuJSBfSGy6LbPa+C/D9UATeJ7/G99L2/kDkUNdLcJQkzNhfRZ
flR9KOncpWasTnb0F4hruTOTORsWZjuXdo/zs6rHGHZJ8DcCAwEAAaOBojCBnzAJ
BgNVHRMEAjAAMB0GA1UdDgQWBBRaiSDCx/VRg6hQ7URYOhdLXlmkWDBRBgNVHSME
SjBIgBS5patdLNlG9EqMj1hAdaO1SqPvSKEapBgwFjEUMBIGA1UEAwwLdGVhbTIz
MS1uZXSCFHxt6N9q/E6Si+JMpppg1JLC6h7uMBMGA1UdJQQMMAoGCCsGAQUFBwMC
MAsGA1UdDwQEAwIHgDANBgkqhkiG9w0BAQsFAAOCAQEAc7kNczZSANKR+8OlJzFJ
2Lm3/JKTRZYbnSVf7aybo5qKPfqcGCR3Hduo9tgeDnEDIhSldXp0vjYzUxVqcPsj
y8rH/LXZl/coBP5WPvCMQP3ksFdiDLWzDXJMsG9L8hKzVp3F6Ai8bZNyNzW54SWm
ifliHNmbiI8eo7+MwDMrp+nHPXt8TAEBBoNMyAlnxAiIAVJKGBvz5+robM5+3WPX
fSYolZiUj7tP+ZXGaYUXHUbjiPQZY7vCB05PmkWb04rn0vdPX1zlDHQjvE1wsb4K
g7hYRNJGuBVYqzkm8akNln3UE1bnguAA5SURLdLsykkITSuByGAWJ+MFsOx0iXhs
Jg==
-----END CERTIFICATE-----
