Certificate:
    Data:
        Version: 3 (0x2)
        Serial Number:
            a0:c7:c5:89:e3:3c:e9:0b:83:c7:cb:b2:ce:a8:82:c3
        Signature Algorithm: sha256WithRSAEncryption
        Issuer: CN=team253-net
        Validity
            Not Before: Aug 14 14:27:23 2023 GMT
            Not After : Jul 29 14:27:23 2026 GMT
        Subject: CN=team253-server
        Subject Public Key Info:
            Public Key Algorithm: rsaEncryption
                RSA Public-Key: (2048 bit)
                Modulus:
                    00:cb:9c:fd:16:dc:59:3e:1d:da:85:d3:90:46:3c:
                    16:35:cb:ab:a6:63:4f:b3:9e:b0:3c:7a:e1:81:d7:
                    50:42:26:61:10:fa:4b:b6:3d:ed:67:54:4b:5f:f8:
                    b6:d8:7b:20:8b:39:6e:71:66:87:26:c6:be:9c:fc:
                    6a:ef:b9:6b:57:43:3d:25:0c:70:09:f7:d7:64:e1:
                    56:07:83:9c:6b:3c:46:1f:a6:92:4c:6b:3e:41:86:
                    dd:1e:07:8e:57:a1:42:45:5d:40:43:43:8a:03:f3:
                    37:4e:08:2d:38:12:6b:80:93:ca:85:4f:fe:ba:37:
                    60:15:29:ab:6f:20:3f:e3:1c:17:12:6b:62:a8:aa:
                    dc:8e:30:12:d5:3c:a2:0b:b2:0c:88:e7:4a:8b:f1:
                    d2:fc:c0:d6:d9:90:07:06:ab:30:93:ad:ae:14:33:
                    d9:a3:43:5f:f4:89:a1:9d:88:88:bc:f4:9a:3b:bc:
                    a3:59:68:87:f9:a1:d4:d5:a1:7b:08:87:22:98:0b:
                    55:45:02:47:ed:09:d4:b1:f1:44:11:aa:53:1c:09:
                    7f:09:a4:c3:fd:b2:9b:b2:d1:a7:b2:6b:f8:f8:6f:
                    43:07:f5:69:0a:53:e0:38:d9:ba:2e:b7:90:93:57:
                    7c:9a:26:68:31:54:e9:00:46:1c:16:6f:46:cc:76:
                    cb:39
                Exponent: 65537 (0x10001)
        X509v3 extensions:
            X509v3 Basic Constraints: 
                CA:FALSE
            X509v3 Subject Key Identifier: 
                BB:62:83:34:4E:36:14:70:A9:94:C1:03:0E:AB:D4:F2:6D:55:3C:59
            X509v3 Authority Key Identifier: 
                keyid:4E:12:FE:AB:82:6E:12:47:03:A9:3A:FC:88:5B:45:50:3F:A7:58:68
                DirName:/CN=team253-net
                serial:6D:5F:57:82:D0:FB:AB:3B:20:6D:14:3E:DF:0E:35:19:CD:35:BB:9F

            X509v3 Extended Key Usage: 
                TLS Web Server Authentication
            X509v3 Key Usage: 
                Digital Signature, Key Encipherment
            X509v3 Subject Alternative Name: 
                DNS:team253-server
    Signature Algorithm: sha256WithRSAEncryption
         80:1c:18:b9:70:6c:0c:fc:bf:8a:7d:a5:a1:6b:ba:01:a7:4c:
         9d:d4:f9:af:4e:df:a0:78:90:92:01:da:2b:80:e2:9b:66:c2:
         84:15:90:d8:70:36:e3:53:30:94:a2:3e:ff:ed:41:2d:90:da:
         ee:2e:7d:6f:b2:a0:bd:fb:2a:ff:e6:de:0c:2e:38:f9:22:af:
         3e:ea:3e:93:42:d7:e4:47:d6:a9:ba:b0:8f:19:a2:b3:a5:ac:
         d3:ca:34:9e:11:4d:ae:98:98:1d:91:c2:72:4b:9f:ec:3c:17:
         69:ae:3b:31:5d:84:52:73:dc:ef:25:2d:b4:88:e8:bb:d2:54:
         63:58:27:92:f8:f0:85:9a:d6:fb:33:a8:31:03:99:94:ae:1e:
         fa:6b:78:5e:2f:0e:61:86:be:f4:ac:22:bf:d4:91:20:49:d2:
         34:39:d1:2e:01:27:c6:bd:65:4e:fe:8b:64:6f:58:b5:72:b1:
         fe:99:81:8e:aa:4e:d2:e4:8d:49:a3:2a:43:c1:21:22:e1:d0:
         fa:30:6a:2b:2c:cb:29:52:48:3f:1b:45:87:cc:5a:6a:72:ce:
         5f:c0:2f:32:4e:03:52:25:e3:68:58:f2:54:e0:17:9f:d1:56:
         2b:88:55:e3:2a:00:36:57:bf:fa:d8:b5:c1:ef:28:70:bc:3a:
         a0:7f:bf:77
-----BEGIN CERTIFICATE-----
MIIDeDCCAmCgAwIBAgIRAKDHxYnjPOkLg8fLss6ogsMwDQYJKoZIhvcNAQELBQAw
FjEUMBIGA1UEAwwLdGVhbTI1My1uZXQwHhcNMjMwODE0MTQyNzIzWhcNMjYwNzI5
MTQyNzIzWjAZMRcwFQYDVQQDDA50ZWFtMjUzLXNlcnZlcjCCASIwDQYJKoZIhvcN
AQEBBQADggEPADCCAQoCggEBAMuc/RbcWT4d2oXTkEY8FjXLq6ZjT7OesDx64YHX
UEImYRD6S7Y97WdUS1/4tth7IIs5bnFmhybGvpz8au+5a1dDPSUMcAn312ThVgeD
nGs8Rh+mkkxrPkGG3R4HjlehQkVdQENDigPzN04ILTgSa4CTyoVP/ro3YBUpq28g
P+McFxJrYqiq3I4wEtU8oguyDIjnSovx0vzA1tmQBwarMJOtrhQz2aNDX/SJoZ2I
iLz0mju8o1loh/mh1NWhewiHIpgLVUUCR+0J1LHxRBGqUxwJfwmkw/2ym7LRp7Jr
+PhvQwf1aQpT4DjZui63kJNXfJomaDFU6QBGHBZvRsx2yzkCAwEAAaOBvTCBujAJ
BgNVHRMEAjAAMB0GA1UdDgQWBBS7YoM0TjYUcKmUwQMOq9TybVU8WTBRBgNVHSME
SjBIgBROEv6rgm4SRwOpOvyIW0VQP6dYaKEapBgwFjEUMBIGA1UEAwwLdGVhbTI1
My1uZXSCFG1fV4LQ+6s7IG0UPt8ONRnNNbufMBMGA1UdJQQMMAoGCCsGAQUFBwMB
MAsGA1UdDwQEAwIFoDAZBgNVHREEEjAQgg50ZWFtMjUzLXNlcnZlcjANBgkqhkiG
9w0BAQsFAAOCAQEAgBwYuXBsDPy/in2loWu6AadMndT5r07foHiQkgHaK4Dim2bC
hBWQ2HA241MwlKI+/+1BLZDa7i59b7Kgvfsq/+beDC44+SKvPuo+k0LX5EfWqbqw
jxmis6Ws08o0nhFNrpiYHZHCckuf7DwXaa47MV2EUnPc7yUttIjou9JUY1gnkvjw
hZrW+zOoMQOZlK4e+mt4Xi8OYYa+9Kwiv9SRIEnSNDnRLgEnxr1lTv6LZG9YtXKx
/pmBjqpO0uSNSaMqQ8EhIuHQ+jBqKyzLKVJIPxtFh8xaanLOX8AvMk4DUiXjaFjy
VOAXn9FWK4hV4yoANle/+ti1we8ocLw6oH+/dw==
-----END CERTIFICATE-----
