Certificate:
    Data:
        Version: 3 (0x2)
        Serial Number:
            ea:ce:46:a8:02:6f:13:33:1e:ea:26:98:ac:c2:92:cd
        Signature Algorithm: sha256WithRSAEncryption
        Issuer: CN=team296-net
        Validity
            Not Before: Aug 14 14:28:19 2023 GMT
            Not After : Jul 29 14:28:19 2026 GMT
        Subject: CN=team296-server
        Subject Public Key Info:
            Public Key Algorithm: rsaEncryption
                RSA Public-Key: (2048 bit)
                Modulus:
                    00:a2:4f:3a:99:dd:21:38:40:fb:c6:25:45:03:b7:
                    a6:70:1b:5f:c9:87:d6:ef:ef:db:38:17:19:a5:31:
                    04:66:c6:e0:0c:9d:a1:3c:4e:b2:1d:f5:1b:d1:88:
                    71:b4:46:df:33:b4:36:a1:48:d2:49:fe:2f:35:0a:
                    87:37:70:90:cb:67:05:4a:d8:38:df:59:31:b4:ca:
                    9c:3f:e9:91:35:88:be:3e:0c:0b:27:bf:4f:a5:16:
                    0a:62:1c:99:29:56:47:cd:33:d8:51:8b:a0:36:84:
                    01:34:56:6f:8c:50:e5:f1:4d:df:49:43:63:86:31:
                    cd:88:b5:05:ee:2d:34:8e:07:15:19:2a:24:17:35:
                    72:07:2a:f3:4e:ab:73:9c:20:e5:0d:8c:9f:cd:38:
                    10:de:d6:4d:a2:b5:90:cc:2c:63:c3:3b:8f:31:2e:
                    f9:b1:07:40:e6:fb:ce:07:44:3c:11:89:fa:37:41:
                    1c:69:59:2e:22:43:d3:d4:0d:48:9f:e2:0e:8e:30:
                    fb:e0:d0:a9:0e:4f:b6:e5:fc:df:0c:f5:00:eb:55:
                    75:d2:06:a9:c7:89:1e:ba:3e:39:06:20:2c:22:3c:
                    75:00:92:44:ca:19:57:d4:bf:75:b2:ec:49:89:6f:
                    69:1e:9a:09:f6:77:2b:ed:4a:ba:2e:8b:ee:2b:38:
                    60:83
                Exponent: 65537 (0x10001)
        X509v3 extensions:
            X509v3 Basic Constraints: 
                CA:FALSE
            X509v3 Subject Key Identifier: 
                45:08:8E:DE:EC:C7:BC:8E:7E:B9:EE:91:C9:6D:F8:62:E8:85:90:03
            X509v3 Authority Key Identifier: 
                keyid:40:76:AD:F0:0E:7C:59:4E:35:29:A4:B4:D7:4C:2A:D4:14:79:12:D6
                DirName:/CN=team296-net
                serial:69:C9:74:CB:11:CF:C6:52:C8:22:83:AF:C5:AF:57:11:40:29:DF:BF

            X509v3 Extended Key Usage: 
                TLS Web Server Authentication
            X509v3 Key Usage: 
                Digital Signature, Key Encipherment
            X509v3 Subject Alternative Name: 
                DNS:team296-server
    Signature Algorithm: sha256WithRSAEncryption
         0a:e3:5a:6c:9f:be:21:e4:ab:9f:31:0d:8f:b2:d1:6a:34:6b:
         7c:7a:43:3d:7d:02:6e:dd:2f:37:fb:aa:35:6d:a5:80:2f:f8:
         d4:49:93:ed:7c:35:3f:05:13:a7:a4:8d:6e:42:8d:e8:a0:ac:
         2f:19:61:3d:5e:1e:73:81:d5:a3:a5:60:d5:0f:29:fe:30:2e:
         08:65:49:1d:57:9e:0b:53:44:5c:ce:55:b2:2e:25:58:2a:09:
         f6:12:10:3e:50:eb:cf:aa:11:fa:65:f0:60:2f:54:62:05:5d:
         f1:18:b5:de:2d:70:26:23:e6:4a:72:ee:ea:56:e2:b0:b5:80:
         09:d4:86:bc:f6:c6:52:68:8b:d6:49:a3:6f:c1:0e:d7:0e:82:
         54:21:b3:77:78:e8:c1:7c:13:98:9f:45:70:c8:2e:82:7b:69:
         d1:73:73:2b:bb:0e:5f:8a:37:2a:7b:c6:96:d6:2d:8d:7d:3d:
         dd:29:9d:d1:cc:96:21:e4:1f:ab:cb:87:04:f0:7f:ba:60:b8:
         bf:0b:c4:46:52:23:cd:41:80:98:45:04:c9:10:8f:fa:8f:f8:
         1f:60:8f:fd:c4:c6:6a:9a:0e:99:1f:b4:88:fe:e4:07:1c:c0:
         f3:50:53:2c:5a:98:30:5c:45:3d:81:f6:d5:b1:d1:13:7f:5b:
         1d:66:80:19
-----BEGIN CERTIFICATE-----
MIIDeDCCAmCgAwIBAgIRAOrORqgCbxMzHuommKzCks0wDQYJKoZIhvcNAQELBQAw
FjEUMBIGA1UEAwwLdGVhbTI5Ni1uZXQwHhcNMjMwODE0MTQyODE5WhcNMjYwNzI5
MTQyODE5WjAZMRcwFQYDVQQDDA50ZWFtMjk2LXNlcnZlcjCCASIwDQYJKoZIhvcN
AQEBBQADggEPADCCAQoCggEBAKJPOpndIThA+8YlRQO3pnAbX8mH1u/v2zgXGaUx
BGbG4AydoTxOsh31G9GIcbRG3zO0NqFI0kn+LzUKhzdwkMtnBUrYON9ZMbTKnD/p
kTWIvj4MCye/T6UWCmIcmSlWR80z2FGLoDaEATRWb4xQ5fFN30lDY4YxzYi1Be4t
NI4HFRkqJBc1cgcq806rc5wg5Q2Mn804EN7WTaK1kMwsY8M7jzEu+bEHQOb7zgdE
PBGJ+jdBHGlZLiJD09QNSJ/iDo4w++DQqQ5PtuX83wz1AOtVddIGqceJHro+OQYg
LCI8dQCSRMoZV9S/dbLsSYlvaR6aCfZ3K+1Kui6L7is4YIMCAwEAAaOBvTCBujAJ
BgNVHRMEAjAAMB0GA1UdDgQWBBRFCI7e7Me8jn657pHJbfhi6IWQAzBRBgNVHSME
SjBIgBRAdq3wDnxZTjUppLTXTCrUFHkS1qEapBgwFjEUMBIGA1UEAwwLdGVhbTI5
Ni1uZXSCFGnJdMsRz8ZSyCKDr8WvVxFAKd+/MBMGA1UdJQQMMAoGCCsGAQUFBwMB
MAsGA1UdDwQEAwIFoDAZBgNVHREEEjAQgg50ZWFtMjk2LXNlcnZlcjANBgkqhkiG
9w0BAQsFAAOCAQEACuNabJ++IeSrnzENj7LRajRrfHpDPX0Cbt0vN/uqNW2lgC/4
1EmT7Xw1PwUTp6SNbkKN6KCsLxlhPV4ec4HVo6Vg1Q8p/jAuCGVJHVeeC1NEXM5V
si4lWCoJ9hIQPlDrz6oR+mXwYC9UYgVd8Ri13i1wJiPmSnLu6lbisLWACdSGvPbG
UmiL1kmjb8EO1w6CVCGzd3jowXwTmJ9FcMgugntp0XNzK7sOX4o3KnvGltYtjX09
3Smd0cyWIeQfq8uHBPB/umC4vwvERlIjzUGAmEUEyRCP+o/4H2CP/cTGapoOmR+0
iP7kBxzA81BTLFqYMFxFPYH21bHRE39bHWaAGQ==
-----END CERTIFICATE-----
