Certificate:
    Data:
        Version: 3 (0x2)
        Serial Number:
            46:74:37:83:6d:8a:d3:27:86:67:64:e8:bf:f0:c2:93
        Signature Algorithm: sha256WithRSAEncryption
        Issuer: CN=team229-net
        Validity
            Not Before: Aug 14 14:26:55 2023 GMT
            Not After : Jul 29 14:26:55 2026 GMT
        Subject: CN=team229-server
        Subject Public Key Info:
            Public Key Algorithm: rsaEncryption
                RSA Public-Key: (2048 bit)
                Modulus:
                    00:a8:8b:93:82:f8:83:f2:c9:49:69:8d:4c:08:93:
                    36:b9:e3:af:bb:0b:37:55:af:72:5a:c2:15:15:83:
                    f2:1c:6e:7e:fb:39:2f:aa:4d:84:c5:87:b9:52:ed:
                    0f:36:cc:a4:11:41:61:da:d7:c0:c8:a1:4d:a2:a0:
                    30:2d:cf:2d:68:67:56:d1:4a:bd:0c:43:5b:d2:21:
                    76:7e:d5:19:6c:31:bb:de:bd:bd:ce:eb:2d:f7:f5:
                    f8:7a:8d:a1:49:b7:25:30:19:af:9a:25:fa:43:95:
                    c7:7d:86:e0:de:d6:b0:5c:ed:61:05:e8:04:00:1d:
                    de:97:72:7c:db:92:d4:83:21:21:b3:58:17:ae:40:
                    ba:e4:01:14:6b:be:eb:12:26:f2:e8:76:03:b4:a5:
                    4f:92:91:eb:16:d1:f2:10:a5:be:58:2e:a3:20:6c:
                    d0:f1:bb:02:d2:30:7c:e8:50:15:5a:d2:c5:4d:a5:
                    ca:aa:29:a3:ab:6e:9a:57:af:33:fa:44:04:01:30:
                    5e:06:1d:55:8d:62:26:3c:af:e1:b8:cc:67:06:a9:
                    25:77:bd:5b:8e:fb:91:85:f9:5c:c6:bc:f2:59:5b:
                    5a:7e:23:06:05:f0:dc:a0:92:d3:5f:3e:6a:8e:f1:
                    0f:f2:dc:a7:ad:cd:5c:29:86:bc:f4:92:df:e0:8a:
                    fe:d1
                Exponent: 65537 (0x10001)
        X509v3 extensions:
            X509v3 Basic Constraints: 
                CA:FALSE
            X509v3 Subject Key Identifier: 
                56:2E:A3:2B:91:1C:81:96:DC:0F:D7:E6:DA:ED:88:F5:7B:7D:D6:9D
            X509v3 Authority Key Identifier: 
                keyid:78:05:D0:D5:95:EB:2D:56:84:EA:52:0A:B0:9C:BD:3F:F3:DF:37:17
                DirName:/CN=team229-net
                serial:25:CC:1C:AA:5E:87:8B:44:0C:51:0F:A2:C4:4D:52:41:E3:8B:73:15

            X509v3 Extended Key Usage: 
                TLS Web Server Authentication
            X509v3 Key Usage: 
                Digital Signature, Key Encipherment
            X509v3 Subject Alternative Name: 
                DNS:team229-server
    Signature Algorithm: sha256WithRSAEncryption
         5e:56:cc:3c:41:ea:a3:8c:47:9a:27:39:ab:ae:6c:fd:09:e1:
         55:61:a9:58:52:6b:32:2f:7f:9f:3c:28:44:bb:19:c7:17:8e:
         d2:6a:e6:44:d9:06:41:7d:53:45:4e:c0:af:74:18:27:be:19:
         b6:38:46:01:88:a3:a5:9a:8e:d6:34:9c:89:d6:75:a7:08:03:
         57:8c:80:fd:c2:24:84:66:ba:5c:6d:15:00:2b:1b:ed:4e:fa:
         c0:bf:83:c1:15:b6:50:2a:fc:54:b9:ea:b1:3a:63:e8:9f:df:
         19:6c:d8:0d:63:9a:33:47:9f:7c:8c:14:4f:c3:46:34:59:0c:
         4b:98:8b:34:59:ca:03:4a:bd:7a:66:7a:09:c8:1f:02:df:8c:
         7a:32:7a:0e:ed:78:a1:43:26:50:5b:01:0c:a5:1b:3d:dc:a4:
         7e:e0:33:5a:a2:41:22:10:2a:cf:99:13:80:b3:e6:08:af:85:
         85:cf:72:40:b2:f7:b7:a8:5a:8c:c3:9e:42:b3:62:04:bc:c6:
         72:81:2f:d8:2b:1d:66:c2:7a:60:73:2c:50:78:3e:08:9e:3f:
         2b:d7:86:ad:cc:8f:fd:fe:eb:b4:8e:7a:98:96:b0:94:22:d2:
         af:13:b1:6b:b9:89:4c:1e:1a:6d:c5:88:2a:c6:e6:83:dd:fc:
         7e:43:ae:64
-----BEGIN CERTIFICATE-----
MIIDdzCCAl+gAwIBAgIQRnQ3g22K0yeGZ2Tov/DCkzANBgkqhkiG9w0BAQsFADAW
MRQwEgYDVQQDDAt0ZWFtMjI5LW5ldDAeFw0yMzA4MTQxNDI2NTVaFw0yNjA3Mjkx
NDI2NTVaMBkxFzAVBgNVBAMMDnRlYW0yMjktc2VydmVyMIIBIjANBgkqhkiG9w0B
AQEFAAOCAQ8AMIIBCgKCAQEAqIuTgviD8slJaY1MCJM2ueOvuws3Va9yWsIVFYPy
HG5++zkvqk2ExYe5Uu0PNsykEUFh2tfAyKFNoqAwLc8taGdW0Uq9DENb0iF2ftUZ
bDG73r29zust9/X4eo2hSbclMBmvmiX6Q5XHfYbg3tawXO1hBegEAB3el3J825LU
gyEhs1gXrkC65AEUa77rEiby6HYDtKVPkpHrFtHyEKW+WC6jIGzQ8bsC0jB86FAV
WtLFTaXKqimjq26aV68z+kQEATBeBh1VjWImPK/huMxnBqkld71bjvuRhflcxrzy
WVtafiMGBfDcoJLTXz5qjvEP8tynrc1cKYa89JLf4Ir+0QIDAQABo4G9MIG6MAkG
A1UdEwQCMAAwHQYDVR0OBBYEFFYuoyuRHIGW3A/X5trtiPV7fdadMFEGA1UdIwRK
MEiAFHgF0NWV6y1WhOpSCrCcvT/z3zcXoRqkGDAWMRQwEgYDVQQDDAt0ZWFtMjI5
LW5ldIIUJcwcql6Hi0QMUQ+ixE1SQeOLcxUwEwYDVR0lBAwwCgYIKwYBBQUHAwEw
CwYDVR0PBAQDAgWgMBkGA1UdEQQSMBCCDnRlYW0yMjktc2VydmVyMA0GCSqGSIb3
DQEBCwUAA4IBAQBeVsw8QeqjjEeaJzmrrmz9CeFVYalYUmsyL3+fPChEuxnHF47S
auZE2QZBfVNFTsCvdBgnvhm2OEYBiKOlmo7WNJyJ1nWnCANXjID9wiSEZrpcbRUA
KxvtTvrAv4PBFbZQKvxUueqxOmPon98ZbNgNY5ozR598jBRPw0Y0WQxLmIs0WcoD
Sr16ZnoJyB8C34x6MnoO7XihQyZQWwEMpRs93KR+4DNaokEiECrPmROAs+YIr4WF
z3JAsve3qFqMw55Cs2IEvMZygS/YKx1mwnpgcyxQeD4Inj8r14atzI/9/uu0jnqY
lrCUItKvE7FruYlMHhptxYgqxuaD3fx+Q65k
-----END CERTIFICATE-----
