Certificate:
    Data:
        Version: 3 (0x2)
        Serial Number:
            27:86:27:d8:18:a6:27:aa:0e:80:f9:48:06:65:86:57
        Signature Algorithm: sha256WithRSAEncryption
        Issuer: CN=team137-net
        Validity
            Not Before: Aug 14 14:25:07 2023 GMT
            Not After : Jul 29 14:25:07 2026 GMT
        Subject: CN=team137-server
        Subject Public Key Info:
            Public Key Algorithm: rsaEncryption
                RSA Public-Key: (2048 bit)
                Modulus:
                    00:ac:53:95:dd:7f:3c:91:b3:3e:0f:7c:23:81:06:
                    86:3b:a1:af:8a:86:fd:a7:f2:b0:46:f1:b7:b4:9e:
                    7d:de:2c:91:0f:cb:07:46:6a:6f:ac:2a:17:9c:38:
                    c4:cc:f8:1c:35:9c:22:1b:8a:3b:20:e9:2b:ea:e4:
                    c0:b1:7e:99:b8:f8:fa:c7:10:82:85:df:cd:49:d7:
                    56:e4:fb:91:00:d5:2b:67:7d:1b:4d:31:c2:f7:99:
                    51:32:c5:d1:36:04:59:98:60:6f:f1:1e:fc:16:9f:
                    dd:45:94:a2:6a:ac:21:6d:be:cc:09:86:5a:0b:11:
                    eb:d5:43:4a:ec:63:41:cb:41:97:ec:c7:0b:b2:d8:
                    c6:f0:03:d9:77:ea:38:19:7e:93:20:82:92:b9:1b:
                    5e:fd:fd:0b:c7:ec:d5:61:fa:45:87:74:64:64:d7:
                    ea:f6:ed:c3:5a:2c:ed:cf:dc:ac:55:bd:21:08:de:
                    f5:e3:a6:ff:ae:d1:70:8b:39:d7:9e:80:c0:5d:6d:
                    bb:64:df:6c:2a:9d:35:9b:82:d1:6f:11:1e:7a:ff:
                    b0:11:95:51:9e:19:e4:7b:47:49:4f:b9:54:8c:49:
                    3c:21:db:6c:88:5b:b3:51:47:89:7a:0c:b6:5c:1c:
                    a0:68:1e:c8:7f:f9:77:ff:a9:21:42:e8:b9:fc:c3:
                    5c:7d
                Exponent: 65537 (0x10001)
        X509v3 extensions:
            X509v3 Basic Constraints: 
                CA:FALSE
            X509v3 Subject Key Identifier: 
                8A:29:B0:F8:31:05:E6:CA:7E:10:7B:DD:28:CC:E4:57:10:A2:F8:27
            X509v3 Authority Key Identifier: 
                keyid:42:EB:11:B6:8A:B5:E5:05:61:DB:C6:DE:57:5E:7F:C0:A3:B9:98:86
                DirName:/CN=team137-net
                serial:1A:AC:98:E0:D4:A6:9D:36:94:94:94:D3:14:2E:EA:BA:F9:1F:30:41

            X509v3 Extended Key Usage: 
                TLS Web Server Authentication
            X509v3 Key Usage: 
                Digital Signature, Key Encipherment
            X509v3 Subject Alternative Name: 
                DNS:team137-server
    Signature Algorithm: sha256WithRSAEncryption
         57:65:72:19:0f:f6:38:ea:ca:1a:d8:18:e1:7c:e4:98:5e:7e:
         bc:a5:ae:e4:bb:05:ec:59:95:2c:fa:9e:7e:75:1c:68:05:48:
         f3:b8:67:cf:4b:8e:a6:a3:ac:93:d0:2c:95:94:1a:f7:68:92:
         2a:15:bf:42:6a:8b:93:01:91:8e:76:18:89:fd:33:d3:97:56:
         44:75:79:6b:55:a4:fb:c6:f4:42:80:88:75:d0:b0:42:bb:89:
         9b:9e:fe:ae:57:cb:51:c7:4b:92:6d:63:cb:9a:69:d7:b7:95:
         84:2b:4c:2e:7d:20:8a:2d:07:77:a4:5f:55:71:e5:bb:45:eb:
         d9:07:60:ce:de:30:9d:dc:5c:38:09:9b:e0:68:78:06:79:92:
         e9:ab:53:55:c4:ef:ad:52:7b:c5:a3:cb:02:8f:00:29:74:c9:
         c4:c8:da:0b:e5:db:7b:c2:05:70:d3:8c:00:7e:3f:0c:16:24:
         20:d1:5e:fe:bb:d5:76:28:19:bd:4e:5a:96:62:27:71:18:4c:
         f3:a6:76:b6:f7:dd:f5:18:79:ee:9c:9c:dc:9f:6e:60:39:2d:
         75:7e:8b:4f:68:70:7c:e2:3f:a9:aa:37:8c:2c:28:13:76:0c:
         f0:8a:9d:af:cb:d6:5f:87:08:70:2c:e2:77:f0:7a:be:58:eb:
         16:75:ee:ea
-----BEGIN CERTIFICATE-----
MIIDdzCCAl+gAwIBAgIQJ4Yn2BimJ6oOgPlIBmWGVzANBgkqhkiG9w0BAQsFADAW
MRQwEgYDVQQDDAt0ZWFtMTM3LW5ldDAeFw0yMzA4MTQxNDI1MDdaFw0yNjA3Mjkx
NDI1MDdaMBkxFzAVBgNVBAMMDnRlYW0xMzctc2VydmVyMIIBIjANBgkqhkiG9w0B
AQEFAAOCAQ8AMIIBCgKCAQEArFOV3X88kbM+D3wjgQaGO6Gviob9p/KwRvG3tJ59
3iyRD8sHRmpvrCoXnDjEzPgcNZwiG4o7IOkr6uTAsX6ZuPj6xxCChd/NSddW5PuR
ANUrZ30bTTHC95lRMsXRNgRZmGBv8R78Fp/dRZSiaqwhbb7MCYZaCxHr1UNK7GNB
y0GX7McLstjG8APZd+o4GX6TIIKSuRte/f0Lx+zVYfpFh3RkZNfq9u3DWiztz9ys
Vb0hCN7146b/rtFwiznXnoDAXW27ZN9sKp01m4LRbxEeev+wEZVRnhnke0dJT7lU
jEk8IdtsiFuzUUeJegy2XBygaB7If/l3/6khQui5/MNcfQIDAQABo4G9MIG6MAkG
A1UdEwQCMAAwHQYDVR0OBBYEFIopsPgxBebKfhB73SjM5FcQovgnMFEGA1UdIwRK
MEiAFELrEbaKteUFYdvG3ldef8CjuZiGoRqkGDAWMRQwEgYDVQQDDAt0ZWFtMTM3
LW5ldIIUGqyY4NSmnTaUlJTTFC7quvkfMEEwEwYDVR0lBAwwCgYIKwYBBQUHAwEw
CwYDVR0PBAQDAgWgMBkGA1UdEQQSMBCCDnRlYW0xMzctc2VydmVyMA0GCSqGSIb3
DQEBCwUAA4IBAQBXZXIZD/Y46soa2BjhfOSYXn68pa7kuwXsWZUs+p5+dRxoBUjz
uGfPS46mo6yT0CyVlBr3aJIqFb9CaouTAZGOdhiJ/TPTl1ZEdXlrVaT7xvRCgIh1
0LBCu4mbnv6uV8tRx0uSbWPLmmnXt5WEK0wufSCKLQd3pF9VceW7RevZB2DO3jCd
3Fw4CZvgaHgGeZLpq1NVxO+tUnvFo8sCjwApdMnEyNoL5dt7wgVw04wAfj8MFiQg
0V7+u9V2KBm9TlqWYidxGEzzpna29931GHnunJzcn25gOS11fotPaHB84j+pqjeM
LCgTdgzwip2vy9ZfhwhwLOJ38Hq+WOsWde7q
-----END CERTIFICATE-----
