Certificate:
    Data:
        Version: 3 (0x2)
        Serial Number:
            33:a5:b3:af:b3:62:cf:07:2b:06:7e:0b:79:db:bb:c3
        Signature Algorithm: sha256WithRSAEncryption
        Issuer: CN=team137-net
        Validity
            Not Before: Aug 14 14:25:06 2023 GMT
            Not After : Jul 29 14:25:06 2026 GMT
        Subject: CN=team137-client
        Subject Public Key Info:
            Public Key Algorithm: rsaEncryption
                RSA Public-Key: (2048 bit)
                Modulus:
                    00:d7:38:c8:db:22:46:ab:cd:68:29:a4:62:5a:85:
                    61:0d:1e:8e:94:43:49:13:e8:39:ab:51:4e:95:e0:
                    ab:ac:d3:6e:ca:df:26:41:17:ed:00:42:ec:38:c4:
                    14:fc:c5:e1:3a:dd:1b:29:9e:ec:25:63:36:12:f9:
                    4a:31:4e:91:85:08:dc:fb:20:8d:74:a6:63:07:8d:
                    01:9d:cd:b5:a2:ca:ab:c6:ee:26:aa:78:c9:12:ab:
                    05:b0:16:f4:47:00:72:4c:38:28:cf:a7:f1:d9:f4:
                    c8:2b:ec:71:b7:08:89:5a:66:d8:a0:2f:37:4c:d5:
                    ef:06:6f:67:ce:f2:70:46:2a:cc:2c:55:2a:9f:bc:
                    f4:b4:aa:da:9e:9d:4e:8f:5e:fb:da:a8:1d:de:93:
                    15:fe:b2:a6:56:72:64:c3:b7:56:66:6b:7b:d2:dc:
                    09:d0:85:f8:9a:a1:13:9e:1f:a5:51:80:75:61:cc:
                    83:53:81:58:fd:43:47:0a:27:b2:51:26:12:35:73:
                    41:5a:ed:b1:bc:08:61:eb:49:7d:6f:c2:32:34:48:
                    ea:84:7e:63:96:dd:d2:16:fe:96:c7:db:64:67:4a:
                    6e:47:7b:0e:cb:c2:fc:d6:d5:f6:85:69:e8:be:c4:
                    4c:a2:63:78:4d:2c:b9:7c:f5:63:14:1b:d8:f5:66:
                    4a:b1
                Exponent: 65537 (0x10001)
        X509v3 extensions:
            X509v3 Basic Constraints: 
                CA:FALSE
            X509v3 Subject Key Identifier: 
                AC:9E:A7:D2:13:86:10:C9:B0:91:4C:65:5F:50:8C:99:1B:53:5F:FF
            X509v3 Authority Key Identifier: 
                keyid:42:EB:11:B6:8A:B5:E5:05:61:DB:C6:DE:57:5E:7F:C0:A3:B9:98:86
                DirName:/CN=team137-net
                serial:1A:AC:98:E0:D4:A6:9D:36:94:94:94:D3:14:2E:EA:BA:F9:1F:30:41

            X509v3 Extended Key Usage: 
                TLS Web Client Authentication
            X509v3 Key Usage: 
                Digital Signature
    Signature Algorithm: sha256WithRSAEncryption
         1b:4d:32:7f:35:82:11:2a:4c:d3:79:18:f6:27:7e:c2:a8:af:
         c5:a5:6d:10:2e:46:af:e3:fd:55:30:05:85:08:21:70:22:07:
         18:ac:79:bc:97:a8:25:97:9e:b8:23:aa:df:69:4b:0f:4e:08:
         9e:19:cf:32:d9:f3:86:95:71:2a:17:8f:4a:d5:46:4c:7b:54:
         ef:9a:c6:f6:9e:18:a6:bb:f2:0e:57:49:67:ec:b7:cf:6c:ea:
         49:d5:1a:64:50:16:67:da:0b:43:19:dd:2a:41:eb:ca:34:4c:
         7d:fe:20:a0:c7:fc:21:17:c3:5c:72:71:0c:53:64:78:55:e1:
         8e:f9:1a:9c:88:37:8e:f8:4a:42:6b:ee:2d:e3:cc:e8:8f:d3:
         7d:5e:d2:a3:c3:cc:df:45:f4:5d:99:65:60:4f:ac:91:95:90:
         29:59:c6:15:4e:e9:25:39:2d:87:b6:0c:74:e5:fe:cf:fd:0d:
         23:ea:81:a9:28:0e:ab:c3:f4:5b:e7:34:17:25:59:f1:79:84:
         0f:64:99:e1:c9:15:2d:5b:82:bf:0b:67:bc:b6:44:ef:7a:51:
         36:43:5c:7d:f7:39:85:b7:84:d3:40:9c:b4:bc:c6:a4:c6:1d:
         40:71:76:0a:5d:28:c8:47:3f:6e:ef:53:e9:e8:43:c0:ed:2a:
         c0:27:65:55
-----BEGIN CERTIFICATE-----
MIIDXDCCAkSgAwIBAgIQM6Wzr7NizwcrBn4Ledu7wzANBgkqhkiG9w0BAQsFADAW
MRQwEgYDVQQDDAt0ZWFtMTM3LW5ldDAeFw0yMzA4MTQxNDI1MDZaFw0yNjA3Mjkx
NDI1MDZaMBkxFzAVBgNVBAMMDnRlYW0xMzctY2xpZW50MIIBIjANBgkqhkiG9w0B
AQEFAAOCAQ8AMIIBCgKCAQEA1zjI2yJGq81oKaRiWoVhDR6OlENJE+g5q1FOleCr
rNNuyt8mQRftAELsOMQU/MXhOt0bKZ7sJWM2EvlKMU6RhQjc+yCNdKZjB40Bnc21
osqrxu4mqnjJEqsFsBb0RwByTDgoz6fx2fTIK+xxtwiJWmbYoC83TNXvBm9nzvJw
RirMLFUqn7z0tKranp1Oj1772qgd3pMV/rKmVnJkw7dWZmt70twJ0IX4mqETnh+l
UYB1YcyDU4FY/UNHCieyUSYSNXNBWu2xvAhh60l9b8IyNEjqhH5jlt3SFv6Wx9tk
Z0puR3sOy8L81tX2hWnovsRMomN4TSy5fPVjFBvY9WZKsQIDAQABo4GiMIGfMAkG
A1UdEwQCMAAwHQYDVR0OBBYEFKyep9IThhDJsJFMZV9QjJkbU1//MFEGA1UdIwRK
MEiAFELrEbaKteUFYdvG3ldef8CjuZiGoRqkGDAWMRQwEgYDVQQDDAt0ZWFtMTM3
LW5ldIIUGqyY4NSmnTaUlJTTFC7quvkfMEEwEwYDVR0lBAwwCgYIKwYBBQUHAwIw
CwYDVR0PBAQDAgeAMA0GCSqGSIb3DQEBCwUAA4IBAQAbTTJ/NYIRKkzTeRj2J37C
qK/FpW0QLkav4/1VMAWFCCFwIgcYrHm8l6gll564I6rfaUsPTgieGc8y2fOGlXEq
F49K1UZMe1Tvmsb2nhimu/IOV0ln7LfPbOpJ1RpkUBZn2gtDGd0qQevKNEx9/iCg
x/whF8NccnEMU2R4VeGO+RqciDeO+EpCa+4t48zoj9N9XtKjw8zfRfRdmWVgT6yR
lZApWcYVTuklOS2Htgx05f7P/Q0j6oGpKA6rw/Rb5zQXJVnxeYQPZJnhyRUtW4K/
C2e8tkTvelE2Q1x99zmFt4TTQJy0vMakxh1AcXYKXSjIRz9u71Pp6EPA7SrAJ2VV
-----END CERTIFICATE-----
