Certificate:
    Data:
        Version: 3 (0x2)
        Serial Number:
            0d:cc:b4:40:2a:a9:72:c2:6e:f7:83:2a:40:af:da:f6
        Signature Algorithm: sha256WithRSAEncryption
        Issuer: CN=team11-net
        Validity
            Not Before: Aug 14 14:22:16 2023 GMT
            Not After : Jul 29 14:22:16 2026 GMT
        Subject: CN=team11-client
        Subject Public Key Info:
            Public Key Algorithm: rsaEncryption
                RSA Public-Key: (2048 bit)
                Modulus:
                    00:ca:1a:19:ec:26:7c:75:9c:93:aa:90:e0:a7:5a:
                    41:03:0b:50:ab:39:71:aa:06:a9:c8:42:dd:02:45:
                    9e:84:92:25:f7:93:d6:0d:a9:03:e7:ae:46:c9:5a:
                    44:22:3f:cc:e1:0c:57:3f:5a:b1:f8:7a:31:9c:c2:
                    74:c4:a4:1d:0f:d6:85:e1:33:8b:0d:a9:09:f2:12:
                    c2:c1:65:6b:2f:88:b4:2e:f6:78:09:3d:c7:9b:de:
                    48:fc:95:28:ef:dc:3d:33:1d:5f:d3:f0:21:58:03:
                    fe:3b:b4:98:f8:43:49:08:2b:7e:3e:d9:8e:f3:30:
                    c9:3e:ba:4d:e7:22:99:f4:8b:c4:a1:94:41:0f:22:
                    b3:50:46:fb:b1:b8:e9:69:16:46:65:3e:8d:70:d9:
                    71:29:64:57:f7:44:a1:96:50:33:2c:3a:2f:a8:ba:
                    47:ff:1e:49:be:dd:16:a4:d9:85:af:17:53:6a:43:
                    31:14:cf:da:3f:e1:8c:2a:3c:fb:96:49:8e:6c:fa:
                    45:29:99:fb:b4:99:14:78:c3:67:43:84:7b:cc:c3:
                    7c:c8:05:8d:eb:e8:a5:b3:56:e8:a0:dc:fe:10:47:
                    8c:d8:56:41:a1:53:97:ee:77:40:bd:3f:8d:11:c2:
                    a4:80:32:ea:62:5d:55:87:f7:ae:6b:3b:0b:0b:41:
                    e6:01
                Exponent: 65537 (0x10001)
        X509v3 extensions:
            X509v3 Basic Constraints: 
                CA:FALSE
            X509v3 Subject Key Identifier: 
                53:4C:CA:C4:0B:2E:B8:06:B5:AA:66:78:01:C9:15:A0:B9:0F:1F:C8
            X509v3 Authority Key Identifier: 
                keyid:CD:B2:93:D2:A3:B1:13:53:06:66:9B:78:BE:A9:5B:22:15:AB:4B:D4
                DirName:/CN=team11-net
                serial:51:E1:13:AE:5D:A7:76:3A:1C:52:83:18:5A:BB:57:87:9E:EE:C3:52

            X509v3 Extended Key Usage: 
                TLS Web Client Authentication
            X509v3 Key Usage: 
                Digital Signature
    Signature Algorithm: sha256WithRSAEncryption
         15:6c:be:57:2a:ff:cc:0c:10:67:f4:fb:15:9a:5f:97:59:f0:
         3f:97:99:8c:0c:99:5d:69:c6:9b:56:68:bc:3e:d5:f6:10:bf:
         43:fb:a7:c8:b1:48:d5:bd:56:7d:05:3c:0d:68:30:b8:66:c4:
         34:ec:6a:b0:b7:37:d0:fd:6c:df:27:b9:d7:36:45:03:73:95:
         30:00:d6:50:41:31:f7:e7:98:94:8c:1d:1b:27:bc:5b:80:f1:
         fe:e0:e0:9d:aa:c1:d2:4e:f7:16:a7:0d:b9:87:85:2a:0b:d5:
         f1:66:54:2b:f5:e9:f8:ad:b5:6e:4b:cc:40:fd:36:f9:0b:3a:
         c0:5f:4c:b4:df:ed:35:b9:42:6b:6c:6e:1f:c3:1b:60:ec:55:
         a3:31:09:50:5d:e6:b7:77:67:6c:b5:8a:1b:4a:b7:18:af:cc:
         30:b3:e7:6c:59:16:53:eb:4f:71:3d:7d:82:46:4a:49:71:74:
         f9:00:95:73:aa:48:75:fc:c1:a9:a9:61:d0:3f:d8:ca:cd:96:
         f7:c3:c2:6a:22:0c:a1:f7:fd:bb:8e:ea:fd:5d:70:29:ba:7f:
         b0:69:5d:22:08:57:1a:12:d1:c1:5e:0e:eb:2b:bd:45:ad:d1:
         eb:e8:1c:16:90:70:c5:7d:ce:ac:1c:ad:a3:db:62:b1:f6:f1:
         59:77:65:46
-----BEGIN CERTIFICATE-----
MIIDWTCCAkGgAwIBAgIQDcy0QCqpcsJu94MqQK/a9jANBgkqhkiG9w0BAQsFADAV
MRMwEQYDVQQDDAp0ZWFtMTEtbmV0MB4XDTIzMDgxNDE0MjIxNloXDTI2MDcyOTE0
MjIxNlowGDEWMBQGA1UEAwwNdGVhbTExLWNsaWVudDCCASIwDQYJKoZIhvcNAQEB
BQADggEPADCCAQoCggEBAMoaGewmfHWck6qQ4KdaQQMLUKs5caoGqchC3QJFnoSS
JfeT1g2pA+euRslaRCI/zOEMVz9asfh6MZzCdMSkHQ/WheEziw2pCfISwsFlay+I
tC72eAk9x5veSPyVKO/cPTMdX9PwIVgD/ju0mPhDSQgrfj7ZjvMwyT66TecimfSL
xKGUQQ8is1BG+7G46WkWRmU+jXDZcSlkV/dEoZZQMyw6L6i6R/8eSb7dFqTZha8X
U2pDMRTP2j/hjCo8+5ZJjmz6RSmZ+7SZFHjDZ0OEe8zDfMgFjevopbNW6KDc/hBH
jNhWQaFTl+53QL0/jRHCpIAy6mJdVYf3rms7CwtB5gECAwEAAaOBoTCBnjAJBgNV
HRMEAjAAMB0GA1UdDgQWBBRTTMrECy64BrWqZngByRWguQ8fyDBQBgNVHSMESTBH
gBTNspPSo7ETUwZmm3i+qVsiFatL1KEZpBcwFTETMBEGA1UEAwwKdGVhbTExLW5l
dIIUUeETrl2ndjocUoMYWrtXh57uw1IwEwYDVR0lBAwwCgYIKwYBBQUHAwIwCwYD
VR0PBAQDAgeAMA0GCSqGSIb3DQEBCwUAA4IBAQAVbL5XKv/MDBBn9PsVml+XWfA/
l5mMDJldacabVmi8PtX2EL9D+6fIsUjVvVZ9BTwNaDC4ZsQ07GqwtzfQ/WzfJ7nX
NkUDc5UwANZQQTH355iUjB0bJ7xbgPH+4OCdqsHSTvcWpw25h4UqC9XxZlQr9en4
rbVuS8xA/Tb5CzrAX0y03+01uUJrbG4fwxtg7FWjMQlQXea3d2dstYobSrcYr8ww
s+dsWRZT609xPX2CRkpJcXT5AJVzqkh1/MGpqWHQP9jKzZb3w8JqIgyh9/27jur9
XXApun+waV0iCFcaEtHBXg7rK71FrdHr6BwWkHDFfc6sHK2j22Kx9vFZd2VG
-----END CERTIFICATE-----
