Certificate:
    Data:
        Version: 3 (0x2)
        Serial Number:
            11:b1:80:f7:48:6e:e9:da:6e:33:b2:5f:43:3b:fe:ff
        Signature Algorithm: sha256WithRSAEncryption
        Issuer: CN=team271-net
        Validity
            Not Before: Aug 14 14:27:49 2023 GMT
            Not After : Jul 29 14:27:49 2026 GMT
        Subject: CN=team271-client
        Subject Public Key Info:
            Public Key Algorithm: rsaEncryption
                RSA Public-Key: (2048 bit)
                Modulus:
                    00:cc:f3:44:cf:6b:7e:b3:ac:ee:67:0a:f3:9b:31:
                    9d:17:2e:fc:00:0b:d8:bd:85:cc:f1:68:55:5b:82:
                    91:cf:b0:8b:c1:7e:c6:4a:d9:95:0d:01:2a:7b:0c:
                    34:05:18:2c:09:f1:b2:3a:55:e0:c1:7b:04:22:06:
                    dd:3c:31:1a:86:c5:da:83:b4:4e:67:0f:d2:d3:f9:
                    c8:dc:d9:62:c4:9d:2c:dc:22:b9:a0:02:f3:18:2d:
                    d7:26:71:43:bc:72:12:9f:55:40:29:e2:1f:9e:41:
                    ea:7d:26:7b:b4:23:14:9e:6e:65:aa:d9:dd:2a:c0:
                    4e:29:dc:38:ca:28:15:f1:61:1f:7f:d5:4d:3b:ee:
                    c7:d2:f3:9d:32:a5:ec:5f:7f:19:e2:18:f9:b2:80:
                    e0:88:2e:75:5c:35:bf:5b:4c:66:c4:0a:fa:b2:d8:
                    98:d0:ca:f7:53:d6:f7:08:00:f2:a8:11:a3:de:cb:
                    2a:d7:02:9e:c1:97:38:35:2b:87:9d:14:6f:a5:6a:
                    6c:68:63:b8:a2:61:a2:68:ed:7e:78:ee:4b:ae:cb:
                    06:c7:b2:67:0c:c9:05:38:64:de:dd:d2:96:66:e7:
                    d0:51:ae:3c:86:ed:24:28:73:34:ad:fb:66:38:19:
                    77:3a:53:ae:24:19:51:ee:6a:58:69:94:f7:53:2b:
                    de:df
                Exponent: 65537 (0x10001)
        X509v3 extensions:
            X509v3 Basic Constraints: 
                CA:FALSE
            X509v3 Subject Key Identifier: 
                E6:F9:97:A9:2C:35:CD:B2:EF:22:F7:FA:8D:EB:B0:79:7A:AA:01:87
            X509v3 Authority Key Identifier: 
                keyid:AB:EC:57:71:46:B7:6A:01:1F:2B:02:4A:2E:9A:BF:EA:11:B4:32:D3
                DirName:/CN=team271-net
                serial:10:CD:47:96:DE:ED:46:0F:D5:D3:A5:67:B1:2E:D8:BC:3A:92:31:66

            X509v3 Extended Key Usage: 
                TLS Web Client Authentication
            X509v3 Key Usage: 
                Digital Signature
    Signature Algorithm: sha256WithRSAEncryption
         8f:b7:d2:fb:86:5c:f1:bb:99:91:f6:95:61:76:f7:ca:32:4a:
         b6:f4:8d:52:d9:94:7a:36:c5:c7:e7:34:75:c5:e3:a6:1a:c2:
         c4:7a:44:89:c2:d5:b7:61:ba:b5:a6:a3:7f:c9:af:61:6f:e7:
         8b:86:a5:5b:e2:86:47:ab:66:67:c6:a7:88:12:c6:6b:a3:27:
         e0:31:32:79:d0:2b:05:8e:4f:88:ed:23:54:a1:5a:e3:b8:19:
         b0:36:f3:a4:a8:9c:84:55:c8:4f:b0:81:bc:f8:2a:eb:d2:cb:
         92:cf:de:42:aa:ad:94:c4:b3:c8:d9:5b:e1:7b:65:a8:c7:64:
         f2:9f:e8:b6:06:0f:b2:fe:8f:c3:2c:6b:ef:95:e0:97:4d:2c:
         59:4b:2c:05:02:89:f7:82:74:36:ce:8f:8a:a5:41:62:e6:d3:
         37:af:65:ed:8b:1e:53:ac:22:83:e4:76:ee:74:c7:13:b8:98:
         cf:22:f9:89:5a:9c:0a:0c:d0:25:e8:fa:3d:d5:62:83:83:85:
         e6:ab:f0:3b:c1:6f:63:2f:02:7a:7f:14:78:4d:cb:ea:5a:30:
         ed:42:1a:4d:43:97:8b:6f:83:83:5a:31:d1:c8:3f:6d:2c:20:
         df:2b:9e:76:c9:16:54:7a:74:64:7f:a3:12:5e:b0:14:28:2a:
         de:26:48:4c
-----BEGIN CERTIFICATE-----
MIIDXDCCAkSgAwIBAgIQEbGA90hu6dpuM7JfQzv+/zANBgkqhkiG9w0BAQsFADAW
MRQwEgYDVQQDDAt0ZWFtMjcxLW5ldDAeFw0yMzA4MTQxNDI3NDlaFw0yNjA3Mjkx
NDI3NDlaMBkxFzAVBgNVBAMMDnRlYW0yNzEtY2xpZW50MIIBIjANBgkqhkiG9w0B
AQEFAAOCAQ8AMIIBCgKCAQEAzPNEz2t+s6zuZwrzmzGdFy78AAvYvYXM8WhVW4KR
z7CLwX7GStmVDQEqeww0BRgsCfGyOlXgwXsEIgbdPDEahsXag7ROZw/S0/nI3Nli
xJ0s3CK5oALzGC3XJnFDvHISn1VAKeIfnkHqfSZ7tCMUnm5lqtndKsBOKdw4yigV
8WEff9VNO+7H0vOdMqXsX38Z4hj5soDgiC51XDW/W0xmxAr6stiY0Mr3U9b3CADy
qBGj3ssq1wKewZc4NSuHnRRvpWpsaGO4omGiaO1+eO5LrssGx7JnDMkFOGTe3dKW
ZufQUa48hu0kKHM0rftmOBl3OlOuJBlR7mpYaZT3Uyve3wIDAQABo4GiMIGfMAkG
A1UdEwQCMAAwHQYDVR0OBBYEFOb5l6ksNc2y7yL3+o3rsHl6qgGHMFEGA1UdIwRK
MEiAFKvsV3FGt2oBHysCSi6av+oRtDLToRqkGDAWMRQwEgYDVQQDDAt0ZWFtMjcx
LW5ldIIUEM1Hlt7tRg/V06VnsS7YvDqSMWYwEwYDVR0lBAwwCgYIKwYBBQUHAwIw
CwYDVR0PBAQDAgeAMA0GCSqGSIb3DQEBCwUAA4IBAQCPt9L7hlzxu5mR9pVhdvfK
Mkq29I1S2ZR6NsXH5zR1xeOmGsLEekSJwtW3Ybq1pqN/ya9hb+eLhqVb4oZHq2Zn
xqeIEsZroyfgMTJ50CsFjk+I7SNUoVrjuBmwNvOkqJyEVchPsIG8+Crr0suSz95C
qq2UxLPI2Vvhe2Wox2Tyn+i2Bg+y/o/DLGvvleCXTSxZSywFAon3gnQ2zo+KpUFi
5tM3r2Xtix5TrCKD5HbudMcTuJjPIvmJWpwKDNAl6Po91WKDg4Xmq/A7wW9jLwJ6
fxR4TcvqWjDtQhpNQ5eLb4ODWjHRyD9tLCDfK552yRZUenRkf6MSXrAUKCreJkhM
-----END CERTIFICATE-----
