Certificate:
    Data:
        Version: 3 (0x2)
        Serial Number:
            46:c5:85:d5:e5:ea:01:da:c6:81:99:05:a3:e1:af:29
        Signature Algorithm: sha256WithRSAEncryption
        Issuer: CN=team271-net
        Validity
            Not Before: Aug 14 14:27:49 2023 GMT
            Not After : Jul 29 14:27:49 2026 GMT
        Subject: CN=team271-server
        Subject Public Key Info:
            Public Key Algorithm: rsaEncryption
                RSA Public-Key: (2048 bit)
                Modulus:
                    00:c9:84:4d:75:13:cd:92:82:b8:c6:7b:bf:b1:b1:
                    23:00:86:7b:b2:81:09:96:20:8b:2f:eb:ce:20:1f:
                    70:51:29:1e:48:e0:7a:92:3e:54:0b:4f:09:f4:37:
                    ac:b0:a8:59:4c:91:3e:5a:d2:93:d0:4f:55:f5:e4:
                    94:95:96:d3:4f:05:80:c5:10:45:7b:ea:2e:3b:f5:
                    28:07:c6:ad:97:ee:1b:59:1c:8d:c6:1b:ef:0c:bf:
                    f9:8d:81:bd:fa:40:d5:39:71:3f:c1:ac:a2:9e:46:
                    fb:36:a0:12:51:e7:46:a9:18:dd:b5:24:db:0f:70:
                    2c:be:1e:f3:a2:37:27:14:ac:90:0f:f8:af:63:12:
                    3d:c0:bb:bd:c4:77:2b:eb:fa:bb:19:2c:96:08:4d:
                    a2:db:ef:24:27:66:29:0c:fb:3b:07:98:35:ae:86:
                    5c:eb:71:f6:98:81:0a:cd:41:b5:8c:5b:66:54:c9:
                    dd:87:3d:60:ee:94:fe:85:6a:33:ae:41:fa:3b:9c:
                    bc:a9:98:ed:63:8a:5b:77:29:44:28:87:c1:c8:52:
                    b8:23:ef:6f:20:3d:9c:02:d5:a1:c9:82:6d:89:a8:
                    3e:0b:70:12:4a:4b:90:8b:e4:49:f9:33:18:f8:02:
                    5e:38:a1:24:14:2c:4b:38:bc:9a:71:a5:ee:82:de:
                    9d:83
                Exponent: 65537 (0x10001)
        X509v3 extensions:
            X509v3 Basic Constraints: 
                CA:FALSE
            X509v3 Subject Key Identifier: 
                CA:3B:E5:AA:E1:2D:92:A5:A1:82:ED:78:E2:81:9C:8A:A3:E6:3F:E4
            X509v3 Authority Key Identifier: 
                keyid:AB:EC:57:71:46:B7:6A:01:1F:2B:02:4A:2E:9A:BF:EA:11:B4:32:D3
                DirName:/CN=team271-net
                serial:10:CD:47:96:DE:ED:46:0F:D5:D3:A5:67:B1:2E:D8:BC:3A:92:31:66

            X509v3 Extended Key Usage: 
                TLS Web Server Authentication
            X509v3 Key Usage: 
                Digital Signature, Key Encipherment
            X509v3 Subject Alternative Name: 
                DNS:team271-server
    Signature Algorithm: sha256WithRSAEncryption
         a3:4d:7e:66:15:b5:70:47:96:7d:33:93:96:a5:1f:c3:1d:d2:
         31:f0:34:40:85:59:c2:a3:28:22:e6:77:d1:29:51:cf:63:05:
         ac:13:03:68:90:d2:a7:3d:b2:15:b5:d3:d1:81:61:73:0e:c7:
         e2:1a:fc:4e:6a:69:9d:7a:65:51:cd:23:ee:77:cd:a5:76:22:
         91:b4:bf:69:eb:08:db:ef:53:b6:c9:9e:ba:06:29:84:dd:ba:
         ea:b2:5a:2b:cc:4f:cb:f9:b9:06:64:d8:07:b8:c9:1e:b8:a8:
         76:d5:fc:09:a5:9d:89:53:1f:11:c1:6e:e8:19:e5:93:e1:7b:
         94:ac:e8:b9:5a:eb:5d:76:a5:a3:e3:21:2e:9d:69:16:58:f2:
         84:66:e7:86:44:40:64:b7:f2:be:53:a2:7a:d5:df:cc:21:11:
         a7:6b:3d:52:96:05:50:76:9f:f5:00:88:3b:cc:8b:b7:40:72:
         f7:4b:dc:57:e7:95:df:45:7b:06:fd:0e:95:ee:66:df:9c:49:
         88:78:7a:36:dc:09:d9:2a:3b:f3:58:3c:15:77:0d:ad:01:1d:
         23:42:6d:eb:66:e5:0f:94:d6:8f:eb:e0:fd:50:dd:a0:ef:2c:
         13:dd:62:dc:03:26:e8:51:89:b2:67:4a:e7:41:fc:89:01:8b:
         d6:bb:c3:4a
-----BEGIN CERTIFICATE-----
MIIDdzCCAl+gAwIBAgIQRsWF1eXqAdrGgZkFo+GvKTANBgkqhkiG9w0BAQsFADAW
MRQwEgYDVQQDDAt0ZWFtMjcxLW5ldDAeFw0yMzA4MTQxNDI3NDlaFw0yNjA3Mjkx
NDI3NDlaMBkxFzAVBgNVBAMMDnRlYW0yNzEtc2VydmVyMIIBIjANBgkqhkiG9w0B
AQEFAAOCAQ8AMIIBCgKCAQEAyYRNdRPNkoK4xnu/sbEjAIZ7soEJliCLL+vOIB9w
USkeSOB6kj5UC08J9DessKhZTJE+WtKT0E9V9eSUlZbTTwWAxRBFe+ouO/UoB8at
l+4bWRyNxhvvDL/5jYG9+kDVOXE/wayinkb7NqASUedGqRjdtSTbD3Asvh7zojcn
FKyQD/ivYxI9wLu9xHcr6/q7GSyWCE2i2+8kJ2YpDPs7B5g1roZc63H2mIEKzUG1
jFtmVMndhz1g7pT+hWozrkH6O5y8qZjtY4pbdylEKIfByFK4I+9vID2cAtWhyYJt
iag+C3ASSkuQi+RJ+TMY+AJeOKEkFCxLOLyacaXugt6dgwIDAQABo4G9MIG6MAkG
A1UdEwQCMAAwHQYDVR0OBBYEFMo75arhLZKloYLteOKBnIqj5j/kMFEGA1UdIwRK
MEiAFKvsV3FGt2oBHysCSi6av+oRtDLToRqkGDAWMRQwEgYDVQQDDAt0ZWFtMjcx
LW5ldIIUEM1Hlt7tRg/V06VnsS7YvDqSMWYwEwYDVR0lBAwwCgYIKwYBBQUHAwEw
CwYDVR0PBAQDAgWgMBkGA1UdEQQSMBCCDnRlYW0yNzEtc2VydmVyMA0GCSqGSIb3
DQEBCwUAA4IBAQCjTX5mFbVwR5Z9M5OWpR/DHdIx8DRAhVnCoygi5nfRKVHPYwWs
EwNokNKnPbIVtdPRgWFzDsfiGvxOammdemVRzSPud82ldiKRtL9p6wjb71O2yZ66
BimE3brqslorzE/L+bkGZNgHuMkeuKh21fwJpZ2JUx8RwW7oGeWT4XuUrOi5Wutd
dqWj4yEunWkWWPKEZueGREBkt/K+U6J61d/MIRGnaz1SlgVQdp/1AIg7zIu3QHL3
S9xX55XfRXsG/Q6V7mbfnEmIeHo23AnZKjvzWDwVdw2tAR0jQm3rZuUPlNaP6+D9
UN2g7ywT3WLcAyboUYmyZ0rnQfyJAYvWu8NK
-----END CERTIFICATE-----
