Certificate:
    Data:
        Version: 3 (0x2)
        Serial Number:
            4e:a4:39:5c:b7:a3:98:78:c0:4b:f7:dd:85:ac:22:c5
        Signature Algorithm: sha256WithRSAEncryption
        Issuer: CN=team194-net
        Validity
            Not Before: Aug 14 14:26:13 2023 GMT
            Not After : Jul 29 14:26:13 2026 GMT
        Subject: CN=team194-server
        Subject Public Key Info:
            Public Key Algorithm: rsaEncryption
                RSA Public-Key: (2048 bit)
                Modulus:
                    00:cf:5d:aa:7f:4e:3d:b3:8b:43:ea:1d:e5:18:e9:
                    9b:c8:b5:0a:57:d3:a6:89:cd:c8:82:cf:01:e4:cd:
                    e0:bc:8d:28:0a:5e:1f:46:bc:0a:1c:ef:a2:bf:ca:
                    5b:22:05:94:ec:a7:49:1d:70:5a:61:37:f4:5a:05:
                    e0:91:bb:9e:7c:b6:d9:36:ee:39:7f:94:ab:18:ae:
                    b6:69:7f:fa:61:64:87:09:c6:7d:d7:13:f1:81:5b:
                    b3:87:ce:84:19:ba:df:61:9e:80:ab:5d:6c:56:fb:
                    3b:53:fb:91:51:35:40:7e:ab:28:5a:25:75:db:26:
                    e8:f1:dc:62:ac:67:48:fe:b2:c2:74:4f:db:9f:e1:
                    b5:bb:c4:50:ea:c2:6b:48:84:45:19:cf:43:2e:7a:
                    d6:91:71:e8:fa:a4:99:46:58:b0:97:57:a1:09:6e:
                    47:97:ad:ad:e1:64:5f:e0:85:22:45:95:f3:3f:f3:
                    0e:16:cc:c5:2e:73:3d:3f:e2:08:1a:ec:24:9a:9d:
                    30:18:84:1b:fd:3d:a1:4a:61:4e:87:dc:86:fd:7a:
                    07:98:03:c9:4b:83:0f:31:a2:14:e8:c7:1f:4e:a0:
                    df:f1:cc:0f:b5:bd:23:e4:e0:65:90:75:2b:15:f7:
                    37:e2:39:9b:02:fb:89:f1:ea:cf:87:e3:58:63:19:
                    f0:5b
                Exponent: 65537 (0x10001)
        X509v3 extensions:
            X509v3 Basic Constraints: 
                CA:FALSE
            X509v3 Subject Key Identifier: 
                78:DA:DE:2A:39:F9:81:3D:DF:52:6C:F9:93:25:35:57:B3:39:3C:00
            X509v3 Authority Key Identifier: 
                keyid:DE:6B:F9:F4:93:30:C8:4B:FF:F5:CD:9B:D5:15:9D:1E:01:B5:3D:AB
                DirName:/CN=team194-net
                serial:3F:B4:B4:CC:32:A8:F4:73:77:41:97:C7:E2:20:E2:D9:FB:AC:85:2C

            X509v3 Extended Key Usage: 
                TLS Web Server Authentication
            X509v3 Key Usage: 
                Digital Signature, Key Encipherment
            X509v3 Subject Alternative Name: 
                DNS:team194-server
    Signature Algorithm: sha256WithRSAEncryption
         0d:3a:02:a4:7c:64:3d:59:37:0a:8f:cd:e3:fe:a5:61:18:b8:
         c7:d0:e5:84:22:1f:fd:46:af:39:d7:fe:ef:8b:c2:b8:a5:bc:
         db:82:c6:6e:8c:e0:66:72:d8:8b:1e:4b:e8:30:10:44:7f:5e:
         b9:b5:33:05:bb:ab:65:b6:1b:98:29:15:4e:44:b9:2b:29:d1:
         3f:cc:0f:e6:d3:ed:f4:a3:bd:79:74:19:47:f8:ec:98:ee:9b:
         01:e8:43:47:85:0b:11:78:09:30:04:cd:c3:af:15:59:fe:43:
         b7:20:41:e0:91:1e:33:6b:0d:44:72:14:b9:66:af:d8:84:31:
         9e:bc:24:a0:b7:05:3a:d3:a0:eb:59:3d:42:74:66:98:35:4f:
         ac:95:bb:9c:50:a3:49:ae:5a:29:04:e3:35:eb:78:3e:01:8b:
         b0:15:7e:1e:1e:66:e0:80:2a:bc:aa:81:be:a0:9e:7e:df:ea:
         be:e2:c3:5d:ea:2d:f9:67:e9:a0:15:30:35:4d:71:0b:a0:18:
         bf:63:34:54:2d:6f:dd:cb:03:5f:c9:7c:8e:98:9e:b7:a6:e1:
         82:ba:ba:26:a5:9d:0d:4a:55:4c:4e:31:cd:8f:d9:d4:29:16:
         c8:fe:ad:21:46:c3:26:58:b6:6e:d2:d9:72:d1:93:12:c8:9a:
         23:d6:ef:90
-----BEGIN CERTIFICATE-----
MIIDdzCCAl+gAwIBAgIQTqQ5XLejmHjAS/fdhawixTANBgkqhkiG9w0BAQsFADAW
MRQwEgYDVQQDDAt0ZWFtMTk0LW5ldDAeFw0yMzA4MTQxNDI2MTNaFw0yNjA3Mjkx
NDI2MTNaMBkxFzAVBgNVBAMMDnRlYW0xOTQtc2VydmVyMIIBIjANBgkqhkiG9w0B
AQEFAAOCAQ8AMIIBCgKCAQEAz12qf049s4tD6h3lGOmbyLUKV9Omic3Igs8B5M3g
vI0oCl4fRrwKHO+iv8pbIgWU7KdJHXBaYTf0WgXgkbuefLbZNu45f5SrGK62aX/6
YWSHCcZ91xPxgVuzh86EGbrfYZ6Aq11sVvs7U/uRUTVAfqsoWiV12ybo8dxirGdI
/rLCdE/bn+G1u8RQ6sJrSIRFGc9DLnrWkXHo+qSZRliwl1ehCW5Hl62t4WRf4IUi
RZXzP/MOFszFLnM9P+IIGuwkmp0wGIQb/T2hSmFOh9yG/XoHmAPJS4MPMaIU6Mcf
TqDf8cwPtb0j5OBlkHUrFfc34jmbAvuJ8erPh+NYYxnwWwIDAQABo4G9MIG6MAkG
A1UdEwQCMAAwHQYDVR0OBBYEFHja3io5+YE931Js+ZMlNVezOTwAMFEGA1UdIwRK
MEiAFN5r+fSTMMhL//XNm9UVnR4BtT2roRqkGDAWMRQwEgYDVQQDDAt0ZWFtMTk0
LW5ldIIUP7S0zDKo9HN3QZfH4iDi2fushSwwEwYDVR0lBAwwCgYIKwYBBQUHAwEw
CwYDVR0PBAQDAgWgMBkGA1UdEQQSMBCCDnRlYW0xOTQtc2VydmVyMA0GCSqGSIb3
DQEBCwUAA4IBAQANOgKkfGQ9WTcKj83j/qVhGLjH0OWEIh/9Rq851/7vi8K4pbzb
gsZujOBmctiLHkvoMBBEf165tTMFu6tlthuYKRVORLkrKdE/zA/m0+30o715dBlH
+OyY7psB6ENHhQsReAkwBM3DrxVZ/kO3IEHgkR4zaw1EchS5Zq/YhDGevCSgtwU6
06DrWT1CdGaYNU+slbucUKNJrlopBOM163g+AYuwFX4eHmbggCq8qoG+oJ5+3+q+
4sNd6i35Z+mgFTA1TXELoBi/YzRULW/dywNfyXyOmJ63puGCurompZ0NSlVMTjHN
j9nUKRbI/q0hRsMmWLZu0tly0ZMSyJoj1u+Q
-----END CERTIFICATE-----
