Certificate:
    Data:
        Version: 3 (0x2)
        Serial Number:
            cb:ae:5c:13:b1:2f:b8:37:35:b3:10:4a:4a:06:22:13
        Signature Algorithm: sha256WithRSAEncryption
        Issuer: CN=team280-net
        Validity
            Not Before: Aug 14 14:28:01 2023 GMT
            Not After : Jul 29 14:28:01 2026 GMT
        Subject: CN=team280-client
        Subject Public Key Info:
            Public Key Algorithm: rsaEncryption
                RSA Public-Key: (2048 bit)
                Modulus:
                    00:d9:8b:18:9f:37:85:0a:5e:e9:61:6d:0c:8e:3c:
                    93:84:de:4f:de:28:19:1e:42:e8:fe:6d:ad:26:90:
                    2b:a2:58:7c:9f:d7:5e:5e:0b:db:18:41:dc:ba:53:
                    93:05:ed:e4:85:cc:07:b5:98:18:54:87:08:4a:f5:
                    cb:5c:5d:02:39:09:68:5e:4e:a3:3b:74:60:8f:68:
                    ce:10:70:c7:3e:82:4a:34:90:36:e1:27:be:8b:07:
                    92:c1:42:0e:62:48:b0:d9:54:98:d7:c9:e9:f9:b0:
                    1a:a4:86:c8:3a:02:0a:33:14:43:b6:c2:4a:c2:07:
                    74:0e:82:17:09:42:90:e2:24:35:70:b0:49:69:15:
                    fe:13:08:f9:b7:d4:c8:38:50:35:f7:d2:cf:cc:5c:
                    17:fd:9a:97:b8:88:f6:cf:fa:be:f6:3b:af:8a:62:
                    53:47:a5:e1:9e:25:36:0b:bc:28:58:52:92:2b:44:
                    06:cd:61:d2:bb:37:4f:ec:35:0e:15:56:c0:93:ec:
                    14:24:f2:ff:9f:43:5c:ef:0c:ba:5b:10:53:dc:12:
                    c9:7c:2a:ca:b1:33:be:0d:91:75:f9:04:47:ba:4e:
                    65:06:dc:56:27:5a:e4:50:1a:90:e0:ae:98:e9:14:
                    34:ef:e6:ff:a9:8d:88:c5:ff:ee:4f:8b:2b:c7:b7:
                    7f:5f
                Exponent: 65537 (0x10001)
        X509v3 extensions:
            X509v3 Basic Constraints: 
                CA:FALSE
            X509v3 Subject Key Identifier: 
                45:DC:8E:86:DD:46:5F:6D:A1:7C:A0:E4:B8:0A:54:E4:AA:88:75:0B
            X509v3 Authority Key Identifier: 
                keyid:5C:2A:FF:AD:30:57:7F:8D:B5:E5:B7:6A:2D:8E:08:01:67:34:4E:8B
                DirName:/CN=team280-net
                serial:2D:93:74:FB:6B:08:AE:3B:70:71:A8:95:C7:F3:36:BE:96:7D:1A:53

            X509v3 Extended Key Usage: 
                TLS Web Client Authentication
            X509v3 Key Usage: 
                Digital Signature
    Signature Algorithm: sha256WithRSAEncryption
         3d:2e:91:ed:d6:74:d0:92:f1:9e:e8:5c:2a:38:ed:14:8e:ba:
         28:28:de:51:a6:88:71:6e:90:06:96:9c:d4:07:6b:6b:48:e2:
         30:51:4e:06:6a:e2:b7:0b:69:12:da:90:1e:9b:9c:34:30:08:
         4a:23:8c:98:89:79:53:81:25:fa:81:9b:5c:08:fd:c4:c2:a1:
         9a:94:19:18:82:d6:ae:39:76:12:46:05:95:9c:33:26:d0:61:
         36:f9:a9:aa:66:47:8a:03:a9:3f:a2:d1:38:d8:44:87:7b:47:
         ac:ed:d0:ed:ba:53:87:a9:1a:b2:23:cb:1a:f0:21:52:ae:ad:
         4d:cf:28:b1:91:57:06:29:ff:c6:da:37:93:79:ae:e8:b9:5c:
         1b:e6:17:4d:d6:4f:10:3b:1e:e7:08:bf:77:7d:9a:a7:78:52:
         d6:da:52:7d:03:40:05:14:57:49:26:29:34:6a:74:e3:1a:a9:
         9f:b3:b4:0c:41:cf:e9:e7:8c:6b:7c:85:22:69:b0:28:05:1e:
         83:14:ab:39:7a:5c:b7:7b:aa:ba:f2:c2:6a:15:35:b2:61:7a:
         18:33:9b:cf:0a:12:8b:0a:04:53:13:20:87:f2:2f:65:ed:bd:
         95:7b:96:18:b3:d0:d9:f3:06:71:a5:0c:4f:63:c5:38:7c:b8:
         7a:d3:69:37
-----BEGIN CERTIFICATE-----
MIIDXTCCAkWgAwIBAgIRAMuuXBOxL7g3NbMQSkoGIhMwDQYJKoZIhvcNAQELBQAw
FjEUMBIGA1UEAwwLdGVhbTI4MC1uZXQwHhcNMjMwODE0MTQyODAxWhcNMjYwNzI5
MTQyODAxWjAZMRcwFQYDVQQDDA50ZWFtMjgwLWNsaWVudDCCASIwDQYJKoZIhvcN
AQEBBQADggEPADCCAQoCggEBANmLGJ83hQpe6WFtDI48k4TeT94oGR5C6P5trSaQ
K6JYfJ/XXl4L2xhB3LpTkwXt5IXMB7WYGFSHCEr1y1xdAjkJaF5Oozt0YI9ozhBw
xz6CSjSQNuEnvosHksFCDmJIsNlUmNfJ6fmwGqSGyDoCCjMUQ7bCSsIHdA6CFwlC
kOIkNXCwSWkV/hMI+bfUyDhQNffSz8xcF/2al7iI9s/6vvY7r4piU0el4Z4lNgu8
KFhSkitEBs1h0rs3T+w1DhVWwJPsFCTy/59DXO8MulsQU9wSyXwqyrEzvg2RdfkE
R7pOZQbcVida5FAakOCumOkUNO/m/6mNiMX/7k+LK8e3f18CAwEAAaOBojCBnzAJ
BgNVHRMEAjAAMB0GA1UdDgQWBBRF3I6G3UZfbaF8oOS4ClTkqoh1CzBRBgNVHSME
SjBIgBRcKv+tMFd/jbXlt2otjggBZzROi6EapBgwFjEUMBIGA1UEAwwLdGVhbTI4
MC1uZXSCFC2TdPtrCK47cHGolcfzNr6WfRpTMBMGA1UdJQQMMAoGCCsGAQUFBwMC
MAsGA1UdDwQEAwIHgDANBgkqhkiG9w0BAQsFAAOCAQEAPS6R7dZ00JLxnuhcKjjt
FI66KCjeUaaIcW6QBpac1Adra0jiMFFOBmritwtpEtqQHpucNDAISiOMmIl5U4El
+oGbXAj9xMKhmpQZGILWrjl2EkYFlZwzJtBhNvmpqmZHigOpP6LRONhEh3tHrO3Q
7bpTh6kasiPLGvAhUq6tTc8osZFXBin/xto3k3mu6LlcG+YXTdZPEDse5wi/d32a
p3hS1tpSfQNABRRXSSYpNGp04xqpn7O0DEHP6eeMa3yFImmwKAUegxSrOXpct3uq
uvLCahU1smF6GDObzwoSiwoEUxMgh/IvZe29lXuWGLPQ2fMGcaUMT2PFOHy4etNp
Nw==
-----END CERTIFICATE-----
