Certificate:
    Data:
        Version: 3 (0x2)
        Serial Number:
            0e:a2:e0:cd:34:0b:8e:38:2e:cc:5c:9f:b9:4e:02:4f
        Signature Algorithm: sha256WithRSAEncryption
        Issuer: CN=team19-net
        Validity
            Not Before: Aug 14 14:22:26 2023 GMT
            Not After : Jul 29 14:22:26 2026 GMT
        Subject: CN=team19-server
        Subject Public Key Info:
            Public Key Algorithm: rsaEncryption
                RSA Public-Key: (2048 bit)
                Modulus:
                    00:c9:67:49:19:54:cd:63:eb:72:33:1e:1d:b6:41:
                    4d:64:46:66:31:46:30:aa:c7:d7:f6:bd:15:4b:76:
                    9e:92:b2:a0:2a:9e:61:bc:d9:57:46:17:89:c6:73:
                    95:42:5b:df:fc:2e:2d:2f:ef:fb:b9:cb:88:21:da:
                    82:70:bd:a7:fb:e8:73:f2:5e:d1:18:3e:83:1c:1f:
                    6b:3f:35:39:8b:84:80:94:43:2e:f3:05:d8:3d:4d:
                    b2:68:db:fb:a0:15:04:10:94:4d:35:16:6e:5e:46:
                    5d:4f:95:70:ce:b7:13:73:df:4a:26:fe:43:f5:9c:
                    11:05:24:de:d3:28:6f:88:f3:bb:ed:7e:42:64:08:
                    cf:21:79:44:56:ce:a1:a4:ed:9a:41:32:ec:aa:ed:
                    d1:c8:4e:8d:25:3e:3d:1d:71:4a:eb:cc:b5:79:77:
                    42:13:1b:96:a4:d5:22:52:8d:c9:37:db:0e:36:80:
                    b9:cb:7e:5a:14:27:96:fb:d0:e5:f4:1c:f5:e8:3c:
                    79:fe:00:44:87:84:39:26:db:f9:a8:e3:70:4d:2c:
                    29:4f:5b:82:d4:19:90:34:ef:70:91:8b:fa:6c:9b:
                    aa:41:1d:05:a9:61:1c:f9:d6:0e:7a:4f:2f:2d:1c:
                    55:cd:8f:90:35:96:c9:94:f7:b9:ed:2d:f7:71:54:
                    8c:bb
                Exponent: 65537 (0x10001)
        X509v3 extensions:
            X509v3 Basic Constraints: 
                CA:FALSE
            X509v3 Subject Key Identifier: 
                A0:56:32:FD:AC:E4:05:6E:90:84:2A:39:8D:A1:E8:E2:A1:A8:9D:13
            X509v3 Authority Key Identifier: 
                keyid:2F:C8:22:39:76:A2:FE:D0:A7:7D:3F:68:37:11:D3:67:18:EF:73:41
                DirName:/CN=team19-net
                serial:56:48:6E:6A:CE:37:36:5B:8D:F3:50:05:05:16:17:8D:CD:71:D6:A9

            X509v3 Extended Key Usage: 
                TLS Web Server Authentication
            X509v3 Key Usage: 
                Digital Signature, Key Encipherment
            X509v3 Subject Alternative Name: 
                DNS:team19-server
    Signature Algorithm: sha256WithRSAEncryption
         25:cd:8c:61:a2:06:52:5d:13:3d:f4:d3:8a:6a:1f:6b:14:cb:
         d0:00:39:64:fa:a6:a2:a2:c3:b5:48:86:e8:7a:a4:06:74:17:
         1f:b0:64:d5:e8:d0:de:7d:f0:55:64:e2:53:8b:f4:a2:01:4d:
         af:f4:c5:10:01:cf:65:4b:35:ac:7d:39:9e:63:1a:13:c7:4b:
         cf:34:19:f4:20:53:1c:15:98:8c:5a:91:2d:1f:ba:e3:77:da:
         1a:97:1f:dd:23:21:36:bd:a1:04:f6:e6:f1:69:c4:08:df:51:
         e0:35:5f:12:ee:dc:5a:63:e7:84:aa:a1:e8:b6:11:6a:6d:1d:
         eb:80:fc:39:09:c1:67:8c:e5:60:45:48:b9:ce:a7:8e:ef:aa:
         30:33:9f:97:5f:bc:89:3f:2d:d3:88:ae:a3:95:77:4f:f7:c8:
         3e:b5:5b:a5:29:a8:d0:b9:8c:f1:0e:6e:54:d1:fc:e5:a5:2f:
         cd:d5:76:00:76:2d:7e:c9:c9:7b:90:f9:42:63:ea:d9:98:75:
         0c:d2:67:47:e8:00:81:c6:56:6e:c3:01:56:89:e6:15:15:c6:
         d5:8b:6c:49:38:41:51:0f:78:56:1b:33:61:dc:2c:58:dc:53:
         06:9e:68:14:d0:f2:ae:3a:8d:e4:d2:4d:21:86:d1:fd:df:f5:
         76:34:e0:e1
-----BEGIN CERTIFICATE-----
MIIDczCCAlugAwIBAgIQDqLgzTQLjjguzFyfuU4CTzANBgkqhkiG9w0BAQsFADAV
MRMwEQYDVQQDDAp0ZWFtMTktbmV0MB4XDTIzMDgxNDE0MjIyNloXDTI2MDcyOTE0
MjIyNlowGDEWMBQGA1UEAwwNdGVhbTE5LXNlcnZlcjCCASIwDQYJKoZIhvcNAQEB
BQADggEPADCCAQoCggEBAMlnSRlUzWPrcjMeHbZBTWRGZjFGMKrH1/a9FUt2npKy
oCqeYbzZV0YXicZzlUJb3/wuLS/v+7nLiCHagnC9p/voc/Je0Rg+gxwfaz81OYuE
gJRDLvMF2D1Nsmjb+6AVBBCUTTUWbl5GXU+VcM63E3PfSib+Q/WcEQUk3tMob4jz
u+1+QmQIzyF5RFbOoaTtmkEy7Krt0chOjSU+PR1xSuvMtXl3QhMblqTVIlKNyTfb
DjaAuct+WhQnlvvQ5fQc9eg8ef4ARIeEOSbb+ajjcE0sKU9bgtQZkDTvcJGL+myb
qkEdBalhHPnWDnpPLy0cVc2PkDWWyZT3ue0t93FUjLsCAwEAAaOBuzCBuDAJBgNV
HRMEAjAAMB0GA1UdDgQWBBSgVjL9rOQFbpCEKjmNoejioaidEzBQBgNVHSMESTBH
gBQvyCI5dqL+0Kd9P2g3EdNnGO9zQaEZpBcwFTETMBEGA1UEAwwKdGVhbTE5LW5l
dIIUVkhuas43NluN81AFBRYXjc1x1qkwEwYDVR0lBAwwCgYIKwYBBQUHAwEwCwYD
VR0PBAQDAgWgMBgGA1UdEQQRMA+CDXRlYW0xOS1zZXJ2ZXIwDQYJKoZIhvcNAQEL
BQADggEBACXNjGGiBlJdEz3004pqH2sUy9AAOWT6pqKiw7VIhuh6pAZ0Fx+wZNXo
0N598FVk4lOL9KIBTa/0xRABz2VLNax9OZ5jGhPHS880GfQgUxwVmIxakS0fuuN3
2hqXH90jITa9oQT25vFpxAjfUeA1XxLu3Fpj54Sqoei2EWptHeuA/DkJwWeM5WBF
SLnOp47vqjAzn5dfvIk/LdOIrqOVd0/3yD61W6UpqNC5jPEOblTR/OWlL83VdgB2
LX7JyXuQ+UJj6tmYdQzSZ0foAIHGVm7DAVaJ5hUVxtWLbEk4QVEPeFYbM2HcLFjc
UwaeaBTQ8q46jeTSTSGG0f3f9XY04OE=
-----END CERTIFICATE-----
