Certificate:
    Data:
        Version: 3 (0x2)
        Serial Number:
            29:70:db:b3:af:d6:b9:09:b7:6b:8c:3f:b5:ce:5d:61
        Signature Algorithm: sha256WithRSAEncryption
        Issuer: CN=team279-net
        Validity
            Not Before: Aug 14 14:28:00 2023 GMT
            Not After : Jul 29 14:28:00 2026 GMT
        Subject: CN=team279-client
        Subject Public Key Info:
            Public Key Algorithm: rsaEncryption
                RSA Public-Key: (2048 bit)
                Modulus:
                    00:df:4c:15:00:dd:24:58:a9:9c:1c:a8:e8:b2:a0:
                    bc:fd:e5:6b:3f:ea:ae:f7:49:19:fd:7b:f5:65:a9:
                    7f:41:f1:3d:d2:51:37:f1:58:64:80:9c:18:b1:f2:
                    26:c1:84:7b:85:e2:f2:33:30:0e:c0:b6:f4:fa:b8:
                    71:d6:db:94:67:4a:c6:8a:7d:54:c2:62:9f:8b:c4:
                    1e:8f:7b:d9:9d:d0:d0:29:5a:fc:cf:f2:0b:16:9b:
                    71:1a:16:b6:04:a6:1e:ee:9c:2d:8e:21:cf:51:48:
                    91:63:05:9a:4c:56:f3:0f:4d:74:53:83:06:18:9c:
                    1e:93:44:6e:c7:59:c9:90:69:7b:51:66:50:5c:18:
                    35:16:39:e3:5f:2b:28:ec:eb:4d:b5:91:ec:a6:ed:
                    0d:a7:0e:fb:4c:83:e4:46:aa:df:ac:12:20:50:0d:
                    da:92:bf:13:86:63:67:de:32:4d:03:90:1f:57:bc:
                    3b:52:d5:f2:56:be:78:bd:bf:9c:9e:eb:4c:90:70:
                    18:50:7f:4c:15:fc:74:d6:5a:bd:cb:25:a1:0c:95:
                    93:de:a6:76:ec:d5:47:bb:bd:29:e8:27:f1:bf:d6:
                    d0:e0:0d:5d:a8:12:34:1e:ce:e4:f8:22:e6:9f:5d:
                    0f:f1:89:20:3d:f6:2f:b3:3b:07:80:70:aa:e6:97:
                    54:0b
                Exponent: 65537 (0x10001)
        X509v3 extensions:
            X509v3 Basic Constraints: 
                CA:FALSE
            X509v3 Subject Key Identifier: 
                BC:A2:D7:64:94:0F:EA:5A:68:70:95:5E:95:82:F7:54:2A:A4:7B:40
            X509v3 Authority Key Identifier: 
                keyid:87:7D:8E:62:68:F8:AC:BD:F9:E3:F6:89:4A:87:2B:D5:8E:58:B1:7A
                DirName:/CN=team279-net
                serial:7A:86:1B:66:EB:49:A5:DB:14:A3:1D:9B:AF:F6:BD:3F:AD:04:53:11

            X509v3 Extended Key Usage: 
                TLS Web Client Authentication
            X509v3 Key Usage: 
                Digital Signature
    Signature Algorithm: sha256WithRSAEncryption
         2c:41:0e:f9:6e:1e:6f:d5:1a:54:af:2a:0a:b3:8b:92:d3:4f:
         33:49:fd:97:17:c0:70:ba:c4:72:1b:eb:c7:d3:d6:6a:83:1e:
         3d:88:65:7a:25:1e:4b:fe:8a:03:af:8e:1b:4e:1d:42:62:47:
         86:98:f3:b4:f2:b6:09:7d:ba:a4:59:b3:2d:dc:af:63:de:2f:
         5d:f8:38:da:0d:37:e1:dd:fa:4b:3c:aa:f6:fa:3f:af:6a:31:
         cc:27:97:2b:29:a6:05:84:4c:34:c5:27:69:5b:9f:c1:f7:86:
         7d:55:a3:92:57:55:e3:44:f9:19:33:95:bb:22:25:d2:ad:02:
         1f:28:b0:be:6a:04:e8:2d:a1:fe:35:e7:5d:fd:9a:e5:18:35:
         6a:5f:95:a1:b0:da:d6:95:97:b8:d0:b9:4d:ed:75:e5:63:13:
         74:2e:2a:c4:8b:54:a1:34:12:db:c3:08:84:b4:9f:47:a6:e8:
         66:5f:d8:fe:76:16:c5:94:94:92:94:11:c7:07:12:9e:00:e8:
         f9:64:9d:7b:7f:c6:4a:bd:75:d0:ef:3b:bc:d7:88:2f:d3:0d:
         25:4f:8d:57:01:9d:63:7c:76:a8:d3:91:65:c4:29:64:7a:d4:
         91:28:ba:a9:9e:3b:f2:16:69:df:f5:7c:48:7d:b1:1d:9c:e0:
         71:cd:f9:25
-----BEGIN CERTIFICATE-----
MIIDXDCCAkSgAwIBAgIQKXDbs6/WuQm3a4w/tc5dYTANBgkqhkiG9w0BAQsFADAW
MRQwEgYDVQQDDAt0ZWFtMjc5LW5ldDAeFw0yMzA4MTQxNDI4MDBaFw0yNjA3Mjkx
NDI4MDBaMBkxFzAVBgNVBAMMDnRlYW0yNzktY2xpZW50MIIBIjANBgkqhkiG9w0B
AQEFAAOCAQ8AMIIBCgKCAQEA30wVAN0kWKmcHKjosqC8/eVrP+qu90kZ/Xv1Zal/
QfE90lE38VhkgJwYsfImwYR7heLyMzAOwLb0+rhx1tuUZ0rGin1UwmKfi8Qej3vZ
ndDQKVr8z/ILFptxGha2BKYe7pwtjiHPUUiRYwWaTFbzD010U4MGGJwek0Rux1nJ
kGl7UWZQXBg1FjnjXyso7OtNtZHspu0Npw77TIPkRqrfrBIgUA3akr8ThmNn3jJN
A5AfV7w7UtXyVr54vb+cnutMkHAYUH9MFfx01lq9yyWhDJWT3qZ27NVHu70p6Cfx
v9bQ4A1dqBI0Hs7k+CLmn10P8YkgPfYvszsHgHCq5pdUCwIDAQABo4GiMIGfMAkG
A1UdEwQCMAAwHQYDVR0OBBYEFLyi12SUD+paaHCVXpWC91QqpHtAMFEGA1UdIwRK
MEiAFId9jmJo+Ky9+eP2iUqHK9WOWLF6oRqkGDAWMRQwEgYDVQQDDAt0ZWFtMjc5
LW5ldIIUeoYbZutJpdsUox2br/a9P60EUxEwEwYDVR0lBAwwCgYIKwYBBQUHAwIw
CwYDVR0PBAQDAgeAMA0GCSqGSIb3DQEBCwUAA4IBAQAsQQ75bh5v1RpUryoKs4uS
008zSf2XF8BwusRyG+vH09Zqgx49iGV6JR5L/ooDr44bTh1CYkeGmPO08rYJfbqk
WbMt3K9j3i9d+DjaDTfh3fpLPKr2+j+vajHMJ5crKaYFhEw0xSdpW5/B94Z9VaOS
V1XjRPkZM5W7IiXSrQIfKLC+agToLaH+Nedd/ZrlGDVqX5WhsNrWlZe40LlN7XXl
YxN0LirEi1ShNBLbwwiEtJ9HpuhmX9j+dhbFlJSSlBHHBxKeAOj5ZJ17f8ZKvXXQ
7zu814gv0w0lT41XAZ1jfHao05FlxClketSRKLqpnjvyFmnf9XxIfbEdnOBxzfkl
-----END CERTIFICATE-----
