Certificate:
    Data:
        Version: 3 (0x2)
        Serial Number:
            f0:17:68:fc:b7:e4:3c:bb:4c:70:cd:ef:f2:56:e3:e4
        Signature Algorithm: sha256WithRSAEncryption
        Issuer: CN=team66-net
        Validity
            Not Before: Aug 14 14:23:33 2023 GMT
            Not After : Jul 29 14:23:33 2026 GMT
        Subject: CN=team66-server
        Subject Public Key Info:
            Public Key Algorithm: rsaEncryption
                RSA Public-Key: (2048 bit)
                Modulus:
                    00:be:02:90:4f:33:3c:15:c5:62:c4:6b:0c:15:6d:
                    f8:f0:09:a8:dd:0b:c2:3b:74:c8:ee:db:ed:e1:aa:
                    26:84:78:08:bc:a5:21:68:97:2f:2e:91:18:c1:68:
                    01:04:d1:43:58:a3:75:00:17:97:ae:d1:43:6d:12:
                    3e:3f:06:ef:34:13:0e:f6:c9:e2:c4:19:9d:40:91:
                    cb:32:3b:d3:ad:2c:5e:ca:04:20:85:45:bc:49:f9:
                    77:aa:50:6a:b2:20:6f:cf:cc:df:4a:cd:f9:d4:ce:
                    52:8b:94:d0:48:e6:1e:89:71:ff:e8:23:f4:0d:25:
                    c0:ff:05:15:4c:f9:3d:d8:ec:c4:20:93:e8:ba:aa:
                    bf:ca:b3:f5:2f:c5:b2:fa:7b:ce:a9:e4:97:b4:54:
                    cd:4f:d8:31:f6:80:60:50:d1:8a:de:1d:0c:0e:10:
                    06:a6:6f:bb:15:79:9f:b0:b3:a9:f3:2e:a4:64:fe:
                    a2:ae:ed:8e:4d:1c:44:22:fa:89:6a:e1:32:64:2c:
                    36:05:13:ee:27:13:dc:bf:0b:70:0d:ca:10:62:0d:
                    fa:1b:e7:4d:b3:c9:e6:24:e1:b6:90:d2:99:38:3b:
                    13:ee:b0:31:f7:8f:00:b8:5c:cd:fe:8b:b0:4d:e0:
                    1c:b0:5b:77:33:55:19:0f:53:31:d8:a3:db:34:4c:
                    05:71
                Exponent: 65537 (0x10001)
        X509v3 extensions:
            X509v3 Basic Constraints: 
                CA:FALSE
            X509v3 Subject Key Identifier: 
                27:3E:A0:1B:8A:80:24:5B:58:2E:0F:B2:87:8B:7A:3B:BC:76:DB:29
            X509v3 Authority Key Identifier: 
                keyid:3C:A8:D6:5D:B9:C4:94:48:08:EF:66:39:EE:5F:CD:2E:A8:80:C6:B9
                DirName:/CN=team66-net
                serial:2A:6B:5B:D6:EC:E0:44:9F:76:1D:D6:74:56:86:4D:1D:64:36:12:91

            X509v3 Extended Key Usage: 
                TLS Web Server Authentication
            X509v3 Key Usage: 
                Digital Signature, Key Encipherment
            X509v3 Subject Alternative Name: 
                DNS:team66-server
    Signature Algorithm: sha256WithRSAEncryption
         4f:f7:01:e1:a7:35:72:fd:ec:16:25:20:1e:67:5f:4e:c0:50:
         24:a2:70:cf:2b:62:b2:09:a7:8a:7f:83:f6:8b:e2:70:f8:bf:
         5a:0a:e9:8d:9c:e2:43:b9:e8:8f:ec:48:99:0e:eb:aa:be:a1:
         d9:b2:21:ab:96:04:83:4a:b7:6c:1a:84:55:36:d3:87:c6:f2:
         28:aa:1c:d4:73:62:80:65:19:0d:75:3e:1f:a7:ff:b8:86:b9:
         ca:bc:48:a8:9d:67:f3:c0:98:11:64:3f:69:3d:fc:6c:61:f0:
         0c:f8:80:82:75:06:0d:f8:e2:a6:0b:2f:73:47:f7:de:3a:b4:
         ab:0a:50:49:07:a3:2b:8a:7c:83:e8:72:be:55:c9:44:16:ee:
         80:20:cd:87:4b:1a:c2:5d:2c:4f:4a:db:7c:72:99:a2:ee:77:
         dc:3c:23:d8:9d:2a:8f:fa:11:68:6c:a3:1e:fa:28:25:0c:67:
         c2:37:7b:0c:51:ef:7c:64:e5:a0:ce:cd:f6:5e:e3:00:5c:2d:
         ee:0c:d8:88:0d:58:23:9c:b6:5d:97:0b:69:bd:c5:25:1b:96:
         14:c4:fa:5a:79:a8:00:39:8b:aa:00:10:75:24:0d:08:94:bd:
         5f:88:a3:f6:7c:8f:cd:3f:aa:e3:be:2f:04:db:f0:58:06:68:
         61:f4:d9:97
-----BEGIN CERTIFICATE-----
MIIDdDCCAlygAwIBAgIRAPAXaPy35Dy7THDN7/JW4+QwDQYJKoZIhvcNAQELBQAw
FTETMBEGA1UEAwwKdGVhbTY2LW5ldDAeFw0yMzA4MTQxNDIzMzNaFw0yNjA3Mjkx
NDIzMzNaMBgxFjAUBgNVBAMMDXRlYW02Ni1zZXJ2ZXIwggEiMA0GCSqGSIb3DQEB
AQUAA4IBDwAwggEKAoIBAQC+ApBPMzwVxWLEawwVbfjwCajdC8I7dMju2+3hqiaE
eAi8pSFoly8ukRjBaAEE0UNYo3UAF5eu0UNtEj4/Bu80Ew72yeLEGZ1AkcsyO9Ot
LF7KBCCFRbxJ+XeqUGqyIG/PzN9KzfnUzlKLlNBI5h6Jcf/oI/QNJcD/BRVM+T3Y
7MQgk+i6qr/Ks/UvxbL6e86p5Je0VM1P2DH2gGBQ0YreHQwOEAamb7sVeZ+ws6nz
LqRk/qKu7Y5NHEQi+olq4TJkLDYFE+4nE9y/C3ANyhBiDfob502zyeYk4baQ0pk4
OxPusDH3jwC4XM3+i7BN4BywW3czVRkPUzHYo9s0TAVxAgMBAAGjgbswgbgwCQYD
VR0TBAIwADAdBgNVHQ4EFgQUJz6gG4qAJFtYLg+yh4t6O7x22ykwUAYDVR0jBEkw
R4AUPKjWXbnElEgI72Y57l/NLqiAxrmhGaQXMBUxEzARBgNVBAMMCnRlYW02Ni1u
ZXSCFCprW9bs4ESfdh3WdFaGTR1kNhKRMBMGA1UdJQQMMAoGCCsGAQUFBwMBMAsG
A1UdDwQEAwIFoDAYBgNVHREEETAPgg10ZWFtNjYtc2VydmVyMA0GCSqGSIb3DQEB
CwUAA4IBAQBP9wHhpzVy/ewWJSAeZ19OwFAkonDPK2KyCaeKf4P2i+Jw+L9aCumN
nOJDueiP7EiZDuuqvqHZsiGrlgSDSrdsGoRVNtOHxvIoqhzUc2KAZRkNdT4fp/+4
hrnKvEionWfzwJgRZD9pPfxsYfAM+ICCdQYN+OKmCy9zR/feOrSrClBJB6MrinyD
6HK+VclEFu6AIM2HSxrCXSxPStt8cpmi7nfcPCPYnSqP+hFobKMe+iglDGfCN3sM
Ue98ZOWgzs32XuMAXC3uDNiIDVgjnLZdlwtpvcUlG5YUxPpaeagAOYuqABB1JA0I
lL1fiKP2fI/NP6rjvi8E2/BYBmhh9NmX
-----END CERTIFICATE-----
