Certificate:
    Data:
        Version: 3 (0x2)
        Serial Number:
            18:ab:27:d7:3f:27:c2:f7:10:c0:ff:fd:e0:5f:ac:f2
        Signature Algorithm: sha256WithRSAEncryption
        Issuer: CN=team127-net
        Validity
            Not Before: Aug 14 14:24:54 2023 GMT
            Not After : Jul 29 14:24:54 2026 GMT
        Subject: CN=team127-server
        Subject Public Key Info:
            Public Key Algorithm: rsaEncryption
                RSA Public-Key: (2048 bit)
                Modulus:
                    00:c1:e5:78:1d:c2:5c:e2:e0:0f:c6:6f:ef:a6:14:
                    f4:11:29:cf:2c:f5:73:dc:f0:df:58:9e:e0:f0:8c:
                    48:ac:c3:2c:e4:f9:1d:3b:58:07:40:17:22:7c:0e:
                    43:5a:d9:d8:bc:36:0d:00:82:d9:31:15:db:91:4a:
                    98:fe:d2:e6:c3:1c:a4:8b:49:fe:1b:a6:8f:04:f8:
                    cc:65:30:2f:28:91:09:2f:4e:ed:87:66:95:23:47:
                    be:97:0a:63:23:66:20:4f:b6:3b:a5:24:e8:2a:98:
                    da:3c:b5:19:51:f4:6b:54:7c:c5:d3:02:78:64:e8:
                    4b:61:a4:67:05:0d:c9:92:f2:75:28:17:cd:d5:f1:
                    f3:a9:d3:f7:f4:92:4a:1e:a6:68:b5:57:f9:46:cf:
                    52:39:7b:2e:47:c9:13:f9:27:af:7a:5f:4c:b1:f3:
                    04:a3:4e:f3:13:63:cf:d1:f4:24:23:94:d3:43:b5:
                    88:d7:34:1a:c8:79:4b:31:47:49:3a:d2:bc:e1:8f:
                    c8:d3:65:ce:b8:ea:0d:75:65:01:6c:55:79:4f:0b:
                    fc:8a:72:0a:ee:1e:bb:15:a8:be:a0:d3:4e:10:9e:
                    c3:87:87:01:00:aa:cf:aa:1e:11:75:1f:96:0a:fd:
                    e3:82:82:4d:aa:a5:8f:08:a6:2c:d9:71:d3:c3:3c:
                    bb:77
                Exponent: 65537 (0x10001)
        X509v3 extensions:
            X509v3 Basic Constraints: 
                CA:FALSE
            X509v3 Subject Key Identifier: 
                B0:00:07:B2:30:3E:65:F3:01:9A:13:29:41:94:9A:EA:15:06:8F:C1
            X509v3 Authority Key Identifier: 
                keyid:EB:E2:5D:1D:A8:12:AF:F5:63:8E:69:19:57:4F:12:CA:39:7A:2B:51
                DirName:/CN=team127-net
                serial:28:15:B7:11:24:3A:B5:E1:87:C1:BB:67:11:FC:7C:80:12:16:1E:F2

            X509v3 Extended Key Usage: 
                TLS Web Server Authentication
            X509v3 Key Usage: 
                Digital Signature, Key Encipherment
            X509v3 Subject Alternative Name: 
                DNS:team127-server
    Signature Algorithm: sha256WithRSAEncryption
         60:a6:b3:7d:66:f3:ea:3d:03:a7:e3:26:6a:76:d7:4b:9e:81:
         35:52:ef:96:6d:ee:15:b5:36:2b:23:d6:1b:d2:0b:a8:9b:2d:
         ce:37:98:88:0c:47:60:62:2d:e1:dc:70:3a:46:e6:e2:d4:69:
         4e:d0:1b:d4:a3:e2:3a:4a:d0:50:b6:8d:ae:2b:2d:95:d2:ae:
         c3:13:97:c4:8d:11:32:bc:a9:6c:38:d3:8e:c4:ce:be:a3:38:
         78:f2:94:1a:88:35:09:0e:e6:c3:d1:31:3c:8a:76:a5:2a:5b:
         02:6f:03:fc:29:21:5e:78:0c:a1:4f:2a:12:e9:6c:d3:c2:70:
         11:be:6e:93:18:24:ad:3a:c9:da:0d:36:16:ac:9a:6f:f6:99:
         ba:ff:70:4d:20:7a:26:43:da:04:2e:f0:cf:8e:2b:80:9e:71:
         d1:fd:4b:2b:c8:ea:8c:06:b1:41:a1:2f:ae:78:24:71:c8:97:
         87:fd:95:c1:4f:d3:ee:ab:6e:2b:5a:e4:e8:3c:f8:eb:3c:c8:
         e7:fe:15:13:a3:28:6d:f1:0b:fd:94:75:3a:4c:97:e5:a4:3c:
         28:8a:8a:8c:8f:e7:2b:f9:21:f3:9c:00:a4:90:3f:5d:b5:dd:
         77:5a:e4:e0:6a:d6:dd:b9:0c:24:2e:98:48:a0:32:80:e3:21:
         8c:cc:60:39
-----BEGIN CERTIFICATE-----
MIIDdzCCAl+gAwIBAgIQGKsn1z8nwvcQwP/94F+s8jANBgkqhkiG9w0BAQsFADAW
MRQwEgYDVQQDDAt0ZWFtMTI3LW5ldDAeFw0yMzA4MTQxNDI0NTRaFw0yNjA3Mjkx
NDI0NTRaMBkxFzAVBgNVBAMMDnRlYW0xMjctc2VydmVyMIIBIjANBgkqhkiG9w0B
AQEFAAOCAQ8AMIIBCgKCAQEAweV4HcJc4uAPxm/vphT0ESnPLPVz3PDfWJ7g8IxI
rMMs5PkdO1gHQBcifA5DWtnYvDYNAILZMRXbkUqY/tLmwxyki0n+G6aPBPjMZTAv
KJEJL07th2aVI0e+lwpjI2YgT7Y7pSToKpjaPLUZUfRrVHzF0wJ4ZOhLYaRnBQ3J
kvJ1KBfN1fHzqdP39JJKHqZotVf5Rs9SOXsuR8kT+Sevel9MsfMEo07zE2PP0fQk
I5TTQ7WI1zQayHlLMUdJOtK84Y/I02XOuOoNdWUBbFV5Twv8inIK7h67Fai+oNNO
EJ7Dh4cBAKrPqh4RdR+WCv3jgoJNqqWPCKYs2XHTwzy7dwIDAQABo4G9MIG6MAkG
A1UdEwQCMAAwHQYDVR0OBBYEFLAAB7IwPmXzAZoTKUGUmuoVBo/BMFEGA1UdIwRK
MEiAFOviXR2oEq/1Y45pGVdPEso5eitRoRqkGDAWMRQwEgYDVQQDDAt0ZWFtMTI3
LW5ldIIUKBW3ESQ6teGHwbtnEfx8gBIWHvIwEwYDVR0lBAwwCgYIKwYBBQUHAwEw
CwYDVR0PBAQDAgWgMBkGA1UdEQQSMBCCDnRlYW0xMjctc2VydmVyMA0GCSqGSIb3
DQEBCwUAA4IBAQBgprN9ZvPqPQOn4yZqdtdLnoE1Uu+Wbe4VtTYrI9Yb0guomy3O
N5iIDEdgYi3h3HA6Rubi1GlO0BvUo+I6StBQto2uKy2V0q7DE5fEjREyvKlsONOO
xM6+ozh48pQaiDUJDubD0TE8inalKlsCbwP8KSFeeAyhTyoS6WzTwnARvm6TGCSt
OsnaDTYWrJpv9pm6/3BNIHomQ9oELvDPjiuAnnHR/UsryOqMBrFBoS+ueCRxyJeH
/ZXBT9Puq24rWuToPPjrPMjn/hUToyht8Qv9lHU6TJflpDwoioqMj+cr+SHznACk
kD9dtd13WuTgatbduQwkLphIoDKA4yGMzGA5
-----END CERTIFICATE-----
