Certificate:
    Data:
        Version: 3 (0x2)
        Serial Number:
            28:32:0c:96:eb:80:f8:24:f4:f8:76:e1:4b:1a:fc:f3
        Signature Algorithm: sha256WithRSAEncryption
        Issuer: CN=team83-net
        Validity
            Not Before: Aug 14 14:23:55 2023 GMT
            Not After : Jul 29 14:23:55 2026 GMT
        Subject: CN=team83-client
        Subject Public Key Info:
            Public Key Algorithm: rsaEncryption
                RSA Public-Key: (2048 bit)
                Modulus:
                    00:da:20:cf:ee:0f:f8:fe:56:76:35:1b:61:dc:a3:
                    aa:2f:ba:be:66:0d:44:0f:88:de:ac:bf:bf:8a:ad:
                    3d:00:4b:d0:eb:ff:9d:16:60:6e:c0:fc:71:84:a7:
                    92:bb:d6:74:a9:29:2f:b9:86:59:5e:7f:b8:4a:d7:
                    16:bb:f4:f6:18:9a:8c:15:cf:e7:4d:e8:05:9f:30:
                    5c:26:4e:da:94:19:38:8a:f9:c7:f6:d9:21:2f:5e:
                    f6:50:1f:36:0e:e6:6e:f1:96:ca:a3:16:24:37:66:
                    8b:ba:b7:bd:dd:86:b6:d9:a5:e3:e1:9f:ab:74:4c:
                    59:93:11:44:cc:4b:4d:c6:4c:a5:d3:ee:72:63:d5:
                    71:96:cf:35:15:55:27:c8:a6:ba:9e:ea:32:68:fc:
                    a4:f3:f7:26:8c:7f:74:1f:b9:fc:6c:57:92:4e:67:
                    5d:db:f7:d3:84:4a:fa:fb:5b:84:db:8d:4b:dc:fc:
                    11:4a:63:e6:5d:c2:36:65:8a:f4:45:eb:31:63:35:
                    ae:3b:e1:eb:21:c6:59:ed:a5:6f:84:8e:a6:53:d8:
                    77:46:40:9a:bc:12:52:e0:0f:e2:1b:67:c0:27:40:
                    c2:f9:91:fc:25:c7:4a:81:40:4a:04:bf:d1:d4:30:
                    a6:0f:34:84:4c:95:02:90:19:f6:f6:68:33:d4:31:
                    46:3f
                Exponent: 65537 (0x10001)
        X509v3 extensions:
            X509v3 Basic Constraints: 
                CA:FALSE
            X509v3 Subject Key Identifier: 
                69:95:6B:A5:93:45:B8:EC:3A:D7:80:AC:F6:F6:00:EC:D9:64:A9:70
            X509v3 Authority Key Identifier: 
                keyid:71:E2:68:1B:FA:24:51:01:2A:91:BE:C1:B4:DC:12:D0:06:6C:2D:E5
                DirName:/CN=team83-net
                serial:5E:76:0B:B1:08:21:1A:53:0D:1C:39:9B:45:0D:5A:81:74:61:CF:27

            X509v3 Extended Key Usage: 
                TLS Web Client Authentication
            X509v3 Key Usage: 
                Digital Signature
    Signature Algorithm: sha256WithRSAEncryption
         77:bc:46:e8:d1:8a:76:17:8e:9c:c0:5d:ea:2a:8e:6d:8a:72:
         81:0e:d1:09:cd:85:9d:dc:e3:d1:19:2f:e7:96:80:1b:67:81:
         1c:f6:76:1d:2c:04:ce:85:74:e1:f4:4d:ad:19:2a:8e:08:39:
         24:8a:7e:ff:7c:35:7e:d9:33:76:5c:d3:60:e9:e1:67:6e:a9:
         d1:c9:c6:33:37:09:5e:8e:78:c6:b1:d6:e3:fc:67:87:22:78:
         97:5f:5e:79:55:dc:98:cb:4d:1f:87:69:e9:bc:e2:ad:fc:ae:
         8d:f0:73:e0:ad:96:5c:75:bf:41:b2:18:d6:47:7f:f7:3f:40:
         41:51:26:f1:67:a9:fe:44:1a:d2:bc:c2:c8:48:94:6a:fa:5b:
         2e:18:dd:0d:03:e5:57:00:a3:fd:fb:2f:f4:7f:29:e2:22:29:
         41:fa:e9:aa:02:ac:24:63:aa:85:e4:74:f7:36:e0:08:d4:2e:
         1f:ab:e3:49:fb:4f:11:b3:b6:03:c6:48:55:1a:0f:d6:ea:25:
         87:1c:85:b1:12:dc:75:f2:fe:39:47:ee:d8:76:2d:7e:a7:14:
         83:5c:72:20:1d:84:4f:8c:12:b0:a2:10:18:35:07:e1:fa:56:
         fd:bb:0b:af:64:d4:51:6e:f1:03:75:b3:64:8f:68:e2:a9:37:
         4c:93:37:a8
-----BEGIN CERTIFICATE-----
MIIDWTCCAkGgAwIBAgIQKDIMluuA+CT0+HbhSxr88zANBgkqhkiG9w0BAQsFADAV
MRMwEQYDVQQDDAp0ZWFtODMtbmV0MB4XDTIzMDgxNDE0MjM1NVoXDTI2MDcyOTE0
MjM1NVowGDEWMBQGA1UEAwwNdGVhbTgzLWNsaWVudDCCASIwDQYJKoZIhvcNAQEB
BQADggEPADCCAQoCggEBANogz+4P+P5WdjUbYdyjqi+6vmYNRA+I3qy/v4qtPQBL
0Ov/nRZgbsD8cYSnkrvWdKkpL7mGWV5/uErXFrv09hiajBXP503oBZ8wXCZO2pQZ
OIr5x/bZIS9e9lAfNg7mbvGWyqMWJDdmi7q3vd2Gttml4+Gfq3RMWZMRRMxLTcZM
pdPucmPVcZbPNRVVJ8imup7qMmj8pPP3Jox/dB+5/GxXkk5nXdv304RK+vtbhNuN
S9z8EUpj5l3CNmWK9EXrMWM1rjvh6yHGWe2lb4SOplPYd0ZAmrwSUuAP4htnwCdA
wvmR/CXHSoFASgS/0dQwpg80hEyVApAZ9vZoM9QxRj8CAwEAAaOBoTCBnjAJBgNV
HRMEAjAAMB0GA1UdDgQWBBRplWulk0W47DrXgKz29gDs2WSpcDBQBgNVHSMESTBH
gBRx4mgb+iRRASqRvsG03BLQBmwt5aEZpBcwFTETMBEGA1UEAwwKdGVhbTgzLW5l
dIIUXnYLsQghGlMNHDmbRQ1agXRhzycwEwYDVR0lBAwwCgYIKwYBBQUHAwIwCwYD
VR0PBAQDAgeAMA0GCSqGSIb3DQEBCwUAA4IBAQB3vEbo0Yp2F46cwF3qKo5tinKB
DtEJzYWd3OPRGS/nloAbZ4Ec9nYdLATOhXTh9E2tGSqOCDkkin7/fDV+2TN2XNNg
6eFnbqnRycYzNwlejnjGsdbj/GeHIniXX155VdyYy00fh2npvOKt/K6N8HPgrZZc
db9BshjWR3/3P0BBUSbxZ6n+RBrSvMLISJRq+lsuGN0NA+VXAKP9+y/0fyniIilB
+umqAqwkY6qF5HT3NuAI1C4fq+NJ+08Rs7YDxkhVGg/W6iWHHIWxEtx18v45R+7Y
di1+pxSDXHIgHYRPjBKwohAYNQfh+lb9uwuvZNRRbvEDdbNkj2jiqTdMkzeo
-----END CERTIFICATE-----
