Certificate:
    Data:
        Version: 3 (0x2)
        Serial Number:
            82:cc:a9:aa:ee:f8:cf:5c:6a:36:86:76:69:61:96:7b
        Signature Algorithm: sha256WithRSAEncryption
        Issuer: CN=team83-net
        Validity
            Not Before: Aug 14 14:23:55 2023 GMT
            Not After : Jul 29 14:23:55 2026 GMT
        Subject: CN=team83-server
        Subject Public Key Info:
            Public Key Algorithm: rsaEncryption
                RSA Public-Key: (2048 bit)
                Modulus:
                    00:b1:f3:be:f5:a5:85:fa:21:6d:ae:67:fe:3b:62:
                    05:2a:2f:88:ca:87:e2:0a:f6:f8:b0:62:80:45:68:
                    0f:59:cb:2a:45:3e:31:8c:b5:8f:02:91:94:27:83:
                    63:1c:73:2a:b7:2e:af:04:5d:00:43:f1:87:9e:e8:
                    55:f7:d8:61:0e:09:17:3f:d5:37:49:58:d8:22:4b:
                    01:d5:c0:4d:14:bb:d5:c0:13:8e:7d:91:6f:6a:13:
                    0d:02:0c:e0:d6:bd:c2:ef:28:c7:8d:da:c9:7e:08:
                    4f:70:36:e3:24:32:f1:7b:a3:61:d0:48:30:17:92:
                    c4:a5:83:a7:a1:ec:43:97:cb:da:f3:9c:c7:72:ae:
                    8a:f9:99:83:6e:ec:0b:b0:94:eb:c1:ec:43:8c:b4:
                    33:a0:aa:24:5c:bd:14:c2:89:e0:05:99:10:88:ce:
                    14:93:0b:d7:fe:5e:c8:26:9b:70:e5:79:d8:63:2a:
                    6f:24:03:26:13:2f:9d:77:17:4e:f2:91:47:6f:f6:
                    c1:c1:fc:02:0b:c4:bb:d2:77:07:c6:3f:b0:8a:ce:
                    24:56:80:10:c5:d4:da:5c:45:53:e5:78:fc:9a:7e:
                    15:dc:bd:4b:e1:57:ec:1b:c6:46:4a:31:49:7d:f7:
                    8b:07:4d:79:8a:b6:51:e8:13:82:3c:c3:3c:3e:cf:
                    2e:f5
                Exponent: 65537 (0x10001)
        X509v3 extensions:
            X509v3 Basic Constraints: 
                CA:FALSE
            X509v3 Subject Key Identifier: 
                BD:90:97:09:8F:3C:02:5C:48:17:27:65:B5:95:D8:20:93:33:9F:A5
            X509v3 Authority Key Identifier: 
                keyid:71:E2:68:1B:FA:24:51:01:2A:91:BE:C1:B4:DC:12:D0:06:6C:2D:E5
                DirName:/CN=team83-net
                serial:5E:76:0B:B1:08:21:1A:53:0D:1C:39:9B:45:0D:5A:81:74:61:CF:27

            X509v3 Extended Key Usage: 
                TLS Web Server Authentication
            X509v3 Key Usage: 
                Digital Signature, Key Encipherment
            X509v3 Subject Alternative Name: 
                DNS:team83-server
    Signature Algorithm: sha256WithRSAEncryption
         1a:10:56:a7:b8:7a:71:bc:f9:4c:e3:e7:6b:08:b5:4d:4f:2b:
         0a:4d:4d:df:1c:dc:65:b5:e6:fa:6f:94:ec:1c:e8:63:37:fe:
         90:49:67:54:e7:2e:c0:f4:59:b7:55:69:02:36:9e:ac:2e:76:
         47:88:f3:67:8e:de:2c:15:37:75:28:d0:f1:b5:23:93:a7:93:
         c6:db:e3:0f:8e:e2:18:95:80:4b:83:60:67:58:20:e8:93:6f:
         6a:5f:e8:56:72:cb:f8:dd:a8:ad:3d:e5:44:e3:96:5f:4e:44:
         85:76:96:c9:f8:d6:d4:17:f8:60:8c:24:78:84:d5:ee:47:c3:
         b7:b9:d9:0a:bb:0f:8a:21:c4:01:55:4e:bd:b3:1c:bf:d5:82:
         86:b5:86:e5:c2:29:91:cd:a9:9d:2c:f2:42:34:62:7f:06:5a:
         5c:22:fa:de:4a:0f:7d:f3:ce:3b:0e:f6:2f:9d:5d:e8:e9:bb:
         8a:3d:b4:32:01:65:f0:6c:82:09:9a:d9:f7:65:4a:7c:d0:10:
         dc:2d:64:26:f8:d4:51:23:41:44:7c:c6:8f:7a:00:2f:35:4b:
         9d:c6:43:ac:c1:a2:0a:47:8b:9e:c3:84:06:f3:59:a6:3d:c3:
         24:fd:b4:fb:14:33:4a:f3:f4:8b:29:67:f4:ba:43:c1:3f:cc:
         4b:88:af:a0
-----BEGIN CERTIFICATE-----
MIIDdDCCAlygAwIBAgIRAILMqaru+M9cajaGdmlhlnswDQYJKoZIhvcNAQELBQAw
FTETMBEGA1UEAwwKdGVhbTgzLW5ldDAeFw0yMzA4MTQxNDIzNTVaFw0yNjA3Mjkx
NDIzNTVaMBgxFjAUBgNVBAMMDXRlYW04My1zZXJ2ZXIwggEiMA0GCSqGSIb3DQEB
AQUAA4IBDwAwggEKAoIBAQCx8771pYX6IW2uZ/47YgUqL4jKh+IK9viwYoBFaA9Z
yypFPjGMtY8CkZQng2Mccyq3Lq8EXQBD8Yee6FX32GEOCRc/1TdJWNgiSwHVwE0U
u9XAE459kW9qEw0CDODWvcLvKMeN2sl+CE9wNuMkMvF7o2HQSDAXksSlg6eh7EOX
y9rznMdyror5mYNu7AuwlOvB7EOMtDOgqiRcvRTCieAFmRCIzhSTC9f+Xsgmm3Dl
edhjKm8kAyYTL513F07ykUdv9sHB/AILxLvSdwfGP7CKziRWgBDF1NpcRVPlePya
fhXcvUvhV+wbxkZKMUl994sHTXmKtlHoE4I8wzw+zy71AgMBAAGjgbswgbgwCQYD
VR0TBAIwADAdBgNVHQ4EFgQUvZCXCY88AlxIFydltZXYIJMzn6UwUAYDVR0jBEkw
R4AUceJoG/okUQEqkb7BtNwS0AZsLeWhGaQXMBUxEzARBgNVBAMMCnRlYW04My1u
ZXSCFF52C7EIIRpTDRw5m0UNWoF0Yc8nMBMGA1UdJQQMMAoGCCsGAQUFBwMBMAsG
A1UdDwQEAwIFoDAYBgNVHREEETAPgg10ZWFtODMtc2VydmVyMA0GCSqGSIb3DQEB
CwUAA4IBAQAaEFanuHpxvPlM4+drCLVNTysKTU3fHNxlteb6b5TsHOhjN/6QSWdU
5y7A9Fm3VWkCNp6sLnZHiPNnjt4sFTd1KNDxtSOTp5PG2+MPjuIYlYBLg2BnWCDo
k29qX+hWcsv43aitPeVE45ZfTkSFdpbJ+NbUF/hgjCR4hNXuR8O3udkKuw+KIcQB
VU69sxy/1YKGtYblwimRzamdLPJCNGJ/BlpcIvreSg998847DvYvnV3o6buKPbQy
AWXwbIIJmtn3ZUp80BDcLWQm+NRRI0FEfMaPegAvNUudxkOswaIKR4uew4QG81mm
PcMk/bT7FDNK8/SLKWf0ukPBP8xLiK+g
-----END CERTIFICATE-----
