Certificate:
    Data:
        Version: 3 (0x2)
        Serial Number:
            c5:8e:7e:39:96:f5:42:4b:dd:06:28:02:7d:fa:da:6a
        Signature Algorithm: sha256WithRSAEncryption
        Issuer: CN=team243-net
        Validity
            Not Before: Aug 14 14:27:11 2023 GMT
            Not After : Jul 29 14:27:11 2026 GMT
        Subject: CN=team243-client
        Subject Public Key Info:
            Public Key Algorithm: rsaEncryption
                RSA Public-Key: (2048 bit)
                Modulus:
                    00:bf:f6:db:f9:32:6b:10:3d:2b:e2:cd:d0:5a:b8:
                    0f:30:e5:57:f6:06:b7:a4:e1:5c:0f:ba:d0:0d:8a:
                    e6:0e:5a:4d:07:8b:c8:00:f7:b2:2e:b7:27:54:14:
                    8a:22:83:68:1f:a8:02:72:fa:79:9c:4a:d8:5a:d4:
                    8c:58:de:74:8c:5d:6f:43:08:28:d8:63:1a:96:1a:
                    06:3a:86:29:20:96:ab:12:25:ad:5f:15:61:8d:21:
                    a1:5e:b2:71:a2:70:b4:06:5a:a6:05:8a:a5:a0:16:
                    dd:cb:7e:a0:4e:e4:46:d7:21:2f:d8:e7:fa:5f:ee:
                    cf:45:85:e8:f0:72:9d:48:8e:d9:82:3f:1e:1c:f0:
                    05:82:e6:76:10:9e:20:fb:82:b7:bc:3f:26:b2:48:
                    9b:4a:7f:17:62:4a:81:2a:b0:90:51:b5:4a:e9:d6:
                    3c:ca:cc:e7:7a:60:fa:bd:19:c6:74:de:43:46:27:
                    ff:b7:c5:64:ad:9f:60:fb:ef:5a:83:ba:d0:b3:4a:
                    b9:2b:f9:60:4f:8c:01:56:66:30:f5:e1:01:cd:8c:
                    11:f9:c3:e3:bf:04:04:8e:ca:c7:af:c9:69:b7:f2:
                    bb:63:25:b3:5b:5a:b6:77:37:3d:ae:0a:b1:4a:43:
                    a7:f1:c7:03:8e:a6:57:f6:db:99:04:33:15:e4:52:
                    94:6f
                Exponent: 65537 (0x10001)
        X509v3 extensions:
            X509v3 Basic Constraints: 
                CA:FALSE
            X509v3 Subject Key Identifier: 
                55:8D:94:72:59:89:7D:74:31:F5:0C:99:01:4B:CB:35:9F:8E:B5:B3
            X509v3 Authority Key Identifier: 
                keyid:02:C7:80:B3:FC:3F:CA:99:D0:67:C3:33:C6:8B:7E:F1:01:6A:4F:9F
                DirName:/CN=team243-net
                serial:2C:13:A7:DB:60:AC:C2:F4:FF:BC:46:C2:36:29:06:8C:37:99:AB:57

            X509v3 Extended Key Usage: 
                TLS Web Client Authentication
            X509v3 Key Usage: 
                Digital Signature
    Signature Algorithm: sha256WithRSAEncryption
         b8:fa:ea:5f:b3:60:d6:f6:71:2b:d5:67:0f:71:31:82:88:9f:
         8f:dd:29:23:91:6c:18:d9:ac:d7:d1:9f:3e:28:9f:12:04:62:
         7f:b4:29:d3:1d:f8:a9:7b:a9:74:60:21:9d:d4:cc:6f:c8:49:
         72:4f:fe:a3:2e:f5:a3:00:9d:2e:7b:8e:17:70:ec:43:e0:29:
         88:14:5e:0d:21:3c:4e:8a:c3:60:a2:c5:b2:2c:56:41:52:4b:
         d8:06:7f:c3:3e:e4:a9:5b:89:84:79:b9:21:6b:61:ad:8a:80:
         82:a3:7f:91:ee:9e:53:be:d7:89:79:6d:1f:9e:42:8c:16:ed:
         75:f2:23:20:f0:95:e5:22:f6:38:49:eb:f8:1c:76:21:22:bf:
         b0:cb:03:87:2b:d5:d8:ba:a1:02:b6:4c:b2:79:b1:95:10:05:
         49:c0:04:78:10:9c:b5:ce:81:d1:e9:de:bd:90:56:23:83:3c:
         a4:bf:97:7d:12:bf:10:95:0e:74:cf:a8:b5:18:6b:fc:58:c0:
         3b:7b:41:c4:13:0d:a1:53:14:7d:1a:eb:e2:dc:4b:99:c4:da:
         59:ae:4e:60:ab:0d:8e:38:77:32:2c:ed:4d:9f:64:23:7e:8c:
         55:be:f8:9a:8a:8e:0a:84:c8:7f:11:eb:5f:ec:60:34:d6:1f:
         53:89:43:d1
-----BEGIN CERTIFICATE-----
MIIDXTCCAkWgAwIBAgIRAMWOfjmW9UJL3QYoAn362mowDQYJKoZIhvcNAQELBQAw
FjEUMBIGA1UEAwwLdGVhbTI0My1uZXQwHhcNMjMwODE0MTQyNzExWhcNMjYwNzI5
MTQyNzExWjAZMRcwFQYDVQQDDA50ZWFtMjQzLWNsaWVudDCCASIwDQYJKoZIhvcN
AQEBBQADggEPADCCAQoCggEBAL/22/kyaxA9K+LN0Fq4DzDlV/YGt6ThXA+60A2K
5g5aTQeLyAD3si63J1QUiiKDaB+oAnL6eZxK2FrUjFjedIxdb0MIKNhjGpYaBjqG
KSCWqxIlrV8VYY0hoV6ycaJwtAZapgWKpaAW3ct+oE7kRtchL9jn+l/uz0WF6PBy
nUiO2YI/HhzwBYLmdhCeIPuCt7w/JrJIm0p/F2JKgSqwkFG1SunWPMrM53pg+r0Z
xnTeQ0Yn/7fFZK2fYPvvWoO60LNKuSv5YE+MAVZmMPXhAc2MEfnD478EBI7Kx6/J
abfyu2Mls1tatnc3Pa4KsUpDp/HHA46mV/bbmQQzFeRSlG8CAwEAAaOBojCBnzAJ
BgNVHRMEAjAAMB0GA1UdDgQWBBRVjZRyWYl9dDH1DJkBS8s1n461szBRBgNVHSME
SjBIgBQCx4Cz/D/KmdBnwzPGi37xAWpPn6EapBgwFjEUMBIGA1UEAwwLdGVhbTI0
My1uZXSCFCwTp9tgrML0/7xGwjYpBow3matXMBMGA1UdJQQMMAoGCCsGAQUFBwMC
MAsGA1UdDwQEAwIHgDANBgkqhkiG9w0BAQsFAAOCAQEAuPrqX7Ng1vZxK9VnD3Ex
goifj90pI5FsGNms19GfPiifEgRif7Qp0x34qXupdGAhndTMb8hJck/+oy71owCd
LnuOF3DsQ+ApiBReDSE8TorDYKLFsixWQVJL2AZ/wz7kqVuJhHm5IWthrYqAgqN/
ke6eU77XiXltH55CjBbtdfIjIPCV5SL2OEnr+Bx2ISK/sMsDhyvV2LqhArZMsnmx
lRAFScAEeBCctc6B0enevZBWI4M8pL+XfRK/EJUOdM+otRhr/FjAO3tBxBMNoVMU
fRrr4txLmcTaWa5OYKsNjjh3MiztTZ9kI36MVb74moqOCoTIfxHrX+xgNNYfU4lD
0Q==
-----END CERTIFICATE-----
