Certificate:
    Data:
        Version: 3 (0x2)
        Serial Number:
            49:79:aa:18:07:bd:fb:1d:56:79:c1:7b:03:54:14:c1
        Signature Algorithm: sha256WithRSAEncryption
        Issuer: CN=team26-net
        Validity
            Not Before: Aug 14 14:22:34 2023 GMT
            Not After : Jul 29 14:22:34 2026 GMT
        Subject: CN=team26-server
        Subject Public Key Info:
            Public Key Algorithm: rsaEncryption
                RSA Public-Key: (2048 bit)
                Modulus:
                    00:c2:d6:07:c7:6e:66:98:42:5f:21:7f:e3:eb:a6:
                    b4:ea:be:31:d5:7e:d4:1b:ec:3d:91:4f:0a:3f:73:
                    38:31:9e:ab:99:8f:17:b6:3a:76:2c:3e:b6:d0:ff:
                    85:86:a2:13:6d:6c:07:76:b5:94:46:b1:e7:45:ac:
                    f5:1a:90:93:c2:93:8d:40:0d:8b:04:1d:ed:45:05:
                    16:2f:83:e4:db:61:0d:bb:a3:df:af:9a:be:f4:2c:
                    54:79:ff:b2:90:0a:ea:95:dc:cf:bd:9b:be:15:c1:
                    47:9b:ac:04:31:97:bd:c9:36:9e:75:0d:9c:5d:7e:
                    6b:d0:10:1a:9e:a8:e8:3c:c2:dc:38:07:93:28:40:
                    70:95:87:df:6e:7d:a1:e2:83:2c:3b:02:71:c1:ea:
                    2c:bd:bb:38:17:f3:1b:a5:a2:24:ca:0d:a3:02:b9:
                    96:fd:ae:c8:53:90:2e:99:60:df:32:46:67:2e:a4:
                    dd:22:fa:61:e9:a8:91:4d:a9:dd:2b:55:a1:55:90:
                    89:a6:1c:ee:e1:c5:55:1a:93:e6:a1:e9:a6:25:bc:
                    1a:4c:4c:3e:a1:fa:f2:81:bf:b7:db:26:95:6f:43:
                    71:b4:7d:95:b3:aa:18:97:5c:d3:d5:ef:95:ea:1a:
                    9b:45:6e:29:6c:74:b3:5f:cd:cc:aa:dd:70:b0:cf:
                    f6:ab
                Exponent: 65537 (0x10001)
        X509v3 extensions:
            X509v3 Basic Constraints: 
                CA:FALSE
            X509v3 Subject Key Identifier: 
                C3:C9:A2:4E:2E:00:1D:14:C4:8C:B5:8D:EE:10:5E:F3:C1:6B:1C:14
            X509v3 Authority Key Identifier: 
                keyid:A0:54:3A:87:6D:11:A3:0B:7A:27:21:F7:48:DB:B4:1F:2B:E8:DC:42
                DirName:/CN=team26-net
                serial:5B:4E:96:2B:AA:A3:41:61:A6:97:84:F6:9B:41:4E:57:E8:67:56:A9

            X509v3 Extended Key Usage: 
                TLS Web Server Authentication
            X509v3 Key Usage: 
                Digital Signature, Key Encipherment
            X509v3 Subject Alternative Name: 
                DNS:team26-server
    Signature Algorithm: sha256WithRSAEncryption
         40:3f:6c:f6:56:3a:ad:a0:ba:5e:e9:1c:d2:99:80:76:41:76:
         95:78:85:81:e9:43:f7:1e:f8:56:59:b8:5b:53:19:68:f8:b2:
         3d:e4:76:fd:f0:8e:68:86:ba:d6:70:61:f7:78:49:34:2b:c1:
         44:2a:ed:60:bc:f2:c0:e0:8f:a6:a5:d8:5b:68:cc:f4:c3:cd:
         46:37:93:ed:fc:dd:ba:14:d9:e8:fa:c8:ae:8f:7d:04:3c:ed:
         f4:4f:75:87:2e:33:80:c9:f2:08:b0:ca:4f:31:d0:52:c3:48:
         a0:de:8e:92:ef:0b:19:e4:cb:d3:02:14:91:03:89:ac:c9:9f:
         f4:14:a8:7b:6e:36:e8:03:b6:10:17:59:21:17:e5:88:a6:01:
         6c:b4:66:1b:46:b4:fe:bb:dc:d3:02:98:49:d1:d1:5e:d8:2b:
         38:2c:b7:1c:b7:96:6a:5c:e6:aa:f3:48:08:c7:3b:1e:0e:4f:
         ce:6f:ab:ef:d3:a2:81:4c:bc:b9:31:3b:0b:0c:0b:05:ac:8c:
         26:8d:16:cf:3c:f7:36:0b:6a:b1:94:0b:5c:55:15:d1:7c:da:
         29:b7:ef:a7:93:18:f4:bd:e1:1d:59:5c:21:21:cf:26:9d:2d:
         fb:3b:f1:34:d8:11:f8:2c:48:22:92:ae:7b:1c:39:67:33:cf:
         c8:fd:57:9b
-----BEGIN CERTIFICATE-----
MIIDczCCAlugAwIBAgIQSXmqGAe9+x1WecF7A1QUwTANBgkqhkiG9w0BAQsFADAV
MRMwEQYDVQQDDAp0ZWFtMjYtbmV0MB4XDTIzMDgxNDE0MjIzNFoXDTI2MDcyOTE0
MjIzNFowGDEWMBQGA1UEAwwNdGVhbTI2LXNlcnZlcjCCASIwDQYJKoZIhvcNAQEB
BQADggEPADCCAQoCggEBAMLWB8duZphCXyF/4+umtOq+MdV+1BvsPZFPCj9zODGe
q5mPF7Y6diw+ttD/hYaiE21sB3a1lEax50Ws9RqQk8KTjUANiwQd7UUFFi+D5Nth
Dbuj36+avvQsVHn/spAK6pXcz72bvhXBR5usBDGXvck2nnUNnF1+a9AQGp6o6DzC
3DgHkyhAcJWH3259oeKDLDsCccHqLL27OBfzG6WiJMoNowK5lv2uyFOQLplg3zJG
Zy6k3SL6YemokU2p3StVoVWQiaYc7uHFVRqT5qHppiW8GkxMPqH68oG/t9smlW9D
cbR9lbOqGJdc09Xvleoam0VuKWx0s1/NzKrdcLDP9qsCAwEAAaOBuzCBuDAJBgNV
HRMEAjAAMB0GA1UdDgQWBBTDyaJOLgAdFMSMtY3uEF7zwWscFDBQBgNVHSMESTBH
gBSgVDqHbRGjC3onIfdI27QfK+jcQqEZpBcwFTETMBEGA1UEAwwKdGVhbTI2LW5l
dIIUW06WK6qjQWGml4T2m0FOV+hnVqkwEwYDVR0lBAwwCgYIKwYBBQUHAwEwCwYD
VR0PBAQDAgWgMBgGA1UdEQQRMA+CDXRlYW0yNi1zZXJ2ZXIwDQYJKoZIhvcNAQEL
BQADggEBAEA/bPZWOq2gul7pHNKZgHZBdpV4hYHpQ/ce+FZZuFtTGWj4sj3kdv3w
jmiGutZwYfd4STQrwUQq7WC88sDgj6al2FtozPTDzUY3k+383boU2ej6yK6PfQQ8
7fRPdYcuM4DJ8giwyk8x0FLDSKDejpLvCxnky9MCFJEDiazJn/QUqHtuNugDthAX
WSEX5YimAWy0ZhtGtP673NMCmEnR0V7YKzgstxy3lmpc5qrzSAjHOx4OT85vq+/T
ooFMvLkxOwsMCwWsjCaNFs889zYLarGUC1xVFdF82im376eTGPS94R1ZXCEhzyad
Lfs78TTYEfgsSCKSrnscOWczz8j9V5s=
-----END CERTIFICATE-----
