Certificate:
    Data:
        Version: 3 (0x2)
        Serial Number:
            b8:8a:ed:c4:c1:cd:ad:cd:c4:38:3e:e6:6d:bd:2c:fa
        Signature Algorithm: sha256WithRSAEncryption
        Issuer: CN=team26-net
        Validity
            Not Before: Aug 14 14:22:34 2023 GMT
            Not After : Jul 29 14:22:34 2026 GMT
        Subject: CN=team26-client
        Subject Public Key Info:
            Public Key Algorithm: rsaEncryption
                RSA Public-Key: (2048 bit)
                Modulus:
                    00:bd:bc:b0:9e:5d:66:d8:13:ae:54:40:c6:0a:2b:
                    fa:8f:9a:03:54:d6:df:29:08:3e:82:a2:73:9f:77:
                    d4:99:69:46:eb:a6:48:81:a1:b2:3d:2e:a8:07:7a:
                    74:49:33:2e:4e:e0:f2:f0:a2:53:71:32:65:b8:13:
                    b7:3a:d3:c5:ff:4a:1f:b4:77:a0:79:4d:7a:5a:3b:
                    3a:ba:06:d0:d1:06:b0:6b:8c:63:0e:57:6d:0e:82:
                    bf:00:74:8d:5a:61:88:b7:f7:16:c4:72:43:37:c7:
                    22:6b:a5:f2:50:c2:8a:65:65:77:72:6a:ac:47:22:
                    0b:6a:37:46:86:cf:d6:c4:91:00:3d:fe:5c:cb:4e:
                    2f:44:ca:4f:2e:14:3b:f4:71:fb:a4:05:6f:54:f3:
                    a8:46:8f:d5:3a:38:a2:fb:32:7b:6f:b8:41:70:90:
                    40:ea:0e:7f:a3:af:f8:38:d7:92:8f:ff:e7:ac:04:
                    e2:7e:1a:7a:93:a8:6c:4f:0d:a0:70:c7:49:3f:9b:
                    ab:97:60:94:ab:01:1d:dc:a8:c6:9f:84:31:b6:86:
                    69:3d:65:08:8a:2a:a7:f4:0e:e7:8d:e6:87:80:08:
                    e5:12:65:51:94:db:58:40:e0:56:45:be:11:07:0a:
                    bf:90:89:d3:f0:57:c6:e8:56:9e:d0:29:74:40:e4:
                    35:f7
                Exponent: 65537 (0x10001)
        X509v3 extensions:
            X509v3 Basic Constraints: 
                CA:FALSE
            X509v3 Subject Key Identifier: 
                23:01:EF:5D:20:B7:43:8A:CC:F5:17:AD:5F:30:15:03:50:3E:49:F0
            X509v3 Authority Key Identifier: 
                keyid:A0:54:3A:87:6D:11:A3:0B:7A:27:21:F7:48:DB:B4:1F:2B:E8:DC:42
                DirName:/CN=team26-net
                serial:5B:4E:96:2B:AA:A3:41:61:A6:97:84:F6:9B:41:4E:57:E8:67:56:A9

            X509v3 Extended Key Usage: 
                TLS Web Client Authentication
            X509v3 Key Usage: 
                Digital Signature
    Signature Algorithm: sha256WithRSAEncryption
         0e:bf:ca:60:23:06:f2:63:e6:17:78:5a:05:83:6f:f2:0c:e5:
         5f:0c:f6:01:00:ad:40:ec:be:b8:35:aa:33:5d:0f:c0:7c:d8:
         6f:a3:6d:6c:36:40:85:8a:8d:01:ca:a4:7f:8f:ee:69:30:ef:
         7e:3f:2b:8e:26:02:c5:2e:19:5c:8d:72:e4:1a:d3:e2:0d:0e:
         52:a7:c8:02:a5:11:7f:9f:7e:61:72:e9:ce:0d:86:6f:24:fd:
         be:dd:3c:e3:93:9b:39:fb:a6:20:ac:60:e0:85:be:d1:c1:1a:
         e4:70:72:ff:e3:0e:6b:a9:76:2e:d5:37:c9:b9:22:6e:53:d3:
         17:86:de:cf:2b:08:1b:7b:8e:6f:db:3e:78:c1:bf:aa:ff:23:
         97:54:93:b9:c2:64:61:11:c2:58:68:03:fb:83:ac:74:5a:b6:
         51:3f:a4:54:3c:9f:de:3e:f5:ce:09:2e:33:23:58:03:07:c0:
         d1:3d:9b:4a:e4:0d:ca:bb:e3:32:08:66:51:c2:02:2d:12:5d:
         b1:88:c0:6b:7a:29:93:7d:c4:fe:06:0f:9c:7d:9e:85:62:19:
         e1:90:4b:cd:18:0a:49:c9:a2:d9:ad:1f:24:d8:10:60:5d:35:
         f5:4c:ae:18:76:3d:2f:8f:39:c7:bd:df:7b:33:1d:22:ad:0d:
         1d:1a:62:5a
-----BEGIN CERTIFICATE-----
MIIDWjCCAkKgAwIBAgIRALiK7cTBza3NxDg+5m29LPowDQYJKoZIhvcNAQELBQAw
FTETMBEGA1UEAwwKdGVhbTI2LW5ldDAeFw0yMzA4MTQxNDIyMzRaFw0yNjA3Mjkx
NDIyMzRaMBgxFjAUBgNVBAMMDXRlYW0yNi1jbGllbnQwggEiMA0GCSqGSIb3DQEB
AQUAA4IBDwAwggEKAoIBAQC9vLCeXWbYE65UQMYKK/qPmgNU1t8pCD6ConOfd9SZ
aUbrpkiBobI9LqgHenRJMy5O4PLwolNxMmW4E7c608X/Sh+0d6B5TXpaOzq6BtDR
BrBrjGMOV20Ogr8AdI1aYYi39xbEckM3xyJrpfJQwoplZXdyaqxHIgtqN0aGz9bE
kQA9/lzLTi9Eyk8uFDv0cfukBW9U86hGj9U6OKL7MntvuEFwkEDqDn+jr/g415KP
/+esBOJ+GnqTqGxPDaBwx0k/m6uXYJSrAR3cqMafhDG2hmk9ZQiKKqf0DueN5oeA
COUSZVGU21hA4FZFvhEHCr+QidPwV8boVp7QKXRA5DX3AgMBAAGjgaEwgZ4wCQYD
VR0TBAIwADAdBgNVHQ4EFgQUIwHvXSC3Q4rM9RetXzAVA1A+SfAwUAYDVR0jBEkw
R4AUoFQ6h20Rowt6JyH3SNu0Hyvo3EKhGaQXMBUxEzARBgNVBAMMCnRlYW0yNi1u
ZXSCFFtOliuqo0FhppeE9ptBTlfoZ1apMBMGA1UdJQQMMAoGCCsGAQUFBwMCMAsG
A1UdDwQEAwIHgDANBgkqhkiG9w0BAQsFAAOCAQEADr/KYCMG8mPmF3haBYNv8gzl
Xwz2AQCtQOy+uDWqM10PwHzYb6NtbDZAhYqNAcqkf4/uaTDvfj8rjiYCxS4ZXI1y
5BrT4g0OUqfIAqURf59+YXLpzg2GbyT9vt0845ObOfumIKxg4IW+0cEa5HBy/+MO
a6l2LtU3ybkiblPTF4bezysIG3uOb9s+eMG/qv8jl1STucJkYRHCWGgD+4OsdFq2
UT+kVDyf3j71zgkuMyNYAwfA0T2bSuQNyrvjMghmUcICLRJdsYjAa3opk33E/gYP
nH2ehWIZ4ZBLzRgKScmi2a0fJNgQYF019UyuGHY9L485x73fezMdIq0NHRpiWg==
-----END CERTIFICATE-----
