Certificate:
    Data:
        Version: 3 (0x2)
        Serial Number:
            2d:79:8e:11:dd:b1:9d:70:d6:d5:c1:54:1b:8a:c3:0e
        Signature Algorithm: sha256WithRSAEncryption
        Issuer: CN=team44-net
        Validity
            Not Before: Aug 14 14:23:04 2023 GMT
            Not After : Jul 29 14:23:04 2026 GMT
        Subject: CN=team44-client
        Subject Public Key Info:
            Public Key Algorithm: rsaEncryption
                RSA Public-Key: (2048 bit)
                Modulus:
                    00:fe:6c:c1:b3:b7:9c:df:e6:77:1e:7a:b5:28:48:
                    2d:46:5f:7b:a9:cd:58:00:86:23:24:45:f2:c1:75:
                    70:1f:8d:ee:1f:60:e7:39:6a:23:92:0c:2b:9b:5c:
                    ad:5b:4f:6c:2b:fe:c9:ee:98:46:e9:d1:6d:23:76:
                    c2:11:70:60:f3:e0:1a:e3:54:1c:9b:c8:43:81:d3:
                    cb:3e:d0:f3:9a:c7:bd:05:be:f1:29:55:30:55:a3:
                    85:1a:7f:12:fc:3d:f0:fc:3f:24:a7:09:25:be:d8:
                    05:24:37:d3:fe:77:81:ee:84:ee:a0:04:0a:dd:a2:
                    27:97:99:ea:fa:56:99:2a:4c:60:84:d8:da:ec:28:
                    6f:fa:d8:06:a9:03:d6:11:28:43:0f:02:83:cd:00:
                    24:ba:89:98:52:11:11:7d:39:ac:8d:00:2e:44:9d:
                    bb:62:74:9f:a2:5f:cf:50:78:95:49:39:c9:21:25:
                    00:84:3e:bc:78:17:95:9f:c9:b5:1e:b0:35:b8:f9:
                    96:62:cb:66:7b:7c:49:e7:91:af:9e:34:32:65:2e:
                    01:a6:44:3a:9c:3d:8f:ce:49:4a:1d:04:85:76:4b:
                    7d:d1:e5:da:27:88:1c:c8:a0:18:b9:dc:1c:0d:42:
                    7c:ac:b0:a3:0e:c4:2a:f0:8c:49:0c:03:8a:5e:27:
                    41:ed
                Exponent: 65537 (0x10001)
        X509v3 extensions:
            X509v3 Basic Constraints: 
                CA:FALSE
            X509v3 Subject Key Identifier: 
                42:02:6A:1B:05:27:3B:F6:C8:D6:D6:DB:8A:A1:17:9E:AB:E9:6B:E1
            X509v3 Authority Key Identifier: 
                keyid:6F:8F:08:E1:0C:FB:C4:6C:C6:E5:F8:E6:5A:7E:2C:5F:71:63:EB:10
                DirName:/CN=team44-net
                serial:5D:82:F7:3D:3E:42:34:9B:24:F3:BE:1C:46:B3:A0:ED:AD:23:4A:98

            X509v3 Extended Key Usage: 
                TLS Web Client Authentication
            X509v3 Key Usage: 
                Digital Signature
    Signature Algorithm: sha256WithRSAEncryption
         70:28:83:31:2f:2a:1d:b2:8c:f3:c4:26:e8:90:ba:9c:1c:fe:
         fa:28:29:17:ba:14:a2:ec:bd:2b:3d:a1:17:bd:87:30:2d:b9:
         77:9f:6e:e0:f5:30:14:79:58:18:7e:f9:3b:cb:85:ca:22:d0:
         2b:fc:ab:41:c3:45:ae:86:e0:0d:25:82:12:7f:70:e7:08:4a:
         60:72:a2:30:c6:b2:d3:3f:6f:dd:b7:5e:b8:63:6d:3b:38:5a:
         54:0d:9b:63:d7:98:07:69:87:6c:40:e6:cf:3f:96:ce:74:5e:
         e0:9d:7c:ab:6d:c1:82:50:fc:66:d4:46:cb:3b:9e:14:1b:e5:
         17:28:9d:88:a9:9e:64:66:9d:3f:9c:61:72:b8:7d:98:2c:d0:
         a9:9c:1b:c2:83:50:fb:f3:9e:a4:7d:08:bf:31:a4:d8:45:28:
         6f:d9:59:7c:18:5e:11:99:40:3e:02:f5:89:f4:76:96:96:ec:
         4c:85:34:11:df:0c:e2:a3:9f:01:a3:b6:65:22:6a:47:59:30:
         f5:49:03:c8:b7:db:96:85:cf:3b:be:8e:b1:5a:14:01:77:2d:
         6a:08:1e:16:26:15:29:75:5d:b5:28:07:9a:2b:c1:bd:a9:8b:
         95:01:2c:d9:94:71:04:bf:57:41:8c:ba:70:b2:50:da:21:9c:
         ec:41:34:8b
-----BEGIN CERTIFICATE-----
MIIDWTCCAkGgAwIBAgIQLXmOEd2xnXDW1cFUG4rDDjANBgkqhkiG9w0BAQsFADAV
MRMwEQYDVQQDDAp0ZWFtNDQtbmV0MB4XDTIzMDgxNDE0MjMwNFoXDTI2MDcyOTE0
MjMwNFowGDEWMBQGA1UEAwwNdGVhbTQ0LWNsaWVudDCCASIwDQYJKoZIhvcNAQEB
BQADggEPADCCAQoCggEBAP5swbO3nN/mdx56tShILUZfe6nNWACGIyRF8sF1cB+N
7h9g5zlqI5IMK5tcrVtPbCv+ye6YRunRbSN2whFwYPPgGuNUHJvIQ4HTyz7Q85rH
vQW+8SlVMFWjhRp/Evw98Pw/JKcJJb7YBSQ30/53ge6E7qAECt2iJ5eZ6vpWmSpM
YITY2uwob/rYBqkD1hEoQw8Cg80AJLqJmFIREX05rI0ALkSdu2J0n6Jfz1B4lUk5
ySElAIQ+vHgXlZ/JtR6wNbj5lmLLZnt8SeeRr540MmUuAaZEOpw9j85JSh0EhXZL
fdHl2ieIHMigGLncHA1CfKywow7EKvCMSQwDil4nQe0CAwEAAaOBoTCBnjAJBgNV
HRMEAjAAMB0GA1UdDgQWBBRCAmobBSc79sjW1tuKoReeq+lr4TBQBgNVHSMESTBH
gBRvjwjhDPvEbMbl+OZafixfcWPrEKEZpBcwFTETMBEGA1UEAwwKdGVhbTQ0LW5l
dIIUXYL3PT5CNJsk874cRrOg7a0jSpgwEwYDVR0lBAwwCgYIKwYBBQUHAwIwCwYD
VR0PBAQDAgeAMA0GCSqGSIb3DQEBCwUAA4IBAQBwKIMxLyodsozzxCbokLqcHP76
KCkXuhSi7L0rPaEXvYcwLbl3n27g9TAUeVgYfvk7y4XKItAr/KtBw0WuhuANJYIS
f3DnCEpgcqIwxrLTP2/dt164Y207OFpUDZtj15gHaYdsQObPP5bOdF7gnXyrbcGC
UPxm1EbLO54UG+UXKJ2IqZ5kZp0/nGFyuH2YLNCpnBvCg1D7856kfQi/MaTYRShv
2Vl8GF4RmUA+AvWJ9HaWluxMhTQR3wzio58Bo7ZlImpHWTD1SQPIt9uWhc87vo6x
WhQBdy1qCB4WJhUpdV21KAeaK8G9qYuVASzZlHEEv1dBjLpwslDaIZzsQTSL
-----END CERTIFICATE-----
