Certificate:
    Data:
        Version: 3 (0x2)
        Serial Number:
            5c:49:ba:51:cc:fd:b2:88:07:c3:11:d8:e1:21:d9:d0
        Signature Algorithm: sha256WithRSAEncryption
        Issuer: CN=team265-net
        Validity
            Not Before: Aug 14 14:27:40 2023 GMT
            Not After : Jul 29 14:27:40 2026 GMT
        Subject: CN=team265-server
        Subject Public Key Info:
            Public Key Algorithm: rsaEncryption
                RSA Public-Key: (2048 bit)
                Modulus:
                    00:b2:de:47:12:b5:3b:87:3c:b0:bd:35:58:00:2f:
                    67:6e:08:9f:ea:f7:bb:da:73:7a:2c:c2:9b:5a:88:
                    52:5d:8a:36:ed:b5:69:e3:42:4d:bb:1a:ff:4e:91:
                    0b:0a:67:6f:ef:1e:e4:1f:a6:30:3a:29:3e:e6:fa:
                    e4:e4:3f:e4:47:42:df:9f:2e:79:78:46:cc:5b:9e:
                    0a:7f:ba:23:cd:f3:7a:2e:59:fc:10:21:f8:8c:e4:
                    64:93:66:f3:d8:18:dc:c9:c5:20:07:61:40:c2:39:
                    88:b2:d8:1a:5b:84:b4:a5:6c:e9:3c:63:5f:5d:5e:
                    42:5d:d6:cd:42:80:9e:d6:73:d6:b0:b2:46:2a:64:
                    b5:77:01:f0:15:a2:89:01:ec:df:98:9b:6c:44:a4:
                    69:22:c6:60:33:ca:b1:3a:b7:cf:71:73:e0:60:c1:
                    e1:37:4f:6e:5b:ce:e9:83:07:61:aa:23:28:3b:5e:
                    dc:c3:97:79:6a:f1:23:f8:41:0b:42:28:7a:0e:3a:
                    da:76:e2:32:97:fe:73:4f:9a:5f:7a:d6:5f:4a:7e:
                    b4:77:64:82:0b:cf:81:00:17:27:d1:8d:01:e6:9f:
                    11:f3:f1:71:99:78:c5:4e:02:4d:f6:49:19:13:ee:
                    9a:08:aa:b2:1b:af:f6:31:ab:36:e7:a2:53:5d:d8:
                    b4:29
                Exponent: 65537 (0x10001)
        X509v3 extensions:
            X509v3 Basic Constraints: 
                CA:FALSE
            X509v3 Subject Key Identifier: 
                FF:48:C6:D0:BC:0A:1F:AA:5C:8F:3D:42:DB:05:C5:9C:DC:B2:49:2F
            X509v3 Authority Key Identifier: 
                keyid:E4:FE:42:89:4C:D2:AF:1F:15:15:92:3A:D8:60:A1:9E:9D:26:E1:E5
                DirName:/CN=team265-net
                serial:3A:3C:C4:B8:63:9C:27:AF:78:94:C6:90:6C:12:2F:4C:C0:EC:77:0F

            X509v3 Extended Key Usage: 
                TLS Web Server Authentication
            X509v3 Key Usage: 
                Digital Signature, Key Encipherment
            X509v3 Subject Alternative Name: 
                DNS:team265-server
    Signature Algorithm: sha256WithRSAEncryption
         4a:f6:b6:86:87:4f:26:16:be:95:70:82:1e:00:9a:f0:4d:d1:
         c1:8c:d4:98:8a:1d:83:ab:12:aa:e1:56:13:18:f6:a5:7f:06:
         0c:b9:9f:0d:ce:5b:87:4f:af:4c:4e:a0:68:a2:fc:f1:46:a4:
         5c:80:82:8e:e0:aa:17:84:83:60:e0:a2:40:ff:1e:26:86:86:
         09:40:7c:af:37:d6:34:a8:e5:fd:75:dd:b9:4a:44:06:6a:60:
         6f:ca:8c:5c:9d:64:53:df:ae:fc:bd:19:71:d9:10:70:2b:b3:
         ac:31:a2:9f:40:ea:c7:71:d5:25:89:c5:a7:f9:35:1a:41:ad:
         c0:30:7a:0a:0f:7e:90:73:d6:6a:d0:0d:31:c9:54:a1:01:ff:
         0a:f8:08:f8:2b:71:1e:3d:37:6c:dd:41:4b:9f:0f:29:69:e1:
         81:3b:1b:31:60:1e:d6:6c:1e:53:aa:02:b4:0b:34:1a:e6:e0:
         24:3b:05:39:df:2a:ba:09:11:90:8b:a7:a7:6c:2e:3b:cb:d5:
         47:e7:78:ea:10:64:6c:ab:2a:22:7f:f9:17:86:c2:e1:03:00:
         c6:21:30:ff:7e:48:2e:ad:2e:6d:72:f5:cb:05:28:a3:18:e5:
         75:4b:d0:18:35:fa:46:aa:cb:c7:85:ae:78:5e:cc:44:1a:75:
         52:59:5b:49
-----BEGIN CERTIFICATE-----
MIIDdzCCAl+gAwIBAgIQXEm6Ucz9sogHwxHY4SHZ0DANBgkqhkiG9w0BAQsFADAW
MRQwEgYDVQQDDAt0ZWFtMjY1LW5ldDAeFw0yMzA4MTQxNDI3NDBaFw0yNjA3Mjkx
NDI3NDBaMBkxFzAVBgNVBAMMDnRlYW0yNjUtc2VydmVyMIIBIjANBgkqhkiG9w0B
AQEFAAOCAQ8AMIIBCgKCAQEAst5HErU7hzywvTVYAC9nbgif6ve72nN6LMKbWohS
XYo27bVp40JNuxr/TpELCmdv7x7kH6YwOik+5vrk5D/kR0Lfny55eEbMW54Kf7oj
zfN6Lln8ECH4jORkk2bz2BjcycUgB2FAwjmIstgaW4S0pWzpPGNfXV5CXdbNQoCe
1nPWsLJGKmS1dwHwFaKJAezfmJtsRKRpIsZgM8qxOrfPcXPgYMHhN09uW87pgwdh
qiMoO17cw5d5avEj+EELQih6DjraduIyl/5zT5pfetZfSn60d2SCC8+BABcn0Y0B
5p8R8/FxmXjFTgJN9kkZE+6aCKqyG6/2Mas256JTXdi0KQIDAQABo4G9MIG6MAkG
A1UdEwQCMAAwHQYDVR0OBBYEFP9IxtC8Ch+qXI89QtsFxZzcskkvMFEGA1UdIwRK
MEiAFOT+QolM0q8fFRWSOthgoZ6dJuHloRqkGDAWMRQwEgYDVQQDDAt0ZWFtMjY1
LW5ldIIUOjzEuGOcJ694lMaQbBIvTMDsdw8wEwYDVR0lBAwwCgYIKwYBBQUHAwEw
CwYDVR0PBAQDAgWgMBkGA1UdEQQSMBCCDnRlYW0yNjUtc2VydmVyMA0GCSqGSIb3
DQEBCwUAA4IBAQBK9raGh08mFr6VcIIeAJrwTdHBjNSYih2DqxKq4VYTGPalfwYM
uZ8NzluHT69MTqBoovzxRqRcgIKO4KoXhINg4KJA/x4mhoYJQHyvN9Y0qOX9dd25
SkQGamBvyoxcnWRT3678vRlx2RBwK7OsMaKfQOrHcdUlicWn+TUaQa3AMHoKD36Q
c9Zq0A0xyVShAf8K+Aj4K3EePTds3UFLnw8paeGBOxsxYB7WbB5TqgK0CzQa5uAk
OwU53yq6CRGQi6enbC47y9VH53jqEGRsqyoif/kXhsLhAwDGITD/fkgurS5tcvXL
BSijGOV1S9AYNfpGqsvHha54XsxEGnVSWVtJ
-----END CERTIFICATE-----
