Certificate:
    Data:
        Version: 3 (0x2)
        Serial Number:
            e3:bf:2b:9c:07:c9:72:d4:2c:73:86:ae:96:1e:48:1c
        Signature Algorithm: sha256WithRSAEncryption
        Issuer: CN=team116-net
        Validity
            Not Before: Aug 14 14:24:39 2023 GMT
            Not After : Jul 29 14:24:39 2026 GMT
        Subject: CN=team116-client
        Subject Public Key Info:
            Public Key Algorithm: rsaEncryption
                RSA Public-Key: (2048 bit)
                Modulus:
                    00:d1:49:3b:64:b5:5d:b8:e9:cc:fd:fe:57:74:64:
                    9f:7b:15:d0:41:6a:4d:3a:08:44:77:08:b5:59:0b:
                    ad:0f:6f:65:81:a6:67:e1:f5:76:f9:a9:30:73:66:
                    3d:09:1a:f6:63:1d:c9:2c:f1:04:6c:97:97:e8:88:
                    e0:f6:ff:65:51:45:77:18:86:83:73:2d:96:2f:f0:
                    2c:2a:f7:6e:1d:f4:53:1f:a5:dd:81:69:0b:e5:eb:
                    7c:09:e9:16:a5:6f:7b:48:d0:5b:38:ab:0f:79:04:
                    a2:d4:48:19:96:cd:5c:af:ee:6e:0c:67:06:15:cd:
                    24:20:ca:16:bc:a5:85:3c:8f:23:75:23:37:2f:74:
                    11:8a:81:cb:44:a9:70:9b:3c:d6:56:67:19:a4:43:
                    2b:2d:b4:fa:05:65:be:a4:45:8a:a6:76:03:63:98:
                    88:ee:8f:d8:d4:55:33:51:99:14:54:ea:d6:81:d4:
                    4b:fb:eb:e4:4f:70:d8:d7:3c:6d:47:ef:df:b5:29:
                    33:52:a3:2e:84:75:59:83:97:e8:e7:63:67:f0:10:
                    2e:ff:34:17:2f:39:36:3c:10:59:36:f8:d0:28:91:
                    4b:5a:0a:8f:e1:75:ee:6a:70:1c:b1:bd:01:ea:67:
                    5e:8c:41:06:1b:18:7d:8f:1c:e0:3f:23:61:99:04:
                    85:e3
                Exponent: 65537 (0x10001)
        X509v3 extensions:
            X509v3 Basic Constraints: 
                CA:FALSE
            X509v3 Subject Key Identifier: 
                D4:88:F0:15:50:10:33:05:1C:F6:EB:EB:BD:18:01:69:C7:9A:50:BF
            X509v3 Authority Key Identifier: 
                keyid:87:08:12:C1:37:6B:F0:D5:B2:93:57:B9:79:5A:FA:F4:F9:CB:C9:89
                DirName:/CN=team116-net
                serial:20:9F:A9:18:22:4A:33:77:68:B3:BD:3A:36:44:1F:00:82:44:1A:68

            X509v3 Extended Key Usage: 
                TLS Web Client Authentication
            X509v3 Key Usage: 
                Digital Signature
    Signature Algorithm: sha256WithRSAEncryption
         08:96:f7:4e:c5:5b:c0:49:4b:65:d3:67:06:7a:11:e6:7d:5c:
         81:9d:fc:ef:c3:b6:bd:1b:58:de:eb:f4:84:f1:87:d4:38:7e:
         91:d4:56:9b:d9:4a:d2:1a:76:f7:30:ad:5c:04:16:d6:2c:f6:
         e0:bd:b4:6e:0a:c4:f9:c0:87:bd:68:f3:2c:9a:1c:39:13:08:
         3a:39:69:31:d2:ab:6c:26:ff:64:91:73:7d:97:30:11:7a:b2:
         be:50:c1:96:2e:af:b9:cb:dd:f4:ab:ef:ae:dc:8c:f3:f5:e4:
         10:55:d1:53:a3:de:a4:dd:52:32:b5:3e:0c:e0:ed:19:af:76:
         3b:74:9f:38:c0:ff:ba:55:5b:da:e3:94:cc:ed:57:89:e2:96:
         c5:82:88:59:50:2a:6b:64:d6:13:ea:5c:a8:9b:b1:2a:ec:b6:
         b8:2c:ec:f5:ce:ca:6c:f6:19:79:c7:24:4a:76:ce:c0:a3:e7:
         34:19:25:69:5c:09:8b:5c:68:bb:d3:90:61:3c:0e:fa:04:75:
         46:35:2a:50:06:87:8a:8a:2e:38:1e:a3:7d:1d:25:86:16:8c:
         12:2a:11:3e:10:4d:d6:c7:5e:35:94:73:a7:ee:de:c0:d9:ce:
         ca:ac:6d:03:d3:c6:68:7c:10:33:ec:1d:ab:1f:ec:d9:81:e4:
         04:ba:2e:24
-----BEGIN CERTIFICATE-----
MIIDXTCCAkWgAwIBAgIRAOO/K5wHyXLULHOGrpYeSBwwDQYJKoZIhvcNAQELBQAw
FjEUMBIGA1UEAwwLdGVhbTExNi1uZXQwHhcNMjMwODE0MTQyNDM5WhcNMjYwNzI5
MTQyNDM5WjAZMRcwFQYDVQQDDA50ZWFtMTE2LWNsaWVudDCCASIwDQYJKoZIhvcN
AQEBBQADggEPADCCAQoCggEBANFJO2S1XbjpzP3+V3Rkn3sV0EFqTToIRHcItVkL
rQ9vZYGmZ+H1dvmpMHNmPQka9mMdySzxBGyXl+iI4Pb/ZVFFdxiGg3Mtli/wLCr3
bh30Ux+l3YFpC+XrfAnpFqVve0jQWzirD3kEotRIGZbNXK/ubgxnBhXNJCDKFryl
hTyPI3UjNy90EYqBy0SpcJs81lZnGaRDKy20+gVlvqRFiqZ2A2OYiO6P2NRVM1GZ
FFTq1oHUS/vr5E9w2Nc8bUfv37UpM1KjLoR1WYOX6OdjZ/AQLv80Fy85NjwQWTb4
0CiRS1oKj+F17mpwHLG9AepnXoxBBhsYfY8c4D8jYZkEheMCAwEAAaOBojCBnzAJ
BgNVHRMEAjAAMB0GA1UdDgQWBBTUiPAVUBAzBRz26+u9GAFpx5pQvzBRBgNVHSME
SjBIgBSHCBLBN2vw1bKTV7l5Wvr0+cvJiaEapBgwFjEUMBIGA1UEAwwLdGVhbTEx
Ni1uZXSCFCCfqRgiSjN3aLO9OjZEHwCCRBpoMBMGA1UdJQQMMAoGCCsGAQUFBwMC
MAsGA1UdDwQEAwIHgDANBgkqhkiG9w0BAQsFAAOCAQEACJb3TsVbwElLZdNnBnoR
5n1cgZ3878O2vRtY3uv0hPGH1Dh+kdRWm9lK0hp29zCtXAQW1iz24L20bgrE+cCH
vWjzLJocORMIOjlpMdKrbCb/ZJFzfZcwEXqyvlDBli6vucvd9KvvrtyM8/XkEFXR
U6PepN1SMrU+DODtGa92O3SfOMD/ulVb2uOUzO1XieKWxYKIWVAqa2TWE+pcqJux
Kuy2uCzs9c7KbPYZecckSnbOwKPnNBklaVwJi1xou9OQYTwO+gR1RjUqUAaHioou
OB6jfR0lhhaMEioRPhBN1sdeNZRzp+7ewNnOyqxtA9PGaHwQM+wdqx/s2YHkBLou
JA==
-----END CERTIFICATE-----
