Certificate:
    Data:
        Version: 3 (0x2)
        Serial Number:
            0a:60:c7:bd:a7:ec:ef:77:88:26:2b:8e:2f:65:c5:d3
        Signature Algorithm: sha256WithRSAEncryption
        Issuer: CN=team190-net
        Validity
            Not Before: Aug 14 14:26:09 2023 GMT
            Not After : Jul 29 14:26:09 2026 GMT
        Subject: CN=team190-client
        Subject Public Key Info:
            Public Key Algorithm: rsaEncryption
                RSA Public-Key: (2048 bit)
                Modulus:
                    00:b5:6a:17:d0:7f:ef:62:f0:98:7e:88:64:c6:a9:
                    c7:05:5e:c4:74:14:c4:d5:7a:f1:9d:0a:44:2c:d0:
                    74:12:ae:ab:21:0e:a7:02:96:d4:7f:2d:ee:3f:9a:
                    55:a8:53:1f:c5:70:6c:9b:93:07:d1:16:54:77:fd:
                    35:75:27:95:1f:a1:de:a6:ae:a8:b5:68:6c:8d:6b:
                    7e:b1:45:9d:3b:24:a7:34:df:73:ce:6a:69:11:df:
                    6a:9e:e3:9c:d9:f3:84:19:d6:f5:73:55:a0:d4:86:
                    d8:1b:72:e1:53:42:4e:9f:ad:33:46:bd:73:5d:59:
                    49:db:05:87:a5:04:9d:bf:cb:17:46:aa:3d:b3:f9:
                    6f:06:65:32:46:6f:d8:9e:89:4e:8b:fa:5e:25:00:
                    3e:ab:21:f9:27:1b:a4:ec:68:1f:f4:a4:cb:89:34:
                    93:67:dd:9a:76:9a:40:5f:58:5c:bf:6a:ab:bf:9e:
                    aa:23:1b:35:b9:11:ac:02:e2:47:2a:cd:45:2c:71:
                    f2:2a:70:c2:6a:d3:b7:e3:de:69:4f:43:32:19:28:
                    74:e4:d5:ce:e9:77:c6:bf:6e:ac:db:be:41:a2:56:
                    24:f1:b0:52:5d:85:48:36:13:51:6f:8a:13:a9:ed:
                    6c:3d:6f:5f:fb:67:3e:e4:7a:e9:ca:b7:c2:29:80:
                    4c:af
                Exponent: 65537 (0x10001)
        X509v3 extensions:
            X509v3 Basic Constraints: 
                CA:FALSE
            X509v3 Subject Key Identifier: 
                EC:31:C8:7F:C4:7A:D8:E4:D4:5A:68:67:36:24:A7:3C:62:9E:BC:2E
            X509v3 Authority Key Identifier: 
                keyid:4E:0B:01:DF:37:83:F4:93:BA:55:DF:C3:7C:3E:5D:31:CE:CD:97:8D
                DirName:/CN=team190-net
                serial:56:AD:DB:88:CE:3D:99:09:08:4C:C1:CF:A5:B0:9C:B5:24:38:1A:44

            X509v3 Extended Key Usage: 
                TLS Web Client Authentication
            X509v3 Key Usage: 
                Digital Signature
    Signature Algorithm: sha256WithRSAEncryption
         64:28:87:fb:b0:0f:4d:3c:79:0d:e1:f2:7f:c9:d1:ea:b8:a8:
         6e:07:fd:2c:0c:43:a7:a9:dd:4d:d0:94:46:11:70:9c:0f:33:
         e9:a0:69:a8:da:59:c0:97:93:7b:1b:81:91:a5:ff:ce:3b:c2:
         54:69:99:88:c7:27:37:b8:e4:07:dc:37:d5:fd:33:8e:a5:38:
         2b:4d:94:c0:f7:2c:88:c4:44:95:ef:6c:46:f8:30:99:3b:23:
         69:61:a1:45:40:8b:59:51:21:65:32:29:6f:46:b8:4c:84:18:
         c4:18:75:b5:c9:0a:92:da:88:9c:c5:3a:9c:ce:22:86:75:d1:
         41:fa:c6:f1:4c:92:e6:5b:82:9f:a8:60:07:62:9f:82:26:4c:
         b8:23:6e:dc:4b:c2:e7:d7:84:6b:bf:1e:bb:a0:36:ae:71:48:
         a8:b2:40:64:b7:b7:b8:03:08:e6:b9:19:67:ec:a2:53:0d:65:
         91:14:dc:d0:e3:36:90:70:a9:af:3e:d8:00:e4:30:d1:9f:19:
         28:d7:2e:f6:b9:f7:de:10:3e:91:1a:1d:8e:b0:7a:00:b3:8a:
         17:3f:8d:8e:26:84:2e:38:5b:7d:b3:29:6b:93:44:86:75:a9:
         5b:d9:e8:ac:9f:90:68:e6:8a:71:58:5e:6d:74:8d:e0:e1:b5:
         22:f9:83:eb
-----BEGIN CERTIFICATE-----
MIIDXDCCAkSgAwIBAgIQCmDHvafs73eIJiuOL2XF0zANBgkqhkiG9w0BAQsFADAW
MRQwEgYDVQQDDAt0ZWFtMTkwLW5ldDAeFw0yMzA4MTQxNDI2MDlaFw0yNjA3Mjkx
NDI2MDlaMBkxFzAVBgNVBAMMDnRlYW0xOTAtY2xpZW50MIIBIjANBgkqhkiG9w0B
AQEFAAOCAQ8AMIIBCgKCAQEAtWoX0H/vYvCYfohkxqnHBV7EdBTE1XrxnQpELNB0
Eq6rIQ6nApbUfy3uP5pVqFMfxXBsm5MH0RZUd/01dSeVH6Hepq6otWhsjWt+sUWd
OySnNN9zzmppEd9qnuOc2fOEGdb1c1Wg1IbYG3LhU0JOn60zRr1zXVlJ2wWHpQSd
v8sXRqo9s/lvBmUyRm/YnolOi/peJQA+qyH5Jxuk7Ggf9KTLiTSTZ92adppAX1hc
v2qrv56qIxs1uRGsAuJHKs1FLHHyKnDCatO3495pT0MyGSh05NXO6XfGv26s275B
olYk8bBSXYVINhNRb4oTqe1sPW9f+2c+5HrpyrfCKYBMrwIDAQABo4GiMIGfMAkG
A1UdEwQCMAAwHQYDVR0OBBYEFOwxyH/Eetjk1FpoZzYkpzxinrwuMFEGA1UdIwRK
MEiAFE4LAd83g/STulXfw3w+XTHOzZeNoRqkGDAWMRQwEgYDVQQDDAt0ZWFtMTkw
LW5ldIIUVq3biM49mQkITMHPpbCctSQ4GkQwEwYDVR0lBAwwCgYIKwYBBQUHAwIw
CwYDVR0PBAQDAgeAMA0GCSqGSIb3DQEBCwUAA4IBAQBkKIf7sA9NPHkN4fJ/ydHq
uKhuB/0sDEOnqd1N0JRGEXCcDzPpoGmo2lnAl5N7G4GRpf/OO8JUaZmIxyc3uOQH
3DfV/TOOpTgrTZTA9yyIxESV72xG+DCZOyNpYaFFQItZUSFlMilvRrhMhBjEGHW1
yQqS2oicxTqcziKGddFB+sbxTJLmW4KfqGAHYp+CJky4I27cS8Ln14Rrvx67oDau
cUioskBkt7e4AwjmuRln7KJTDWWRFNzQ4zaQcKmvPtgA5DDRnxko1y72uffeED6R
Gh2OsHoAs4oXP42OJoQuOFt9sylrk0SGdalb2eisn5Bo5opxWF5tdI3g4bUi+YPr
-----END CERTIFICATE-----
