Certificate:
    Data:
        Version: 3 (0x2)
        Serial Number:
            0e:44:1b:2b:99:80:2c:92:37:57:cd:c2:63:b7:2d:0c
        Signature Algorithm: sha256WithRSAEncryption
        Issuer: CN=team140-net
        Validity
            Not Before: Aug 14 14:25:09 2023 GMT
            Not After : Jul 29 14:25:09 2026 GMT
        Subject: CN=team140-client
        Subject Public Key Info:
            Public Key Algorithm: rsaEncryption
                RSA Public-Key: (2048 bit)
                Modulus:
                    00:ba:96:3d:31:8d:32:87:d5:9f:96:d2:7e:92:d1:
                    ca:56:9c:16:57:3a:e9:b5:df:32:43:9c:e1:1b:5d:
                    96:ce:d7:2a:38:5a:5f:c9:de:ce:b3:e5:ba:ff:f9:
                    db:3b:11:68:be:a4:1b:a1:6f:39:c6:e4:cb:7d:df:
                    f0:2c:04:41:81:1f:7c:03:b1:c0:25:67:78:70:6d:
                    d7:ad:10:62:98:83:87:f8:8e:4e:6f:5a:36:4a:db:
                    ea:c0:0d:f8:44:59:0e:ec:96:cf:6b:ae:91:2e:d5:
                    94:81:e8:b5:76:6c:f5:81:73:f9:4f:d5:b8:c6:ab:
                    3f:04:3d:78:9b:9d:0d:dd:58:f1:77:c9:94:26:b4:
                    a1:b5:57:24:a8:71:f7:30:20:8e:4c:46:09:5a:13:
                    57:29:03:8e:87:7a:99:38:7b:fd:cd:90:52:db:c4:
                    ab:2b:d5:8e:67:49:3a:e4:f2:07:48:a6:7d:a4:9c:
                    40:97:1d:a9:17:09:47:cf:66:51:d8:58:7c:d8:28:
                    e0:ba:93:50:5d:3b:97:f4:e3:09:6a:5c:ce:ad:3a:
                    2a:ac:f9:a9:15:c9:d2:ad:0a:36:0e:c4:52:fd:2b:
                    c3:f0:30:e1:40:5d:53:27:6d:06:f5:b6:80:8e:f3:
                    b0:63:c6:f7:c2:a2:76:3c:12:b1:d5:fb:e0:bb:20:
                    14:51
                Exponent: 65537 (0x10001)
        X509v3 extensions:
            X509v3 Basic Constraints: 
                CA:FALSE
            X509v3 Subject Key Identifier: 
                4D:3F:2A:55:8A:C6:31:29:E1:5B:59:BA:02:C4:D0:7C:05:3C:D7:5B
            X509v3 Authority Key Identifier: 
                keyid:8E:72:73:E4:7B:91:B8:D8:92:8A:3F:85:C6:68:E0:2F:8B:A2:91:8F
                DirName:/CN=team140-net
                serial:59:B8:17:F8:D4:DC:83:E6:FC:1E:DC:4E:18:68:16:2B:CC:DF:E1:CF

            X509v3 Extended Key Usage: 
                TLS Web Client Authentication
            X509v3 Key Usage: 
                Digital Signature
    Signature Algorithm: sha256WithRSAEncryption
         79:f9:a4:ec:07:09:11:09:d1:4e:6a:ee:64:17:d8:22:be:74:
         c8:07:32:cf:ae:da:ef:a0:2b:e5:98:8e:69:c2:d1:c6:47:06:
         7d:f2:b6:75:ed:81:30:c1:26:2b:73:80:d1:58:87:7e:27:89:
         ce:62:fd:58:58:c5:e3:39:8b:03:0b:7c:af:e3:87:14:ec:49:
         ac:79:6a:0a:8d:55:ff:cb:1e:3a:5f:7a:51:10:b7:07:c2:04:
         2d:44:80:b7:43:5f:05:69:0e:5a:88:7b:ca:f1:9b:56:da:67:
         71:66:41:6e:06:c0:7e:bf:dd:b5:c1:58:ed:1e:0f:94:5f:ed:
         13:e4:60:35:6e:4b:1d:1f:3e:92:3f:c0:d4:13:5d:db:23:36:
         81:57:c3:8b:12:c5:87:7d:8b:6b:eb:67:b6:e2:19:13:f4:b6:
         26:c4:32:97:41:aa:4f:68:23:b1:6b:bf:19:9a:eb:3e:b6:07:
         8a:65:d1:0e:5f:04:a9:76:bf:46:96:a9:39:d8:a3:88:e8:dc:
         e0:52:df:7d:e8:87:c8:94:30:ab:e4:aa:0c:ce:65:c3:18:38:
         0a:52:98:37:c9:da:36:16:da:db:56:4c:95:f2:5e:f8:13:cb:
         6d:fa:1b:31:e2:80:0b:bf:bc:9c:e6:0e:92:03:58:2e:14:ee:
         a4:73:e2:45
-----BEGIN CERTIFICATE-----
MIIDXDCCAkSgAwIBAgIQDkQbK5mALJI3V83CY7ctDDANBgkqhkiG9w0BAQsFADAW
MRQwEgYDVQQDDAt0ZWFtMTQwLW5ldDAeFw0yMzA4MTQxNDI1MDlaFw0yNjA3Mjkx
NDI1MDlaMBkxFzAVBgNVBAMMDnRlYW0xNDAtY2xpZW50MIIBIjANBgkqhkiG9w0B
AQEFAAOCAQ8AMIIBCgKCAQEAupY9MY0yh9WfltJ+ktHKVpwWVzrptd8yQ5zhG12W
ztcqOFpfyd7Os+W6//nbOxFovqQboW85xuTLfd/wLARBgR98A7HAJWd4cG3XrRBi
mIOH+I5Ob1o2StvqwA34RFkO7JbPa66RLtWUgei1dmz1gXP5T9W4xqs/BD14m50N
3Vjxd8mUJrShtVckqHH3MCCOTEYJWhNXKQOOh3qZOHv9zZBS28SrK9WOZ0k65PIH
SKZ9pJxAlx2pFwlHz2ZR2Fh82CjgupNQXTuX9OMJalzOrToqrPmpFcnSrQo2DsRS
/SvD8DDhQF1TJ20G9baAjvOwY8b3wqJ2PBKx1fvguyAUUQIDAQABo4GiMIGfMAkG
A1UdEwQCMAAwHQYDVR0OBBYEFE0/KlWKxjEp4VtZugLE0HwFPNdbMFEGA1UdIwRK
MEiAFI5yc+R7kbjYkoo/hcZo4C+LopGPoRqkGDAWMRQwEgYDVQQDDAt0ZWFtMTQw
LW5ldIIUWbgX+NTcg+b8HtxOGGgWK8zf4c8wEwYDVR0lBAwwCgYIKwYBBQUHAwIw
CwYDVR0PBAQDAgeAMA0GCSqGSIb3DQEBCwUAA4IBAQB5+aTsBwkRCdFOau5kF9gi
vnTIBzLPrtrvoCvlmI5pwtHGRwZ98rZ17YEwwSYrc4DRWId+J4nOYv1YWMXjOYsD
C3yv44cU7EmseWoKjVX/yx46X3pRELcHwgQtRIC3Q18FaQ5aiHvK8ZtW2mdxZkFu
BsB+v921wVjtHg+UX+0T5GA1bksdHz6SP8DUE13bIzaBV8OLEsWHfYtr62e24hkT
9LYmxDKXQapPaCOxa78Zmus+tgeKZdEOXwSpdr9Glqk52KOI6NzgUt996IfIlDCr
5KoMzmXDGDgKUpg3ydo2FtrbVkyV8l74E8tt+hsx4oALv7yc5g6SA1guFO6kc+JF
-----END CERTIFICATE-----
