Certificate:
    Data:
        Version: 3 (0x2)
        Serial Number:
            b2:b8:0d:3d:8f:74:ca:25:cc:36:b4:4c:d7:99:4c:ad
        Signature Algorithm: sha256WithRSAEncryption
        Issuer: CN=team140-net
        Validity
            Not Before: Aug 14 14:25:10 2023 GMT
            Not After : Jul 29 14:25:10 2026 GMT
        Subject: CN=team140-server
        Subject Public Key Info:
            Public Key Algorithm: rsaEncryption
                RSA Public-Key: (2048 bit)
                Modulus:
                    00:bc:6f:9e:21:31:ec:83:f1:6f:fb:04:5d:af:2c:
                    21:14:28:09:37:97:b8:89:2a:4f:ec:d8:1e:1c:42:
                    af:8a:54:93:55:66:d0:10:f4:1d:0f:01:ac:d8:b3:
                    23:c1:46:4e:0c:fc:9b:94:7e:a3:08:f4:2d:11:86:
                    d1:12:79:54:4b:20:7a:03:57:fe:d3:8c:25:40:05:
                    44:25:03:2e:74:05:79:d9:b1:1e:d2:c5:9e:bb:da:
                    2f:fb:57:95:d9:fa:a1:e4:99:f6:41:04:9d:d5:1c:
                    71:f2:0b:6c:d6:53:b4:ee:f5:49:a5:13:69:bd:fb:
                    c6:31:56:fb:20:a6:78:9b:8f:99:de:d3:59:7c:27:
                    15:27:f0:12:0e:0a:d1:ce:94:2e:06:7c:56:91:62:
                    3a:e6:c0:f0:b4:1e:45:39:76:9e:3c:23:79:f7:40:
                    7c:57:c1:3a:0b:09:aa:3f:91:4f:6b:ca:ce:1b:d9:
                    3c:f0:c2:41:8b:b2:59:c2:16:28:9a:62:d3:a5:d9:
                    99:2e:83:6f:69:f7:7a:d4:ba:63:2c:7f:04:02:7c:
                    2a:32:c1:b1:70:eb:d9:82:19:54:f4:02:e6:41:c0:
                    f7:cf:8e:ef:c7:7d:f5:5f:3e:27:f0:c6:1c:50:e9:
                    1f:7e:0b:7e:7c:ac:4c:cf:cf:a7:62:23:c6:88:95:
                    2d:5b
                Exponent: 65537 (0x10001)
        X509v3 extensions:
            X509v3 Basic Constraints: 
                CA:FALSE
            X509v3 Subject Key Identifier: 
                02:3F:B3:6E:8E:8C:7F:94:5F:D1:2D:DD:FC:6D:63:66:29:67:98:A4
            X509v3 Authority Key Identifier: 
                keyid:8E:72:73:E4:7B:91:B8:D8:92:8A:3F:85:C6:68:E0:2F:8B:A2:91:8F
                DirName:/CN=team140-net
                serial:59:B8:17:F8:D4:DC:83:E6:FC:1E:DC:4E:18:68:16:2B:CC:DF:E1:CF

            X509v3 Extended Key Usage: 
                TLS Web Server Authentication
            X509v3 Key Usage: 
                Digital Signature, Key Encipherment
            X509v3 Subject Alternative Name: 
                DNS:team140-server
    Signature Algorithm: sha256WithRSAEncryption
         07:cc:c2:d5:f9:54:72:58:df:48:13:9e:a6:97:e5:f5:b0:5a:
         1d:d4:9d:f1:33:a4:9b:6a:47:f9:0f:ed:60:99:bf:46:54:3c:
         34:70:fd:bb:2a:49:f4:f1:84:0c:4b:b4:c2:7f:32:73:87:9e:
         65:20:c3:ab:f7:5e:b9:7b:66:60:03:50:f3:b1:1c:0c:ba:44:
         80:be:14:68:b7:a9:23:36:87:1e:a3:58:89:43:b6:e5:7a:30:
         19:3c:03:b8:bb:87:ba:cb:f9:a5:a7:77:49:23:14:b1:b1:45:
         4e:bd:60:73:61:a2:6e:63:63:27:7b:e4:ee:67:25:c6:9e:60:
         5b:6a:08:87:ec:5f:b3:cf:83:3a:35:51:10:c1:22:fe:fd:03:
         80:8f:44:92:ef:82:36:2b:38:34:67:b5:9b:d9:cd:a8:2f:1f:
         84:4a:de:71:0f:48:56:e4:ac:6f:a4:d3:c6:10:10:44:30:35:
         37:c6:b0:a9:2e:73:d3:f7:72:35:73:fc:d9:e9:2a:d0:0e:35:
         66:e1:bd:d8:ea:68:db:b8:25:61:29:e3:43:89:7b:6f:c5:86:
         17:95:2e:9c:5e:0f:e7:a4:2c:54:3b:3a:b6:0a:88:c9:8f:76:
         12:11:50:94:cf:23:2e:10:1f:ec:79:b6:a8:e8:26:1f:dd:44:
         8a:0b:b7:4b
-----BEGIN CERTIFICATE-----
MIIDeDCCAmCgAwIBAgIRALK4DT2PdMolzDa0TNeZTK0wDQYJKoZIhvcNAQELBQAw
FjEUMBIGA1UEAwwLdGVhbTE0MC1uZXQwHhcNMjMwODE0MTQyNTEwWhcNMjYwNzI5
MTQyNTEwWjAZMRcwFQYDVQQDDA50ZWFtMTQwLXNlcnZlcjCCASIwDQYJKoZIhvcN
AQEBBQADggEPADCCAQoCggEBALxvniEx7IPxb/sEXa8sIRQoCTeXuIkqT+zYHhxC
r4pUk1Vm0BD0HQ8BrNizI8FGTgz8m5R+owj0LRGG0RJ5VEsgegNX/tOMJUAFRCUD
LnQFedmxHtLFnrvaL/tXldn6oeSZ9kEEndUccfILbNZTtO71SaUTab37xjFW+yCm
eJuPmd7TWXwnFSfwEg4K0c6ULgZ8VpFiOubA8LQeRTl2njwjefdAfFfBOgsJqj+R
T2vKzhvZPPDCQYuyWcIWKJpi06XZmS6Db2n3etS6Yyx/BAJ8KjLBsXDr2YIZVPQC
5kHA98+O78d99V8+J/DGHFDpH34LfnysTM/Pp2IjxoiVLVsCAwEAAaOBvTCBujAJ
BgNVHRMEAjAAMB0GA1UdDgQWBBQCP7Nujox/lF/RLd38bWNmKWeYpDBRBgNVHSME
SjBIgBSOcnPke5G42JKKP4XGaOAvi6KRj6EapBgwFjEUMBIGA1UEAwwLdGVhbTE0
MC1uZXSCFFm4F/jU3IPm/B7cThhoFivM3+HPMBMGA1UdJQQMMAoGCCsGAQUFBwMB
MAsGA1UdDwQEAwIFoDAZBgNVHREEEjAQgg50ZWFtMTQwLXNlcnZlcjANBgkqhkiG
9w0BAQsFAAOCAQEAB8zC1flUcljfSBOeppfl9bBaHdSd8TOkm2pH+Q/tYJm/RlQ8
NHD9uypJ9PGEDEu0wn8yc4eeZSDDq/deuXtmYANQ87EcDLpEgL4UaLepIzaHHqNY
iUO25XowGTwDuLuHusv5pad3SSMUsbFFTr1gc2GibmNjJ3vk7mclxp5gW2oIh+xf
s8+DOjVREMEi/v0DgI9Eku+CNis4NGe1m9nNqC8fhErecQ9IVuSsb6TTxhAQRDA1
N8awqS5z0/dyNXP82ekq0A41ZuG92Opo27glYSnjQ4l7b8WGF5UunF4P56QsVDs6
tgqIyY92EhFQlM8jLhAf7Hm2qOgmH91Eigu3Sw==
-----END CERTIFICATE-----
