Certificate:
    Data:
        Version: 3 (0x2)
        Serial Number:
            59:da:9e:13:7e:39:f9:78:34:fd:f8:af:25:bd:44:d8
        Signature Algorithm: sha256WithRSAEncryption
        Issuer: CN=team155-net
        Validity
            Not Before: Aug 14 14:25:29 2023 GMT
            Not After : Jul 29 14:25:29 2026 GMT
        Subject: CN=team155-server
        Subject Public Key Info:
            Public Key Algorithm: rsaEncryption
                RSA Public-Key: (2048 bit)
                Modulus:
                    00:ef:e5:24:15:e8:3e:b2:c8:fb:d4:34:c0:d6:2c:
                    f6:77:3f:74:7c:bf:0d:76:ef:6f:ea:cd:3d:6f:ca:
                    22:63:ae:2f:be:c8:97:b4:b8:d0:0b:70:91:b9:7b:
                    6d:64:a0:38:be:1f:74:10:5e:7b:30:6f:52:26:20:
                    93:ee:ba:59:66:f2:cb:71:0e:c8:1f:07:c5:2f:1d:
                    22:7a:1f:14:2f:02:a3:06:78:53:1c:da:c0:48:35:
                    0f:3e:47:c8:af:67:7e:90:89:ba:74:01:a2:6c:98:
                    16:2f:88:b0:d6:75:8b:2f:9b:87:a3:4d:cc:1d:8c:
                    72:89:d2:67:66:63:80:07:4f:57:f6:76:8a:cf:d6:
                    0e:d3:e0:f6:d9:46:b4:4d:e5:ef:b8:3e:e5:8d:08:
                    34:52:1c:e1:6c:5c:00:24:68:1b:dc:4c:03:fd:80:
                    95:da:d0:bf:c2:65:a7:52:d7:b5:49:5e:0c:88:75:
                    a9:75:54:d2:d0:08:58:2f:79:1c:7e:98:36:a8:89:
                    51:b5:ed:53:85:50:9f:64:d5:a1:e7:e2:07:4d:7f:
                    f3:de:ee:7f:0a:06:6b:f7:bc:45:f5:6a:34:97:0d:
                    74:34:56:71:a0:90:ec:2d:e9:8d:80:63:95:5b:f7:
                    b0:a2:53:c2:18:b0:34:d2:9f:2d:02:21:5c:59:be:
                    9f:bd
                Exponent: 65537 (0x10001)
        X509v3 extensions:
            X509v3 Basic Constraints: 
                CA:FALSE
            X509v3 Subject Key Identifier: 
                A5:D6:4F:85:EA:81:57:D3:58:B5:E6:AC:B0:2F:2E:2E:48:26:3D:3C
            X509v3 Authority Key Identifier: 
                keyid:86:B3:6B:79:8B:00:3B:C5:42:F6:E7:5F:0B:A3:C3:9B:0F:E6:BA:67
                DirName:/CN=team155-net
                serial:71:C6:71:CC:C4:96:33:E2:DA:28:5B:B2:53:E2:07:3A:AB:FE:EA:C3

            X509v3 Extended Key Usage: 
                TLS Web Server Authentication
            X509v3 Key Usage: 
                Digital Signature, Key Encipherment
            X509v3 Subject Alternative Name: 
                DNS:team155-server
    Signature Algorithm: sha256WithRSAEncryption
         31:95:a3:47:39:68:bb:db:a6:c8:78:a5:49:ea:c8:15:4a:93:
         47:fd:9c:8d:07:ef:44:09:cc:48:6a:cf:af:62:8c:fd:6a:e6:
         04:2d:3e:33:ff:7e:b3:b4:30:62:90:4f:cf:a7:d6:8b:1d:90:
         2f:1c:74:5f:74:67:ab:96:6e:f5:5c:14:92:89:db:e1:d5:af:
         59:54:79:71:e5:1a:59:c1:20:83:aa:18:3e:b1:77:ff:7d:82:
         bd:92:37:17:4b:3d:6b:04:62:8b:43:76:71:af:32:93:b0:ed:
         df:ca:9e:e7:d1:c8:36:80:c4:1a:45:ca:b3:6e:0d:3d:49:d4:
         26:bb:c2:0f:74:62:21:b2:46:2c:a5:65:3d:dd:76:ae:bc:e2:
         8e:f8:d3:fb:59:e5:7f:60:8b:e9:d9:51:31:77:96:78:77:d0:
         d2:64:b1:a8:90:f3:95:b4:48:7c:90:8a:b3:0b:eb:72:6f:a0:
         f4:07:8f:2c:d7:80:97:98:bf:d5:4b:a1:44:4e:a5:58:25:bd:
         43:f3:d9:a2:8b:7a:6d:d5:aa:05:d7:f6:34:2c:bb:1f:f8:06:
         4a:67:27:68:1a:31:27:0d:a4:e9:a0:86:23:83:b3:f3:09:9e:
         e8:63:68:c5:0d:b2:cc:ca:b0:4e:1a:1d:d0:d5:67:92:e8:39:
         be:ad:5f:7c
-----BEGIN CERTIFICATE-----
MIIDdzCCAl+gAwIBAgIQWdqeE345+Xg0/fivJb1E2DANBgkqhkiG9w0BAQsFADAW
MRQwEgYDVQQDDAt0ZWFtMTU1LW5ldDAeFw0yMzA4MTQxNDI1MjlaFw0yNjA3Mjkx
NDI1MjlaMBkxFzAVBgNVBAMMDnRlYW0xNTUtc2VydmVyMIIBIjANBgkqhkiG9w0B
AQEFAAOCAQ8AMIIBCgKCAQEA7+UkFeg+ssj71DTA1iz2dz90fL8Ndu9v6s09b8oi
Y64vvsiXtLjQC3CRuXttZKA4vh90EF57MG9SJiCT7rpZZvLLcQ7IHwfFLx0ieh8U
LwKjBnhTHNrASDUPPkfIr2d+kIm6dAGibJgWL4iw1nWLL5uHo03MHYxyidJnZmOA
B09X9naKz9YO0+D22Ua0TeXvuD7ljQg0UhzhbFwAJGgb3EwD/YCV2tC/wmWnUte1
SV4MiHWpdVTS0AhYL3kcfpg2qIlRte1ThVCfZNWh5+IHTX/z3u5/CgZr97xF9Wo0
lw10NFZxoJDsLemNgGOVW/ewolPCGLA00p8tAiFcWb6fvQIDAQABo4G9MIG6MAkG
A1UdEwQCMAAwHQYDVR0OBBYEFKXWT4XqgVfTWLXmrLAvLi5IJj08MFEGA1UdIwRK
MEiAFIaza3mLADvFQvbnXwujw5sP5rpnoRqkGDAWMRQwEgYDVQQDDAt0ZWFtMTU1
LW5ldIIUccZxzMSWM+LaKFuyU+IHOqv+6sMwEwYDVR0lBAwwCgYIKwYBBQUHAwEw
CwYDVR0PBAQDAgWgMBkGA1UdEQQSMBCCDnRlYW0xNTUtc2VydmVyMA0GCSqGSIb3
DQEBCwUAA4IBAQAxlaNHOWi726bIeKVJ6sgVSpNH/ZyNB+9ECcxIas+vYoz9auYE
LT4z/36ztDBikE/Pp9aLHZAvHHRfdGerlm71XBSSidvh1a9ZVHlx5RpZwSCDqhg+
sXf/fYK9kjcXSz1rBGKLQ3ZxrzKTsO3fyp7n0cg2gMQaRcqzbg09SdQmu8IPdGIh
skYspWU93XauvOKO+NP7WeV/YIvp2VExd5Z4d9DSZLGokPOVtEh8kIqzC+tyb6D0
B48s14CXmL/VS6FETqVYJb1D89mii3pt1aoF1/Y0LLsf+AZKZydoGjEnDaTpoIYj
g7PzCZ7oY2jFDbLMyrBOGh3Q1WeS6Dm+rV98
-----END CERTIFICATE-----
