Certificate:
    Data:
        Version: 3 (0x2)
        Serial Number:
            85:0e:43:9a:76:2f:31:9f:85:24:b1:a6:18:27:36:18
        Signature Algorithm: sha256WithRSAEncryption
        Issuer: CN=team155-net
        Validity
            Not Before: Aug 14 14:25:29 2023 GMT
            Not After : Jul 29 14:25:29 2026 GMT
        Subject: CN=team155-client
        Subject Public Key Info:
            Public Key Algorithm: rsaEncryption
                RSA Public-Key: (2048 bit)
                Modulus:
                    00:c4:4f:e2:fb:ad:34:d8:53:fb:27:38:96:e1:34:
                    ef:0c:29:ea:3f:e7:1f:08:4a:46:18:ab:09:a9:e2:
                    07:82:31:36:46:a3:1f:29:e5:13:4a:68:24:e2:0a:
                    f8:1d:8f:a7:91:bf:07:92:7d:f0:84:33:96:9b:fd:
                    1e:5f:c8:95:57:66:b1:e7:78:b6:83:73:1f:b6:99:
                    58:e5:05:46:87:0a:de:d1:31:6e:a3:8d:9f:f7:7b:
                    a5:9e:a5:e6:74:1f:c1:01:b1:ba:a7:14:b1:70:6e:
                    8a:17:b5:d4:1a:ee:e9:65:0a:50:2f:0e:f6:38:c2:
                    46:71:35:0e:6f:9d:ac:7b:f2:06:d6:14:8f:36:40:
                    9a:f1:4b:18:6e:2e:89:69:d5:79:09:20:3a:32:e6:
                    bc:ae:b2:b5:cf:95:bf:50:26:f4:56:e9:3a:2b:92:
                    f0:90:e7:a5:89:dc:38:9d:70:60:27:a2:c2:33:62:
                    56:2b:79:4f:c3:3d:55:b9:47:16:32:40:3c:14:f3:
                    6c:64:62:1e:f6:9b:9c:be:39:dd:cf:44:13:94:e2:
                    95:f7:85:81:9b:6d:b0:2b:0b:59:7a:e4:4f:05:ac:
                    da:cd:c8:cb:59:db:0d:b6:ee:c1:c1:c7:3b:53:a6:
                    02:59:0b:95:b1:29:80:07:70:95:39:2f:2a:88:0f:
                    ea:6d
                Exponent: 65537 (0x10001)
        X509v3 extensions:
            X509v3 Basic Constraints: 
                CA:FALSE
            X509v3 Subject Key Identifier: 
                B5:E1:29:DD:02:FD:20:A1:92:04:0A:41:E1:A2:F2:CC:5C:27:3D:6A
            X509v3 Authority Key Identifier: 
                keyid:86:B3:6B:79:8B:00:3B:C5:42:F6:E7:5F:0B:A3:C3:9B:0F:E6:BA:67
                DirName:/CN=team155-net
                serial:71:C6:71:CC:C4:96:33:E2:DA:28:5B:B2:53:E2:07:3A:AB:FE:EA:C3

            X509v3 Extended Key Usage: 
                TLS Web Client Authentication
            X509v3 Key Usage: 
                Digital Signature
    Signature Algorithm: sha256WithRSAEncryption
         48:a8:b4:b7:a0:09:e9:fc:84:f1:81:70:85:1f:06:c3:9d:51:
         6f:9f:db:e4:1e:51:e3:60:ac:6b:45:3f:07:75:93:65:99:9c:
         83:e5:e8:34:aa:66:91:cf:8a:89:53:15:43:37:ea:f8:c4:a3:
         12:fa:f8:a3:28:c6:14:88:c5:8c:2e:84:22:6c:c5:86:12:b6:
         57:62:e9:61:f1:d2:a4:51:b3:74:0f:c7:12:cf:8f:49:dd:f3:
         38:c2:c2:10:00:98:5f:c5:c3:c3:93:15:19:85:92:55:04:f2:
         05:cb:7d:fa:9c:6d:0f:98:5d:5f:fb:04:67:a2:00:cf:9e:47:
         68:22:96:8e:dd:ae:f8:24:e8:57:82:83:db:62:f1:4d:ef:10:
         90:5d:22:a4:54:c8:28:c4:58:c9:1e:d5:04:f0:c8:c7:68:41:
         cf:b3:7c:ca:16:e1:3f:55:a2:27:bf:77:ee:db:3f:d5:01:7a:
         d6:0f:a5:3a:b7:8f:b0:ff:1c:16:1d:b8:6a:90:b4:02:b6:70:
         0b:54:66:d3:4b:20:58:ca:eb:90:e9:c8:3f:c7:23:c9:c6:f0:
         e9:6e:f6:f9:91:b4:ca:35:24:3b:4e:c0:c9:b3:9a:66:f5:ff:
         d3:31:5e:2e:87:75:5b:21:1b:1a:2d:02:ba:e2:67:e6:45:42:
         26:e1:c6:44
-----BEGIN CERTIFICATE-----
MIIDXTCCAkWgAwIBAgIRAIUOQ5p2LzGfhSSxphgnNhgwDQYJKoZIhvcNAQELBQAw
FjEUMBIGA1UEAwwLdGVhbTE1NS1uZXQwHhcNMjMwODE0MTQyNTI5WhcNMjYwNzI5
MTQyNTI5WjAZMRcwFQYDVQQDDA50ZWFtMTU1LWNsaWVudDCCASIwDQYJKoZIhvcN
AQEBBQADggEPADCCAQoCggEBAMRP4vutNNhT+yc4luE07wwp6j/nHwhKRhirCani
B4IxNkajHynlE0poJOIK+B2Pp5G/B5J98IQzlpv9Hl/IlVdmsed4toNzH7aZWOUF
RocK3tExbqONn/d7pZ6l5nQfwQGxuqcUsXBuihe11Bru6WUKUC8O9jjCRnE1Dm+d
rHvyBtYUjzZAmvFLGG4uiWnVeQkgOjLmvK6ytc+Vv1Am9FbpOiuS8JDnpYncOJ1w
YCeiwjNiVit5T8M9VblHFjJAPBTzbGRiHvabnL453c9EE5TilfeFgZttsCsLWXrk
TwWs2s3Iy1nbDbbuwcHHO1OmAlkLlbEpgAdwlTkvKogP6m0CAwEAAaOBojCBnzAJ
BgNVHRMEAjAAMB0GA1UdDgQWBBS14SndAv0goZIECkHhovLMXCc9ajBRBgNVHSME
SjBIgBSGs2t5iwA7xUL2518Lo8ObD+a6Z6EapBgwFjEUMBIGA1UEAwwLdGVhbTE1
NS1uZXSCFHHGcczEljPi2ihbslPiBzqr/urDMBMGA1UdJQQMMAoGCCsGAQUFBwMC
MAsGA1UdDwQEAwIHgDANBgkqhkiG9w0BAQsFAAOCAQEASKi0t6AJ6fyE8YFwhR8G
w51Rb5/b5B5R42Csa0U/B3WTZZmcg+XoNKpmkc+KiVMVQzfq+MSjEvr4oyjGFIjF
jC6EImzFhhK2V2LpYfHSpFGzdA/HEs+PSd3zOMLCEACYX8XDw5MVGYWSVQTyBct9
+pxtD5hdX/sEZ6IAz55HaCKWjt2u+CToV4KD22LxTe8QkF0ipFTIKMRYyR7VBPDI
x2hBz7N8yhbhP1WiJ7937ts/1QF61g+lOrePsP8cFh24apC0ArZwC1Rm00sgWMrr
kOnIP8cjycbw6W72+ZG0yjUkO07AybOaZvX/0zFeLod1WyEbGi0CuuJn5kVCJuHG
RA==
-----END CERTIFICATE-----
