Certificate:
    Data:
        Version: 3 (0x2)
        Serial Number:
            4e:9f:48:e4:08:0a:d7:16:63:50:1f:6b:68:80:4a:9b
        Signature Algorithm: sha256WithRSAEncryption
        Issuer: CN=team287-net
        Validity
            Not Before: Aug 14 14:28:08 2023 GMT
            Not After : Jul 29 14:28:08 2026 GMT
        Subject: CN=team287-server
        Subject Public Key Info:
            Public Key Algorithm: rsaEncryption
                RSA Public-Key: (2048 bit)
                Modulus:
                    00:a6:64:8a:9b:80:20:a2:e9:84:8e:70:b1:6b:1c:
                    57:8e:82:50:87:41:2f:49:12:58:69:2f:3b:22:f4:
                    2b:b9:97:3a:b5:ea:e7:98:26:24:c3:19:71:5d:cc:
                    00:a7:b7:f9:cc:dc:f0:34:17:eb:8c:3c:06:d6:ff:
                    5e:dc:10:61:f1:40:ed:89:1a:ad:37:5a:f3:4d:59:
                    d4:1d:1a:0f:f1:b0:18:e0:dc:f8:10:86:97:b3:c1:
                    52:83:25:2a:84:74:7a:37:e5:30:cf:da:69:82:88:
                    f4:d6:ab:38:5d:00:07:34:47:15:d1:c1:ce:9a:0e:
                    62:af:0d:37:3e:91:39:3a:7c:ae:3c:18:ca:2d:19:
                    5c:0a:88:31:9b:64:c1:6a:23:aa:3b:6b:bf:c2:e2:
                    bd:09:f0:16:1e:9f:c9:41:e2:ca:18:55:d8:14:e1:
                    74:f3:4c:45:04:9e:52:3e:0f:92:fa:06:df:53:fe:
                    de:6a:1c:21:57:98:5e:47:81:72:2e:23:7e:17:dc:
                    75:f4:7c:fd:13:39:5b:68:ae:6e:c1:00:5f:5c:57:
                    1c:65:51:95:af:9a:29:74:8e:6d:dd:f7:00:e3:f3:
                    5d:3e:ae:39:6c:3c:86:d4:86:4c:f8:c6:37:51:24:
                    9e:f6:fd:72:62:d6:97:0e:57:95:94:fa:4f:85:84:
                    0e:db
                Exponent: 65537 (0x10001)
        X509v3 extensions:
            X509v3 Basic Constraints: 
                CA:FALSE
            X509v3 Subject Key Identifier: 
                93:8E:BE:6A:1A:C0:02:EB:7F:81:A1:25:27:00:D6:9C:28:89:7C:7A
            X509v3 Authority Key Identifier: 
                keyid:B2:52:EB:49:43:B4:FB:97:1E:8D:6D:AB:CB:82:63:68:9B:F8:E7:43
                DirName:/CN=team287-net
                serial:5A:AF:4D:9C:1C:B5:A4:3F:FA:63:3C:23:AA:D1:67:07:0E:31:0A:D3

            X509v3 Extended Key Usage: 
                TLS Web Server Authentication
            X509v3 Key Usage: 
                Digital Signature, Key Encipherment
            X509v3 Subject Alternative Name: 
                DNS:team287-server
    Signature Algorithm: sha256WithRSAEncryption
         49:f3:f4:af:da:3a:45:65:d3:39:12:1c:3e:9d:1f:6f:5c:2e:
         49:b8:fa:fa:25:d2:15:d6:59:2f:d6:bf:ca:dd:58:bb:4a:95:
         9f:1a:af:46:82:ba:0e:0a:db:e1:90:bf:4d:68:02:55:0c:97:
         a5:f2:9e:96:36:0c:0a:fd:97:73:e1:cf:26:85:87:86:f1:33:
         2a:94:2c:6d:91:1d:40:41:fe:7f:d1:9c:44:ce:d3:d8:96:33:
         bc:80:b6:d5:75:13:27:3a:24:91:7f:7a:5f:be:4f:51:f0:50:
         7d:96:75:80:45:48:e9:dc:21:d4:0c:25:1f:d0:58:46:76:33:
         c2:91:35:e1:1e:5b:22:a6:5b:fa:f5:79:fb:70:82:5b:b8:86:
         40:dd:be:1d:4d:35:26:8d:c9:2f:9c:b0:96:ad:c8:1d:1f:4f:
         a3:f0:1d:f7:12:00:c7:b7:7f:27:ba:aa:71:96:40:4f:b7:53:
         88:ea:b9:f4:56:d1:7e:60:c5:42:b2:9b:ed:f3:ee:2c:3c:b7:
         ee:8c:70:c2:87:f2:05:5f:a3:b2:37:25:af:d1:22:c2:74:8c:
         f8:63:03:44:cc:17:a4:a8:53:a8:33:f0:91:d0:1d:07:37:6f:
         14:5d:3d:c1:91:5c:f2:59:1f:80:68:c7:d3:bc:da:50:0a:9a:
         15:f5:71:5d
-----BEGIN CERTIFICATE-----
MIIDdzCCAl+gAwIBAgIQTp9I5AgK1xZjUB9raIBKmzANBgkqhkiG9w0BAQsFADAW
MRQwEgYDVQQDDAt0ZWFtMjg3LW5ldDAeFw0yMzA4MTQxNDI4MDhaFw0yNjA3Mjkx
NDI4MDhaMBkxFzAVBgNVBAMMDnRlYW0yODctc2VydmVyMIIBIjANBgkqhkiG9w0B
AQEFAAOCAQ8AMIIBCgKCAQEApmSKm4AgoumEjnCxaxxXjoJQh0EvSRJYaS87IvQr
uZc6ternmCYkwxlxXcwAp7f5zNzwNBfrjDwG1v9e3BBh8UDtiRqtN1rzTVnUHRoP
8bAY4Nz4EIaXs8FSgyUqhHR6N+Uwz9ppgoj01qs4XQAHNEcV0cHOmg5irw03PpE5
OnyuPBjKLRlcCogxm2TBaiOqO2u/wuK9CfAWHp/JQeLKGFXYFOF080xFBJ5SPg+S
+gbfU/7eahwhV5heR4FyLiN+F9x19Hz9EzlbaK5uwQBfXFccZVGVr5opdI5t3fcA
4/NdPq45bDyG1IZM+MY3USSe9v1yYtaXDleVlPpPhYQO2wIDAQABo4G9MIG6MAkG
A1UdEwQCMAAwHQYDVR0OBBYEFJOOvmoawALrf4GhJScA1pwoiXx6MFEGA1UdIwRK
MEiAFLJS60lDtPuXHo1tq8uCY2ib+OdDoRqkGDAWMRQwEgYDVQQDDAt0ZWFtMjg3
LW5ldIIUWq9NnBy1pD/6YzwjqtFnBw4xCtMwEwYDVR0lBAwwCgYIKwYBBQUHAwEw
CwYDVR0PBAQDAgWgMBkGA1UdEQQSMBCCDnRlYW0yODctc2VydmVyMA0GCSqGSIb3
DQEBCwUAA4IBAQBJ8/Sv2jpFZdM5Ehw+nR9vXC5JuPr6JdIV1lkv1r/K3Vi7SpWf
Gq9GgroOCtvhkL9NaAJVDJel8p6WNgwK/Zdz4c8mhYeG8TMqlCxtkR1AQf5/0ZxE
ztPYljO8gLbVdRMnOiSRf3pfvk9R8FB9lnWARUjp3CHUDCUf0FhGdjPCkTXhHlsi
plv69Xn7cIJbuIZA3b4dTTUmjckvnLCWrcgdH0+j8B33EgDHt38nuqpxlkBPt1OI
6rn0VtF+YMVCspvt8+4sPLfujHDCh/IFX6OyNyWv0SLCdIz4YwNEzBekqFOoM/CR
0B0HN28UXT3BkVzyWR+AaMfTvNpQCpoV9XFd
-----END CERTIFICATE-----
