Certificate:
    Data:
        Version: 3 (0x2)
        Serial Number:
            d1:53:01:fe:c1:82:e0:f3:d1:5c:0b:85:6e:d1:b8:ee
        Signature Algorithm: sha256WithRSAEncryption
        Issuer: CN=team287-net
        Validity
            Not Before: Aug 14 14:28:08 2023 GMT
            Not After : Jul 29 14:28:08 2026 GMT
        Subject: CN=team287-client
        Subject Public Key Info:
            Public Key Algorithm: rsaEncryption
                RSA Public-Key: (2048 bit)
                Modulus:
                    00:c0:ee:d5:cb:1b:28:6d:40:d5:52:57:51:36:1f:
                    2b:0d:7e:30:a7:60:86:4e:2d:38:64:6f:1e:5f:7a:
                    ca:03:8e:ad:24:5b:75:91:43:db:1f:b6:4c:c1:48:
                    8d:da:cc:55:37:b1:65:3e:76:34:74:ab:19:12:8f:
                    86:d7:84:ae:ad:9d:71:c4:9c:e8:fe:92:13:d9:41:
                    94:f4:91:d9:9c:a7:20:70:31:17:1a:a7:7b:cc:47:
                    18:ea:7c:11:c1:4e:87:e5:22:5c:56:70:e2:ec:4b:
                    e9:1d:51:f0:2d:83:7a:f4:68:1b:3e:13:be:14:cd:
                    1b:e7:e2:51:ba:4e:c7:85:f9:1b:03:14:91:03:d1:
                    a7:33:ee:bc:96:d3:32:4d:69:85:22:af:06:c0:85:
                    47:48:1b:bd:2d:a1:2f:3f:14:fa:6a:06:e7:0d:50:
                    ee:7a:3e:3d:56:fe:b2:30:53:99:78:60:37:39:60:
                    23:f2:08:3b:fb:48:dd:24:39:a1:89:eb:3b:31:32:
                    53:b3:2c:d8:6c:c2:48:4e:fe:e8:a6:75:29:b2:92:
                    a0:a1:68:af:a2:a8:33:8e:7f:40:bb:83:7e:ee:5e:
                    75:fb:32:22:e6:c6:60:4f:86:e9:45:4d:1a:09:4a:
                    2b:64:50:cc:db:f4:88:95:b1:b6:bb:9a:b3:48:66:
                    c6:bd
                Exponent: 65537 (0x10001)
        X509v3 extensions:
            X509v3 Basic Constraints: 
                CA:FALSE
            X509v3 Subject Key Identifier: 
                E1:27:0B:BF:96:34:F7:D2:E6:F9:B0:6A:5C:3F:5B:64:4E:25:88:86
            X509v3 Authority Key Identifier: 
                keyid:B2:52:EB:49:43:B4:FB:97:1E:8D:6D:AB:CB:82:63:68:9B:F8:E7:43
                DirName:/CN=team287-net
                serial:5A:AF:4D:9C:1C:B5:A4:3F:FA:63:3C:23:AA:D1:67:07:0E:31:0A:D3

            X509v3 Extended Key Usage: 
                TLS Web Client Authentication
            X509v3 Key Usage: 
                Digital Signature
    Signature Algorithm: sha256WithRSAEncryption
         19:92:2c:c0:49:52:d2:1f:d4:64:2e:8c:fa:1d:8f:f9:59:de:
         89:3a:6b:95:5d:2d:88:97:81:0b:49:93:31:c3:5b:91:d7:68:
         6a:ad:f3:34:8b:0c:1b:61:75:1e:e1:3b:86:55:d1:bf:3c:9a:
         aa:e0:57:b7:00:25:f3:2d:23:81:ae:32:f6:2e:fe:71:79:bc:
         99:f2:bd:fe:d1:81:d7:64:2f:0e:0b:b2:ff:cc:a9:60:9b:e1:
         45:8d:f8:b6:75:ce:db:0a:88:cb:d2:19:88:1c:98:80:30:d2:
         06:c4:28:df:12:d5:f3:6e:78:d4:a2:79:59:7b:5a:ba:3e:2c:
         7f:d7:88:82:42:b7:b5:c6:9b:40:fb:99:33:9f:e9:14:97:e0:
         e3:aa:fa:56:62:57:5c:ed:7e:14:56:b7:75:f6:02:31:e0:fd:
         7a:12:dd:d6:34:92:28:5a:0d:5c:b1:29:e7:e4:a6:ce:c2:26:
         4b:78:e0:4f:c7:40:9b:78:9b:03:3f:e7:c7:a3:f5:93:9b:fe:
         28:7b:eb:70:76:4f:18:26:11:27:93:a5:d6:ad:3c:87:26:a2:
         53:f1:51:3b:14:8e:e2:10:ad:26:c2:d2:69:7e:a5:ab:b7:e0:
         28:96:15:5d:e7:7c:5e:1c:cc:28:b5:a7:12:6e:d0:52:e0:78:
         0f:fc:85:af
-----BEGIN CERTIFICATE-----
MIIDXTCCAkWgAwIBAgIRANFTAf7BguDz0VwLhW7RuO4wDQYJKoZIhvcNAQELBQAw
FjEUMBIGA1UEAwwLdGVhbTI4Ny1uZXQwHhcNMjMwODE0MTQyODA4WhcNMjYwNzI5
MTQyODA4WjAZMRcwFQYDVQQDDA50ZWFtMjg3LWNsaWVudDCCASIwDQYJKoZIhvcN
AQEBBQADggEPADCCAQoCggEBAMDu1csbKG1A1VJXUTYfKw1+MKdghk4tOGRvHl96
ygOOrSRbdZFD2x+2TMFIjdrMVTexZT52NHSrGRKPhteErq2dccSc6P6SE9lBlPSR
2ZynIHAxFxqne8xHGOp8EcFOh+UiXFZw4uxL6R1R8C2DevRoGz4TvhTNG+fiUbpO
x4X5GwMUkQPRpzPuvJbTMk1phSKvBsCFR0gbvS2hLz8U+moG5w1Q7no+PVb+sjBT
mXhgNzlgI/IIO/tI3SQ5oYnrOzEyU7Ms2GzCSE7+6KZ1KbKSoKFor6KoM45/QLuD
fu5edfsyIubGYE+G6UVNGglKK2RQzNv0iJWxtruas0hmxr0CAwEAAaOBojCBnzAJ
BgNVHRMEAjAAMB0GA1UdDgQWBBThJwu/ljT30ub5sGpcP1tkTiWIhjBRBgNVHSME
SjBIgBSyUutJQ7T7lx6NbavLgmNom/jnQ6EapBgwFjEUMBIGA1UEAwwLdGVhbTI4
Ny1uZXSCFFqvTZwctaQ/+mM8I6rRZwcOMQrTMBMGA1UdJQQMMAoGCCsGAQUFBwMC
MAsGA1UdDwQEAwIHgDANBgkqhkiG9w0BAQsFAAOCAQEAGZIswElS0h/UZC6M+h2P
+VneiTprlV0tiJeBC0mTMcNbkddoaq3zNIsMG2F1HuE7hlXRvzyaquBXtwAl8y0j
ga4y9i7+cXm8mfK9/tGB12QvDguy/8ypYJvhRY34tnXO2wqIy9IZiByYgDDSBsQo
3xLV82541KJ5WXtauj4sf9eIgkK3tcabQPuZM5/pFJfg46r6VmJXXO1+FFa3dfYC
MeD9ehLd1jSSKFoNXLEp5+SmzsImS3jgT8dAm3ibAz/nx6P1k5v+KHvrcHZPGCYR
J5Ol1q08hyaiU/FROxSO4hCtJsLSaX6lq7fgKJYVXed8XhzMKLWnEm7QUuB4D/yF
rw==
-----END CERTIFICATE-----
