Certificate:
    Data:
        Version: 3 (0x2)
        Serial Number:
            66:e9:c3:cb:78:a4:04:a6:03:3e:13:11:dc:aa:ed:f2
        Signature Algorithm: sha256WithRSAEncryption
        Issuer: CN=team8-net
        Validity
            Not Before: Aug 14 14:22:13 2023 GMT
            Not After : Jul 29 14:22:13 2026 GMT
        Subject: CN=team8-server
        Subject Public Key Info:
            Public Key Algorithm: rsaEncryption
                RSA Public-Key: (2048 bit)
                Modulus:
                    00:c7:0f:34:35:5a:44:63:4d:8c:2b:a9:f5:96:da:
                    c4:19:89:11:8d:67:9d:7b:b1:10:1c:d4:42:41:36:
                    37:bb:ce:00:2d:dc:c0:d3:1b:a3:d0:fd:6e:3c:59:
                    4e:92:ca:97:b4:1e:f1:ac:20:d8:dd:99:28:e4:29:
                    07:28:2a:c2:1f:65:35:7c:79:55:fd:2d:8f:96:fd:
                    18:29:cf:bd:02:46:b1:36:d9:e1:c8:ff:a8:5c:6e:
                    0c:98:38:94:2b:94:1d:f2:5b:12:d3:2e:24:ae:47:
                    57:42:d5:8e:cc:79:98:69:97:55:08:04:e6:89:23:
                    01:13:4a:52:8c:35:f8:80:8b:81:5f:d0:f3:54:cc:
                    82:11:bc:04:69:7b:7c:10:99:9e:a4:c9:00:68:19:
                    b7:11:da:f8:8a:c6:6c:a1:33:fb:cc:1e:18:fd:93:
                    51:de:b1:2d:31:07:53:19:db:90:1e:53:7b:e4:60:
                    d9:4f:67:e4:f8:7c:9f:8a:1f:8e:af:e7:17:a6:3f:
                    0c:1c:2e:94:a9:6d:84:4d:28:62:d6:b1:13:fa:6c:
                    46:ec:1c:7e:98:35:f0:6f:a8:09:a5:b8:d9:97:ee:
                    43:a1:6f:a5:e0:b6:56:5b:b0:25:50:c4:1c:ad:a5:
                    cc:c8:cd:58:27:a3:1c:70:32:13:18:a6:04:a3:99:
                    8c:57
                Exponent: 65537 (0x10001)
        X509v3 extensions:
            X509v3 Basic Constraints: 
                CA:FALSE
            X509v3 Subject Key Identifier: 
                16:85:EB:73:35:A3:29:A5:A4:9B:AE:69:61:37:2D:1F:F7:68:7F:DF
            X509v3 Authority Key Identifier: 
                keyid:ED:E2:EF:2A:40:D8:A7:05:38:68:61:72:C7:1F:AD:BF:E3:10:9E:5D
                DirName:/CN=team8-net
                serial:23:DE:E9:9B:8A:B1:EF:26:82:8B:28:FB:4E:C1:E3:B5:1A:B2:7A:9B

            X509v3 Extended Key Usage: 
                TLS Web Server Authentication
            X509v3 Key Usage: 
                Digital Signature, Key Encipherment
            X509v3 Subject Alternative Name: 
                DNS:team8-server
    Signature Algorithm: sha256WithRSAEncryption
         a6:fb:66:21:c6:a4:9a:c0:9c:e7:1e:6f:e9:48:23:e1:1c:ce:
         b1:5c:44:c0:2e:15:56:44:f4:42:04:40:8f:97:19:41:e5:ea:
         2d:18:0d:ab:d9:30:9e:17:43:36:0c:a1:7c:5d:1a:02:80:92:
         0d:30:0a:b3:c1:fd:3d:76:a9:eb:39:52:36:f8:9a:ed:75:fc:
         1a:1f:ef:46:84:85:fe:49:b1:b2:7a:0a:57:21:7f:5c:84:a6:
         16:e5:d3:21:51:89:d9:34:be:6c:cf:e8:de:31:3c:bf:76:b0:
         70:43:1e:db:5f:de:59:94:04:15:fb:fc:fe:d8:cf:5c:9f:69:
         66:61:ef:f9:dc:8b:34:91:7a:1f:38:63:a0:3c:32:ae:ef:bb:
         49:ea:db:b9:b0:a8:35:17:c4:44:ab:c0:9e:be:73:99:57:7a:
         82:e7:3e:94:f0:fd:bf:b9:a8:37:87:2a:7c:c9:d8:42:e1:e5:
         d4:74:ec:b9:64:dd:b6:36:00:44:4d:d0:b2:99:b2:33:7d:8b:
         52:5b:2d:5e:9f:ed:34:0a:ce:ba:94:81:4d:3f:4f:2d:ec:2d:
         af:ac:23:18:2f:7a:79:31:65:22:c4:79:13:56:3c:23:99:a4:
         9d:01:a9:ee:48:e8:e5:15:53:76:c7:32:65:06:92:4a:a0:75:
         f4:86:b4:43
-----BEGIN CERTIFICATE-----
MIIDbzCCAlegAwIBAgIQZunDy3ikBKYDPhMR3Krt8jANBgkqhkiG9w0BAQsFADAU
MRIwEAYDVQQDDAl0ZWFtOC1uZXQwHhcNMjMwODE0MTQyMjEzWhcNMjYwNzI5MTQy
MjEzWjAXMRUwEwYDVQQDDAx0ZWFtOC1zZXJ2ZXIwggEiMA0GCSqGSIb3DQEBAQUA
A4IBDwAwggEKAoIBAQDHDzQ1WkRjTYwrqfWW2sQZiRGNZ517sRAc1EJBNje7zgAt
3MDTG6PQ/W48WU6Sype0HvGsINjdmSjkKQcoKsIfZTV8eVX9LY+W/Rgpz70CRrE2
2eHI/6hcbgyYOJQrlB3yWxLTLiSuR1dC1Y7MeZhpl1UIBOaJIwETSlKMNfiAi4Ff
0PNUzIIRvARpe3wQmZ6kyQBoGbcR2viKxmyhM/vMHhj9k1HesS0xB1MZ25AeU3vk
YNlPZ+T4fJ+KH46v5xemPwwcLpSpbYRNKGLWsRP6bEbsHH6YNfBvqAmluNmX7kOh
b6XgtlZbsCVQxBytpczIzVgnoxxwMhMYpgSjmYxXAgMBAAGjgbkwgbYwCQYDVR0T
BAIwADAdBgNVHQ4EFgQUFoXrczWjKaWkm65pYTctH/dof98wTwYDVR0jBEgwRoAU
7eLvKkDYpwU4aGFyxx+tv+MQnl2hGKQWMBQxEjAQBgNVBAMMCXRlYW04LW5ldIIU
I97pm4qx7yaCiyj7TsHjtRqyepswEwYDVR0lBAwwCgYIKwYBBQUHAwEwCwYDVR0P
BAQDAgWgMBcGA1UdEQQQMA6CDHRlYW04LXNlcnZlcjANBgkqhkiG9w0BAQsFAAOC
AQEApvtmIcakmsCc5x5v6Ugj4RzOsVxEwC4VVkT0QgRAj5cZQeXqLRgNq9kwnhdD
NgyhfF0aAoCSDTAKs8H9PXap6zlSNvia7XX8Gh/vRoSF/kmxsnoKVyF/XISmFuXT
IVGJ2TS+bM/o3jE8v3awcEMe21/eWZQEFfv8/tjPXJ9pZmHv+dyLNJF6HzhjoDwy
ru+7SerbubCoNRfERKvAnr5zmVd6guc+lPD9v7moN4cqfMnYQuHl1HTsuWTdtjYA
RE3QspmyM32LUlstXp/tNArOupSBTT9PLewtr6wjGC96eTFlIsR5E1Y8I5mknQGp
7kjo5RVTdscyZQaSSqB19Ia0Qw==
-----END CERTIFICATE-----
