Certificate:
    Data:
        Version: 3 (0x2)
        Serial Number:
            88:fe:8c:25:ef:fe:54:13:df:56:9b:46:2d:b0:f7:d7
        Signature Algorithm: sha256WithRSAEncryption
        Issuer: CN=team8-net
        Validity
            Not Before: Aug 14 14:22:13 2023 GMT
            Not After : Jul 29 14:22:13 2026 GMT
        Subject: CN=team8-client
        Subject Public Key Info:
            Public Key Algorithm: rsaEncryption
                RSA Public-Key: (2048 bit)
                Modulus:
                    00:a1:8e:ec:dd:86:0b:86:eb:f4:45:61:50:94:63:
                    a8:27:3f:55:4a:a2:ea:06:e2:63:d5:b2:dc:c1:ee:
                    19:ca:3b:90:89:cb:f0:74:a1:1b:a5:a2:56:fa:21:
                    2c:96:57:0a:9d:a4:b6:92:0d:66:97:ae:55:b9:d8:
                    b3:d2:70:5c:ae:50:1f:4a:72:bf:62:81:06:8a:e0:
                    db:bb:3f:e1:d3:49:32:7b:b0:90:78:ac:8f:31:65:
                    78:21:28:e1:9f:ff:f5:74:c3:1d:d5:13:e7:49:92:
                    9a:b9:01:7c:19:6c:9e:b1:69:12:f2:dc:cd:ac:0a:
                    98:e4:20:61:97:69:80:01:5e:37:5c:f5:ba:4e:eb:
                    22:f6:16:a7:82:57:39:c3:3e:0c:3f:1b:23:8c:a7:
                    4a:c4:f9:f0:ca:dc:2a:79:86:f2:39:57:9a:de:b1:
                    5f:f9:a7:fa:fe:2a:39:f5:4c:57:a1:12:63:33:cb:
                    ed:54:7b:59:db:4d:2a:72:b9:b4:2f:5c:fb:01:a6:
                    9e:5e:94:fb:ae:22:fa:35:23:35:03:ae:39:20:fa:
                    62:89:7c:d0:58:f9:05:d9:8d:71:e2:03:0f:7a:a1:
                    7e:a2:8d:18:e2:07:4d:06:81:eb:00:73:73:28:7f:
                    70:a9:0a:59:5b:16:41:68:44:45:66:70:9a:0c:06:
                    30:fb
                Exponent: 65537 (0x10001)
        X509v3 extensions:
            X509v3 Basic Constraints: 
                CA:FALSE
            X509v3 Subject Key Identifier: 
                CC:AF:7D:12:F2:41:C4:9E:91:49:BC:53:8F:03:40:B1:56:4D:1B:3F
            X509v3 Authority Key Identifier: 
                keyid:ED:E2:EF:2A:40:D8:A7:05:38:68:61:72:C7:1F:AD:BF:E3:10:9E:5D
                DirName:/CN=team8-net
                serial:23:DE:E9:9B:8A:B1:EF:26:82:8B:28:FB:4E:C1:E3:B5:1A:B2:7A:9B

            X509v3 Extended Key Usage: 
                TLS Web Client Authentication
            X509v3 Key Usage: 
                Digital Signature
    Signature Algorithm: sha256WithRSAEncryption
         0c:f6:07:ee:4d:1b:f2:dd:8a:42:04:9e:2f:59:b0:8c:a1:25:
         1d:cd:23:2e:22:58:4b:b9:6f:3c:27:95:16:2d:86:56:01:30:
         6c:02:dd:3e:6a:18:37:14:b6:6d:df:88:2e:cb:05:0e:63:e1:
         ca:55:5b:9f:e9:45:87:bf:28:b5:3d:c7:46:30:48:bc:86:6c:
         fc:3d:50:c2:45:ae:19:13:4e:c7:3a:56:6b:54:14:4c:98:87:
         bb:48:d0:78:8b:fa:21:77:7c:2a:12:22:06:bd:82:8d:f8:17:
         bf:40:ca:b9:b5:a4:6b:7f:1e:90:71:2c:2d:4c:22:3e:96:89:
         57:3f:73:47:ab:7b:a7:e2:9d:58:cc:b6:0b:90:d6:22:b4:91:
         10:e0:0e:72:7a:4b:04:eb:ff:3f:43:4d:22:38:62:e5:2e:c5:
         fe:9b:51:41:ef:0d:73:b2:27:79:0f:80:99:33:25:d4:f0:ee:
         28:4e:9d:72:3b:78:7c:54:88:67:b4:4b:fa:96:e3:33:cc:6d:
         aa:d3:20:2a:26:95:7a:50:4b:08:2b:85:83:99:81:c4:94:eb:
         c3:52:1e:49:4c:4b:58:20:da:54:6f:a4:bf:d4:71:fa:29:35:
         81:70:d9:01:1d:31:bc:db:b3:37:c4:cb:9f:d3:01:26:f3:d4:
         43:05:30:5a
-----BEGIN CERTIFICATE-----
MIIDVzCCAj+gAwIBAgIRAIj+jCXv/lQT31abRi2w99cwDQYJKoZIhvcNAQELBQAw
FDESMBAGA1UEAwwJdGVhbTgtbmV0MB4XDTIzMDgxNDE0MjIxM1oXDTI2MDcyOTE0
MjIxM1owFzEVMBMGA1UEAwwMdGVhbTgtY2xpZW50MIIBIjANBgkqhkiG9w0BAQEF
AAOCAQ8AMIIBCgKCAQEAoY7s3YYLhuv0RWFQlGOoJz9VSqLqBuJj1bLcwe4ZyjuQ
icvwdKEbpaJW+iEsllcKnaS2kg1ml65Vudiz0nBcrlAfSnK/YoEGiuDbuz/h00ky
e7CQeKyPMWV4ISjhn//1dMMd1RPnSZKauQF8GWyesWkS8tzNrAqY5CBhl2mAAV43
XPW6Tusi9hanglc5wz4MPxsjjKdKxPnwytwqeYbyOVea3rFf+af6/io59UxXoRJj
M8vtVHtZ200qcrm0L1z7AaaeXpT7riL6NSM1A645IPpiiXzQWPkF2Y1x4gMPeqF+
oo0Y4gdNBoHrAHNzKH9wqQpZWxZBaERFZnCaDAYw+wIDAQABo4GgMIGdMAkGA1Ud
EwQCMAAwHQYDVR0OBBYEFMyvfRLyQcSekUm8U48DQLFWTRs/ME8GA1UdIwRIMEaA
FO3i7ypA2KcFOGhhcscfrb/jEJ5doRikFjAUMRIwEAYDVQQDDAl0ZWFtOC1uZXSC
FCPe6ZuKse8mgoso+07B47UasnqbMBMGA1UdJQQMMAoGCCsGAQUFBwMCMAsGA1Ud
DwQEAwIHgDANBgkqhkiG9w0BAQsFAAOCAQEADPYH7k0b8t2KQgSeL1mwjKElHc0j
LiJYS7lvPCeVFi2GVgEwbALdPmoYNxS2bd+ILssFDmPhylVbn+lFh78otT3HRjBI
vIZs/D1QwkWuGRNOxzpWa1QUTJiHu0jQeIv6IXd8KhIiBr2CjfgXv0DKubWka38e
kHEsLUwiPpaJVz9zR6t7p+KdWMy2C5DWIrSREOAOcnpLBOv/P0NNIjhi5S7F/ptR
Qe8Nc7IneQ+AmTMl1PDuKE6dcjt4fFSIZ7RL+pbjM8xtqtMgKiaVelBLCCuFg5mB
xJTrw1IeSUxLWCDaVG+kv9Rx+ik1gXDZAR0xvNuzN8TLn9MBJvPUQwUwWg==
-----END CERTIFICATE-----
