Certificate:
    Data:
        Version: 3 (0x2)
        Serial Number:
            f1:eb:7c:e7:02:63:fa:67:90:e9:0f:3d:e8:f5:d1:f0
        Signature Algorithm: sha256WithRSAEncryption
        Issuer: CN=team180-net
        Validity
            Not Before: Aug 14 14:25:58 2023 GMT
            Not After : Jul 29 14:25:58 2026 GMT
        Subject: CN=team180-client
        Subject Public Key Info:
            Public Key Algorithm: rsaEncryption
                RSA Public-Key: (2048 bit)
                Modulus:
                    00:b5:e4:3b:5e:88:8e:9b:d7:44:a4:dc:4d:79:c0:
                    7b:da:40:ce:d1:7f:2f:14:58:3b:ac:fd:39:26:d8:
                    eb:26:48:6f:e6:a0:fe:cb:da:83:e2:88:ed:e3:37:
                    5e:c2:8b:5b:3e:80:ef:3e:46:57:8d:73:b3:6c:bf:
                    2f:15:51:34:50:73:1a:d7:74:aa:35:2e:4d:90:4e:
                    a7:79:5f:89:59:ad:20:51:45:40:cf:e6:42:07:fe:
                    58:67:32:ca:ee:1e:67:43:8b:bf:f0:91:1e:51:ca:
                    e4:5c:20:df:41:b6:e8:0b:2d:2e:1e:33:69:cd:83:
                    b1:41:51:24:c8:86:5f:8f:5f:35:1c:75:c0:42:27:
                    2e:73:4d:73:00:fc:e5:fe:da:f6:22:19:0e:39:b2:
                    a0:3f:a9:29:76:c5:56:a7:e5:b8:d9:74:8f:1f:6e:
                    a6:39:95:e5:51:e4:09:51:97:66:db:c0:38:f6:f0:
                    8d:e2:07:56:98:9f:d5:d4:38:c0:b5:ad:8a:4b:fb:
                    03:ea:b0:99:2c:e1:63:df:ed:dc:51:82:bd:bc:70:
                    a3:e1:ae:cc:33:90:ad:82:24:72:ce:80:04:1e:5a:
                    b2:76:5f:3a:14:17:c8:6b:ce:58:04:20:1b:fd:62:
                    c9:d8:10:0a:a2:e4:cb:dd:56:bc:41:63:bc:fb:36:
                    f8:a3
                Exponent: 65537 (0x10001)
        X509v3 extensions:
            X509v3 Basic Constraints: 
                CA:FALSE
            X509v3 Subject Key Identifier: 
                8D:51:35:6C:AC:8B:35:AE:2E:EE:5D:F0:C1:EF:83:04:FD:04:BF:2E
            X509v3 Authority Key Identifier: 
                keyid:96:70:27:B1:D8:D7:E2:BC:32:B9:65:24:40:94:7B:C0:49:12:2D:CB
                DirName:/CN=team180-net
                serial:12:94:CF:8E:FA:AC:B3:31:68:24:E5:6E:F3:2C:70:8F:C1:26:25:58

            X509v3 Extended Key Usage: 
                TLS Web Client Authentication
            X509v3 Key Usage: 
                Digital Signature
    Signature Algorithm: sha256WithRSAEncryption
         2d:50:33:c3:f0:c5:52:65:80:10:65:96:27:36:8b:18:9c:23:
         93:27:7a:c6:11:75:49:52:0c:27:08:ef:af:59:da:0c:50:7b:
         7d:0c:7e:da:28:ed:b1:52:d5:fa:4a:da:ea:c6:d1:52:ba:eb:
         a1:7a:08:b2:84:2d:0f:1b:67:34:00:19:1a:56:e5:5b:77:0e:
         fe:f1:15:03:3d:06:57:5f:c5:8d:30:bc:09:5c:71:8e:93:d9:
         10:23:19:77:2d:2f:be:5c:79:49:96:22:54:dc:0e:b5:66:58:
         93:e6:52:a3:d3:0f:91:aa:5f:10:c4:24:5b:fc:f8:0e:09:1b:
         b7:6e:b2:17:21:c4:47:63:1e:49:6c:3d:02:f7:da:da:c8:2f:
         ed:46:1f:db:e6:e0:dc:4f:94:d1:76:5c:02:74:4a:96:2b:fd:
         79:be:ad:55:94:20:d3:7f:f3:65:a2:3b:e3:23:14:b5:49:e9:
         d1:31:a2:8b:bc:4e:2b:f0:34:81:ac:5d:f4:0e:83:1d:d2:83:
         3b:1a:60:8f:67:61:e8:01:6a:a3:c8:ed:c7:c3:64:63:d4:08:
         f9:63:fc:e6:36:e3:af:43:2f:b4:98:c6:6f:bd:77:e2:5e:c9:
         e1:2d:23:f4:4f:4c:39:51:f1:9d:5a:a4:77:37:be:1c:d2:7d:
         e1:75:b3:b0
-----BEGIN CERTIFICATE-----
MIIDXTCCAkWgAwIBAgIRAPHrfOcCY/pnkOkPPej10fAwDQYJKoZIhvcNAQELBQAw
FjEUMBIGA1UEAwwLdGVhbTE4MC1uZXQwHhcNMjMwODE0MTQyNTU4WhcNMjYwNzI5
MTQyNTU4WjAZMRcwFQYDVQQDDA50ZWFtMTgwLWNsaWVudDCCASIwDQYJKoZIhvcN
AQEBBQADggEPADCCAQoCggEBALXkO16IjpvXRKTcTXnAe9pAztF/LxRYO6z9OSbY
6yZIb+ag/svag+KI7eM3XsKLWz6A7z5GV41zs2y/LxVRNFBzGtd0qjUuTZBOp3lf
iVmtIFFFQM/mQgf+WGcyyu4eZ0OLv/CRHlHK5Fwg30G26AstLh4zac2DsUFRJMiG
X49fNRx1wEInLnNNcwD85f7a9iIZDjmyoD+pKXbFVqfluNl0jx9upjmV5VHkCVGX
ZtvAOPbwjeIHVpif1dQ4wLWtikv7A+qwmSzhY9/t3FGCvbxwo+GuzDOQrYIkcs6A
BB5asnZfOhQXyGvOWAQgG/1iydgQCqLky91WvEFjvPs2+KMCAwEAAaOBojCBnzAJ
BgNVHRMEAjAAMB0GA1UdDgQWBBSNUTVsrIs1ri7uXfDB74ME/QS/LjBRBgNVHSME
SjBIgBSWcCex2NfivDK5ZSRAlHvASRIty6EapBgwFjEUMBIGA1UEAwwLdGVhbTE4
MC1uZXSCFBKUz476rLMxaCTlbvMscI/BJiVYMBMGA1UdJQQMMAoGCCsGAQUFBwMC
MAsGA1UdDwQEAwIHgDANBgkqhkiG9w0BAQsFAAOCAQEALVAzw/DFUmWAEGWWJzaL
GJwjkyd6xhF1SVIMJwjvr1naDFB7fQx+2ijtsVLV+kra6sbRUrrroXoIsoQtDxtn
NAAZGlblW3cO/vEVAz0GV1/FjTC8CVxxjpPZECMZdy0vvlx5SZYiVNwOtWZYk+ZS
o9MPkapfEMQkW/z4Dgkbt26yFyHER2MeSWw9Avfa2sgv7UYf2+bg3E+U0XZcAnRK
liv9eb6tVZQg03/zZaI74yMUtUnp0TGii7xOK/A0gaxd9A6DHdKDOxpgj2dh6AFq
o8jtx8NkY9QI+WP85jbjr0MvtJjGb7134l7J4S0j9E9MOVHxnVqkdze+HNJ94XWz
sA==
-----END CERTIFICATE-----
