Certificate:
    Data:
        Version: 3 (0x2)
        Serial Number:
            c2:ee:eb:b4:72:6e:6c:a2:34:c8:4b:69:f0:f0:fa:a5
        Signature Algorithm: sha256WithRSAEncryption
        Issuer: CN=team298-net
        Validity
            Not Before: Aug 14 14:28:22 2023 GMT
            Not After : Jul 29 14:28:22 2026 GMT
        Subject: CN=team298-client
        Subject Public Key Info:
            Public Key Algorithm: rsaEncryption
                RSA Public-Key: (2048 bit)
                Modulus:
                    00:b8:ff:d8:56:b2:73:ed:fa:af:4e:0a:6a:31:1e:
                    20:e4:4c:40:b4:7e:a8:f1:3a:45:66:66:a6:ff:f0:
                    c4:0c:42:ee:2e:72:b6:3a:8c:7d:02:35:9c:85:be:
                    7a:db:86:5d:53:8c:19:42:02:15:a7:59:97:99:24:
                    74:dc:75:fb:2a:f7:6d:5d:ef:fa:2f:80:02:23:00:
                    8c:8f:e8:19:6e:84:dd:a7:fa:b5:b9:ee:7d:f6:54:
                    19:fd:a7:7b:05:ce:b6:d5:ba:24:a9:1d:e2:ab:18:
                    01:ca:b4:04:17:56:0f:98:4f:dd:5c:e2:13:8a:20:
                    41:b3:55:53:a5:ef:3e:bd:2b:19:70:09:e8:b1:48:
                    74:b5:89:1d:62:6a:4e:8d:0d:aa:fc:64:9a:e5:c8:
                    72:24:28:dd:48:ba:4f:53:f0:88:2d:c1:1a:4b:d5:
                    74:2b:77:90:ca:99:39:08:42:9e:fa:0d:38:61:5d:
                    8b:12:b6:9d:4c:60:d7:ae:1b:c0:07:df:10:0c:2b:
                    16:da:c2:43:d9:fd:90:70:05:fc:13:a5:86:70:16:
                    ed:89:e7:57:3b:17:de:f7:8e:aa:02:f5:e5:31:c3:
                    30:c5:e0:c7:4e:d4:70:37:0f:03:36:ac:63:58:a8:
                    d6:bf:28:44:60:eb:a9:28:ce:4a:b4:0f:6e:ad:9a:
                    f8:8b
                Exponent: 65537 (0x10001)
        X509v3 extensions:
            X509v3 Basic Constraints: 
                CA:FALSE
            X509v3 Subject Key Identifier: 
                B1:FF:A5:6E:53:75:AC:4B:68:75:12:8C:C6:8A:94:70:19:9B:52:4C
            X509v3 Authority Key Identifier: 
                keyid:E8:F5:44:7C:31:36:6A:B8:69:CF:46:55:EB:6B:CF:53:16:FE:A4:2C
                DirName:/CN=team298-net
                serial:3A:71:00:26:11:91:90:8F:A6:62:05:54:58:88:5F:E3:65:63:41:AC

            X509v3 Extended Key Usage: 
                TLS Web Client Authentication
            X509v3 Key Usage: 
                Digital Signature
    Signature Algorithm: sha256WithRSAEncryption
         2b:ad:d3:90:47:35:d5:00:f4:53:03:66:1c:57:cd:7d:86:3f:
         4b:38:06:d5:63:1c:86:12:a8:31:7e:6f:58:dc:47:18:2b:04:
         45:bb:49:4f:b0:c0:52:c2:56:45:58:ff:48:6c:73:17:91:95:
         a7:a2:04:1d:b9:0b:5e:24:87:d4:f6:42:30:05:ea:49:d9:ad:
         5a:6d:f9:3d:ac:f1:69:59:56:b3:a6:ea:b9:13:c9:01:d6:ce:
         9a:b0:61:93:b3:cb:16:44:8d:92:7c:ef:50:58:d4:e1:a5:26:
         3e:f4:ea:80:50:38:a3:13:97:c8:bc:73:ae:49:42:83:cf:65:
         d8:d7:a1:f1:d3:27:73:c0:0d:1c:59:5c:16:68:3f:5d:c6:31:
         8a:34:21:79:a7:07:0f:0e:b1:52:35:3c:c2:00:fc:67:b8:d7:
         7f:2c:c5:31:6d:a7:f8:4e:01:f3:89:ca:f8:7d:b0:d1:ad:c7:
         64:b0:d1:7a:50:61:9d:f8:48:33:fd:81:d0:cd:54:8f:f5:3a:
         50:34:f5:3b:77:a5:e6:ff:23:36:15:06:f7:35:74:3e:8f:8b:
         89:30:fc:a4:7d:4d:8f:87:37:4b:86:73:f7:8a:f1:d9:f8:c5:
         bb:5c:d7:20:29:e6:5e:e2:41:9d:20:12:2e:c5:ef:34:3e:aa:
         dd:4e:f8:a0
-----BEGIN CERTIFICATE-----
MIIDXTCCAkWgAwIBAgIRAMLu67RybmyiNMhLafDw+qUwDQYJKoZIhvcNAQELBQAw
FjEUMBIGA1UEAwwLdGVhbTI5OC1uZXQwHhcNMjMwODE0MTQyODIyWhcNMjYwNzI5
MTQyODIyWjAZMRcwFQYDVQQDDA50ZWFtMjk4LWNsaWVudDCCASIwDQYJKoZIhvcN
AQEBBQADggEPADCCAQoCggEBALj/2Fayc+36r04KajEeIORMQLR+qPE6RWZmpv/w
xAxC7i5ytjqMfQI1nIW+etuGXVOMGUICFadZl5kkdNx1+yr3bV3v+i+AAiMAjI/o
GW6E3af6tbnuffZUGf2newXOttW6JKkd4qsYAcq0BBdWD5hP3VziE4ogQbNVU6Xv
Pr0rGXAJ6LFIdLWJHWJqTo0NqvxkmuXIciQo3Ui6T1PwiC3BGkvVdCt3kMqZOQhC
nvoNOGFdixK2nUxg164bwAffEAwrFtrCQ9n9kHAF/BOlhnAW7YnnVzsX3veOqgL1
5THDMMXgx07UcDcPAzasY1io1r8oRGDrqSjOSrQPbq2a+IsCAwEAAaOBojCBnzAJ
BgNVHRMEAjAAMB0GA1UdDgQWBBSx/6VuU3WsS2h1EozGipRwGZtSTDBRBgNVHSME
SjBIgBTo9UR8MTZquGnPRlXra89TFv6kLKEapBgwFjEUMBIGA1UEAwwLdGVhbTI5
OC1uZXSCFDpxACYRkZCPpmIFVFiIX+NlY0GsMBMGA1UdJQQMMAoGCCsGAQUFBwMC
MAsGA1UdDwQEAwIHgDANBgkqhkiG9w0BAQsFAAOCAQEAK63TkEc11QD0UwNmHFfN
fYY/SzgG1WMchhKoMX5vWNxHGCsERbtJT7DAUsJWRVj/SGxzF5GVp6IEHbkLXiSH
1PZCMAXqSdmtWm35PazxaVlWs6bquRPJAdbOmrBhk7PLFkSNknzvUFjU4aUmPvTq
gFA4oxOXyLxzrklCg89l2Neh8dMnc8ANHFlcFmg/XcYxijQheacHDw6xUjU8wgD8
Z7jXfyzFMW2n+E4B84nK+H2w0a3HZLDRelBhnfhIM/2B0M1Uj/U6UDT1O3el5v8j
NhUG9zV0Po+LiTD8pH1Nj4c3S4Zz94rx2fjFu1zXICnmXuJBnSASLsXvND6q3U74
oA==
-----END CERTIFICATE-----
