Certificate:
    Data:
        Version: 3 (0x2)
        Serial Number:
            58:fb:d3:6a:8e:78:68:19:db:9b:f7:b4:5b:10:56:ad
        Signature Algorithm: sha256WithRSAEncryption
        Issuer: CN=team177-net
        Validity
            Not Before: Aug 14 14:25:55 2023 GMT
            Not After : Jul 29 14:25:55 2026 GMT
        Subject: CN=team177-client
        Subject Public Key Info:
            Public Key Algorithm: rsaEncryption
                RSA Public-Key: (2048 bit)
                Modulus:
                    00:a4:c9:28:73:94:28:4c:84:1c:cf:24:d9:00:cf:
                    ef:18:00:7d:c9:3c:43:77:0c:b7:58:d4:2f:f6:a1:
                    6f:92:4e:17:9c:60:e8:88:0d:b8:b0:3e:3e:b3:3d:
                    8c:65:ef:43:ee:8c:3a:42:fe:2f:7d:e5:03:83:a2:
                    3f:8c:94:b7:34:7c:9b:60:e4:43:cf:6e:3e:5c:1b:
                    be:90:cb:c6:94:9b:c1:cc:e3:55:5b:af:73:35:20:
                    e7:15:42:43:cb:4b:40:c4:e7:57:4b:52:a8:e4:4b:
                    47:ab:44:44:4f:89:12:4a:7a:d9:db:3f:41:ba:d2:
                    11:48:ca:4f:8e:fc:87:d2:fc:fa:48:f4:73:be:9c:
                    13:8f:16:a5:76:ba:64:02:f2:b5:aa:b7:85:52:91:
                    19:9c:9b:fc:b8:52:b3:0f:0a:91:73:2c:75:96:fd:
                    f1:ea:09:d2:1b:0e:78:3c:d2:bf:9a:d1:5c:78:3c:
                    98:6d:c7:64:a8:e7:cc:38:a8:c9:f1:31:9e:29:f6:
                    20:35:aa:dd:b1:f8:19:e3:78:98:1d:88:ba:60:07:
                    c0:80:7a:59:43:94:d3:d8:43:c0:cd:3a:57:25:6f:
                    6d:ee:82:c5:7d:15:62:67:7c:6d:71:2b:b1:26:a6:
                    b9:9e:6d:0f:54:e8:6e:d9:7e:03:b7:29:57:42:97:
                    fc:8f
                Exponent: 65537 (0x10001)
        X509v3 extensions:
            X509v3 Basic Constraints: 
                CA:FALSE
            X509v3 Subject Key Identifier: 
                1E:4F:95:5C:B5:6D:81:BA:0A:A7:79:7D:01:34:38:F3:91:01:EC:68
            X509v3 Authority Key Identifier: 
                keyid:0C:A1:91:38:CE:63:53:82:E2:87:E9:04:69:D3:17:7A:DB:C6:2B:46
                DirName:/CN=team177-net
                serial:1F:8A:AF:70:6A:9F:D5:0A:E0:13:3A:38:80:F8:64:26:7D:3E:36:1A

            X509v3 Extended Key Usage: 
                TLS Web Client Authentication
            X509v3 Key Usage: 
                Digital Signature
    Signature Algorithm: sha256WithRSAEncryption
         46:ee:c9:9f:74:b7:12:43:35:45:41:c0:3a:58:dd:c5:40:9b:
         34:1f:5b:c1:04:5a:e9:e9:ec:6d:96:c9:55:d4:30:c9:02:36:
         43:65:70:8c:c0:ec:cc:3b:81:9d:47:13:00:87:e4:dd:2e:c2:
         b0:40:87:e3:b5:c7:07:04:72:13:7c:04:59:5a:86:1b:3d:a2:
         f3:77:c0:ba:46:85:80:98:e7:b1:81:ef:2c:a8:6c:ce:4c:15:
         81:8a:e6:4c:7e:96:f9:71:ca:38:25:eb:19:2f:92:16:6e:7a:
         bd:37:1e:4f:44:2b:1e:c2:6d:b0:d5:23:a4:b0:cf:b3:ca:15:
         b7:bc:17:bb:3f:76:c9:f3:fe:1d:29:54:75:f6:57:77:92:0c:
         b2:f3:d0:c7:57:1e:ff:2b:89:06:6c:10:39:d8:f7:7d:b5:be:
         de:5a:27:a4:b8:fe:a8:67:e3:16:eb:b2:d9:3f:27:4e:8a:08:
         bc:db:19:1f:95:da:f0:65:04:03:1d:2a:35:ea:b9:d8:cc:dc:
         97:2a:cf:43:31:d6:0e:95:7d:78:77:d9:5a:d1:90:84:d4:25:
         17:4f:9c:6c:08:32:f1:b5:66:ee:50:95:bf:87:ce:c7:b9:fc:
         06:0e:16:2c:5f:9c:bd:7e:5d:0c:f4:25:27:3b:84:97:77:ab:
         f8:ac:39:80
-----BEGIN CERTIFICATE-----
MIIDXDCCAkSgAwIBAgIQWPvTao54aBnbm/e0WxBWrTANBgkqhkiG9w0BAQsFADAW
MRQwEgYDVQQDDAt0ZWFtMTc3LW5ldDAeFw0yMzA4MTQxNDI1NTVaFw0yNjA3Mjkx
NDI1NTVaMBkxFzAVBgNVBAMMDnRlYW0xNzctY2xpZW50MIIBIjANBgkqhkiG9w0B
AQEFAAOCAQ8AMIIBCgKCAQEApMkoc5QoTIQczyTZAM/vGAB9yTxDdwy3WNQv9qFv
kk4XnGDoiA24sD4+sz2MZe9D7ow6Qv4vfeUDg6I/jJS3NHybYORDz24+XBu+kMvG
lJvBzONVW69zNSDnFUJDy0tAxOdXS1Ko5EtHq0RET4kSSnrZ2z9ButIRSMpPjvyH
0vz6SPRzvpwTjxaldrpkAvK1qreFUpEZnJv8uFKzDwqRcyx1lv3x6gnSGw54PNK/
mtFceDyYbcdkqOfMOKjJ8TGeKfYgNardsfgZ43iYHYi6YAfAgHpZQ5TT2EPAzTpX
JW9t7oLFfRViZ3xtcSuxJqa5nm0PVOhu2X4DtylXQpf8jwIDAQABo4GiMIGfMAkG
A1UdEwQCMAAwHQYDVR0OBBYEFB5PlVy1bYG6Cqd5fQE0OPORAexoMFEGA1UdIwRK
MEiAFAyhkTjOY1OC4ofpBGnTF3rbxitGoRqkGDAWMRQwEgYDVQQDDAt0ZWFtMTc3
LW5ldIIUH4qvcGqf1QrgEzo4gPhkJn0+NhowEwYDVR0lBAwwCgYIKwYBBQUHAwIw
CwYDVR0PBAQDAgeAMA0GCSqGSIb3DQEBCwUAA4IBAQBG7smfdLcSQzVFQcA6WN3F
QJs0H1vBBFrp6extlslV1DDJAjZDZXCMwOzMO4GdRxMAh+TdLsKwQIfjtccHBHIT
fARZWoYbPaLzd8C6RoWAmOexge8sqGzOTBWBiuZMfpb5cco4JesZL5IWbnq9Nx5P
RCsewm2w1SOksM+zyhW3vBe7P3bJ8/4dKVR19ld3kgyy89DHVx7/K4kGbBA52Pd9
tb7eWiekuP6oZ+MW67LZPydOigi82xkfldrwZQQDHSo16rnYzNyXKs9DMdYOlX14
d9la0ZCE1CUXT5xsCDLxtWbuUJW/h87HufwGDhYsX5y9fl0M9CUnO4SXd6v4rDmA
-----END CERTIFICATE-----
