Certificate:
    Data:
        Version: 3 (0x2)
        Serial Number:
            78:e3:03:fc:a1:67:eb:f8:8d:d6:3d:47:ee:d8:21:55
        Signature Algorithm: sha256WithRSAEncryption
        Issuer: CN=team31-net
        Validity
            Not Before: Aug 14 14:22:42 2023 GMT
            Not After : Jul 29 14:22:42 2026 GMT
        Subject: CN=team31-client
        Subject Public Key Info:
            Public Key Algorithm: rsaEncryption
                RSA Public-Key: (2048 bit)
                Modulus:
                    00:a9:92:6c:71:ab:21:40:10:7e:61:1b:97:17:cd:
                    12:25:85:1b:8a:ce:ae:33:d6:8c:58:d6:da:c1:8d:
                    c8:a0:55:1b:46:7b:d5:70:83:15:7e:ce:19:51:57:
                    6c:9c:be:3b:cd:66:02:0d:8c:2c:a8:81:fb:4a:9f:
                    8b:8f:d3:1c:13:65:b7:e4:fb:14:08:28:b5:56:20:
                    2e:bd:2e:5b:1a:dd:2a:8e:81:81:4e:94:d8:44:44:
                    c6:53:1d:b2:64:21:72:fe:30:96:49:99:30:17:46:
                    16:91:78:f6:97:b6:f3:e8:16:44:6a:cc:47:de:45:
                    a8:91:05:33:a4:b8:7e:c7:c4:b6:e1:1d:24:17:07:
                    36:3a:7f:9c:0c:dc:41:2d:9a:d8:37:71:79:5a:4d:
                    e4:0a:b7:60:8d:f5:24:9c:63:66:b6:0a:e6:2d:6d:
                    f2:47:98:78:99:19:9c:18:93:dc:3b:19:3f:02:62:
                    ae:81:85:d2:10:05:8c:c3:bd:49:d0:4a:d0:7d:95:
                    a6:01:5f:99:02:d2:56:c7:44:08:35:95:17:8f:43:
                    0b:da:ca:4d:57:86:83:d3:bc:53:55:b7:56:7a:fa:
                    33:64:08:88:70:62:98:f7:c1:73:de:01:15:30:c6:
                    89:ed:9b:a0:e3:aa:10:d6:44:9d:da:9a:f9:dc:0d:
                    f8:c5
                Exponent: 65537 (0x10001)
        X509v3 extensions:
            X509v3 Basic Constraints: 
                CA:FALSE
            X509v3 Subject Key Identifier: 
                11:79:B9:B8:E3:B9:E1:31:9C:1D:54:22:E8:EB:F1:8B:C9:65:36:F4
            X509v3 Authority Key Identifier: 
                keyid:E9:76:80:0D:1E:F5:4F:46:92:87:70:C5:0F:B9:E6:73:28:9A:E6:F9
                DirName:/CN=team31-net
                serial:5A:9B:7E:92:7A:6E:D1:B6:C9:53:B1:88:F9:83:3F:7B:6F:00:39:13

            X509v3 Extended Key Usage: 
                TLS Web Client Authentication
            X509v3 Key Usage: 
                Digital Signature
    Signature Algorithm: sha256WithRSAEncryption
         19:ef:d7:12:e2:e7:18:3a:59:70:28:23:d8:1e:5c:42:f8:54:
         7f:59:4a:9a:76:73:c1:b5:fb:f4:1b:f5:0b:2d:45:f2:29:56:
         af:27:80:dc:9b:b3:73:06:f9:5f:31:b6:de:88:3c:85:d4:87:
         6a:9f:a2:5c:94:ca:4c:ce:d4:3e:7e:71:5d:10:d8:3f:06:4d:
         eb:ed:97:a6:67:21:b5:a3:fa:02:01:5b:8d:5c:26:0c:a7:bd:
         cc:2e:a2:52:44:62:28:6e:6c:dc:05:73:7a:b1:03:5a:88:ef:
         f3:e9:06:e9:a4:b1:f8:42:22:32:a1:32:b1:1c:1a:37:96:d0:
         fe:f8:55:f6:e1:11:e4:ad:3a:83:9d:70:e2:53:e0:6b:fc:29:
         e7:b7:0c:8c:64:8e:8a:2c:a2:0b:d0:c6:67:d3:32:a4:a3:78:
         51:e3:b2:4e:b4:35:7e:d3:35:c8:d9:c7:0c:b2:61:74:b4:81:
         31:bd:28:89:3e:a2:e8:24:a9:71:d2:28:ca:6d:14:44:fe:be:
         ce:9c:9c:52:39:2f:6d:13:c3:71:7b:2c:d4:aa:07:11:f7:cd:
         2f:eb:dc:4c:0e:72:38:da:4c:40:65:05:44:6e:e3:04:c2:ab:
         17:25:40:24:f7:47:66:62:e2:b1:3b:9e:07:1c:2d:c7:65:75:
         0a:ee:6d:3b
-----BEGIN CERTIFICATE-----
MIIDWTCCAkGgAwIBAgIQeOMD/KFn6/iN1j1H7tghVTANBgkqhkiG9w0BAQsFADAV
MRMwEQYDVQQDDAp0ZWFtMzEtbmV0MB4XDTIzMDgxNDE0MjI0MloXDTI2MDcyOTE0
MjI0MlowGDEWMBQGA1UEAwwNdGVhbTMxLWNsaWVudDCCASIwDQYJKoZIhvcNAQEB
BQADggEPADCCAQoCggEBAKmSbHGrIUAQfmEblxfNEiWFG4rOrjPWjFjW2sGNyKBV
G0Z71XCDFX7OGVFXbJy+O81mAg2MLKiB+0qfi4/THBNlt+T7FAgotVYgLr0uWxrd
Ko6BgU6U2ERExlMdsmQhcv4wlkmZMBdGFpF49pe28+gWRGrMR95FqJEFM6S4fsfE
tuEdJBcHNjp/nAzcQS2a2DdxeVpN5Aq3YI31JJxjZrYK5i1t8keYeJkZnBiT3DsZ
PwJiroGF0hAFjMO9SdBK0H2VpgFfmQLSVsdECDWVF49DC9rKTVeGg9O8U1W3Vnr6
M2QIiHBimPfBc94BFTDGie2boOOqENZEndqa+dwN+MUCAwEAAaOBoTCBnjAJBgNV
HRMEAjAAMB0GA1UdDgQWBBQRebm447nhMZwdVCLo6/GLyWU29DBQBgNVHSMESTBH
gBTpdoANHvVPRpKHcMUPueZzKJrm+aEZpBcwFTETMBEGA1UEAwwKdGVhbTMxLW5l
dIIUWpt+knpu0bbJU7GI+YM/e28AORMwEwYDVR0lBAwwCgYIKwYBBQUHAwIwCwYD
VR0PBAQDAgeAMA0GCSqGSIb3DQEBCwUAA4IBAQAZ79cS4ucYOllwKCPYHlxC+FR/
WUqadnPBtfv0G/ULLUXyKVavJ4Dcm7NzBvlfMbbeiDyF1Idqn6JclMpMztQ+fnFd
ENg/Bk3r7ZemZyG1o/oCAVuNXCYMp73MLqJSRGIobmzcBXN6sQNaiO/z6QbppLH4
QiIyoTKxHBo3ltD++FX24RHkrTqDnXDiU+Br/CnntwyMZI6KLKIL0MZn0zKko3hR
47JOtDV+0zXI2ccMsmF0tIExvSiJPqLoJKlx0ijKbRRE/r7OnJxSOS9tE8NxeyzU
qgcR980v69xMDnI42kxAZQVEbuMEwqsXJUAk90dmYuKxO54HHC3HZXUK7m07
-----END CERTIFICATE-----
