Certificate:
    Data:
        Version: 3 (0x2)
        Serial Number:
            7c:c9:37:a9:b3:3c:3d:39:a8:c4:f3:b5:00:ab:90:63
        Signature Algorithm: sha256WithRSAEncryption
        Issuer: CN=team31-net
        Validity
            Not Before: Aug 14 14:22:43 2023 GMT
            Not After : Jul 29 14:22:43 2026 GMT
        Subject: CN=team31-server
        Subject Public Key Info:
            Public Key Algorithm: rsaEncryption
                RSA Public-Key: (2048 bit)
                Modulus:
                    00:c6:18:4a:37:61:b8:52:55:74:c2:fa:de:71:f2:
                    39:48:0d:a9:32:a6:08:0f:ed:e3:6f:37:0f:d8:df:
                    cc:0a:fb:ad:e6:7d:f6:99:db:0f:ff:95:8a:19:39:
                    c6:9a:be:d8:41:7d:b7:92:73:11:43:78:e1:1b:30:
                    02:1e:31:b9:76:b4:53:1e:4e:17:31:3f:a9:24:59:
                    66:e3:35:98:98:c6:f7:cb:27:83:6f:5f:0c:25:57:
                    99:4d:31:f7:44:88:a1:10:07:fb:c8:bd:eb:6c:95:
                    74:da:97:1b:86:db:9b:7d:fd:61:e7:3e:b3:ba:65:
                    3a:ce:de:4e:6f:fe:0a:1c:e0:cf:40:cc:66:91:9f:
                    b3:74:03:3c:24:c9:60:59:e4:5a:14:36:40:4e:23:
                    15:e0:d2:08:16:ff:2a:f7:2a:c3:48:79:0e:ff:8b:
                    6a:0f:12:92:34:31:19:ed:f9:bb:40:5f:51:f4:de:
                    45:5c:2a:d7:70:c3:44:e0:ec:7c:8a:28:cd:94:39:
                    cd:a9:6c:52:fa:e6:c3:36:f4:3d:08:1e:09:d8:bf:
                    b6:d7:01:c9:9c:3c:7b:c2:e7:62:72:91:3f:4c:db:
                    58:64:03:22:28:20:ca:34:28:8d:f8:f8:65:e3:b0:
                    4a:63:9e:6c:14:67:0a:2a:ef:f6:fd:3d:d7:bf:b3:
                    02:3f
                Exponent: 65537 (0x10001)
        X509v3 extensions:
            X509v3 Basic Constraints: 
                CA:FALSE
            X509v3 Subject Key Identifier: 
                96:4A:BD:DD:E1:A0:EE:12:B5:96:01:C0:25:87:EA:85:FF:A2:72:44
            X509v3 Authority Key Identifier: 
                keyid:E9:76:80:0D:1E:F5:4F:46:92:87:70:C5:0F:B9:E6:73:28:9A:E6:F9
                DirName:/CN=team31-net
                serial:5A:9B:7E:92:7A:6E:D1:B6:C9:53:B1:88:F9:83:3F:7B:6F:00:39:13

            X509v3 Extended Key Usage: 
                TLS Web Server Authentication
            X509v3 Key Usage: 
                Digital Signature, Key Encipherment
            X509v3 Subject Alternative Name: 
                DNS:team31-server
    Signature Algorithm: sha256WithRSAEncryption
         c9:5c:21:f7:40:0e:dc:11:34:c8:1c:6f:d1:6b:cf:e1:e4:74:
         ee:b9:d7:77:80:e9:72:fd:c8:76:48:dc:00:ee:02:cb:68:f5:
         66:f3:7e:65:06:2a:1b:93:e3:e8:9b:8e:28:dc:c2:c9:92:f4:
         bd:0b:b2:3b:75:90:7c:50:83:b6:78:34:bd:b6:3b:b6:ec:0d:
         b3:5a:11:c3:3c:29:35:9d:02:87:cf:b0:a3:45:ac:0c:43:c4:
         12:8a:c8:0e:8a:64:d8:71:dc:fc:98:46:06:09:d9:0a:eb:b8:
         a6:7a:66:ae:c5:c4:9c:64:14:2a:e4:92:d9:e2:f6:08:ef:31:
         8b:2c:1d:de:99:a2:19:18:b1:d4:90:de:4b:bc:3b:10:9a:fc:
         ff:f2:9f:cd:b4:ea:87:b9:4e:fd:8f:f4:6e:90:96:a6:3b:14:
         72:57:6d:35:a0:19:e2:cb:b3:3e:04:30:26:44:30:c1:2d:17:
         3c:cd:11:66:2b:fb:e5:f0:21:d5:8e:59:d7:0b:6c:7f:50:88:
         e0:f9:40:39:66:75:1a:30:6e:aa:36:45:ed:1d:4f:89:f4:4c:
         79:3c:e3:73:c6:52:4f:7e:58:e7:86:a7:07:da:97:c0:9a:fe:
         68:6f:1c:3d:ac:a7:16:98:d4:4b:88:e2:70:c5:ae:cc:cc:10:
         2c:a7:22:b7
-----BEGIN CERTIFICATE-----
MIIDczCCAlugAwIBAgIQfMk3qbM8PTmoxPO1AKuQYzANBgkqhkiG9w0BAQsFADAV
MRMwEQYDVQQDDAp0ZWFtMzEtbmV0MB4XDTIzMDgxNDE0MjI0M1oXDTI2MDcyOTE0
MjI0M1owGDEWMBQGA1UEAwwNdGVhbTMxLXNlcnZlcjCCASIwDQYJKoZIhvcNAQEB
BQADggEPADCCAQoCggEBAMYYSjdhuFJVdML63nHyOUgNqTKmCA/t4283D9jfzAr7
reZ99pnbD/+Vihk5xpq+2EF9t5JzEUN44RswAh4xuXa0Ux5OFzE/qSRZZuM1mJjG
98sng29fDCVXmU0x90SIoRAH+8i962yVdNqXG4bbm339Yec+s7plOs7eTm/+Chzg
z0DMZpGfs3QDPCTJYFnkWhQ2QE4jFeDSCBb/Kvcqw0h5Dv+Lag8SkjQxGe35u0Bf
UfTeRVwq13DDRODsfIoozZQ5zalsUvrmwzb0PQgeCdi/ttcByZw8e8LnYnKRP0zb
WGQDIiggyjQojfj4ZeOwSmOebBRnCirv9v0917+zAj8CAwEAAaOBuzCBuDAJBgNV
HRMEAjAAMB0GA1UdDgQWBBSWSr3d4aDuErWWAcAlh+qF/6JyRDBQBgNVHSMESTBH
gBTpdoANHvVPRpKHcMUPueZzKJrm+aEZpBcwFTETMBEGA1UEAwwKdGVhbTMxLW5l
dIIUWpt+knpu0bbJU7GI+YM/e28AORMwEwYDVR0lBAwwCgYIKwYBBQUHAwEwCwYD
VR0PBAQDAgWgMBgGA1UdEQQRMA+CDXRlYW0zMS1zZXJ2ZXIwDQYJKoZIhvcNAQEL
BQADggEBAMlcIfdADtwRNMgcb9Frz+HkdO6513eA6XL9yHZI3ADuAsto9WbzfmUG
KhuT4+ibjijcwsmS9L0Lsjt1kHxQg7Z4NL22O7bsDbNaEcM8KTWdAofPsKNFrAxD
xBKKyA6KZNhx3PyYRgYJ2QrruKZ6Zq7FxJxkFCrkktni9gjvMYssHd6ZohkYsdSQ
3ku8OxCa/P/yn8206oe5Tv2P9G6QlqY7FHJXbTWgGeLLsz4EMCZEMMEtFzzNEWYr
++XwIdWOWdcLbH9QiOD5QDlmdRowbqo2Re0dT4n0THk843PGUk9+WOeGpwfal8Ca
/mhvHD2spxaY1EuI4nDFrszMECynIrc=
-----END CERTIFICATE-----
