Certificate:
    Data:
        Version: 3 (0x2)
        Serial Number:
            bd:02:35:fb:fb:9c:47:d9:82:f8:77:a1:16:75:d5:21
        Signature Algorithm: sha256WithRSAEncryption
        Issuer: CN=team162-net
        Validity
            Not Before: Aug 14 14:25:38 2023 GMT
            Not After : Jul 29 14:25:38 2026 GMT
        Subject: CN=team162-client
        Subject Public Key Info:
            Public Key Algorithm: rsaEncryption
                RSA Public-Key: (2048 bit)
                Modulus:
                    00:d4:19:95:29:b7:52:36:ed:53:03:ed:1d:1d:60:
                    44:cc:c6:34:60:be:c1:01:a0:5e:b9:9b:b2:97:6e:
                    85:66:57:32:c1:59:00:38:70:10:62:c7:db:f9:f0:
                    8f:e4:6c:b5:20:2b:74:bc:59:ae:53:67:a9:bb:42:
                    c3:aa:bb:ec:fb:3f:b4:d8:93:51:23:62:f4:4e:70:
                    37:b9:fb:d2:3c:af:42:c8:fa:99:12:65:85:5a:38:
                    e4:a6:bb:5d:f3:7f:de:c1:33:74:3f:fd:31:26:6b:
                    74:5d:4c:ea:9e:ad:9a:2c:b3:d4:ae:c9:87:42:fb:
                    22:2d:39:3e:ad:75:0e:c0:a9:cf:bd:26:4c:d4:8b:
                    21:f7:f4:e4:96:6a:93:db:05:1a:c8:4a:94:a5:fd:
                    4c:d3:fa:4e:73:f9:13:8c:bd:f6:6f:ed:07:ba:cb:
                    8f:95:94:54:77:ff:35:6b:47:df:1a:dc:0c:41:77:
                    bb:d9:a8:63:11:1d:7a:20:99:f5:b9:0c:29:c8:eb:
                    2a:0c:86:20:b7:7c:2d:92:28:13:d9:b8:b1:1d:01:
                    8e:b1:c9:48:6a:ab:74:6d:62:80:7c:04:2a:1a:e1:
                    e2:09:4a:65:eb:2b:7c:15:dd:7f:15:0a:69:98:23:
                    b9:6e:d2:ea:7b:9f:b4:d0:c9:9d:4a:e4:63:e0:54:
                    af:53
                Exponent: 65537 (0x10001)
        X509v3 extensions:
            X509v3 Basic Constraints: 
                CA:FALSE
            X509v3 Subject Key Identifier: 
                87:F9:BD:9F:BF:94:41:29:7B:4C:C2:E2:5A:0E:FA:4D:99:C3:6D:0C
            X509v3 Authority Key Identifier: 
                keyid:A0:D9:1D:1D:C7:9D:45:BB:6B:34:36:34:6E:04:C3:C5:85:6D:4B:BA
                DirName:/CN=team162-net
                serial:12:6E:36:32:54:45:FC:7C:9C:BA:C3:31:76:88:61:69:D4:90:48:0B

            X509v3 Extended Key Usage: 
                TLS Web Client Authentication
            X509v3 Key Usage: 
                Digital Signature
    Signature Algorithm: sha256WithRSAEncryption
         25:67:47:0c:7c:c9:79:6f:08:35:7d:76:18:d9:da:23:65:38:
         3c:6e:a8:d8:c9:18:5c:71:9b:b5:6e:41:57:29:ae:59:01:ae:
         7c:ff:81:b7:8f:46:52:e9:7a:99:fa:7f:07:5a:53:21:ec:cb:
         f6:8e:62:29:6c:b1:94:f4:7c:7e:68:6f:de:63:9d:72:76:fc:
         a0:b0:b7:53:e9:37:ee:33:6d:65:98:69:34:a6:6f:6c:e4:47:
         43:18:63:4c:a7:e1:6e:22:71:73:65:d8:c8:e1:0f:a4:69:cc:
         04:8f:c8:cb:ee:46:02:d2:8a:23:ad:74:47:4f:da:c6:bb:fd:
         4a:1a:e5:b7:d1:3a:96:53:eb:d3:be:c7:2f:7f:fe:f1:ae:56:
         c8:bf:5a:f3:4c:6f:58:cf:db:92:71:34:ac:8d:e3:31:af:7b:
         f5:2a:f2:55:cc:e0:dc:33:0f:f9:0a:9d:15:a3:50:55:18:63:
         48:67:4d:ca:11:25:75:79:8c:e4:6c:4c:ce:33:cb:b0:34:b9:
         87:c3:48:26:13:be:74:73:7a:f8:95:e1:01:d3:a5:b5:ff:9d:
         2f:de:db:89:28:83:9b:33:4d:bd:a1:06:b3:97:3b:63:fb:64:
         e8:d8:be:7f:c0:ec:96:b0:99:5f:32:d8:50:b4:ea:f3:f2:3d:
         f8:d7:9e:0f
-----BEGIN CERTIFICATE-----
MIIDXTCCAkWgAwIBAgIRAL0CNfv7nEfZgvh3oRZ11SEwDQYJKoZIhvcNAQELBQAw
FjEUMBIGA1UEAwwLdGVhbTE2Mi1uZXQwHhcNMjMwODE0MTQyNTM4WhcNMjYwNzI5
MTQyNTM4WjAZMRcwFQYDVQQDDA50ZWFtMTYyLWNsaWVudDCCASIwDQYJKoZIhvcN
AQEBBQADggEPADCCAQoCggEBANQZlSm3UjbtUwPtHR1gRMzGNGC+wQGgXrmbspdu
hWZXMsFZADhwEGLH2/nwj+RstSArdLxZrlNnqbtCw6q77Ps/tNiTUSNi9E5wN7n7
0jyvQsj6mRJlhVo45Ka7XfN/3sEzdD/9MSZrdF1M6p6tmiyz1K7Jh0L7Ii05Pq11
DsCpz70mTNSLIff05JZqk9sFGshKlKX9TNP6TnP5E4y99m/tB7rLj5WUVHf/NWtH
3xrcDEF3u9moYxEdeiCZ9bkMKcjrKgyGILd8LZIoE9m4sR0BjrHJSGqrdG1igHwE
Khrh4glKZesrfBXdfxUKaZgjuW7S6nuftNDJnUrkY+BUr1MCAwEAAaOBojCBnzAJ
BgNVHRMEAjAAMB0GA1UdDgQWBBSH+b2fv5RBKXtMwuJaDvpNmcNtDDBRBgNVHSME
SjBIgBSg2R0dx51Fu2s0NjRuBMPFhW1LuqEapBgwFjEUMBIGA1UEAwwLdGVhbTE2
Mi1uZXSCFBJuNjJURfx8nLrDMXaIYWnUkEgLMBMGA1UdJQQMMAoGCCsGAQUFBwMC
MAsGA1UdDwQEAwIHgDANBgkqhkiG9w0BAQsFAAOCAQEAJWdHDHzJeW8INX12GNna
I2U4PG6o2MkYXHGbtW5BVymuWQGufP+Bt49GUul6mfp/B1pTIezL9o5iKWyxlPR8
fmhv3mOdcnb8oLC3U+k37jNtZZhpNKZvbORHQxhjTKfhbiJxc2XYyOEPpGnMBI/I
y+5GAtKKI610R0/axrv9Shrlt9E6llPr077HL3/+8a5WyL9a80xvWM/bknE0rI3j
Ma979SryVczg3DMP+QqdFaNQVRhjSGdNyhEldXmM5GxMzjPLsDS5h8NIJhO+dHN6
+JXhAdOltf+dL97biSiDmzNNvaEGs5c7Y/tk6Ni+f8DslrCZXzLYULTq8/I9+Nee
Dw==
-----END CERTIFICATE-----
