Certificate:
    Data:
        Version: 3 (0x2)
        Serial Number:
            57:27:64:9e:3b:c7:71:7d:01:7e:f5:f6:e3:9f:89:6f
        Signature Algorithm: sha256WithRSAEncryption
        Issuer: CN=team182-net
        Validity
            Not Before: Aug 14 14:26:00 2023 GMT
            Not After : Jul 29 14:26:00 2026 GMT
        Subject: CN=team182-server
        Subject Public Key Info:
            Public Key Algorithm: rsaEncryption
                RSA Public-Key: (2048 bit)
                Modulus:
                    00:cb:fe:ec:2b:69:6c:08:8b:a6:bc:64:13:20:cc:
                    3c:02:ea:de:0c:20:6f:f9:87:46:f4:96:d8:5a:d3:
                    f3:d9:0c:d9:7a:9c:8a:ca:08:4b:9c:e8:5b:bc:17:
                    83:f4:36:9c:4a:d5:f7:a3:f9:d1:93:58:e3:7c:5a:
                    dc:49:19:c9:b9:ea:c4:83:b0:5b:5f:32:00:45:2f:
                    76:2e:db:1b:f5:50:da:d4:47:2e:b6:fb:6c:18:7c:
                    69:e5:e1:e1:e4:ed:64:8f:ce:08:ab:14:d9:5e:ea:
                    81:6e:ab:d7:2b:24:18:73:4e:2d:c6:c3:b3:85:75:
                    f2:6b:72:dc:50:f6:c8:96:aa:18:06:08:e2:a5:a2:
                    29:5e:dd:d6:7b:07:ac:0a:a9:1d:dd:36:e6:2b:c8:
                    a3:f2:ae:48:b4:3a:5a:90:7f:e5:c6:5c:47:26:eb:
                    18:52:c5:72:f9:d0:c3:b5:d8:9a:6f:64:34:7d:77:
                    00:f4:93:47:d4:00:52:c3:a3:52:e1:ab:8f:c5:86:
                    d5:9a:bb:60:40:bf:78:e0:a5:6b:79:56:f2:ac:e3:
                    ca:15:71:62:eb:a8:e1:66:6a:4d:0f:db:c8:2f:38:
                    e1:bb:9b:8c:83:90:e7:1d:1b:cb:51:c8:65:d6:ad:
                    77:4b:f7:b4:1b:66:a1:dd:dd:77:f5:f6:9b:be:df:
                    be:cd
                Exponent: 65537 (0x10001)
        X509v3 extensions:
            X509v3 Basic Constraints: 
                CA:FALSE
            X509v3 Subject Key Identifier: 
                BB:28:BB:16:6B:26:BB:2A:9B:5E:DB:8E:16:76:86:E0:D1:04:B5:29
            X509v3 Authority Key Identifier: 
                keyid:68:FB:3C:58:0A:EC:83:33:C5:F4:9B:F6:81:64:C4:1A:16:CE:CE:F4
                DirName:/CN=team182-net
                serial:14:63:14:DF:73:69:E0:7E:5E:63:88:EA:4A:51:17:24:C2:DC:EC:0F

            X509v3 Extended Key Usage: 
                TLS Web Server Authentication
            X509v3 Key Usage: 
                Digital Signature, Key Encipherment
            X509v3 Subject Alternative Name: 
                DNS:team182-server
    Signature Algorithm: sha256WithRSAEncryption
         9f:27:57:0d:2c:b5:d8:06:58:cc:f3:92:14:36:71:07:41:34:
         44:d7:0f:b5:4e:76:ae:6d:ca:6e:54:b5:ea:3f:9f:82:41:74:
         d0:35:57:a0:9a:a0:e3:4b:a1:e1:a1:06:80:3e:fd:98:5d:8f:
         a8:d9:32:c5:b4:02:40:a1:3b:74:6b:64:8f:a2:0a:3d:40:ca:
         b7:17:32:e8:53:ad:08:94:30:b1:fa:fa:1f:96:00:1d:06:be:
         36:06:2a:f0:a9:98:5b:f9:65:1e:6d:0f:2f:11:ce:4e:87:02:
         eb:ff:8c:5b:7c:9d:b3:c8:dc:8d:c3:8a:7b:07:66:41:b2:0f:
         af:d0:9b:e0:2b:71:5e:4d:17:ee:9a:f5:24:b3:7c:41:70:ed:
         55:77:e5:22:25:2b:a8:1c:2e:1b:b5:9a:8c:67:fa:dd:81:8a:
         86:dc:50:9d:86:23:05:69:b1:88:e3:4b:1b:bf:38:a0:2e:77:
         21:6e:e6:de:01:f8:33:36:44:14:b5:ec:cb:22:7d:ed:d1:db:
         9d:7b:90:31:46:07:9c:e5:ab:86:67:35:51:38:39:23:66:2b:
         dd:30:6a:ce:5d:e4:93:af:25:02:d0:71:d4:d5:9f:0a:83:d4:
         ee:c3:05:39:d1:52:27:2b:99:ad:a1:ff:14:25:3f:d2:1f:31:
         21:7d:4e:7a
-----BEGIN CERTIFICATE-----
MIIDdzCCAl+gAwIBAgIQVydknjvHcX0BfvX245+JbzANBgkqhkiG9w0BAQsFADAW
MRQwEgYDVQQDDAt0ZWFtMTgyLW5ldDAeFw0yMzA4MTQxNDI2MDBaFw0yNjA3Mjkx
NDI2MDBaMBkxFzAVBgNVBAMMDnRlYW0xODItc2VydmVyMIIBIjANBgkqhkiG9w0B
AQEFAAOCAQ8AMIIBCgKCAQEAy/7sK2lsCIumvGQTIMw8AureDCBv+YdG9JbYWtPz
2QzZepyKyghLnOhbvBeD9DacStX3o/nRk1jjfFrcSRnJuerEg7BbXzIARS92Ltsb
9VDa1EcutvtsGHxp5eHh5O1kj84IqxTZXuqBbqvXKyQYc04txsOzhXXya3LcUPbI
lqoYBgjipaIpXt3WewesCqkd3TbmK8ij8q5ItDpakH/lxlxHJusYUsVy+dDDtdia
b2Q0fXcA9JNH1ABSw6NS4auPxYbVmrtgQL944KVreVbyrOPKFXFi66jhZmpND9vI
Lzjhu5uMg5DnHRvLUchl1q13S/e0G2ah3d139fabvt++zQIDAQABo4G9MIG6MAkG
A1UdEwQCMAAwHQYDVR0OBBYEFLsouxZrJrsqm17bjhZ2huDRBLUpMFEGA1UdIwRK
MEiAFGj7PFgK7IMzxfSb9oFkxBoWzs70oRqkGDAWMRQwEgYDVQQDDAt0ZWFtMTgy
LW5ldIIUFGMU33Np4H5eY4jqSlEXJMLc7A8wEwYDVR0lBAwwCgYIKwYBBQUHAwEw
CwYDVR0PBAQDAgWgMBkGA1UdEQQSMBCCDnRlYW0xODItc2VydmVyMA0GCSqGSIb3
DQEBCwUAA4IBAQCfJ1cNLLXYBljM85IUNnEHQTRE1w+1TnaubcpuVLXqP5+CQXTQ
NVegmqDjS6HhoQaAPv2YXY+o2TLFtAJAoTt0a2SPogo9QMq3FzLoU60IlDCx+vof
lgAdBr42BirwqZhb+WUebQ8vEc5OhwLr/4xbfJ2zyNyNw4p7B2ZBsg+v0JvgK3Fe
TRfumvUks3xBcO1Vd+UiJSuoHC4btZqMZ/rdgYqG3FCdhiMFabGI40sbvzigLnch
bubeAfgzNkQUtezLIn3t0dude5AxRgec5auGZzVRODkjZivdMGrOXeSTryUC0HHU
1Z8Kg9TuwwU50VInK5mtof8UJT/SHzEhfU56
-----END CERTIFICATE-----
