Certificate:
    Data:
        Version: 3 (0x2)
        Serial Number:
            fc:aa:be:a3:9b:b1:16:24:fe:62:32:ed:63:2f:9f:25
        Signature Algorithm: sha256WithRSAEncryption
        Issuer: CN=team182-net
        Validity
            Not Before: Aug 14 14:26:00 2023 GMT
            Not After : Jul 29 14:26:00 2026 GMT
        Subject: CN=team182-client
        Subject Public Key Info:
            Public Key Algorithm: rsaEncryption
                RSA Public-Key: (2048 bit)
                Modulus:
                    00:c8:99:e8:36:03:ca:21:4c:01:49:54:f0:bb:1d:
                    7f:42:5e:27:06:4c:be:89:33:1a:bb:c6:20:94:bf:
                    31:97:a5:08:ac:05:2a:41:ea:9d:2e:7b:2a:e8:3e:
                    e3:0b:e9:bf:aa:4d:88:bd:a7:d6:7c:53:70:e9:99:
                    c7:a8:9b:97:37:bc:91:6c:2b:dd:c7:74:28:19:e7:
                    f7:e5:d0:2e:f0:67:f7:78:47:87:08:ab:a5:cf:e7:
                    72:64:21:86:a4:b3:18:96:eb:49:a4:62:2a:77:c6:
                    b2:ff:45:af:f6:ba:37:8b:35:1c:12:30:c3:71:47:
                    3b:29:4e:16:78:87:2a:42:71:ad:cb:c6:e6:4d:6e:
                    46:8f:45:13:10:a6:3f:86:78:0e:64:db:30:ed:e8:
                    30:9b:3d:8f:86:ed:6a:11:9f:3f:b1:93:ee:16:10:
                    86:51:47:32:bc:97:d7:cc:4b:f4:8d:0e:75:e7:b1:
                    ef:70:48:0a:12:ee:be:75:49:b6:c5:18:e9:d8:a7:
                    84:36:c2:73:42:41:c4:7b:f9:ea:4e:87:10:05:59:
                    af:02:38:89:cd:b3:33:73:57:06:17:d7:5c:90:c6:
                    85:c5:66:d5:f4:72:5e:55:a3:36:c4:b8:4a:c4:3a:
                    43:88:4b:b2:8e:fb:42:7c:00:23:e6:e5:dc:74:ec:
                    0c:9d
                Exponent: 65537 (0x10001)
        X509v3 extensions:
            X509v3 Basic Constraints: 
                CA:FALSE
            X509v3 Subject Key Identifier: 
                40:0F:2B:24:72:96:A5:2F:CE:F3:60:27:2A:4A:0B:5A:55:68:56:AE
            X509v3 Authority Key Identifier: 
                keyid:68:FB:3C:58:0A:EC:83:33:C5:F4:9B:F6:81:64:C4:1A:16:CE:CE:F4
                DirName:/CN=team182-net
                serial:14:63:14:DF:73:69:E0:7E:5E:63:88:EA:4A:51:17:24:C2:DC:EC:0F

            X509v3 Extended Key Usage: 
                TLS Web Client Authentication
            X509v3 Key Usage: 
                Digital Signature
    Signature Algorithm: sha256WithRSAEncryption
         be:fe:00:75:52:f9:6c:14:3c:76:fc:85:ed:ba:15:37:50:94:
         84:80:67:3a:0e:02:26:21:ad:5b:c0:9e:5d:65:0a:d3:c5:09:
         8b:49:96:f6:19:bb:8b:8f:e0:74:30:4c:a9:0c:ec:2f:06:c3:
         23:43:14:cb:06:dd:03:cd:dc:38:6a:49:e9:05:30:fd:06:cc:
         d5:aa:d0:a0:ba:2b:43:a1:19:e5:fa:2e:06:24:e6:ee:ab:3c:
         8b:64:58:c9:ef:cc:c6:3c:33:b8:d0:a9:2f:d2:8a:c7:eb:53:
         65:9f:62:04:12:56:49:4a:cf:b7:aa:95:4b:5f:e9:22:47:b2:
         11:be:29:e1:25:da:5a:42:2d:28:29:ac:f1:63:e7:e1:1a:ca:
         d9:c6:b7:70:6c:0f:da:34:ac:e6:82:3a:12:d4:22:fa:91:ce:
         23:2a:c1:d2:82:ff:58:d2:17:7f:14:06:d3:09:75:67:ec:11:
         2d:96:6a:af:f9:16:b8:87:50:2f:5d:8e:fe:ba:70:7a:5b:a3:
         26:ef:2c:04:51:a2:ea:6d:af:85:63:95:a8:56:3c:be:ee:84:
         82:52:22:96:0d:13:03:53:7a:c5:91:f7:21:df:ce:85:1d:25:
         cc:bb:c4:ca:92:5e:f9:ba:01:9b:c1:3e:d1:1d:a4:fb:1b:a9:
         b1:35:b0:30
-----BEGIN CERTIFICATE-----
MIIDXTCCAkWgAwIBAgIRAPyqvqObsRYk/mIy7WMvnyUwDQYJKoZIhvcNAQELBQAw
FjEUMBIGA1UEAwwLdGVhbTE4Mi1uZXQwHhcNMjMwODE0MTQyNjAwWhcNMjYwNzI5
MTQyNjAwWjAZMRcwFQYDVQQDDA50ZWFtMTgyLWNsaWVudDCCASIwDQYJKoZIhvcN
AQEBBQADggEPADCCAQoCggEBAMiZ6DYDyiFMAUlU8Lsdf0JeJwZMvokzGrvGIJS/
MZelCKwFKkHqnS57Kug+4wvpv6pNiL2n1nxTcOmZx6iblze8kWwr3cd0KBnn9+XQ
LvBn93hHhwirpc/ncmQhhqSzGJbrSaRiKnfGsv9Fr/a6N4s1HBIww3FHOylOFniH
KkJxrcvG5k1uRo9FExCmP4Z4DmTbMO3oMJs9j4btahGfP7GT7hYQhlFHMryX18xL
9I0Odeex73BIChLuvnVJtsUY6dinhDbCc0JBxHv56k6HEAVZrwI4ic2zM3NXBhfX
XJDGhcVm1fRyXlWjNsS4SsQ6Q4hLso77QnwAI+bl3HTsDJ0CAwEAAaOBojCBnzAJ
BgNVHRMEAjAAMB0GA1UdDgQWBBRADyskcpalL87zYCcqSgtaVWhWrjBRBgNVHSME
SjBIgBRo+zxYCuyDM8X0m/aBZMQaFs7O9KEapBgwFjEUMBIGA1UEAwwLdGVhbTE4
Mi1uZXSCFBRjFN9zaeB+XmOI6kpRFyTC3OwPMBMGA1UdJQQMMAoGCCsGAQUFBwMC
MAsGA1UdDwQEAwIHgDANBgkqhkiG9w0BAQsFAAOCAQEAvv4AdVL5bBQ8dvyF7boV
N1CUhIBnOg4CJiGtW8CeXWUK08UJi0mW9hm7i4/gdDBMqQzsLwbDI0MUywbdA83c
OGpJ6QUw/QbM1arQoLorQ6EZ5fouBiTm7qs8i2RYye/MxjwzuNCpL9KKx+tTZZ9i
BBJWSUrPt6qVS1/pIkeyEb4p4SXaWkItKCms8WPn4RrK2ca3cGwP2jSs5oI6EtQi
+pHOIyrB0oL/WNIXfxQG0wl1Z+wRLZZqr/kWuIdQL12O/rpwelujJu8sBFGi6m2v
hWOVqFY8vu6EglIilg0TA1N6xZH3Id/OhR0lzLvEypJe+boBm8E+0R2k+xupsTWw
MA==
-----END CERTIFICATE-----
