Certificate:
    Data:
        Version: 3 (0x2)
        Serial Number:
            0b:45:1f:d9:2d:75:2e:3d:ca:2f:db:77:bf:34:d0:41
        Signature Algorithm: sha256WithRSAEncryption
        Issuer: CN=team89-net
        Validity
            Not Before: Aug 14 14:24:02 2023 GMT
            Not After : Jul 29 14:24:02 2026 GMT
        Subject: CN=team89-client
        Subject Public Key Info:
            Public Key Algorithm: rsaEncryption
                RSA Public-Key: (2048 bit)
                Modulus:
                    00:ce:25:a4:b2:f3:84:61:38:3b:62:36:c3:58:59:
                    83:ae:6d:cc:e5:0a:1b:9d:e2:47:65:6d:19:c6:7b:
                    b0:0e:3e:8b:44:9f:1e:0d:9a:05:60:39:70:2f:60:
                    dc:6f:82:ff:52:20:24:e9:91:33:a9:6b:ed:bb:ee:
                    92:02:c3:3b:c7:db:f8:63:84:5d:89:5d:f0:3e:7c:
                    1d:7b:df:2c:2f:7e:bb:28:b0:c5:64:c9:3e:54:78:
                    5e:a3:1f:ab:10:0e:8d:c0:70:13:08:83:8e:b8:ab:
                    f0:28:ba:7b:60:d3:01:6a:ba:a6:df:ae:77:0c:5b:
                    bf:40:11:59:bd:84:bf:2e:f4:ac:09:49:74:22:25:
                    3e:f9:20:0c:ed:44:fe:6c:7c:22:56:25:33:5e:ee:
                    a5:8c:53:d2:09:34:35:60:40:dd:aa:ce:0d:e2:16:
                    61:1d:1d:ed:ed:c8:26:52:2c:f9:78:92:9a:bc:c5:
                    17:48:c3:39:e6:30:16:67:d5:7f:03:57:00:43:28:
                    14:c9:1b:8f:59:32:ed:ec:53:65:3d:76:d0:8e:bd:
                    26:5f:64:00:3f:ca:b9:07:4d:47:95:0c:82:9b:ad:
                    ae:3c:2e:e0:c3:24:0c:bf:e3:d2:a7:1d:0f:be:e4:
                    04:79:d9:19:b1:90:e2:d9:45:e1:38:4a:7c:e6:e0:
                    f9:55
                Exponent: 65537 (0x10001)
        X509v3 extensions:
            X509v3 Basic Constraints: 
                CA:FALSE
            X509v3 Subject Key Identifier: 
                F7:2F:49:92:A2:25:B7:E4:10:29:38:8D:5C:C9:53:C2:45:55:06:36
            X509v3 Authority Key Identifier: 
                keyid:48:F0:09:81:E6:BD:80:71:4E:F5:38:5B:0A:D2:05:DD:09:57:4E:E3
                DirName:/CN=team89-net
                serial:65:B7:0E:77:E1:30:6A:CC:91:F2:91:AA:FC:FC:B6:45:A6:4D:4E:F0

            X509v3 Extended Key Usage: 
                TLS Web Client Authentication
            X509v3 Key Usage: 
                Digital Signature
    Signature Algorithm: sha256WithRSAEncryption
         74:b6:43:69:76:e7:bc:25:25:65:27:69:4c:6a:79:ae:2c:ff:
         1a:79:5e:cf:8c:23:0e:12:4d:d2:ae:c0:ca:a1:2a:3c:2d:c1:
         23:9a:12:23:bd:65:cc:d4:4f:14:83:01:52:72:8f:f3:77:e4:
         29:e1:a0:45:21:82:97:f4:06:32:09:e9:6b:df:99:9d:94:a9:
         5c:21:dd:26:47:1e:e5:23:52:9a:71:78:cd:8b:27:0e:74:86:
         fd:cf:7d:fb:cb:8d:99:cf:e4:e3:1b:d3:84:6b:90:05:1e:e9:
         de:c1:11:c8:27:d2:2e:cd:55:9d:15:10:22:c4:ad:4b:14:92:
         20:a8:c8:0f:f8:52:dc:16:5f:d1:84:da:bc:04:cd:0c:e4:52:
         7c:eb:12:91:d6:bc:5d:fe:fb:2b:c4:20:19:61:e4:ff:f3:24:
         65:51:6b:c7:a1:b2:be:8f:7c:03:73:72:4b:c4:cd:4f:99:f9:
         4e:5c:83:22:5e:6b:1e:99:0a:1e:63:b8:1e:9a:61:c7:98:bb:
         3d:21:ac:e8:7b:04:72:79:93:97:2f:3d:37:3b:f0:7a:a9:b8:
         54:66:4c:67:06:59:52:4b:d3:72:ec:3a:70:32:c7:cf:3a:34:
         2a:f1:43:e6:dc:0b:74:52:e4:06:bb:bb:00:b9:85:7e:af:dd:
         4d:9b:3b:19
-----BEGIN CERTIFICATE-----
MIIDWTCCAkGgAwIBAgIQC0Uf2S11Lj3KL9t3vzTQQTANBgkqhkiG9w0BAQsFADAV
MRMwEQYDVQQDDAp0ZWFtODktbmV0MB4XDTIzMDgxNDE0MjQwMloXDTI2MDcyOTE0
MjQwMlowGDEWMBQGA1UEAwwNdGVhbTg5LWNsaWVudDCCASIwDQYJKoZIhvcNAQEB
BQADggEPADCCAQoCggEBAM4lpLLzhGE4O2I2w1hZg65tzOUKG53iR2VtGcZ7sA4+
i0SfHg2aBWA5cC9g3G+C/1IgJOmRM6lr7bvukgLDO8fb+GOEXYld8D58HXvfLC9+
uyiwxWTJPlR4XqMfqxAOjcBwEwiDjrir8Ci6e2DTAWq6pt+udwxbv0ARWb2Evy70
rAlJdCIlPvkgDO1E/mx8IlYlM17upYxT0gk0NWBA3arODeIWYR0d7e3IJlIs+XiS
mrzFF0jDOeYwFmfVfwNXAEMoFMkbj1ky7exTZT120I69Jl9kAD/KuQdNR5UMgput
rjwu4MMkDL/j0qcdD77kBHnZGbGQ4tlF4ThKfObg+VUCAwEAAaOBoTCBnjAJBgNV
HRMEAjAAMB0GA1UdDgQWBBT3L0mSoiW35BApOI1cyVPCRVUGNjBQBgNVHSMESTBH
gBRI8AmB5r2AcU71OFsK0gXdCVdO46EZpBcwFTETMBEGA1UEAwwKdGVhbTg5LW5l
dIIUZbcOd+EwasyR8pGq/Py2RaZNTvAwEwYDVR0lBAwwCgYIKwYBBQUHAwIwCwYD
VR0PBAQDAgeAMA0GCSqGSIb3DQEBCwUAA4IBAQB0tkNpdue8JSVlJ2lManmuLP8a
eV7PjCMOEk3SrsDKoSo8LcEjmhIjvWXM1E8UgwFSco/zd+Qp4aBFIYKX9AYyCelr
35mdlKlcId0mRx7lI1KacXjNiycOdIb9z337y42Zz+TjG9OEa5AFHunewRHIJ9Iu
zVWdFRAixK1LFJIgqMgP+FLcFl/RhNq8BM0M5FJ86xKR1rxd/vsrxCAZYeT/8yRl
UWvHobK+j3wDc3JLxM1PmflOXIMiXmsemQoeY7gemmHHmLs9IazoewRyeZOXLz03
O/B6qbhUZkxnBllSS9Ny7DpwMsfPOjQq8UPm3At0UuQGu7sAuYV+r91NmzsZ
-----END CERTIFICATE-----
