Certificate:
    Data:
        Version: 3 (0x2)
        Serial Number:
            eb:16:74:4d:48:bf:22:38:65:98:ca:10:c2:aa:0e:20
        Signature Algorithm: sha256WithRSAEncryption
        Issuer: CN=team67-net
        Validity
            Not Before: Aug 14 14:23:34 2023 GMT
            Not After : Jul 29 14:23:34 2026 GMT
        Subject: CN=team67-client
        Subject Public Key Info:
            Public Key Algorithm: rsaEncryption
                RSA Public-Key: (2048 bit)
                Modulus:
                    00:a6:d1:83:d6:1d:e5:fa:52:0e:1b:36:7f:d6:91:
                    b6:44:bb:e5:6d:a8:3e:77:5e:e7:84:98:90:c6:bf:
                    e6:92:f0:5e:d7:14:34:32:0b:47:f3:01:06:f6:a6:
                    63:16:fb:3c:2c:b7:e4:d5:4d:d6:d7:be:82:8f:65:
                    96:87:2f:4a:6f:e5:d3:81:34:d2:c5:d0:54:a4:5f:
                    18:2d:b1:11:25:f3:44:e1:8f:40:b8:99:ae:6c:7d:
                    fa:f9:77:d2:5b:41:02:8c:f1:37:95:09:23:0d:61:
                    cb:31:57:01:b2:d5:58:31:e6:2a:6c:63:31:b9:b0:
                    ef:09:dd:d2:1c:56:60:e6:22:3d:ec:29:77:45:9e:
                    8b:f1:4d:b7:34:36:8d:75:b8:1c:dc:e8:83:e0:51:
                    ee:41:99:7c:aa:53:95:0a:a7:c9:e2:85:e8:26:80:
                    5c:8c:b9:88:cd:ce:f8:2b:68:31:b8:f5:12:b8:98:
                    5f:79:9c:80:05:c7:b9:d0:02:63:7c:48:06:43:1f:
                    75:45:6b:d3:fd:a5:42:0f:79:fe:de:1e:a6:d0:a1:
                    8c:e8:ad:bf:78:7a:eb:a6:87:4b:4e:0f:0c:5c:82:
                    3e:f8:ba:52:9a:c7:c5:eb:b8:10:24:90:5b:d7:9e:
                    55:18:e7:96:b3:35:86:be:3b:ca:36:13:5d:af:e2:
                    46:f7
                Exponent: 65537 (0x10001)
        X509v3 extensions:
            X509v3 Basic Constraints: 
                CA:FALSE
            X509v3 Subject Key Identifier: 
                11:F7:98:9F:41:CB:73:E2:9F:F6:B4:CA:DB:1A:FD:50:29:7F:16:A3
            X509v3 Authority Key Identifier: 
                keyid:29:AB:11:2A:B4:21:37:A5:1D:AB:6F:20:4C:4D:07:D2:21:CF:56:59
                DirName:/CN=team67-net
                serial:41:55:09:BB:30:AB:1F:9A:C2:59:8D:C9:E7:A2:2C:8A:B7:4E:05:65

            X509v3 Extended Key Usage: 
                TLS Web Client Authentication
            X509v3 Key Usage: 
                Digital Signature
    Signature Algorithm: sha256WithRSAEncryption
         3f:51:54:f7:8a:98:6c:af:9e:bc:b3:cf:c8:c4:68:40:3f:f7:
         f3:d9:f5:32:29:08:a0:99:f6:dc:14:c9:06:1e:e8:72:fe:b1:
         9f:c2:25:dc:49:c0:6c:c6:85:f8:4d:6d:ce:a8:3f:6a:60:63:
         bc:22:94:b6:35:e6:df:a6:4d:49:1a:06:8e:65:38:74:c2:41:
         eb:64:53:1c:b7:c9:b7:89:c9:28:96:0f:26:ce:9f:67:9d:c8:
         5c:b7:e9:cf:39:b7:35:44:c1:fc:2e:3a:b1:bc:74:2f:18:89:
         f4:a0:9f:52:3d:a7:de:49:0b:59:c8:99:09:4c:31:dc:a2:91:
         e6:af:10:39:cb:8a:5d:81:af:16:4a:cc:20:6b:1c:a8:57:82:
         de:45:99:8a:24:d5:a0:0f:ff:ee:fc:77:8f:9c:87:b0:4a:79:
         81:ba:e5:0e:d4:06:05:57:79:01:eb:c9:f6:48:43:e5:7d:22:
         c5:76:a8:dd:a8:d0:26:d2:d3:5f:12:0a:65:30:74:e1:4a:f1:
         1b:b7:74:97:81:94:cb:72:c1:ad:cb:25:54:04:fc:01:14:66:
         1e:f2:19:23:aa:ca:be:a5:dd:31:65:50:53:44:57:f9:de:c9:
         40:48:21:aa:33:5c:32:66:2b:b3:24:00:04:6f:80:72:34:63:
         45:95:2a:5b
-----BEGIN CERTIFICATE-----
MIIDWjCCAkKgAwIBAgIRAOsWdE1IvyI4ZZjKEMKqDiAwDQYJKoZIhvcNAQELBQAw
FTETMBEGA1UEAwwKdGVhbTY3LW5ldDAeFw0yMzA4MTQxNDIzMzRaFw0yNjA3Mjkx
NDIzMzRaMBgxFjAUBgNVBAMMDXRlYW02Ny1jbGllbnQwggEiMA0GCSqGSIb3DQEB
AQUAA4IBDwAwggEKAoIBAQCm0YPWHeX6Ug4bNn/WkbZEu+VtqD53XueEmJDGv+aS
8F7XFDQyC0fzAQb2pmMW+zwst+TVTdbXvoKPZZaHL0pv5dOBNNLF0FSkXxgtsREl
80Thj0C4ma5sffr5d9JbQQKM8TeVCSMNYcsxVwGy1Vgx5ipsYzG5sO8J3dIcVmDm
Ij3sKXdFnovxTbc0No11uBzc6IPgUe5BmXyqU5UKp8nihegmgFyMuYjNzvgraDG4
9RK4mF95nIAFx7nQAmN8SAZDH3VFa9P9pUIPef7eHqbQoYzorb94euumh0tODwxc
gj74ulKax8XruBAkkFvXnlUY55azNYa+O8o2E12v4kb3AgMBAAGjgaEwgZ4wCQYD
VR0TBAIwADAdBgNVHQ4EFgQUEfeYn0HLc+Kf9rTK2xr9UCl/FqMwUAYDVR0jBEkw
R4AUKasRKrQhN6Udq28gTE0H0iHPVlmhGaQXMBUxEzARBgNVBAMMCnRlYW02Ny1u
ZXSCFEFVCbswqx+awlmNyeeiLIq3TgVlMBMGA1UdJQQMMAoGCCsGAQUFBwMCMAsG
A1UdDwQEAwIHgDANBgkqhkiG9w0BAQsFAAOCAQEAP1FU94qYbK+evLPPyMRoQD/3
89n1MikIoJn23BTJBh7ocv6xn8Il3EnAbMaF+E1tzqg/amBjvCKUtjXm36ZNSRoG
jmU4dMJB62RTHLfJt4nJKJYPJs6fZ53IXLfpzzm3NUTB/C46sbx0LxiJ9KCfUj2n
3kkLWciZCUwx3KKR5q8QOcuKXYGvFkrMIGscqFeC3kWZiiTVoA//7vx3j5yHsEp5
gbrlDtQGBVd5AevJ9khD5X0ixXao3ajQJtLTXxIKZTB04UrxG7d0l4GUy3LBrcsl
VAT8ARRmHvIZI6rKvqXdMWVQU0RX+d7JQEghqjNcMmYrsyQABG+AcjRjRZUqWw==
-----END CERTIFICATE-----
