Certificate:
    Data:
        Version: 3 (0x2)
        Serial Number:
            90:31:e4:ca:63:8f:55:96:ec:a0:dc:86:f8:70:d2:31
        Signature Algorithm: sha256WithRSAEncryption
        Issuer: CN=team123-net
        Validity
            Not Before: Aug 14 14:24:48 2023 GMT
            Not After : Jul 29 14:24:48 2026 GMT
        Subject: CN=team123-client
        Subject Public Key Info:
            Public Key Algorithm: rsaEncryption
                RSA Public-Key: (2048 bit)
                Modulus:
                    00:b0:27:2a:02:b1:3c:ac:f9:be:73:3e:71:93:9b:
                    db:82:d1:7c:60:20:ec:e5:02:f0:ac:d2:e2:df:56:
                    60:0a:fd:1b:7d:3a:1a:58:dd:7e:10:b0:87:2a:0d:
                    1f:40:0c:c3:84:9e:85:77:cf:b0:4c:00:91:0a:8f:
                    2a:ac:23:1d:1f:50:41:4b:ee:f8:37:31:96:43:bb:
                    ad:e8:c2:1e:2c:af:69:a5:6b:ba:ca:59:d1:9e:ec:
                    58:00:a7:a3:d4:ee:90:ee:12:70:c8:67:4b:f5:53:
                    d6:f0:60:67:ff:71:75:55:3d:fe:63:1e:78:2b:28:
                    46:bf:18:e9:ec:32:c1:e0:2f:09:22:7f:92:08:fe:
                    77:be:e7:bf:06:68:2c:39:1b:09:74:de:bf:59:6e:
                    3b:52:ef:5d:1e:55:79:28:d6:b8:14:82:c3:03:ae:
                    e6:59:4f:7c:b8:0e:39:42:32:23:88:a6:0c:d1:db:
                    11:54:b1:c5:60:9d:49:78:27:69:cf:11:9e:c8:62:
                    32:e2:98:e6:c3:39:15:49:c6:f2:7b:89:4f:81:f0:
                    ae:a8:39:f5:31:8d:62:4b:ec:13:ef:19:88:ab:ad:
                    ef:85:b8:90:6b:39:03:55:43:98:30:ed:59:2c:f3:
                    50:4f:10:2f:c0:d8:fb:0f:b5:26:57:0e:87:0d:ea:
                    fd:55
                Exponent: 65537 (0x10001)
        X509v3 extensions:
            X509v3 Basic Constraints: 
                CA:FALSE
            X509v3 Subject Key Identifier: 
                03:16:CF:28:8B:97:A7:CB:AC:34:06:39:53:DC:92:35:62:75:06:BF
            X509v3 Authority Key Identifier: 
                keyid:D9:BE:84:AF:40:48:69:D5:EA:D0:48:FC:3C:0F:37:36:51:7A:EB:91
                DirName:/CN=team123-net
                serial:01:7B:B5:B3:BB:22:76:E1:0E:F4:6A:2E:DB:C7:15:28:51:1A:97:E9

            X509v3 Extended Key Usage: 
                TLS Web Client Authentication
            X509v3 Key Usage: 
                Digital Signature
    Signature Algorithm: sha256WithRSAEncryption
         a1:f9:e6:52:d2:e7:37:06:a5:e7:8b:bb:de:82:5d:a9:39:f0:
         1d:3f:b3:b4:e2:65:7b:32:04:07:d0:69:1f:71:38:6a:ed:26:
         2b:e6:d9:39:70:e0:2f:a0:2d:19:94:3d:e4:69:79:b5:11:87:
         76:5e:4f:69:b6:e9:3d:2e:7b:74:e7:c5:00:e4:37:2f:27:65:
         f5:c0:fe:73:0e:7b:d5:f0:ab:1d:56:c5:3c:c6:85:17:dc:8f:
         fa:86:d0:83:3b:2a:a9:49:01:5d:6a:7f:71:3c:b1:ef:7c:b3:
         ce:4a:e7:e7:a6:61:c2:25:bd:f0:e3:69:9e:cb:9c:6d:04:83:
         5d:80:d5:f0:af:7d:ec:28:f8:47:9f:39:5e:60:0c:c1:b3:e7:
         e6:ef:4f:94:11:e4:d4:97:34:91:75:74:39:15:2f:f8:a4:c1:
         55:1f:05:5a:22:24:5f:c9:4b:45:f2:c8:cb:b1:34:c2:73:a7:
         42:d9:dc:c9:a4:38:e8:56:60:6d:f9:d0:20:6c:37:0d:99:d9:
         ed:98:d0:e2:32:4f:7e:75:e5:21:3f:a4:f2:7b:d1:31:7a:5b:
         51:1e:98:92:43:66:8b:8d:ae:4a:b6:62:66:96:6d:6f:06:b4:
         54:e0:ec:2f:20:09:f5:94:1a:32:21:3b:00:20:10:57:02:3d:
         1b:8d:1e:04
-----BEGIN CERTIFICATE-----
MIIDXTCCAkWgAwIBAgIRAJAx5Mpjj1WW7KDchvhw0jEwDQYJKoZIhvcNAQELBQAw
FjEUMBIGA1UEAwwLdGVhbTEyMy1uZXQwHhcNMjMwODE0MTQyNDQ4WhcNMjYwNzI5
MTQyNDQ4WjAZMRcwFQYDVQQDDA50ZWFtMTIzLWNsaWVudDCCASIwDQYJKoZIhvcN
AQEBBQADggEPADCCAQoCggEBALAnKgKxPKz5vnM+cZOb24LRfGAg7OUC8KzS4t9W
YAr9G306GljdfhCwhyoNH0AMw4SehXfPsEwAkQqPKqwjHR9QQUvu+DcxlkO7rejC
HiyvaaVruspZ0Z7sWACno9TukO4ScMhnS/VT1vBgZ/9xdVU9/mMeeCsoRr8Y6ewy
weAvCSJ/kgj+d77nvwZoLDkbCXTev1luO1LvXR5VeSjWuBSCwwOu5llPfLgOOUIy
I4imDNHbEVSxxWCdSXgnac8RnshiMuKY5sM5FUnG8nuJT4Hwrqg59TGNYkvsE+8Z
iKut74W4kGs5A1VDmDDtWSzzUE8QL8DY+w+1JlcOhw3q/VUCAwEAAaOBojCBnzAJ
BgNVHRMEAjAAMB0GA1UdDgQWBBQDFs8oi5eny6w0BjlT3JI1YnUGvzBRBgNVHSME
SjBIgBTZvoSvQEhp1erQSPw8Dzc2UXrrkaEapBgwFjEUMBIGA1UEAwwLdGVhbTEy
My1uZXSCFAF7tbO7InbhDvRqLtvHFShRGpfpMBMGA1UdJQQMMAoGCCsGAQUFBwMC
MAsGA1UdDwQEAwIHgDANBgkqhkiG9w0BAQsFAAOCAQEAofnmUtLnNwal54u73oJd
qTnwHT+ztOJlezIEB9BpH3E4au0mK+bZOXDgL6AtGZQ95Gl5tRGHdl5PabbpPS57
dOfFAOQ3Lydl9cD+cw571fCrHVbFPMaFF9yP+obQgzsqqUkBXWp/cTyx73yzzkrn
56ZhwiW98ONpnsucbQSDXYDV8K997Cj4R585XmAMwbPn5u9PlBHk1Jc0kXV0ORUv
+KTBVR8FWiIkX8lLRfLIy7E0wnOnQtncyaQ46FZgbfnQIGw3DZnZ7ZjQ4jJPfnXl
IT+k8nvRMXpbUR6YkkNmi42uSrZiZpZtbwa0VODsLyAJ9ZQaMiE7ACAQVwI9G40e
BA==
-----END CERTIFICATE-----
