Certificate:
    Data:
        Version: 3 (0x2)
        Serial Number:
            ef:3a:63:d5:89:de:5c:8c:b4:ef:2a:9b:9d:15:d4:32
        Signature Algorithm: sha256WithRSAEncryption
        Issuer: CN=team123-net
        Validity
            Not Before: Aug 14 14:24:48 2023 GMT
            Not After : Jul 29 14:24:48 2026 GMT
        Subject: CN=team123-server
        Subject Public Key Info:
            Public Key Algorithm: rsaEncryption
                RSA Public-Key: (2048 bit)
                Modulus:
                    00:f3:33:75:10:cd:1b:d5:a6:67:da:c0:a6:44:87:
                    4f:52:b0:b4:ef:48:e6:5f:97:49:2b:e9:b7:c8:e3:
                    db:f9:ce:e6:3d:5f:86:78:32:aa:03:4b:cb:6e:25:
                    7f:af:13:86:8f:53:30:7a:84:09:28:18:97:da:3d:
                    06:75:89:95:c1:f4:b4:01:c1:28:f9:41:ae:a1:ef:
                    b5:28:cb:56:32:cb:42:c6:bc:3b:e6:85:3f:52:31:
                    67:2e:e9:36:72:0b:be:25:f7:99:e8:7f:0f:f3:28:
                    36:a8:26:e5:19:7c:73:64:79:c3:8d:93:9c:e7:64:
                    b4:bf:9a:dc:77:88:be:83:7d:65:d4:b4:c0:b6:c6:
                    f0:ff:9b:3f:74:cc:df:ed:ab:52:9d:58:a6:a6:a3:
                    e3:f4:1e:e2:8c:df:97:2c:1e:0d:48:e8:e4:fb:ba:
                    b2:32:e2:4a:b6:fe:61:64:4f:0a:db:21:2d:eb:5a:
                    63:fb:55:1b:43:08:f2:c0:8f:c1:4b:2b:8d:b3:33:
                    85:45:d9:e6:e6:d2:3d:53:fd:c4:c7:31:62:ee:ff:
                    2c:46:64:45:81:ee:27:90:2d:60:d3:01:7b:02:26:
                    33:c8:a3:9a:11:92:ad:60:fb:eb:a0:46:c1:a0:19:
                    ea:e4:e7:ec:f6:fa:3b:99:e8:49:aa:fc:77:d8:58:
                    e8:af
                Exponent: 65537 (0x10001)
        X509v3 extensions:
            X509v3 Basic Constraints: 
                CA:FALSE
            X509v3 Subject Key Identifier: 
                DC:31:72:F4:70:AA:FD:04:B0:2E:2B:5D:25:31:A6:2F:98:A7:BC:A3
            X509v3 Authority Key Identifier: 
                keyid:D9:BE:84:AF:40:48:69:D5:EA:D0:48:FC:3C:0F:37:36:51:7A:EB:91
                DirName:/CN=team123-net
                serial:01:7B:B5:B3:BB:22:76:E1:0E:F4:6A:2E:DB:C7:15:28:51:1A:97:E9

            X509v3 Extended Key Usage: 
                TLS Web Server Authentication
            X509v3 Key Usage: 
                Digital Signature, Key Encipherment
            X509v3 Subject Alternative Name: 
                DNS:team123-server
    Signature Algorithm: sha256WithRSAEncryption
         08:c2:86:a3:fe:70:93:e4:b6:c3:68:cf:ac:9d:7b:14:10:19:
         5c:00:6a:d8:cf:7f:21:bd:09:08:d4:a8:e8:84:2c:e1:6a:e9:
         ff:09:1f:e4:1a:8e:af:d9:10:21:95:a7:7e:ee:e2:d0:80:ac:
         35:1e:72:0c:1a:71:3f:56:17:d5:78:dc:ae:38:a7:a4:6d:8c:
         fb:08:8c:34:f0:41:90:eb:d7:4f:20:97:bd:99:01:5b:bb:c4:
         64:a4:3c:41:67:9d:3c:ac:0d:82:b4:e5:3f:24:77:88:44:e8:
         8d:04:df:ea:92:ea:00:96:40:77:73:dc:28:40:09:9f:42:1e:
         ad:ea:64:78:4a:32:ef:cd:89:b9:ac:22:6f:2c:5c:79:3a:18:
         16:b5:d5:99:67:1d:c5:bb:b9:a5:e7:5c:ff:00:21:cc:ac:5a:
         8d:82:76:9b:70:49:b3:da:69:c1:bc:d7:cd:6d:47:8d:84:b0:
         8d:72:b8:57:1a:7e:12:a4:a7:4a:f5:b9:be:56:80:20:4a:71:
         da:36:b1:42:f2:63:01:13:a9:6e:66:3b:34:00:d7:fc:5d:50:
         ab:62:50:ae:0a:0c:a0:d6:8a:ac:b0:24:7c:94:eb:20:6f:dd:
         3e:8e:2e:ba:69:19:68:6a:5b:25:bb:87:49:61:60:a8:5f:d1:
         94:ab:a4:a6
-----BEGIN CERTIFICATE-----
MIIDeDCCAmCgAwIBAgIRAO86Y9WJ3lyMtO8qm50V1DIwDQYJKoZIhvcNAQELBQAw
FjEUMBIGA1UEAwwLdGVhbTEyMy1uZXQwHhcNMjMwODE0MTQyNDQ4WhcNMjYwNzI5
MTQyNDQ4WjAZMRcwFQYDVQQDDA50ZWFtMTIzLXNlcnZlcjCCASIwDQYJKoZIhvcN
AQEBBQADggEPADCCAQoCggEBAPMzdRDNG9WmZ9rApkSHT1KwtO9I5l+XSSvpt8jj
2/nO5j1fhngyqgNLy24lf68Tho9TMHqECSgYl9o9BnWJlcH0tAHBKPlBrqHvtSjL
VjLLQsa8O+aFP1IxZy7pNnILviX3meh/D/MoNqgm5Rl8c2R5w42TnOdktL+a3HeI
voN9ZdS0wLbG8P+bP3TM3+2rUp1Ypqaj4/Qe4ozflyweDUjo5Pu6sjLiSrb+YWRP
CtshLetaY/tVG0MI8sCPwUsrjbMzhUXZ5ubSPVP9xMcxYu7/LEZkRYHuJ5AtYNMB
ewImM8ijmhGSrWD766BGwaAZ6uTn7Pb6O5noSar8d9hY6K8CAwEAAaOBvTCBujAJ
BgNVHRMEAjAAMB0GA1UdDgQWBBTcMXL0cKr9BLAuK10lMaYvmKe8ozBRBgNVHSME
SjBIgBTZvoSvQEhp1erQSPw8Dzc2UXrrkaEapBgwFjEUMBIGA1UEAwwLdGVhbTEy
My1uZXSCFAF7tbO7InbhDvRqLtvHFShRGpfpMBMGA1UdJQQMMAoGCCsGAQUFBwMB
MAsGA1UdDwQEAwIFoDAZBgNVHREEEjAQgg50ZWFtMTIzLXNlcnZlcjANBgkqhkiG
9w0BAQsFAAOCAQEACMKGo/5wk+S2w2jPrJ17FBAZXABq2M9/Ib0JCNSo6IQs4Wrp
/wkf5BqOr9kQIZWnfu7i0ICsNR5yDBpxP1YX1XjcrjinpG2M+wiMNPBBkOvXTyCX
vZkBW7vEZKQ8QWedPKwNgrTlPyR3iETojQTf6pLqAJZAd3PcKEAJn0IerepkeEoy
782JuawibyxceToYFrXVmWcdxbu5pedc/wAhzKxajYJ2m3BJs9ppwbzXzW1HjYSw
jXK4Vxp+EqSnSvW5vlaAIEpx2jaxQvJjAROpbmY7NADX/F1Qq2JQrgoMoNaKrLAk
fJTrIG/dPo4uumkZaGpbJbuHSWFgqF/RlKukpg==
-----END CERTIFICATE-----
