Certificate:
    Data:
        Version: 3 (0x2)
        Serial Number:
            1e:32:3c:d3:7a:d1:43:da:34:ff:10:e5:c0:f0:7b:2f
        Signature Algorithm: sha256WithRSAEncryption
        Issuer: CN=team241-net
        Validity
            Not Before: Aug 14 14:27:08 2023 GMT
            Not After : Jul 29 14:27:08 2026 GMT
        Subject: CN=team241-client
        Subject Public Key Info:
            Public Key Algorithm: rsaEncryption
                RSA Public-Key: (2048 bit)
                Modulus:
                    00:bd:ee:0c:5f:69:ca:db:51:b5:90:3e:6c:02:2d:
                    b7:69:4e:c1:b0:e2:a5:37:f6:e3:f6:66:46:a5:9a:
                    5c:a6:29:95:f4:f6:92:3d:75:45:c6:ec:c3:38:20:
                    d5:bb:ed:4e:f6:33:c6:81:fb:31:71:57:ed:9d:4c:
                    e5:3f:4f:72:20:55:8e:65:24:77:8b:81:a9:7a:70:
                    1a:0c:29:e6:34:1b:ce:c2:e1:bf:6a:c1:49:9a:94:
                    97:b4:98:e4:6b:6e:7b:0b:01:25:42:e1:81:2f:5f:
                    37:06:c4:52:fb:26:ad:0d:c2:3f:4a:39:f1:fb:7f:
                    80:79:a3:a2:cb:ca:6d:80:c6:cf:09:2e:c8:fe:55:
                    84:50:35:89:24:ea:e0:bd:42:47:e0:7d:e2:ab:38:
                    5a:3b:72:d7:02:a6:4e:bb:57:88:fc:9c:af:46:c5:
                    64:33:37:7c:2f:0a:65:bc:1a:11:8e:c3:d4:40:1c:
                    39:90:00:f2:b2:38:05:af:c6:a6:c2:8d:75:01:c0:
                    97:eb:56:ab:aa:95:06:4c:01:b6:9a:36:a6:b4:1c:
                    c1:e5:1b:b8:58:d8:35:e6:03:69:c7:a5:7d:dd:1d:
                    cc:32:e0:82:47:45:c3:fd:43:76:ba:81:65:03:ee:
                    4d:fd:37:fd:7e:65:b7:f3:79:45:b4:ac:61:cc:4d:
                    70:99
                Exponent: 65537 (0x10001)
        X509v3 extensions:
            X509v3 Basic Constraints: 
                CA:FALSE
            X509v3 Subject Key Identifier: 
                8A:C5:3A:D3:50:FB:02:AF:A8:E8:0D:4F:ED:A8:AF:51:65:9A:BB:9E
            X509v3 Authority Key Identifier: 
                keyid:F3:BC:AD:AA:97:F6:58:79:0E:40:9E:89:BB:CF:59:AD:D4:A6:43:F6
                DirName:/CN=team241-net
                serial:01:91:8A:B1:C5:69:E5:99:E7:CF:30:B8:F5:53:6E:93:28:A6:22:44

            X509v3 Extended Key Usage: 
                TLS Web Client Authentication
            X509v3 Key Usage: 
                Digital Signature
    Signature Algorithm: sha256WithRSAEncryption
         aa:81:62:cd:5d:b1:9a:15:3e:d8:01:47:27:aa:02:63:de:32:
         c9:9d:cd:72:02:58:01:f3:e9:8e:0f:42:e7:76:eb:e8:29:ac:
         ea:36:37:2f:1c:65:dd:c2:74:89:85:8f:92:3e:41:2f:77:51:
         5a:16:47:ef:fc:6c:2f:6f:cb:04:64:81:82:a6:65:d6:87:85:
         c8:58:5c:7e:cc:42:f4:64:49:9d:a8:a0:ca:2c:c0:c5:1e:5e:
         c0:0e:74:1a:7d:5f:39:27:c9:0a:2f:66:69:e8:8e:92:ac:39:
         e9:4c:b4:53:75:c4:6e:15:08:8e:5a:b9:f7:02:17:3b:eb:46:
         29:d2:e7:32:99:35:3d:8a:38:24:72:6f:52:b4:58:a2:72:54:
         d7:2f:58:38:15:08:bf:7d:d7:9b:25:3f:f9:c1:5b:e6:42:b1:
         0a:02:fb:aa:39:10:3b:43:d4:09:5c:d2:2a:20:c6:d5:06:b4:
         9c:16:be:16:4f:5b:52:c4:e5:97:33:b3:4c:1c:a5:a7:44:00:
         0e:6d:eb:1d:67:01:5a:7f:14:5c:79:5f:fb:6d:e8:c2:d8:3b:
         77:7e:ae:ae:5a:aa:61:bf:ad:2e:cd:98:3d:a5:ac:d8:19:ac:
         5f:67:59:1b:42:72:e6:61:8b:5c:09:cc:e4:ae:6d:c2:89:6d:
         c0:98:ba:47
-----BEGIN CERTIFICATE-----
MIIDXDCCAkSgAwIBAgIQHjI803rRQ9o0/xDlwPB7LzANBgkqhkiG9w0BAQsFADAW
MRQwEgYDVQQDDAt0ZWFtMjQxLW5ldDAeFw0yMzA4MTQxNDI3MDhaFw0yNjA3Mjkx
NDI3MDhaMBkxFzAVBgNVBAMMDnRlYW0yNDEtY2xpZW50MIIBIjANBgkqhkiG9w0B
AQEFAAOCAQ8AMIIBCgKCAQEAve4MX2nK21G1kD5sAi23aU7BsOKlN/bj9mZGpZpc
pimV9PaSPXVFxuzDOCDVu+1O9jPGgfsxcVftnUzlP09yIFWOZSR3i4GpenAaDCnm
NBvOwuG/asFJmpSXtJjka257CwElQuGBL183BsRS+yatDcI/Sjnx+3+AeaOiy8pt
gMbPCS7I/lWEUDWJJOrgvUJH4H3iqzhaO3LXAqZOu1eI/JyvRsVkMzd8LwplvBoR
jsPUQBw5kADysjgFr8amwo11AcCX61arqpUGTAG2mjamtBzB5Ru4WNg15gNpx6V9
3R3MMuCCR0XD/UN2uoFlA+5N/Tf9fmW383lFtKxhzE1wmQIDAQABo4GiMIGfMAkG
A1UdEwQCMAAwHQYDVR0OBBYEFIrFOtNQ+wKvqOgNT+2or1FlmrueMFEGA1UdIwRK
MEiAFPO8raqX9lh5DkCeibvPWa3UpkP2oRqkGDAWMRQwEgYDVQQDDAt0ZWFtMjQx
LW5ldIIUAZGKscVp5ZnnzzC49VNukyimIkQwEwYDVR0lBAwwCgYIKwYBBQUHAwIw
CwYDVR0PBAQDAgeAMA0GCSqGSIb3DQEBCwUAA4IBAQCqgWLNXbGaFT7YAUcnqgJj
3jLJnc1yAlgB8+mOD0LnduvoKazqNjcvHGXdwnSJhY+SPkEvd1FaFkfv/Gwvb8sE
ZIGCpmXWh4XIWFx+zEL0ZEmdqKDKLMDFHl7ADnQafV85J8kKL2Zp6I6SrDnpTLRT
dcRuFQiOWrn3Ahc760Yp0ucymTU9ijgkcm9StFiiclTXL1g4FQi/fdebJT/5wVvm
QrEKAvuqORA7Q9QJXNIqIMbVBrScFr4WT1tSxOWXM7NMHKWnRAAObesdZwFafxRc
eV/7bejC2Dt3fq6uWqphv60uzZg9pazYGaxfZ1kbQnLmYYtcCczkrm3CiW3AmLpH
-----END CERTIFICATE-----
