Certificate:
    Data:
        Version: 3 (0x2)
        Serial Number:
            21:55:fe:50:65:e1:d3:b2:be:82:a9:94:e9:24:79:9a
        Signature Algorithm: sha256WithRSAEncryption
        Issuer: CN=team159-net
        Validity
            Not Before: Aug 14 14:25:34 2023 GMT
            Not After : Jul 29 14:25:34 2026 GMT
        Subject: CN=team159-client
        Subject Public Key Info:
            Public Key Algorithm: rsaEncryption
                RSA Public-Key: (2048 bit)
                Modulus:
                    00:cf:06:26:e9:b6:00:99:d1:a2:b4:75:c6:67:c7:
                    4b:62:f6:44:10:61:66:e9:64:6a:27:4f:c7:a7:f7:
                    5c:79:8c:bb:55:6e:3b:9a:da:fa:3d:50:0b:b5:15:
                    a5:23:d4:a9:43:55:ca:94:f6:89:1f:2c:40:84:18:
                    2e:17:b6:4c:0f:a7:68:fc:98:18:f5:f5:27:a5:ee:
                    f5:e6:49:2c:01:15:23:ab:08:23:ad:7a:a2:89:4c:
                    0b:5f:21:3f:65:70:9a:d2:67:4a:c5:65:b8:d7:a4:
                    fd:81:4b:67:8d:c3:a6:13:ca:91:05:4a:89:93:2c:
                    a5:f5:b3:fd:de:d2:9e:04:9b:9e:43:01:e6:64:3c:
                    06:0a:37:19:4b:78:25:6e:b2:3d:cb:27:c5:de:68:
                    ce:49:33:67:0e:32:bd:ae:77:75:6c:ee:f6:dd:c6:
                    4b:56:03:32:e9:47:91:31:8c:66:f7:b3:d1:7f:ce:
                    8e:ff:bf:8e:ee:7c:86:f9:e0:f2:31:ad:78:7b:28:
                    9b:37:c0:a8:88:1f:3e:83:b5:f2:61:e0:bb:fc:7b:
                    24:2f:f7:d7:a4:8d:bd:70:42:bf:0f:99:75:e1:e1:
                    e2:1e:ba:26:54:d1:b3:e5:82:b5:39:9c:21:99:45:
                    1c:11:90:75:4c:0e:00:f5:00:1d:4a:bd:7b:42:b0:
                    33:89
                Exponent: 65537 (0x10001)
        X509v3 extensions:
            X509v3 Basic Constraints: 
                CA:FALSE
            X509v3 Subject Key Identifier: 
                5D:0A:45:1C:BE:3E:BE:CB:53:04:5A:5A:FA:CB:8E:D8:11:74:A7:63
            X509v3 Authority Key Identifier: 
                keyid:8D:F5:F8:F3:06:16:42:F7:D6:F1:88:8E:B1:26:C6:61:7A:3E:53:76
                DirName:/CN=team159-net
                serial:5C:FB:39:E1:4C:E0:71:6B:B2:08:E9:F1:EC:7D:DD:4E:C4:BB:32:2A

            X509v3 Extended Key Usage: 
                TLS Web Client Authentication
            X509v3 Key Usage: 
                Digital Signature
    Signature Algorithm: sha256WithRSAEncryption
         9e:a5:8f:e3:fd:07:a4:91:ff:b2:59:a3:41:a8:6e:b8:31:84:
         50:08:19:0e:5c:0c:75:4a:a3:87:4b:18:49:3c:e2:13:23:9b:
         4f:51:75:82:04:55:28:84:df:80:a5:82:cf:8d:5b:cf:b0:bc:
         80:c7:58:6e:22:bc:26:9b:0e:42:7a:38:29:51:12:56:e0:29:
         5f:46:5b:8f:c6:68:04:ce:8f:8a:62:03:67:0e:ea:0f:8a:7e:
         b6:48:ae:d6:58:ec:f9:4c:08:9d:3a:40:61:6c:4f:1d:b4:52:
         56:5e:1c:cb:97:31:a9:08:2b:e0:fb:eb:10:2e:82:c7:2f:fa:
         74:df:82:74:2c:99:59:48:93:3f:34:0c:99:d2:98:10:11:03:
         34:35:a9:7f:ad:4a:32:61:2e:7a:f4:fc:d6:5c:3f:b5:2b:87:
         4b:f9:8c:2d:43:a5:fc:f7:fd:47:8b:1b:5d:e1:e3:ee:e4:bf:
         ed:7c:5d:a0:30:b8:7c:06:52:e9:b6:fa:ec:2a:eb:c4:93:bd:
         e1:7a:b8:69:2d:87:1c:9b:fc:ca:6d:dd:4a:9d:c5:45:71:95:
         36:33:e0:17:3b:44:ff:70:74:b4:bb:2e:70:47:b4:9a:99:37:
         52:8e:80:37:77:d5:e4:d2:c4:8b:41:a7:ed:7e:ce:10:94:ff:
         57:f7:ec:a7
-----BEGIN CERTIFICATE-----
MIIDXDCCAkSgAwIBAgIQIVX+UGXh07K+gqmU6SR5mjANBgkqhkiG9w0BAQsFADAW
MRQwEgYDVQQDDAt0ZWFtMTU5LW5ldDAeFw0yMzA4MTQxNDI1MzRaFw0yNjA3Mjkx
NDI1MzRaMBkxFzAVBgNVBAMMDnRlYW0xNTktY2xpZW50MIIBIjANBgkqhkiG9w0B
AQEFAAOCAQ8AMIIBCgKCAQEAzwYm6bYAmdGitHXGZ8dLYvZEEGFm6WRqJ0/Hp/dc
eYy7VW47mtr6PVALtRWlI9SpQ1XKlPaJHyxAhBguF7ZMD6do/JgY9fUnpe715kks
ARUjqwgjrXqiiUwLXyE/ZXCa0mdKxWW416T9gUtnjcOmE8qRBUqJkyyl9bP93tKe
BJueQwHmZDwGCjcZS3glbrI9yyfF3mjOSTNnDjK9rnd1bO723cZLVgMy6UeRMYxm
97PRf86O/7+O7nyG+eDyMa14eyibN8CoiB8+g7XyYeC7/HskL/fXpI29cEK/D5l1
4eHiHromVNGz5YK1OZwhmUUcEZB1TA4A9QAdSr17QrAziQIDAQABo4GiMIGfMAkG
A1UdEwQCMAAwHQYDVR0OBBYEFF0KRRy+Pr7LUwRaWvrLjtgRdKdjMFEGA1UdIwRK
MEiAFI31+PMGFkL31vGIjrEmxmF6PlN2oRqkGDAWMRQwEgYDVQQDDAt0ZWFtMTU5
LW5ldIIUXPs54UzgcWuyCOnx7H3dTsS7MiowEwYDVR0lBAwwCgYIKwYBBQUHAwIw
CwYDVR0PBAQDAgeAMA0GCSqGSIb3DQEBCwUAA4IBAQCepY/j/Qekkf+yWaNBqG64
MYRQCBkOXAx1SqOHSxhJPOITI5tPUXWCBFUohN+ApYLPjVvPsLyAx1huIrwmmw5C
ejgpURJW4ClfRluPxmgEzo+KYgNnDuoPin62SK7WWOz5TAidOkBhbE8dtFJWXhzL
lzGpCCvg++sQLoLHL/p034J0LJlZSJM/NAyZ0pgQEQM0Nal/rUoyYS569PzWXD+1
K4dL+YwtQ6X89/1Hixtd4ePu5L/tfF2gMLh8BlLptvrsKuvEk73herhpLYccm/zK
bd1KncVFcZU2M+AXO0T/cHS0uy5wR7SamTdSjoA3d9Xk0sSLQaftfs4QlP9X9+yn
-----END CERTIFICATE-----
