Certificate:
    Data:
        Version: 3 (0x2)
        Serial Number:
            63:d7:06:06:d8:68:df:b8:a1:5c:c6:f0:b0:3e:62:a2
        Signature Algorithm: sha256WithRSAEncryption
        Issuer: CN=team159-net
        Validity
            Not Before: Aug 14 14:25:35 2023 GMT
            Not After : Jul 29 14:25:35 2026 GMT
        Subject: CN=team159-server
        Subject Public Key Info:
            Public Key Algorithm: rsaEncryption
                RSA Public-Key: (2048 bit)
                Modulus:
                    00:ac:78:6d:f4:f5:e5:a1:bb:9b:c0:ab:dc:fd:f3:
                    cc:a0:32:44:01:e9:79:b5:d5:e4:98:70:dc:e3:d2:
                    14:b0:d3:68:26:53:3a:9a:bf:28:e5:82:20:4b:d9:
                    c5:61:82:a5:e0:3e:14:0f:92:55:c0:96:87:50:84:
                    22:07:81:21:f3:ce:40:4f:1b:3b:65:76:39:33:36:
                    4e:8c:4e:81:b8:97:df:b7:04:74:62:7c:d1:9e:be:
                    1a:a7:d4:13:60:36:23:b7:70:81:8f:2d:7d:a4:a2:
                    9d:e9:27:d8:99:e3:d7:3d:9b:5a:ed:95:1d:c9:b7:
                    a2:e0:69:9a:2c:ba:57:74:76:f3:24:52:09:77:ff:
                    56:a2:60:e1:6e:32:db:9d:26:9c:4a:81:2f:7f:7a:
                    ea:f6:c5:93:7f:28:a1:71:7a:b7:16:cc:a2:53:34:
                    60:30:be:e5:81:05:90:e2:79:3f:e2:5d:35:70:83:
                    34:af:c9:d1:90:11:57:3e:60:39:d0:d5:22:86:1a:
                    37:9b:60:24:e7:2f:39:2c:0f:07:04:c0:23:62:9a:
                    d6:b9:1b:5a:a7:d7:fc:3d:a9:d3:5f:5f:09:08:7d:
                    dd:83:51:2b:90:17:87:72:e0:d6:88:e9:cc:7a:84:
                    88:33:af:e5:e0:c3:90:73:5d:77:d6:ed:6c:c5:a6:
                    02:61
                Exponent: 65537 (0x10001)
        X509v3 extensions:
            X509v3 Basic Constraints: 
                CA:FALSE
            X509v3 Subject Key Identifier: 
                75:98:50:62:DA:36:F2:75:E7:B4:9B:F5:89:72:E7:8F:19:FF:78:B2
            X509v3 Authority Key Identifier: 
                keyid:8D:F5:F8:F3:06:16:42:F7:D6:F1:88:8E:B1:26:C6:61:7A:3E:53:76
                DirName:/CN=team159-net
                serial:5C:FB:39:E1:4C:E0:71:6B:B2:08:E9:F1:EC:7D:DD:4E:C4:BB:32:2A

            X509v3 Extended Key Usage: 
                TLS Web Server Authentication
            X509v3 Key Usage: 
                Digital Signature, Key Encipherment
            X509v3 Subject Alternative Name: 
                DNS:team159-server
    Signature Algorithm: sha256WithRSAEncryption
         1d:64:01:9a:a0:1b:89:a3:73:fd:3d:32:e8:21:e6:b2:8a:04:
         0f:a3:8d:82:df:31:7c:86:af:b0:dd:7e:de:63:91:62:cd:7f:
         c0:6c:f8:68:9f:a9:4b:71:a3:aa:3f:d8:99:86:73:f6:01:74:
         19:9f:33:52:ca:8a:09:70:f9:01:3c:f1:95:2f:0e:91:dc:19:
         63:aa:87:dc:8f:31:d3:56:7f:b4:95:67:4d:63:5b:bb:7c:de:
         de:48:23:0c:4a:7a:74:ba:f2:ef:80:0f:ec:78:d1:f8:2b:a3:
         7a:50:c7:95:38:0e:a3:d5:60:dd:cc:6e:91:ea:47:60:dd:75:
         53:33:00:bd:6b:b5:35:0f:dd:ef:43:86:fb:1b:b2:f0:d1:40:
         a3:83:42:1f:89:a1:f1:fc:29:d8:e0:c2:5f:75:fe:42:e9:3d:
         c0:dc:42:67:cf:46:bd:84:55:d6:8f:8a:93:29:38:ca:ab:66:
         bf:fc:2b:62:9f:c2:12:7b:b1:73:c4:86:ff:cc:88:a3:0f:5a:
         ce:1c:07:1f:26:dd:e3:84:87:b8:9c:68:6f:68:8e:3f:bc:a2:
         66:d0:93:59:51:91:8d:39:da:8f:a5:7d:20:d1:61:f2:b2:4e:
         20:cf:ad:50:8d:25:ba:6f:10:43:0b:39:bf:cf:a8:2d:dd:ca:
         8a:dd:20:77
-----BEGIN CERTIFICATE-----
MIIDdzCCAl+gAwIBAgIQY9cGBtho37ihXMbwsD5iojANBgkqhkiG9w0BAQsFADAW
MRQwEgYDVQQDDAt0ZWFtMTU5LW5ldDAeFw0yMzA4MTQxNDI1MzVaFw0yNjA3Mjkx
NDI1MzVaMBkxFzAVBgNVBAMMDnRlYW0xNTktc2VydmVyMIIBIjANBgkqhkiG9w0B
AQEFAAOCAQ8AMIIBCgKCAQEArHht9PXlobubwKvc/fPMoDJEAel5tdXkmHDc49IU
sNNoJlM6mr8o5YIgS9nFYYKl4D4UD5JVwJaHUIQiB4Eh885ATxs7ZXY5MzZOjE6B
uJfftwR0YnzRnr4ap9QTYDYjt3CBjy19pKKd6SfYmePXPZta7ZUdybei4GmaLLpX
dHbzJFIJd/9WomDhbjLbnSacSoEvf3rq9sWTfyihcXq3FsyiUzRgML7lgQWQ4nk/
4l01cIM0r8nRkBFXPmA50NUihho3m2Ak5y85LA8HBMAjYprWuRtap9f8PanTX18J
CH3dg1ErkBeHcuDWiOnMeoSIM6/l4MOQc1131u1sxaYCYQIDAQABo4G9MIG6MAkG
A1UdEwQCMAAwHQYDVR0OBBYEFHWYUGLaNvJ157Sb9Yly548Z/3iyMFEGA1UdIwRK
MEiAFI31+PMGFkL31vGIjrEmxmF6PlN2oRqkGDAWMRQwEgYDVQQDDAt0ZWFtMTU5
LW5ldIIUXPs54UzgcWuyCOnx7H3dTsS7MiowEwYDVR0lBAwwCgYIKwYBBQUHAwEw
CwYDVR0PBAQDAgWgMBkGA1UdEQQSMBCCDnRlYW0xNTktc2VydmVyMA0GCSqGSIb3
DQEBCwUAA4IBAQAdZAGaoBuJo3P9PTLoIeayigQPo42C3zF8hq+w3X7eY5FizX/A
bPhon6lLcaOqP9iZhnP2AXQZnzNSyooJcPkBPPGVLw6R3BljqofcjzHTVn+0lWdN
Y1u7fN7eSCMMSnp0uvLvgA/seNH4K6N6UMeVOA6j1WDdzG6R6kdg3XVTMwC9a7U1
D93vQ4b7G7Lw0UCjg0IfiaHx/CnY4MJfdf5C6T3A3EJnz0a9hFXWj4qTKTjKq2a/
/Ctin8ISe7FzxIb/zIijD1rOHAcfJt3jhIe4nGhvaI4/vKJm0JNZUZGNOdqPpX0g
0WHysk4gz61QjSW6bxBDCzm/z6gt3cqK3SB3
-----END CERTIFICATE-----
