Certificate:
    Data:
        Version: 3 (0x2)
        Serial Number:
            21:d5:69:5d:1e:12:90:d7:e9:c6:20:85:7e:b8:16:3a
        Signature Algorithm: sha256WithRSAEncryption
        Issuer: CN=team27-net
        Validity
            Not Before: Aug 14 14:22:36 2023 GMT
            Not After : Jul 29 14:22:36 2026 GMT
        Subject: CN=team27-client
        Subject Public Key Info:
            Public Key Algorithm: rsaEncryption
                RSA Public-Key: (2048 bit)
                Modulus:
                    00:d7:82:b8:af:51:6d:ba:77:c2:7e:15:90:f7:94:
                    98:ae:b4:cc:26:69:20:ad:79:a6:3f:fa:d2:24:b7:
                    99:53:95:84:42:53:e4:ed:89:07:6d:1f:40:9a:e7:
                    a4:f8:5a:07:e6:4d:29:18:bc:e6:df:be:5d:35:7b:
                    50:ad:4e:97:65:22:d4:3b:45:42:24:6c:f7:a7:9d:
                    7e:5a:c6:f6:a8:29:c0:46:f8:b3:b1:2e:3b:d2:fa:
                    af:bd:19:00:8f:fd:f9:24:a6:66:2b:ef:2a:e5:20:
                    b5:66:d7:94:29:6d:c3:7d:38:07:43:27:9b:8c:69:
                    41:29:8e:09:ba:c5:0f:4b:0a:02:39:1c:7b:d5:1e:
                    99:19:b2:2e:77:f3:23:09:8f:f0:d8:6b:e3:3b:e5:
                    09:48:47:6c:67:23:1e:c6:b8:a8:5d:cd:0a:7b:43:
                    fe:86:7d:0e:37:e8:e1:99:ea:57:21:20:54:ac:80:
                    cf:d6:dc:5d:0c:18:64:8e:0f:10:43:08:41:12:92:
                    d8:e9:6c:29:f1:b8:49:c9:70:7f:d3:9f:12:e2:8c:
                    3c:b8:21:e3:52:08:de:a5:97:e7:1d:6f:2d:5e:09:
                    6b:84:33:9f:48:50:0e:2d:44:06:87:33:fe:06:f5:
                    9e:f4:58:25:23:cb:04:93:bf:4f:a2:98:7f:53:d2:
                    b2:e5
                Exponent: 65537 (0x10001)
        X509v3 extensions:
            X509v3 Basic Constraints: 
                CA:FALSE
            X509v3 Subject Key Identifier: 
                41:91:66:47:B5:15:AA:96:C5:F7:7D:05:FA:BF:87:89:DC:A5:8F:2E
            X509v3 Authority Key Identifier: 
                keyid:28:52:49:C7:7A:85:2D:2E:A4:2B:8F:19:77:D4:60:8A:41:7D:14:66
                DirName:/CN=team27-net
                serial:5F:E4:7D:CD:40:DE:E3:B9:11:D0:A0:E1:C8:FD:BE:1D:7F:3A:EE:68

            X509v3 Extended Key Usage: 
                TLS Web Client Authentication
            X509v3 Key Usage: 
                Digital Signature
    Signature Algorithm: sha256WithRSAEncryption
         53:e6:6b:10:0c:2b:4c:f5:5a:ee:a4:30:23:a7:46:99:45:73:
         66:3b:5f:c2:3f:6d:85:ad:f6:c0:68:6a:32:17:e2:60:ec:ed:
         25:f5:40:c6:fe:b7:6f:f6:12:d6:15:32:9d:2f:2f:20:f9:ac:
         90:8a:7b:37:9c:18:43:20:4f:1e:f0:5a:0e:7c:e8:22:47:15:
         88:16:65:d6:b7:22:a0:8b:57:78:fe:d0:00:63:a2:d3:1b:ee:
         d0:0f:fe:5c:08:d6:74:28:e4:8f:be:ec:c4:2a:e5:a4:cc:b0:
         fb:84:e7:a3:3e:62:8f:33:1b:5b:25:e1:59:4a:b7:e0:d8:a9:
         2f:d6:4b:10:9a:56:26:63:52:3e:55:2c:63:37:64:db:28:79:
         c1:ce:ba:63:0c:0d:69:8f:82:73:ff:fb:00:26:0d:81:ab:a9:
         ab:54:f6:bb:c4:6e:7d:80:e9:e3:fb:ec:75:04:e6:26:56:4f:
         48:06:db:4c:ae:9a:3f:9a:fb:db:59:73:10:76:73:a1:a8:c5:
         ab:73:25:d9:47:0a:6e:8a:a3:02:c2:14:65:3b:9b:62:a3:7d:
         b1:e5:7c:7d:72:b8:cc:86:ae:03:a3:b6:a8:f3:c1:3c:e9:df:
         b0:fb:41:cc:40:c8:fc:34:87:68:60:5c:95:cc:88:9c:95:0e:
         4c:77:9c:ec
-----BEGIN CERTIFICATE-----
MIIDWTCCAkGgAwIBAgIQIdVpXR4SkNfpxiCFfrgWOjANBgkqhkiG9w0BAQsFADAV
MRMwEQYDVQQDDAp0ZWFtMjctbmV0MB4XDTIzMDgxNDE0MjIzNloXDTI2MDcyOTE0
MjIzNlowGDEWMBQGA1UEAwwNdGVhbTI3LWNsaWVudDCCASIwDQYJKoZIhvcNAQEB
BQADggEPADCCAQoCggEBANeCuK9Rbbp3wn4VkPeUmK60zCZpIK15pj/60iS3mVOV
hEJT5O2JB20fQJrnpPhaB+ZNKRi85t++XTV7UK1Ol2Ui1DtFQiRs96edflrG9qgp
wEb4s7EuO9L6r70ZAI/9+SSmZivvKuUgtWbXlCltw304B0Mnm4xpQSmOCbrFD0sK
Ajkce9UemRmyLnfzIwmP8Nhr4zvlCUhHbGcjHsa4qF3NCntD/oZ9Djfo4ZnqVyEg
VKyAz9bcXQwYZI4PEEMIQRKS2OlsKfG4Sclwf9OfEuKMPLgh41II3qWX5x1vLV4J
a4Qzn0hQDi1EBocz/gb1nvRYJSPLBJO/T6KYf1PSsuUCAwEAAaOBoTCBnjAJBgNV
HRMEAjAAMB0GA1UdDgQWBBRBkWZHtRWqlsX3fQX6v4eJ3KWPLjBQBgNVHSMESTBH
gBQoUknHeoUtLqQrjxl31GCKQX0UZqEZpBcwFTETMBEGA1UEAwwKdGVhbTI3LW5l
dIIUX+R9zUDe47kR0KDhyP2+HX867mgwEwYDVR0lBAwwCgYIKwYBBQUHAwIwCwYD
VR0PBAQDAgeAMA0GCSqGSIb3DQEBCwUAA4IBAQBT5msQDCtM9VrupDAjp0aZRXNm
O1/CP22FrfbAaGoyF+Jg7O0l9UDG/rdv9hLWFTKdLy8g+ayQins3nBhDIE8e8FoO
fOgiRxWIFmXWtyKgi1d4/tAAY6LTG+7QD/5cCNZ0KOSPvuzEKuWkzLD7hOejPmKP
MxtbJeFZSrfg2Kkv1ksQmlYmY1I+VSxjN2TbKHnBzrpjDA1pj4Jz//sAJg2Bq6mr
VPa7xG59gOnj++x1BOYmVk9IBttMrpo/mvvbWXMQdnOhqMWrcyXZRwpuiqMCwhRl
O5tio32x5Xx9crjMhq4Do7ao88E86d+w+0HMQMj8NIdoYFyVzIiclQ5Md5zs
-----END CERTIFICATE-----
