Certificate:
    Data:
        Version: 3 (0x2)
        Serial Number:
            33:d0:ee:3c:d9:01:52:1b:2b:42:5a:fc:4b:59:72:9e
        Signature Algorithm: sha256WithRSAEncryption
        Issuer: CN=team168-net
        Validity
            Not Before: Aug 14 14:25:44 2023 GMT
            Not After : Jul 29 14:25:44 2026 GMT
        Subject: CN=team168-server
        Subject Public Key Info:
            Public Key Algorithm: rsaEncryption
                RSA Public-Key: (2048 bit)
                Modulus:
                    00:9e:d8:0a:cf:a0:f4:4b:36:1d:67:22:39:2c:2e:
                    23:a4:36:b7:0f:d5:16:bf:6a:58:3a:90:64:ac:77:
                    bc:fa:d0:c2:57:36:59:30:5e:e4:e8:c0:49:56:54:
                    13:9d:5a:b7:29:6d:3d:a4:a6:f1:e6:15:56:f4:c1:
                    5c:cd:78:e2:c1:ed:58:79:fc:6d:16:95:1f:7d:4a:
                    d6:ec:23:61:d8:9d:78:a9:0e:f0:e8:20:fe:04:66:
                    a8:91:76:2f:00:08:bf:b7:9c:e7:1d:d9:da:13:ab:
                    ef:97:0b:83:dd:11:b9:4a:f3:05:bb:1e:e9:e0:e3:
                    86:75:ef:26:c1:01:bb:7c:eb:86:b6:e1:78:d4:7d:
                    bf:64:29:b4:fd:5c:dc:cb:d1:78:89:8a:5b:0d:d9:
                    19:64:4c:01:2c:ee:76:8f:ca:59:b8:5f:49:d4:bd:
                    cf:b7:ec:71:c2:f7:80:75:b0:79:1f:91:12:d8:c5:
                    5d:22:24:50:ec:6f:70:ef:6f:32:ea:6f:26:00:b0:
                    3e:ca:1e:37:a0:6c:ce:e5:7d:08:3f:eb:e4:af:07:
                    a1:fd:e0:85:aa:af:46:81:e4:c5:a5:64:af:4c:5c:
                    c8:44:ff:69:ef:94:74:38:af:4f:b5:0d:b4:42:19:
                    2b:2a:da:1d:85:11:7b:14:6f:2e:44:06:7e:8f:78:
                    77:af
                Exponent: 65537 (0x10001)
        X509v3 extensions:
            X509v3 Basic Constraints: 
                CA:FALSE
            X509v3 Subject Key Identifier: 
                F1:C4:88:44:1F:BB:7C:7E:DA:A2:DF:89:7B:72:37:48:44:38:87:45
            X509v3 Authority Key Identifier: 
                keyid:86:96:9D:B5:BD:FF:95:FB:A5:25:6D:E0:00:D8:41:71:39:68:92:6A
                DirName:/CN=team168-net
                serial:54:7F:FE:50:D8:6E:47:1F:64:96:4A:5A:EA:B2:6E:BA:83:0C:CF:CA

            X509v3 Extended Key Usage: 
                TLS Web Server Authentication
            X509v3 Key Usage: 
                Digital Signature, Key Encipherment
            X509v3 Subject Alternative Name: 
                DNS:team168-server
    Signature Algorithm: sha256WithRSAEncryption
         79:e0:92:85:85:c9:05:ee:d8:eb:01:1e:59:6a:94:b8:74:b2:
         cf:14:46:93:dd:c3:cf:a0:d1:f7:c3:36:2b:80:bb:db:05:63:
         13:e5:2e:05:ce:95:9b:a8:78:e9:b8:0b:e7:a7:a3:f7:d7:67:
         25:17:66:76:25:13:26:a3:30:3b:41:33:c3:26:c6:1a:6a:39:
         60:7d:7d:48:70:4b:61:98:6f:37:f0:23:e8:da:2a:39:e6:b5:
         da:7d:29:3b:a6:f4:65:85:af:2f:28:07:00:09:70:25:2b:53:
         75:d2:a2:0d:3c:3c:3f:a3:97:0c:b2:1a:4d:74:91:31:79:8a:
         26:b6:f7:16:14:e0:2b:5e:b8:0e:eb:37:41:fe:5b:ba:c6:1d:
         c6:09:3a:4e:33:11:97:19:e4:40:a7:80:3e:8c:2c:49:e1:db:
         32:ab:f9:97:67:b2:1b:31:7b:b4:17:23:95:4a:ac:fd:4a:c9:
         ae:1e:7a:2c:2e:95:2c:67:05:36:71:76:d3:6c:92:27:03:5d:
         a5:36:e6:0d:12:9c:26:78:18:82:4b:ee:c8:3c:92:5b:e4:bc:
         d5:80:a1:58:4b:f2:a3:10:3c:67:b7:b7:02:3f:c8:54:b6:83:
         ca:82:5c:90:7f:f6:1b:91:e7:4a:e6:4c:ff:d3:cc:8a:cf:81:
         24:15:0f:80
-----BEGIN CERTIFICATE-----
MIIDdzCCAl+gAwIBAgIQM9DuPNkBUhsrQlr8S1lynjANBgkqhkiG9w0BAQsFADAW
MRQwEgYDVQQDDAt0ZWFtMTY4LW5ldDAeFw0yMzA4MTQxNDI1NDRaFw0yNjA3Mjkx
NDI1NDRaMBkxFzAVBgNVBAMMDnRlYW0xNjgtc2VydmVyMIIBIjANBgkqhkiG9w0B
AQEFAAOCAQ8AMIIBCgKCAQEAntgKz6D0SzYdZyI5LC4jpDa3D9UWv2pYOpBkrHe8
+tDCVzZZMF7k6MBJVlQTnVq3KW09pKbx5hVW9MFczXjiwe1YefxtFpUffUrW7CNh
2J14qQ7w6CD+BGaokXYvAAi/t5znHdnaE6vvlwuD3RG5SvMFux7p4OOGde8mwQG7
fOuGtuF41H2/ZCm0/Vzcy9F4iYpbDdkZZEwBLO52j8pZuF9J1L3Pt+xxwveAdbB5
H5ES2MVdIiRQ7G9w728y6m8mALA+yh43oGzO5X0IP+vkrweh/eCFqq9GgeTFpWSv
TFzIRP9p75R0OK9PtQ20QhkrKtodhRF7FG8uRAZ+j3h3rwIDAQABo4G9MIG6MAkG
A1UdEwQCMAAwHQYDVR0OBBYEFPHEiEQfu3x+2qLfiXtyN0hEOIdFMFEGA1UdIwRK
MEiAFIaWnbW9/5X7pSVt4ADYQXE5aJJqoRqkGDAWMRQwEgYDVQQDDAt0ZWFtMTY4
LW5ldIIUVH/+UNhuRx9klkpa6rJuuoMMz8owEwYDVR0lBAwwCgYIKwYBBQUHAwEw
CwYDVR0PBAQDAgWgMBkGA1UdEQQSMBCCDnRlYW0xNjgtc2VydmVyMA0GCSqGSIb3
DQEBCwUAA4IBAQB54JKFhckF7tjrAR5ZapS4dLLPFEaT3cPPoNH3wzYrgLvbBWMT
5S4FzpWbqHjpuAvnp6P312clF2Z2JRMmozA7QTPDJsYaajlgfX1IcEthmG838CPo
2io55rXafSk7pvRlha8vKAcACXAlK1N10qINPDw/o5cMshpNdJExeYomtvcWFOAr
XrgO6zdB/lu6xh3GCTpOMxGXGeRAp4A+jCxJ4dsyq/mXZ7IbMXu0FyOVSqz9Ssmu
HnosLpUsZwU2cXbTbJInA12lNuYNEpwmeBiCS+7IPJJb5LzVgKFYS/KjEDxnt7cC
P8hUtoPKglyQf/YbkedK5kz/08yKz4EkFQ+A
-----END CERTIFICATE-----
