Certificate:
    Data:
        Version: 3 (0x2)
        Serial Number:
            0e:02:60:63:0c:8c:aa:9b:42:fb:1c:93:46:44:41:26
        Signature Algorithm: sha256WithRSAEncryption
        Issuer: CN=team54-net
        Validity
            Not Before: Aug 14 14:23:20 2023 GMT
            Not After : Jul 29 14:23:20 2026 GMT
        Subject: CN=team54-client
        Subject Public Key Info:
            Public Key Algorithm: rsaEncryption
                RSA Public-Key: (2048 bit)
                Modulus:
                    00:c8:e0:45:46:05:92:fa:e7:ba:76:9f:5f:0c:37:
                    b1:37:60:f8:b3:7c:be:ea:c4:fd:33:2d:38:e4:f0:
                    5c:9a:59:cc:12:af:a9:2f:eb:56:9c:1b:ee:83:1a:
                    79:fb:6a:7f:9f:e1:2f:c4:19:c5:55:50:9f:97:2e:
                    bb:d7:6d:8d:09:fc:03:20:3f:c1:54:2a:25:bd:31:
                    fd:65:d7:c8:e7:44:bc:03:3d:5e:65:4e:c2:57:6c:
                    ad:dd:34:97:a2:89:b4:07:c4:f9:01:10:10:71:1a:
                    a8:92:f4:0b:8a:71:6c:6f:c6:4c:4c:7d:d4:f2:86:
                    bf:fc:82:a2:e8:d4:29:33:4f:88:ce:b0:3b:3c:10:
                    15:3e:fd:3e:71:39:1e:76:39:53:f5:26:4f:4d:44:
                    8a:1f:44:6d:52:0a:67:f7:4f:40:7a:e0:13:a1:b5:
                    10:1d:1f:c7:2a:8e:e2:e6:7d:e3:ec:49:76:a3:f3:
                    97:05:9b:a3:92:fd:24:7c:b4:d2:f7:91:66:24:53:
                    0c:92:24:64:8e:83:31:1d:94:76:53:3d:5a:b3:ba:
                    89:dc:40:7c:f3:6d:58:f8:ea:06:80:ac:1e:99:b0:
                    86:fe:62:48:26:66:14:6b:64:0f:ca:b6:4f:e2:db:
                    f4:cc:5e:ca:f8:ad:77:1f:f8:8d:1a:99:4b:88:22:
                    84:8d
                Exponent: 65537 (0x10001)
        X509v3 extensions:
            X509v3 Basic Constraints: 
                CA:FALSE
            X509v3 Subject Key Identifier: 
                56:CC:D9:FA:80:94:9E:D9:89:97:A5:5C:6D:8B:C2:48:C9:E2:7B:69
            X509v3 Authority Key Identifier: 
                keyid:8B:30:AA:D0:26:2F:E0:A0:35:47:C5:D7:88:3B:02:27:5F:DC:48:2C
                DirName:/CN=team54-net
                serial:77:30:F0:D5:15:56:BF:0E:05:95:BD:0B:BB:D3:27:4E:0F:BA:30:DA

            X509v3 Extended Key Usage: 
                TLS Web Client Authentication
            X509v3 Key Usage: 
                Digital Signature
    Signature Algorithm: sha256WithRSAEncryption
         64:04:ae:1a:bd:4d:f7:d5:30:2c:51:ac:c8:8f:e6:19:c1:dd:
         cf:f3:13:c9:e4:71:5a:2e:98:a1:88:00:12:9d:24:26:a9:a0:
         95:e4:92:72:b0:3a:6f:e2:7f:ca:7d:e3:0c:c4:e4:7c:b7:1d:
         b7:6f:8e:ed:00:89:d4:3e:31:07:f9:1b:d9:00:ea:3c:aa:03:
         59:83:d8:b0:ba:e0:91:bf:d0:80:24:98:16:53:2b:cb:76:3d:
         ec:c2:03:33:6f:62:b4:a0:29:63:ab:f2:d3:a7:71:bf:71:ba:
         7a:33:64:6a:bd:3b:c3:de:ea:ff:24:85:f9:f1:2d:44:54:5f:
         a6:c5:fe:74:dd:96:b7:9d:3d:e1:1d:a0:13:ba:cc:ff:3e:13:
         e2:e1:b4:80:68:f5:e7:39:d1:f4:f5:4b:01:d1:89:2b:4d:99:
         c7:48:28:54:73:e3:a8:cd:fd:c0:a8:39:a8:20:97:82:f8:ef:
         c3:43:53:ac:7f:30:a0:e8:b7:8d:60:ac:44:8f:b0:ff:a5:1a:
         c3:1c:02:f1:00:e9:f0:bb:c8:bd:13:61:0a:9e:fa:9c:fe:45:
         43:39:5f:32:43:0a:3b:1c:4d:8a:f2:e1:3b:56:6f:f0:f6:b9:
         26:5c:a9:0b:52:75:10:5e:84:f0:b1:53:8c:1a:67:c7:b7:46:
         61:5e:a0:9e
-----BEGIN CERTIFICATE-----
MIIDWTCCAkGgAwIBAgIQDgJgYwyMqptC+xyTRkRBJjANBgkqhkiG9w0BAQsFADAV
MRMwEQYDVQQDDAp0ZWFtNTQtbmV0MB4XDTIzMDgxNDE0MjMyMFoXDTI2MDcyOTE0
MjMyMFowGDEWMBQGA1UEAwwNdGVhbTU0LWNsaWVudDCCASIwDQYJKoZIhvcNAQEB
BQADggEPADCCAQoCggEBAMjgRUYFkvrnunafXww3sTdg+LN8vurE/TMtOOTwXJpZ
zBKvqS/rVpwb7oMaeftqf5/hL8QZxVVQn5cuu9dtjQn8AyA/wVQqJb0x/WXXyOdE
vAM9XmVOwldsrd00l6KJtAfE+QEQEHEaqJL0C4pxbG/GTEx91PKGv/yCoujUKTNP
iM6wOzwQFT79PnE5HnY5U/UmT01Eih9EbVIKZ/dPQHrgE6G1EB0fxyqO4uZ94+xJ
dqPzlwWbo5L9JHy00veRZiRTDJIkZI6DMR2UdlM9WrO6idxAfPNtWPjqBoCsHpmw
hv5iSCZmFGtkD8q2T+Lb9Mxeyvitdx/4jRqZS4gihI0CAwEAAaOBoTCBnjAJBgNV
HRMEAjAAMB0GA1UdDgQWBBRWzNn6gJSe2YmXpVxti8JIyeJ7aTBQBgNVHSMESTBH
gBSLMKrQJi/goDVHxdeIOwInX9xILKEZpBcwFTETMBEGA1UEAwwKdGVhbTU0LW5l
dIIUdzDw1RVWvw4Flb0Lu9MnTg+6MNowEwYDVR0lBAwwCgYIKwYBBQUHAwIwCwYD
VR0PBAQDAgeAMA0GCSqGSIb3DQEBCwUAA4IBAQBkBK4avU331TAsUazIj+YZwd3P
8xPJ5HFaLpihiAASnSQmqaCV5JJysDpv4n/KfeMMxOR8tx23b47tAInUPjEH+RvZ
AOo8qgNZg9iwuuCRv9CAJJgWUyvLdj3swgMzb2K0oCljq/LTp3G/cbp6M2RqvTvD
3ur/JIX58S1EVF+mxf503Za3nT3hHaATusz/PhPi4bSAaPXnOdH09UsB0YkrTZnH
SChUc+Oozf3AqDmoIJeC+O/DQ1OsfzCg6LeNYKxEj7D/pRrDHALxAOnwu8i9E2EK
nvqc/kVDOV8yQwo7HE2K8uE7Vm/w9rkmXKkLUnUQXoTwsVOMGmfHt0ZhXqCe
-----END CERTIFICATE-----
