Certificate:
    Data:
        Version: 3 (0x2)
        Serial Number:
            b4:0c:f8:82:61:36:70:fe:18:38:c5:9d:e6:60:3c:fb
        Signature Algorithm: sha256WithRSAEncryption
        Issuer: CN=team54-net
        Validity
            Not Before: Aug 14 14:23:20 2023 GMT
            Not After : Jul 29 14:23:20 2026 GMT
        Subject: CN=team54-server
        Subject Public Key Info:
            Public Key Algorithm: rsaEncryption
                RSA Public-Key: (2048 bit)
                Modulus:
                    00:ed:0d:bb:c3:ce:3b:91:eb:84:21:2b:b5:6e:c4:
                    5c:4a:2b:8f:d8:98:d7:1e:65:59:d0:e2:29:60:43:
                    a5:57:24:bf:ba:93:1f:f0:db:4f:94:6a:36:29:dd:
                    98:0f:2a:94:fc:e8:1b:74:33:5c:2a:6b:e2:a3:7d:
                    c3:d0:9b:25:45:b1:a4:bb:73:f6:8a:b1:76:7f:cd:
                    aa:fe:a1:c3:5a:6b:66:61:30:30:97:c4:84:53:7f:
                    f4:f5:7f:b2:59:d3:05:ca:6e:96:92:be:ac:04:1c:
                    8c:b3:66:33:a3:f8:3d:e6:06:60:bc:41:2c:06:7c:
                    2e:41:40:62:79:5f:1c:a7:9f:6d:c2:13:c5:ea:e4:
                    74:ac:8d:f8:44:b5:e3:ac:64:c2:35:68:38:3b:f8:
                    cd:71:b2:0b:67:ca:0b:11:77:66:f5:16:27:ec:16:
                    4a:5c:ed:e0:0d:17:f4:e7:bc:80:91:91:8f:71:d0:
                    ae:c9:bc:e6:54:08:ac:a7:d5:f1:f6:25:c1:89:b3:
                    b4:a8:4d:1b:22:cb:7e:8f:3b:7e:0c:f1:fa:e0:11:
                    14:a1:5f:5c:b6:61:27:17:da:ee:e6:9e:a9:d0:18:
                    ac:44:2f:83:10:66:4c:53:70:70:64:24:98:5e:14:
                    c3:53:75:8a:52:16:e1:3a:d7:b3:68:64:90:7a:5f:
                    08:85
                Exponent: 65537 (0x10001)
        X509v3 extensions:
            X509v3 Basic Constraints: 
                CA:FALSE
            X509v3 Subject Key Identifier: 
                71:79:B4:37:5D:B3:8A:16:C6:60:17:BC:D2:06:F7:9D:91:13:50:96
            X509v3 Authority Key Identifier: 
                keyid:8B:30:AA:D0:26:2F:E0:A0:35:47:C5:D7:88:3B:02:27:5F:DC:48:2C
                DirName:/CN=team54-net
                serial:77:30:F0:D5:15:56:BF:0E:05:95:BD:0B:BB:D3:27:4E:0F:BA:30:DA

            X509v3 Extended Key Usage: 
                TLS Web Server Authentication
            X509v3 Key Usage: 
                Digital Signature, Key Encipherment
            X509v3 Subject Alternative Name: 
                DNS:team54-server
    Signature Algorithm: sha256WithRSAEncryption
         4c:d5:c8:eb:5d:1e:3b:6c:4b:6b:bf:30:b3:f5:82:51:6c:3f:
         63:c4:d7:e2:87:d4:1a:09:d3:c4:0a:8e:e0:9d:b1:dd:3a:b8:
         19:96:88:0c:f9:0a:1d:4e:05:de:4b:eb:af:f2:ce:ad:1b:b9:
         10:19:dd:77:40:a6:33:69:89:98:23:98:87:32:86:93:6c:55:
         ef:ba:ec:d7:40:b6:5f:15:4b:4c:50:3e:2d:85:e9:d9:3c:67:
         3c:17:1c:ce:cc:39:9f:85:5e:25:9d:5e:68:05:e6:dc:6e:6a:
         e8:d9:89:8c:06:38:54:87:38:6e:95:84:12:5d:ff:e8:d7:18:
         cb:66:f7:1a:bd:fe:23:b7:6e:19:f8:e7:62:8c:27:20:bd:58:
         71:f7:9e:10:99:0f:c4:77:90:8b:04:1d:70:8a:fd:96:56:19:
         dd:2a:98:38:e9:06:6e:b0:c0:ac:ac:66:94:6c:9f:00:7c:7a:
         c5:90:af:4b:03:88:27:d2:3a:5e:a3:50:d7:b8:13:74:fd:e0:
         23:87:c0:31:9f:15:33:e4:00:a4:ae:92:d1:61:19:15:7d:32:
         32:1b:c7:6e:9e:61:41:e2:65:83:f4:63:20:f6:7f:50:a8:81:
         8d:dc:d2:a8:09:47:f2:54:8c:52:7b:7d:30:35:73:59:77:ac:
         ed:49:3f:df
-----BEGIN CERTIFICATE-----
MIIDdDCCAlygAwIBAgIRALQM+IJhNnD+GDjFneZgPPswDQYJKoZIhvcNAQELBQAw
FTETMBEGA1UEAwwKdGVhbTU0LW5ldDAeFw0yMzA4MTQxNDIzMjBaFw0yNjA3Mjkx
NDIzMjBaMBgxFjAUBgNVBAMMDXRlYW01NC1zZXJ2ZXIwggEiMA0GCSqGSIb3DQEB
AQUAA4IBDwAwggEKAoIBAQDtDbvDzjuR64QhK7VuxFxKK4/YmNceZVnQ4ilgQ6VX
JL+6kx/w20+UajYp3ZgPKpT86Bt0M1wqa+KjfcPQmyVFsaS7c/aKsXZ/zar+ocNa
a2ZhMDCXxIRTf/T1f7JZ0wXKbpaSvqwEHIyzZjOj+D3mBmC8QSwGfC5BQGJ5Xxyn
n23CE8Xq5HSsjfhEteOsZMI1aDg7+M1xsgtnygsRd2b1FifsFkpc7eANF/TnvICR
kY9x0K7JvOZUCKyn1fH2JcGJs7SoTRsiy36PO34M8frgERShX1y2YScX2u7mnqnQ
GKxEL4MQZkxTcHBkJJheFMNTdYpSFuE617NoZJB6XwiFAgMBAAGjgbswgbgwCQYD
VR0TBAIwADAdBgNVHQ4EFgQUcXm0N12zihbGYBe80gb3nZETUJYwUAYDVR0jBEkw
R4AUizCq0CYv4KA1R8XXiDsCJ1/cSCyhGaQXMBUxEzARBgNVBAMMCnRlYW01NC1u
ZXSCFHcw8NUVVr8OBZW9C7vTJ04PujDaMBMGA1UdJQQMMAoGCCsGAQUFBwMBMAsG
A1UdDwQEAwIFoDAYBgNVHREEETAPgg10ZWFtNTQtc2VydmVyMA0GCSqGSIb3DQEB
CwUAA4IBAQBM1cjrXR47bEtrvzCz9YJRbD9jxNfih9QaCdPECo7gnbHdOrgZlogM
+QodTgXeS+uv8s6tG7kQGd13QKYzaYmYI5iHMoaTbFXvuuzXQLZfFUtMUD4thenZ
PGc8FxzOzDmfhV4lnV5oBebcbmro2YmMBjhUhzhulYQSXf/o1xjLZvcavf4jt24Z
+OdijCcgvVhx954QmQ/Ed5CLBB1wiv2WVhndKpg46QZusMCsrGaUbJ8AfHrFkK9L
A4gn0jpeo1DXuBN0/eAjh8AxnxUz5ACkrpLRYRkVfTIyG8dunmFB4mWD9GMg9n9Q
qIGN3NKoCUfyVIxSe30wNXNZd6ztST/f
-----END CERTIFICATE-----
