Certificate:
    Data:
        Version: 3 (0x2)
        Serial Number:
            fd:86:32:37:16:c9:c6:bc:3e:90:e6:e0:b0:4e:d3:51
        Signature Algorithm: sha256WithRSAEncryption
        Issuer: CN=team277-net
        Validity
            Not Before: Aug 14 14:27:58 2023 GMT
            Not After : Jul 29 14:27:58 2026 GMT
        Subject: CN=team277-server
        Subject Public Key Info:
            Public Key Algorithm: rsaEncryption
                RSA Public-Key: (2048 bit)
                Modulus:
                    00:9a:6e:bf:21:7c:63:a7:5e:82:47:5d:59:3f:38:
                    fa:fe:aa:14:86:c7:e3:b3:06:31:a8:4c:df:44:38:
                    1d:00:8c:3f:7e:1e:49:ce:ee:18:ae:25:50:13:72:
                    fd:27:61:a2:ef:c8:b4:f4:a6:45:3f:0e:2a:27:79:
                    61:db:3f:a9:7c:b4:e2:6c:20:00:84:a5:ea:75:7a:
                    ae:4f:cd:bd:1c:2e:b1:23:5e:0c:bf:27:f6:32:ec:
                    8c:5f:72:81:cc:9d:5b:d0:63:1b:15:44:c7:96:66:
                    9f:9c:d2:d5:5b:68:2b:52:5f:cc:e6:26:fd:45:52:
                    6d:af:a0:a5:b8:73:5c:ae:de:12:62:38:4d:8e:d8:
                    52:08:72:10:35:3c:85:4a:ec:aa:57:3d:85:8f:37:
                    d8:2d:e5:79:eb:23:4b:96:28:9a:ff:71:d7:b6:72:
                    5e:40:bb:09:81:8a:bc:8b:b2:4d:df:15:e6:f8:8c:
                    5b:87:53:32:16:64:cc:05:b0:ad:a1:ad:cb:27:52:
                    58:7a:ca:42:e3:b3:0b:11:59:bf:34:fb:65:c2:84:
                    a7:21:b3:d8:68:41:b6:92:d8:74:af:ae:ef:18:c5:
                    4f:be:ae:10:ae:0d:25:23:e7:44:6d:8f:30:74:64:
                    b0:b4:b7:66:41:df:a4:c8:9c:43:f8:50:50:7b:65:
                    37:c5
                Exponent: 65537 (0x10001)
        X509v3 extensions:
            X509v3 Basic Constraints: 
                CA:FALSE
            X509v3 Subject Key Identifier: 
                DC:EF:A9:99:3F:2F:35:8C:DE:85:6D:FA:0A:9A:F5:67:D8:06:A8:53
            X509v3 Authority Key Identifier: 
                keyid:AE:D8:E3:1A:DA:B1:90:7D:E6:32:2A:53:FD:C9:C5:8D:54:FB:55:B7
                DirName:/CN=team277-net
                serial:3D:BB:18:4B:9E:F0:E1:B6:A0:E3:EA:2A:66:3B:05:CF:69:B5:8F:0E

            X509v3 Extended Key Usage: 
                TLS Web Server Authentication
            X509v3 Key Usage: 
                Digital Signature, Key Encipherment
            X509v3 Subject Alternative Name: 
                DNS:team277-server
    Signature Algorithm: sha256WithRSAEncryption
         06:7b:07:bf:5c:8e:95:04:23:d3:f7:97:66:9b:a3:63:72:bb:
         03:ca:cc:e0:1d:04:8e:6c:99:d7:7d:52:46:f2:13:3f:3c:e5:
         12:2a:a1:e4:5f:d2:44:44:37:9c:89:bf:9c:69:4b:2b:af:65:
         b1:50:c7:21:bb:58:e3:5a:9b:33:e5:6f:d9:5d:e1:89:23:d7:
         f4:63:6e:cd:c1:39:e3:56:3b:b1:1f:f2:ba:9f:2a:3a:c2:4c:
         57:4f:39:81:22:58:1e:87:f4:3f:7f:a5:b5:b6:79:2a:bf:d1:
         d8:df:c7:1f:5e:1a:ab:41:24:d3:c7:a8:89:b9:b6:54:7c:94:
         58:da:e3:66:00:ee:a3:bd:b8:ce:83:00:32:5f:c5:92:c1:61:
         0a:01:a9:d6:07:62:c4:3a:7d:b9:ba:18:53:3d:71:3a:c1:4b:
         24:3b:d5:22:11:13:6e:c9:e1:7f:44:04:49:5c:39:cd:8f:f3:
         1e:76:e9:d8:1b:dd:79:97:96:f2:4b:99:93:aa:64:e5:9b:d2:
         f4:56:82:d1:13:b0:ec:3a:1c:0c:bc:a8:c9:9b:df:36:ad:ea:
         91:19:c9:75:60:89:2f:45:7f:b2:49:63:65:3c:49:a0:92:43:
         cb:3a:db:ef:d7:9b:26:b3:fd:b5:e7:ee:e2:cf:a9:c8:81:ff:
         4f:7d:af:3a
-----BEGIN CERTIFICATE-----
MIIDeDCCAmCgAwIBAgIRAP2GMjcWyca8PpDm4LBO01EwDQYJKoZIhvcNAQELBQAw
FjEUMBIGA1UEAwwLdGVhbTI3Ny1uZXQwHhcNMjMwODE0MTQyNzU4WhcNMjYwNzI5
MTQyNzU4WjAZMRcwFQYDVQQDDA50ZWFtMjc3LXNlcnZlcjCCASIwDQYJKoZIhvcN
AQEBBQADggEPADCCAQoCggEBAJpuvyF8Y6degkddWT84+v6qFIbH47MGMahM30Q4
HQCMP34eSc7uGK4lUBNy/Sdhou/ItPSmRT8OKid5Yds/qXy04mwgAISl6nV6rk/N
vRwusSNeDL8n9jLsjF9ygcydW9BjGxVEx5Zmn5zS1VtoK1JfzOYm/UVSba+gpbhz
XK7eEmI4TY7YUghyEDU8hUrsqlc9hY832C3leesjS5Yomv9x17ZyXkC7CYGKvIuy
Td8V5viMW4dTMhZkzAWwraGtyydSWHrKQuOzCxFZvzT7ZcKEpyGz2GhBtpLYdK+u
7xjFT76uEK4NJSPnRG2PMHRksLS3ZkHfpMicQ/hQUHtlN8UCAwEAAaOBvTCBujAJ
BgNVHRMEAjAAMB0GA1UdDgQWBBTc76mZPy81jN6FbfoKmvVn2AaoUzBRBgNVHSME
SjBIgBSu2OMa2rGQfeYyKlP9ycWNVPtVt6EapBgwFjEUMBIGA1UEAwwLdGVhbTI3
Ny1uZXSCFD27GEue8OG2oOPqKmY7Bc9ptY8OMBMGA1UdJQQMMAoGCCsGAQUFBwMB
MAsGA1UdDwQEAwIFoDAZBgNVHREEEjAQgg50ZWFtMjc3LXNlcnZlcjANBgkqhkiG
9w0BAQsFAAOCAQEABnsHv1yOlQQj0/eXZpujY3K7A8rM4B0EjmyZ131SRvITPzzl
Eiqh5F/SREQ3nIm/nGlLK69lsVDHIbtY41qbM+Vv2V3hiSPX9GNuzcE541Y7sR/y
up8qOsJMV085gSJYHof0P3+ltbZ5Kr/R2N/HH14aq0Ek08eoibm2VHyUWNrjZgDu
o724zoMAMl/FksFhCgGp1gdixDp9uboYUz1xOsFLJDvVIhETbsnhf0QESVw5zY/z
Hnbp2BvdeZeW8kuZk6pk5ZvS9FaC0ROw7DocDLyoyZvfNq3qkRnJdWCJL0V/sklj
ZTxJoJJDyzrb79ebJrP9tefu4s+pyIH/T32vOg==
-----END CERTIFICATE-----
