Certificate:
    Data:
        Version: 3 (0x2)
        Serial Number:
            51:21:d5:fa:33:d7:4a:50:b3:98:24:fa:ba:1f:bd:60
        Signature Algorithm: sha256WithRSAEncryption
        Issuer: CN=team16-net
        Validity
            Not Before: Aug 14 14:22:21 2023 GMT
            Not After : Jul 29 14:22:21 2026 GMT
        Subject: CN=team16-client
        Subject Public Key Info:
            Public Key Algorithm: rsaEncryption
                RSA Public-Key: (2048 bit)
                Modulus:
                    00:9a:97:16:bc:00:2f:4f:87:19:af:0c:9a:bb:18:
                    c7:c6:ca:01:50:f0:1f:56:a9:c1:2b:15:b6:e4:8c:
                    92:e8:42:cc:70:c8:f8:fb:8f:4f:8a:3f:bc:de:aa:
                    41:e3:c9:29:0f:2c:4c:dd:46:c3:08:33:f9:24:09:
                    24:3d:b0:9b:62:73:4f:85:c9:04:8c:a2:8e:84:1b:
                    60:3c:dd:23:f7:ac:e3:8e:f0:99:06:bb:52:61:81:
                    cc:ad:74:1a:07:b0:a7:aa:e1:37:04:56:33:b9:b4:
                    94:49:a2:bd:55:4f:b5:e1:e1:1d:1d:f5:5a:55:46:
                    59:49:d6:f6:e4:c3:33:ea:70:5e:df:77:1a:60:68:
                    9a:29:73:dd:fb:7a:1e:a1:67:e7:e4:5a:9d:e1:b0:
                    3c:57:8e:38:e3:e9:c9:0e:0e:95:2b:14:d8:31:ab:
                    95:bb:ee:26:91:8f:6f:e4:b8:6c:b8:5f:a9:43:44:
                    b6:07:39:ba:b6:96:2d:3f:94:97:f6:a2:63:38:e6:
                    78:87:1c:2d:d1:62:56:38:e9:0f:24:e0:f8:9e:f4:
                    10:9e:b9:fc:5e:e8:3c:d1:f9:b2:e7:be:03:f9:9b:
                    7f:bd:c0:34:ae:11:74:e1:04:ce:09:44:df:d1:ca:
                    0a:7f:f6:65:53:13:84:82:36:79:d0:7e:1b:43:44:
                    6c:ad
                Exponent: 65537 (0x10001)
        X509v3 extensions:
            X509v3 Basic Constraints: 
                CA:FALSE
            X509v3 Subject Key Identifier: 
                0C:1C:29:4D:1E:57:55:86:A1:43:8D:0D:E4:0E:CD:11:1D:70:B2:21
            X509v3 Authority Key Identifier: 
                keyid:E6:79:1C:AF:DB:85:69:BF:20:F2:D2:65:02:E3:02:19:54:E7:5D:E3
                DirName:/CN=team16-net
                serial:20:11:E7:39:05:EB:1C:5D:D4:54:DC:96:98:34:DC:BC:F9:BC:8D:BD

            X509v3 Extended Key Usage: 
                TLS Web Client Authentication
            X509v3 Key Usage: 
                Digital Signature
    Signature Algorithm: sha256WithRSAEncryption
         23:20:af:8b:8e:27:a7:3e:7c:48:2e:e6:8c:d1:0d:ac:7c:c0:
         55:4b:50:25:90:1e:38:3a:cb:91:1a:3c:56:b5:2f:29:35:41:
         11:b8:d9:ff:33:d5:e7:40:d4:bd:6e:10:c4:48:7d:b9:4c:19:
         15:30:17:da:96:6f:2a:06:b2:13:f9:cc:c7:4d:dd:6e:eb:88:
         4d:0b:3e:b5:6c:51:95:60:81:ee:31:c4:f5:98:3e:e2:b1:86:
         f2:df:6a:f7:1b:9d:90:66:0b:d1:67:cd:79:c8:0a:c8:dd:df:
         40:a4:74:6a:56:89:de:b3:86:d1:39:c8:0d:23:0a:37:aa:97:
         59:be:28:ad:01:9c:ea:5f:bf:40:c9:53:65:a0:9e:cb:1c:72:
         47:f6:8d:e6:d7:e1:07:04:b6:0d:4c:75:05:ce:82:ab:81:55:
         d7:b0:b0:e2:18:37:8b:39:47:a9:3c:69:83:04:e6:f3:32:1e:
         07:35:e8:2f:97:58:e7:c8:73:3f:48:d0:fc:04:f3:39:44:79:
         55:76:99:fb:99:32:f1:c2:61:a6:07:dd:73:19:2b:63:7c:1a:
         01:60:aa:eb:8a:03:e1:ff:d4:44:41:67:23:b6:75:d7:6d:9b:
         bc:ed:63:f0:e9:5c:76:d0:8d:ca:af:f3:9c:7d:95:61:92:53:
         cc:88:99:d6
-----BEGIN CERTIFICATE-----
MIIDWTCCAkGgAwIBAgIQUSHV+jPXSlCzmCT6uh+9YDANBgkqhkiG9w0BAQsFADAV
MRMwEQYDVQQDDAp0ZWFtMTYtbmV0MB4XDTIzMDgxNDE0MjIyMVoXDTI2MDcyOTE0
MjIyMVowGDEWMBQGA1UEAwwNdGVhbTE2LWNsaWVudDCCASIwDQYJKoZIhvcNAQEB
BQADggEPADCCAQoCggEBAJqXFrwAL0+HGa8MmrsYx8bKAVDwH1apwSsVtuSMkuhC
zHDI+PuPT4o/vN6qQePJKQ8sTN1Gwwgz+SQJJD2wm2JzT4XJBIyijoQbYDzdI/es
447wmQa7UmGBzK10Ggewp6rhNwRWM7m0lEmivVVPteHhHR31WlVGWUnW9uTDM+pw
Xt93GmBomilz3ft6HqFn5+RaneGwPFeOOOPpyQ4OlSsU2DGrlbvuJpGPb+S4bLhf
qUNEtgc5uraWLT+Ul/aiYzjmeIccLdFiVjjpDyTg+J70EJ65/F7oPNH5sue+A/mb
f73ANK4RdOEEzglE39HKCn/2ZVMThII2edB+G0NEbK0CAwEAAaOBoTCBnjAJBgNV
HRMEAjAAMB0GA1UdDgQWBBQMHClNHldVhqFDjQ3kDs0RHXCyITBQBgNVHSMESTBH
gBTmeRyv24VpvyDy0mUC4wIZVOdd46EZpBcwFTETMBEGA1UEAwwKdGVhbTE2LW5l
dIIUIBHnOQXrHF3UVNyWmDTcvPm8jb0wEwYDVR0lBAwwCgYIKwYBBQUHAwIwCwYD
VR0PBAQDAgeAMA0GCSqGSIb3DQEBCwUAA4IBAQAjIK+LjienPnxILuaM0Q2sfMBV
S1AlkB44OsuRGjxWtS8pNUERuNn/M9XnQNS9bhDESH25TBkVMBfalm8qBrIT+czH
Td1u64hNCz61bFGVYIHuMcT1mD7isYby32r3G52QZgvRZ815yArI3d9ApHRqVone
s4bROcgNIwo3qpdZviitAZzqX79AyVNloJ7LHHJH9o3m1+EHBLYNTHUFzoKrgVXX
sLDiGDeLOUepPGmDBObzMh4HNegvl1jnyHM/SND8BPM5RHlVdpn7mTLxwmGmB91z
GStjfBoBYKrrigPh/9REQWcjtnXXbZu87WPw6Vx20I3Kr/OcfZVhklPMiJnW
-----END CERTIFICATE-----
