Certificate:
    Data:
        Version: 3 (0x2)
        Serial Number:
            ad:b0:9f:68:80:fe:f7:ff:dd:c3:67:b4:d5:34:c2:9f
        Signature Algorithm: sha256WithRSAEncryption
        Issuer: CN=team16-net
        Validity
            Not Before: Aug 14 14:22:21 2023 GMT
            Not After : Jul 29 14:22:21 2026 GMT
        Subject: CN=team16-server
        Subject Public Key Info:
            Public Key Algorithm: rsaEncryption
                RSA Public-Key: (2048 bit)
                Modulus:
                    00:d8:6d:f5:3c:97:ac:d1:ad:27:d2:3a:36:fb:96:
                    de:a1:d1:56:3e:08:ad:b6:c1:58:18:8f:4e:c7:9e:
                    17:00:ae:44:85:de:fe:51:6b:cb:f3:42:f7:57:67:
                    c7:79:c4:8c:d1:14:da:37:19:77:3b:16:6c:53:f0:
                    4a:9d:ad:f8:8b:9c:44:8a:87:d5:6c:9c:c6:1c:fa:
                    82:3d:80:83:10:8f:80:9f:d4:87:9c:d1:42:43:f3:
                    91:90:97:0c:b0:73:e3:8a:5c:ce:9b:4b:62:e2:16:
                    a7:18:cb:e1:b9:73:f1:dd:19:3d:9e:de:a6:e5:90:
                    ad:8f:ea:f8:15:f3:6f:85:2b:ab:47:f7:7a:41:da:
                    7f:ec:92:db:8d:bd:3d:f7:22:60:e9:37:3a:40:14:
                    0b:e8:99:ad:7b:67:55:25:69:a6:5d:4c:29:49:15:
                    a0:9c:a5:81:31:ee:e4:97:ff:90:cf:09:ed:f3:ec:
                    2e:4d:51:f3:d7:32:3d:70:8e:37:05:c7:26:e6:a8:
                    9a:ae:eb:ec:77:6e:23:5b:e8:38:ca:f8:08:20:88:
                    e2:f1:be:e9:87:73:07:9f:f2:c5:29:3f:0c:2b:6c:
                    ff:ac:c8:c9:84:f8:8e:40:b0:04:df:a2:04:99:cf:
                    d0:98:28:52:63:7f:ed:a8:2e:9f:75:18:99:a6:8c:
                    10:d7
                Exponent: 65537 (0x10001)
        X509v3 extensions:
            X509v3 Basic Constraints: 
                CA:FALSE
            X509v3 Subject Key Identifier: 
                64:26:BB:40:34:E8:7E:A1:28:F6:01:35:E7:A4:97:9D:28:31:A9:74
            X509v3 Authority Key Identifier: 
                keyid:E6:79:1C:AF:DB:85:69:BF:20:F2:D2:65:02:E3:02:19:54:E7:5D:E3
                DirName:/CN=team16-net
                serial:20:11:E7:39:05:EB:1C:5D:D4:54:DC:96:98:34:DC:BC:F9:BC:8D:BD

            X509v3 Extended Key Usage: 
                TLS Web Server Authentication
            X509v3 Key Usage: 
                Digital Signature, Key Encipherment
            X509v3 Subject Alternative Name: 
                DNS:team16-server
    Signature Algorithm: sha256WithRSAEncryption
         70:38:28:83:0b:b6:ba:90:7c:ac:4e:e2:8d:50:83:8c:7e:09:
         c6:5b:74:01:ee:a7:27:34:11:2b:f4:5c:ce:06:6c:cf:e0:d6:
         ab:80:dc:3e:fb:4e:b0:fe:3c:a1:13:9d:96:0a:42:99:7a:15:
         75:67:f2:e4:3f:28:0e:b4:9c:7e:bb:99:af:82:8d:8a:3a:4e:
         6f:65:3a:f3:ab:b5:16:fd:b5:ae:ad:69:16:c7:4d:68:5a:c8:
         1b:ab:c6:3c:73:d5:3f:9a:c0:d7:ff:60:e8:10:66:15:93:0b:
         a7:b2:11:36:b9:60:1b:9d:ee:53:9c:b7:8d:eb:1a:98:25:17:
         a3:05:6e:63:c1:23:24:70:78:28:92:bb:49:a7:6d:2b:a9:a3:
         b1:c3:30:9e:c4:94:25:3c:d1:16:a0:92:4d:a4:fc:b6:1a:2e:
         ba:ec:7f:9d:16:67:f7:9d:fd:85:74:b0:bb:a5:67:2c:e4:31:
         2a:df:85:ae:e7:a3:48:61:5d:f5:7a:61:c5:e0:ee:ab:d3:e3:
         38:e2:27:8a:88:2b:32:3f:d3:1d:b3:bc:1b:07:b3:0d:83:05:
         fb:4c:48:fa:64:48:48:d6:70:29:24:36:97:3c:32:65:fa:49:
         a7:20:e4:40:3f:3d:87:ea:2e:13:ad:59:56:68:73:67:d2:2c:
         ff:49:6c:30
-----BEGIN CERTIFICATE-----
MIIDdDCCAlygAwIBAgIRAK2wn2iA/vf/3cNntNU0wp8wDQYJKoZIhvcNAQELBQAw
FTETMBEGA1UEAwwKdGVhbTE2LW5ldDAeFw0yMzA4MTQxNDIyMjFaFw0yNjA3Mjkx
NDIyMjFaMBgxFjAUBgNVBAMMDXRlYW0xNi1zZXJ2ZXIwggEiMA0GCSqGSIb3DQEB
AQUAA4IBDwAwggEKAoIBAQDYbfU8l6zRrSfSOjb7lt6h0VY+CK22wVgYj07HnhcA
rkSF3v5Ra8vzQvdXZ8d5xIzRFNo3GXc7FmxT8EqdrfiLnESKh9VsnMYc+oI9gIMQ
j4Cf1Iec0UJD85GQlwywc+OKXM6bS2LiFqcYy+G5c/HdGT2e3qblkK2P6vgV82+F
K6tH93pB2n/sktuNvT33ImDpNzpAFAvoma17Z1UlaaZdTClJFaCcpYEx7uSX/5DP
Ce3z7C5NUfPXMj1wjjcFxybmqJqu6+x3biNb6DjK+AggiOLxvumHcwef8sUpPwwr
bP+syMmE+I5AsATfogSZz9CYKFJjf+2oLp91GJmmjBDXAgMBAAGjgbswgbgwCQYD
VR0TBAIwADAdBgNVHQ4EFgQUZCa7QDTofqEo9gE156SXnSgxqXQwUAYDVR0jBEkw
R4AU5nkcr9uFab8g8tJlAuMCGVTnXeOhGaQXMBUxEzARBgNVBAMMCnRlYW0xNi1u
ZXSCFCAR5zkF6xxd1FTclpg03Lz5vI29MBMGA1UdJQQMMAoGCCsGAQUFBwMBMAsG
A1UdDwQEAwIFoDAYBgNVHREEETAPgg10ZWFtMTYtc2VydmVyMA0GCSqGSIb3DQEB
CwUAA4IBAQBwOCiDC7a6kHysTuKNUIOMfgnGW3QB7qcnNBEr9FzOBmzP4NargNw+
+06w/jyhE52WCkKZehV1Z/LkPygOtJx+u5mvgo2KOk5vZTrzq7UW/bWurWkWx01o
Wsgbq8Y8c9U/msDX/2DoEGYVkwunshE2uWAbne5TnLeN6xqYJRejBW5jwSMkcHgo
krtJp20rqaOxwzCexJQlPNEWoJJNpPy2Gi667H+dFmf3nf2FdLC7pWcs5DEq34Wu
56NIYV31emHF4O6r0+M44ieKiCsyP9Mds7wbB7MNgwX7TEj6ZEhI1nApJDaXPDJl
+kmnIORAPz2H6i4TrVlWaHNn0iz/SWww
-----END CERTIFICATE-----
