Certificate:
    Data:
        Version: 3 (0x2)
        Serial Number:
            82:b1:5a:13:42:e1:97:69:62:9a:c8:11:8a:dc:d0:69
        Signature Algorithm: sha256WithRSAEncryption
        Issuer: CN=team201-net
        Validity
            Not Before: Aug 14 14:26:21 2023 GMT
            Not After : Jul 29 14:26:21 2026 GMT
        Subject: CN=team201-server
        Subject Public Key Info:
            Public Key Algorithm: rsaEncryption
                RSA Public-Key: (2048 bit)
                Modulus:
                    00:ba:1f:80:c5:06:f9:65:2d:3d:1c:0d:5d:a3:ab:
                    bb:9f:e8:41:3b:3d:ae:f4:33:8d:ee:3f:88:93:ab:
                    75:67:64:15:d0:ed:76:cd:5f:b2:5f:d1:cd:1e:8d:
                    a8:3c:6d:d1:c1:20:4a:f4:d6:a2:20:d0:b1:80:5a:
                    06:cd:16:02:a6:d0:92:44:8a:21:25:87:53:68:4e:
                    cd:55:aa:78:d5:91:ff:c4:5c:5b:f5:69:7e:1f:d0:
                    0f:62:f3:f9:16:38:41:77:de:88:90:46:af:8f:c2:
                    ce:bf:f3:ca:55:ce:78:81:4c:64:cc:43:dc:8b:41:
                    b4:b4:6f:8c:00:72:0d:fb:ee:dc:59:39:a5:b7:40:
                    7d:4a:98:e8:6e:c5:b6:86:1c:6a:ec:1b:4a:25:d9:
                    0c:1f:5f:2f:41:73:ae:90:64:1b:2e:ea:7f:6c:7c:
                    18:ce:c8:c2:7e:bb:e6:83:ae:d3:01:6b:fa:2f:56:
                    2d:70:e1:21:5a:87:28:0d:8c:35:55:e0:45:6a:ff:
                    9d:d9:91:45:cc:9b:2d:ef:84:82:a6:24:92:31:2e:
                    7d:66:ee:5a:19:6c:a9:5c:53:5e:4c:a2:95:1a:3c:
                    5a:03:e2:1a:43:ee:06:4d:b8:ed:dd:f7:cd:c7:0c:
                    37:6f:26:8b:82:d8:2c:c9:6e:ad:22:aa:f3:2a:84:
                    64:a9
                Exponent: 65537 (0x10001)
        X509v3 extensions:
            X509v3 Basic Constraints: 
                CA:FALSE
            X509v3 Subject Key Identifier: 
                92:4B:93:32:99:F5:79:84:31:63:8A:2F:C7:8B:96:29:F5:AB:3E:A0
            X509v3 Authority Key Identifier: 
                keyid:82:03:6B:CD:EE:2E:30:35:30:42:0F:6B:99:28:45:2C:FC:93:9A:29
                DirName:/CN=team201-net
                serial:7F:17:7B:B5:86:B8:0C:9A:8E:73:A1:29:EA:18:18:D7:1F:55:44:3C

            X509v3 Extended Key Usage: 
                TLS Web Server Authentication
            X509v3 Key Usage: 
                Digital Signature, Key Encipherment
            X509v3 Subject Alternative Name: 
                DNS:team201-server
    Signature Algorithm: sha256WithRSAEncryption
         68:a1:41:64:7b:a7:24:e2:0e:e6:0b:6e:8d:89:c5:66:9c:1f:
         c2:f8:e2:dc:43:5b:7b:88:e0:2e:63:6a:75:bd:90:cf:29:03:
         96:38:26:93:ff:2b:34:b9:19:43:2c:f5:51:a6:2b:16:02:58:
         48:da:4c:c2:f7:b2:b9:f0:96:2f:d3:23:6b:81:bc:9c:6a:38:
         b1:92:3d:c6:37:4a:4d:49:a0:a7:11:6f:2a:f1:85:f9:1f:3a:
         bf:9e:8d:00:3f:85:47:81:41:ed:b8:c7:29:dd:fd:34:07:78:
         89:a3:39:09:d8:ce:b8:72:39:89:16:f9:38:78:d3:02:4e:16:
         0e:43:4e:d5:1e:5f:4e:fd:8a:5f:a1:59:c4:60:18:35:cc:38:
         dd:6e:fd:9d:3c:94:54:e5:21:1b:e6:09:67:2c:d7:f6:ce:c6:
         22:88:65:7a:eb:26:22:f9:b7:8c:18:34:be:6a:46:16:2a:2a:
         22:e7:03:0c:85:0a:fa:c9:57:92:55:d8:06:ce:88:5e:05:e4:
         ec:9a:8c:f6:73:1a:54:75:f1:94:f2:33:2a:51:9d:71:11:2a:
         4d:85:6d:3f:12:e5:ca:e2:2b:a0:e0:d0:72:3d:3c:c7:8b:f7:
         de:85:90:26:61:8b:a8:09:44:bc:97:ad:7e:48:15:6a:99:50:
         8d:64:01:5e
-----BEGIN CERTIFICATE-----
MIIDeDCCAmCgAwIBAgIRAIKxWhNC4ZdpYprIEYrc0GkwDQYJKoZIhvcNAQELBQAw
FjEUMBIGA1UEAwwLdGVhbTIwMS1uZXQwHhcNMjMwODE0MTQyNjIxWhcNMjYwNzI5
MTQyNjIxWjAZMRcwFQYDVQQDDA50ZWFtMjAxLXNlcnZlcjCCASIwDQYJKoZIhvcN
AQEBBQADggEPADCCAQoCggEBALofgMUG+WUtPRwNXaOru5/oQTs9rvQzje4/iJOr
dWdkFdDtds1fsl/RzR6NqDxt0cEgSvTWoiDQsYBaBs0WAqbQkkSKISWHU2hOzVWq
eNWR/8RcW/Vpfh/QD2Lz+RY4QXfeiJBGr4/Czr/zylXOeIFMZMxD3ItBtLRvjABy
Dfvu3Fk5pbdAfUqY6G7FtoYcauwbSiXZDB9fL0FzrpBkGy7qf2x8GM7Iwn675oOu
0wFr+i9WLXDhIVqHKA2MNVXgRWr/ndmRRcybLe+EgqYkkjEufWbuWhlsqVxTXkyi
lRo8WgPiGkPuBk247d33zccMN28mi4LYLMlurSKq8yqEZKkCAwEAAaOBvTCBujAJ
BgNVHRMEAjAAMB0GA1UdDgQWBBSSS5MymfV5hDFjii/Hi5Yp9as+oDBRBgNVHSME
SjBIgBSCA2vN7i4wNTBCD2uZKEUs/JOaKaEapBgwFjEUMBIGA1UEAwwLdGVhbTIw
MS1uZXSCFH8Xe7WGuAyajnOhKeoYGNcfVUQ8MBMGA1UdJQQMMAoGCCsGAQUFBwMB
MAsGA1UdDwQEAwIFoDAZBgNVHREEEjAQgg50ZWFtMjAxLXNlcnZlcjANBgkqhkiG
9w0BAQsFAAOCAQEAaKFBZHunJOIO5gtujYnFZpwfwvji3ENbe4jgLmNqdb2QzykD
ljgmk/8rNLkZQyz1UaYrFgJYSNpMwveyufCWL9Mja4G8nGo4sZI9xjdKTUmgpxFv
KvGF+R86v56NAD+FR4FB7bjHKd39NAd4iaM5CdjOuHI5iRb5OHjTAk4WDkNO1R5f
Tv2KX6FZxGAYNcw43W79nTyUVOUhG+YJZyzX9s7GIohleusmIvm3jBg0vmpGFioq
IucDDIUK+slXklXYBs6IXgXk7JqM9nMaVHXxlPIzKlGdcREqTYVtPxLlyuIroODQ
cj08x4v33oWQJmGLqAlEvJetfkgVaplQjWQBXg==
-----END CERTIFICATE-----
