Certificate:
    Data:
        Version: 3 (0x2)
        Serial Number:
            a5:a1:a2:31:ba:c3:be:dc:03:7f:36:76:db:e0:1a:d3
        Signature Algorithm: sha256WithRSAEncryption
        Issuer: CN=team201-net
        Validity
            Not Before: Aug 14 14:26:21 2023 GMT
            Not After : Jul 29 14:26:21 2026 GMT
        Subject: CN=team201-client
        Subject Public Key Info:
            Public Key Algorithm: rsaEncryption
                RSA Public-Key: (2048 bit)
                Modulus:
                    00:ca:bc:93:6e:05:a8:10:54:4f:08:95:d3:4d:60:
                    42:72:f4:47:df:dd:3e:6e:b1:4f:fe:5d:67:57:d2:
                    42:ae:b4:38:aa:46:47:cc:c0:fc:0d:75:2e:da:d8:
                    67:63:6e:dd:8a:b7:7e:0f:a6:87:f1:f2:dc:c4:2c:
                    e3:a7:71:0f:2b:ff:55:e5:13:b6:de:a3:fa:f3:9c:
                    5b:89:d5:bb:f9:37:70:64:36:42:88:d7:cb:db:f6:
                    0f:09:9e:40:b9:f5:2d:b6:d1:49:eb:e0:db:58:61:
                    fa:3c:17:f1:3c:34:a8:1e:80:a4:a3:d6:a3:d4:15:
                    7d:ca:d5:de:3f:72:f8:c1:79:48:80:7f:1f:29:6c:
                    be:bd:53:4b:e2:cf:0b:2d:1d:27:d9:41:85:f4:a6:
                    20:ff:33:78:fa:4a:5f:d3:8b:78:98:c7:ed:b4:1e:
                    ff:f0:88:9a:85:35:80:4b:c0:ef:26:94:00:8f:8e:
                    ec:f8:57:d0:97:5d:42:73:6c:6d:1d:af:74:a5:24:
                    80:46:4f:84:62:7e:fc:9b:13:ae:16:21:ae:78:c4:
                    4b:1e:91:18:8e:1d:ea:fd:d1:57:bc:12:be:d5:c9:
                    22:82:4f:33:f5:b8:08:cf:2b:3f:fe:ce:85:bb:21:
                    e5:f9:9b:06:87:b4:1f:61:54:f7:bf:c3:ce:8f:4e:
                    30:df
                Exponent: 65537 (0x10001)
        X509v3 extensions:
            X509v3 Basic Constraints: 
                CA:FALSE
            X509v3 Subject Key Identifier: 
                DD:E9:A7:2F:A8:A7:1F:EF:E7:99:35:61:1D:9F:F2:2A:03:0F:A9:A6
            X509v3 Authority Key Identifier: 
                keyid:82:03:6B:CD:EE:2E:30:35:30:42:0F:6B:99:28:45:2C:FC:93:9A:29
                DirName:/CN=team201-net
                serial:7F:17:7B:B5:86:B8:0C:9A:8E:73:A1:29:EA:18:18:D7:1F:55:44:3C

            X509v3 Extended Key Usage: 
                TLS Web Client Authentication
            X509v3 Key Usage: 
                Digital Signature
    Signature Algorithm: sha256WithRSAEncryption
         a4:4f:29:4a:73:72:bd:64:db:34:78:e5:75:03:3a:08:8d:93:
         3c:c8:5e:41:66:11:c9:02:8c:2d:01:43:3e:33:fb:a2:74:e0:
         de:db:07:ab:dc:a3:29:cc:94:26:44:47:2f:f5:ef:3e:f7:7a:
         cf:7f:b0:c5:d0:f4:01:99:be:a7:9a:70:ae:58:29:d0:05:71:
         7e:25:b9:9c:36:ba:81:e4:a5:44:93:e4:f0:3b:f2:a9:be:c6:
         b9:11:54:71:64:27:bc:e2:e4:6d:7b:10:92:da:7f:88:01:a7:
         fe:b4:78:61:3d:4e:f7:eb:00:6c:1c:60:38:d2:97:27:49:fc:
         a2:f2:06:49:24:3e:09:83:4c:e1:fb:d9:be:91:a3:c2:81:ea:
         6c:82:59:02:d4:3a:59:ec:30:3d:a7:cc:da:f4:c5:a8:f5:5d:
         2c:e3:ef:c2:be:b4:6a:19:7c:09:8e:7e:94:a3:12:f9:4a:92:
         84:36:66:7e:bc:dc:3c:25:df:ff:70:4a:d3:2c:db:7a:fe:ea:
         66:41:99:cd:fb:d5:a1:60:89:20:ba:79:de:9f:04:fd:2c:da:
         73:65:73:a8:05:4c:21:c2:68:05:c6:3d:ad:87:0e:a2:d3:7a:
         60:c3:0e:4b:bd:56:24:d9:b2:ba:37:ef:b8:d7:c5:db:db:4c:
         a4:83:07:f5
-----BEGIN CERTIFICATE-----
MIIDXTCCAkWgAwIBAgIRAKWhojG6w77cA382dtvgGtMwDQYJKoZIhvcNAQELBQAw
FjEUMBIGA1UEAwwLdGVhbTIwMS1uZXQwHhcNMjMwODE0MTQyNjIxWhcNMjYwNzI5
MTQyNjIxWjAZMRcwFQYDVQQDDA50ZWFtMjAxLWNsaWVudDCCASIwDQYJKoZIhvcN
AQEBBQADggEPADCCAQoCggEBAMq8k24FqBBUTwiV001gQnL0R9/dPm6xT/5dZ1fS
Qq60OKpGR8zA/A11LtrYZ2Nu3Yq3fg+mh/Hy3MQs46dxDyv/VeUTtt6j+vOcW4nV
u/k3cGQ2QojXy9v2DwmeQLn1LbbRSevg21hh+jwX8Tw0qB6ApKPWo9QVfcrV3j9y
+MF5SIB/Hylsvr1TS+LPCy0dJ9lBhfSmIP8zePpKX9OLeJjH7bQe//CImoU1gEvA
7yaUAI+O7PhX0JddQnNsbR2vdKUkgEZPhGJ+/JsTrhYhrnjESx6RGI4d6v3RV7wS
vtXJIoJPM/W4CM8rP/7Ohbsh5fmbBoe0H2FU97/Dzo9OMN8CAwEAAaOBojCBnzAJ
BgNVHRMEAjAAMB0GA1UdDgQWBBTd6acvqKcf7+eZNWEdn/IqAw+ppjBRBgNVHSME
SjBIgBSCA2vN7i4wNTBCD2uZKEUs/JOaKaEapBgwFjEUMBIGA1UEAwwLdGVhbTIw
MS1uZXSCFH8Xe7WGuAyajnOhKeoYGNcfVUQ8MBMGA1UdJQQMMAoGCCsGAQUFBwMC
MAsGA1UdDwQEAwIHgDANBgkqhkiG9w0BAQsFAAOCAQEApE8pSnNyvWTbNHjldQM6
CI2TPMheQWYRyQKMLQFDPjP7onTg3tsHq9yjKcyUJkRHL/XvPvd6z3+wxdD0AZm+
p5pwrlgp0AVxfiW5nDa6geSlRJPk8Dvyqb7GuRFUcWQnvOLkbXsQktp/iAGn/rR4
YT1O9+sAbBxgONKXJ0n8ovIGSSQ+CYNM4fvZvpGjwoHqbIJZAtQ6WewwPafM2vTF
qPVdLOPvwr60ahl8CY5+lKMS+UqShDZmfrzcPCXf/3BK0yzbev7qZkGZzfvVoWCJ
ILp53p8E/Szac2VzqAVMIcJoBcY9rYcOotN6YMMOS71WJNmyujfvuNfF29tMpIMH
9Q==
-----END CERTIFICATE-----
