Certificate:
    Data:
        Version: 3 (0x2)
        Serial Number:
            62:fc:76:23:90:48:1f:0e:38:f0:f3:f5:83:19:8e:1d
        Signature Algorithm: sha256WithRSAEncryption
        Issuer: CN=team156-net
        Validity
            Not Before: Aug 14 14:25:30 2023 GMT
            Not After : Jul 29 14:25:30 2026 GMT
        Subject: CN=team156-client
        Subject Public Key Info:
            Public Key Algorithm: rsaEncryption
                RSA Public-Key: (2048 bit)
                Modulus:
                    00:e9:62:0d:87:75:2c:a5:e4:1d:84:1f:f9:78:27:
                    18:cf:55:26:34:06:cc:8c:7b:04:2f:50:94:d0:43:
                    b4:f7:c4:a1:36:10:5d:37:8b:8c:d4:53:5c:c1:a8:
                    7e:3c:41:6b:74:44:b6:ea:1b:1e:09:58:a3:a8:8e:
                    f6:41:ef:37:a1:9c:0b:47:61:f1:f7:85:49:60:a9:
                    80:89:07:e1:10:f0:53:cb:ed:b0:22:65:9f:12:0a:
                    07:f9:f2:cc:9b:29:48:de:2d:d5:84:14:b1:8a:0a:
                    e6:3b:a5:d2:50:c2:dc:56:9c:6b:92:4b:4b:81:2c:
                    cb:ec:5e:48:87:75:0d:49:36:4f:91:44:5b:f8:b6:
                    38:65:63:c5:7e:4c:d9:2a:45:58:32:41:4b:53:de:
                    71:04:ad:8f:b3:e1:f1:88:aa:bf:03:1d:19:13:1b:
                    2c:76:d3:e1:24:61:fc:9b:73:35:18:86:34:dc:f2:
                    05:41:eb:df:eb:21:7c:7c:a7:05:58:72:8a:c9:fc:
                    01:ee:a7:0b:0b:ef:91:00:df:d3:e0:9a:5e:48:ad:
                    8d:04:24:d3:c0:08:f5:06:e7:c9:57:c0:af:57:4f:
                    6a:d3:b9:35:d1:60:c7:e4:ef:07:5c:64:45:05:41:
                    76:ff:5f:33:6e:8c:13:20:06:12:9e:40:72:ed:8d:
                    38:f5
                Exponent: 65537 (0x10001)
        X509v3 extensions:
            X509v3 Basic Constraints: 
                CA:FALSE
            X509v3 Subject Key Identifier: 
                80:D7:66:AF:04:32:1E:5D:12:67:BC:64:C2:B3:17:2D:F0:36:E9:F3
            X509v3 Authority Key Identifier: 
                keyid:D8:A9:00:E7:CC:CE:FF:15:9A:04:DF:7E:17:E1:E6:0A:F7:65:EB:F6
                DirName:/CN=team156-net
                serial:11:35:83:85:8D:BF:D8:B3:B6:D3:A0:88:B9:C6:AA:0A:D2:2A:85:31

            X509v3 Extended Key Usage: 
                TLS Web Client Authentication
            X509v3 Key Usage: 
                Digital Signature
    Signature Algorithm: sha256WithRSAEncryption
         be:67:25:ea:6e:a2:8d:8c:b7:05:89:1b:63:47:31:06:29:4f:
         1f:72:0f:c7:d7:0a:c4:94:6a:7e:f0:b0:28:7d:c7:c8:f7:e9:
         ff:63:05:89:06:27:03:78:38:9b:8f:2d:d8:bf:f2:25:c7:f1:
         76:92:32:16:e3:21:7c:c9:96:d2:dc:7b:ec:ae:1d:86:a7:e3:
         bb:b7:c6:d7:f3:6b:33:7e:38:ab:1c:75:5b:d4:37:bc:bb:a9:
         5f:ca:59:ec:ca:cd:fb:12:82:ba:43:31:f3:4b:6c:35:e3:c2:
         f4:e1:b1:e4:3f:7c:81:6d:95:47:ee:d3:bf:fb:f3:79:a4:90:
         50:69:67:81:9c:77:dd:0f:68:cc:37:6b:9c:b4:22:df:01:fd:
         25:f0:61:fe:4e:9f:83:dd:50:67:e5:bd:fe:19:3a:fe:cc:e8:
         fc:bf:9c:9f:ad:8e:f8:3e:f9:b1:6e:56:91:22:ed:3a:b3:cb:
         17:da:bc:ba:d6:1e:02:a6:0e:f0:5c:07:35:f7:02:7a:b5:0e:
         95:44:48:5a:5f:61:f3:50:2a:25:78:f1:82:a8:c8:c2:e2:27:
         8c:6d:a4:7e:27:5a:ba:83:e3:d5:22:8a:3e:70:aa:76:22:64:
         ce:f2:15:ef:f5:70:83:78:fc:c7:8e:c0:42:99:5b:05:bc:5b:
         cb:07:4d:a7
-----BEGIN CERTIFICATE-----
MIIDXDCCAkSgAwIBAgIQYvx2I5BIHw448PP1gxmOHTANBgkqhkiG9w0BAQsFADAW
MRQwEgYDVQQDDAt0ZWFtMTU2LW5ldDAeFw0yMzA4MTQxNDI1MzBaFw0yNjA3Mjkx
NDI1MzBaMBkxFzAVBgNVBAMMDnRlYW0xNTYtY2xpZW50MIIBIjANBgkqhkiG9w0B
AQEFAAOCAQ8AMIIBCgKCAQEA6WINh3UspeQdhB/5eCcYz1UmNAbMjHsEL1CU0EO0
98ShNhBdN4uM1FNcwah+PEFrdES26hseCVijqI72Qe83oZwLR2Hx94VJYKmAiQfh
EPBTy+2wImWfEgoH+fLMmylI3i3VhBSxigrmO6XSUMLcVpxrkktLgSzL7F5Ih3UN
STZPkURb+LY4ZWPFfkzZKkVYMkFLU95xBK2Ps+HxiKq/Ax0ZExssdtPhJGH8m3M1
GIY03PIFQevf6yF8fKcFWHKKyfwB7qcLC++RAN/T4JpeSK2NBCTTwAj1BufJV8Cv
V09q07k10WDH5O8HXGRFBUF2/18zbowTIAYSnkBy7Y049QIDAQABo4GiMIGfMAkG
A1UdEwQCMAAwHQYDVR0OBBYEFIDXZq8EMh5dEme8ZMKzFy3wNunzMFEGA1UdIwRK
MEiAFNipAOfMzv8VmgTffhfh5gr3Zev2oRqkGDAWMRQwEgYDVQQDDAt0ZWFtMTU2
LW5ldIIUETWDhY2/2LO206CIucaqCtIqhTEwEwYDVR0lBAwwCgYIKwYBBQUHAwIw
CwYDVR0PBAQDAgeAMA0GCSqGSIb3DQEBCwUAA4IBAQC+ZyXqbqKNjLcFiRtjRzEG
KU8fcg/H1wrElGp+8LAofcfI9+n/YwWJBicDeDibjy3Yv/Ilx/F2kjIW4yF8yZbS
3Hvsrh2Gp+O7t8bX82szfjirHHVb1De8u6lfylnsys37EoK6QzHzS2w148L04bHk
P3yBbZVH7tO/+/N5pJBQaWeBnHfdD2jMN2uctCLfAf0l8GH+Tp+D3VBn5b3+GTr+
zOj8v5yfrY74PvmxblaRIu06s8sX2ry61h4Cpg7wXAc19wJ6tQ6VREhaX2HzUCol
ePGCqMjC4ieMbaR+J1q6g+PVIoo+cKp2ImTO8hXv9XCDePzHjsBCmVsFvFvLB02n
-----END CERTIFICATE-----
