Certificate:
    Data:
        Version: 3 (0x2)
        Serial Number:
            c6:9d:76:38:66:f4:42:05:65:72:07:b8:fa:ab:43:d9
        Signature Algorithm: sha256WithRSAEncryption
        Issuer: CN=team156-net
        Validity
            Not Before: Aug 14 14:25:31 2023 GMT
            Not After : Jul 29 14:25:31 2026 GMT
        Subject: CN=team156-server
        Subject Public Key Info:
            Public Key Algorithm: rsaEncryption
                RSA Public-Key: (2048 bit)
                Modulus:
                    00:93:96:3d:90:79:c4:48:38:4f:00:58:30:b6:ba:
                    1b:2e:13:e1:c4:41:2f:6e:05:f4:f5:53:04:3b:c7:
                    c8:d2:8e:be:be:24:35:48:eb:49:7c:e7:27:08:5e:
                    ec:77:e2:d5:8f:ed:0e:6b:ab:a4:bc:7c:93:70:cc:
                    f6:3b:22:2f:69:f4:e7:a0:52:33:94:07:19:91:17:
                    9d:ed:95:cd:22:f7:59:11:c6:41:66:d5:98:0c:b7:
                    1f:46:bb:e6:a3:f7:a1:73:cb:1e:ab:24:12:16:83:
                    d2:a7:b0:0d:c9:55:22:c8:aa:95:37:09:44:be:9c:
                    6d:36:ec:b7:35:da:8f:74:35:f0:b2:8c:db:66:a5:
                    fe:53:eb:28:ca:59:2d:2d:fe:ff:95:33:51:0a:d7:
                    3e:70:4d:69:c6:3d:99:7a:6b:c3:98:a8:bf:27:30:
                    0b:b7:10:33:c6:74:c5:de:70:4e:b2:2d:fe:b2:40:
                    77:a4:4a:cd:d3:a5:1a:f9:26:b7:59:3f:08:ba:68:
                    af:42:66:cc:39:44:d4:0e:91:fa:30:51:d9:e2:92:
                    3a:11:d5:88:c7:66:46:18:33:12:15:e7:54:6a:ee:
                    99:9f:c6:e5:3d:c3:af:8e:28:74:37:08:22:de:27:
                    77:ef:b2:20:d0:cc:e8:ec:df:c0:f7:14:34:a9:76:
                    a9:67
                Exponent: 65537 (0x10001)
        X509v3 extensions:
            X509v3 Basic Constraints: 
                CA:FALSE
            X509v3 Subject Key Identifier: 
                E2:0A:A0:38:A9:95:EB:F4:A6:EC:0C:55:AD:AE:99:FF:88:EF:D1:F2
            X509v3 Authority Key Identifier: 
                keyid:D8:A9:00:E7:CC:CE:FF:15:9A:04:DF:7E:17:E1:E6:0A:F7:65:EB:F6
                DirName:/CN=team156-net
                serial:11:35:83:85:8D:BF:D8:B3:B6:D3:A0:88:B9:C6:AA:0A:D2:2A:85:31

            X509v3 Extended Key Usage: 
                TLS Web Server Authentication
            X509v3 Key Usage: 
                Digital Signature, Key Encipherment
            X509v3 Subject Alternative Name: 
                DNS:team156-server
    Signature Algorithm: sha256WithRSAEncryption
         83:72:bc:88:2a:33:88:ec:f5:57:69:64:d0:f3:6c:f5:87:84:
         79:fa:20:1d:58:8c:fc:96:49:23:1a:1c:6b:2a:e2:10:60:fb:
         de:0a:82:b0:d9:6a:a1:af:89:a5:75:15:41:e8:6b:5e:52:fc:
         8d:9f:95:e9:19:1b:db:ca:91:38:e5:55:42:42:37:df:72:0d:
         10:03:04:d1:1d:a1:c7:b0:ea:ec:68:db:6f:ad:46:b2:b5:e5:
         10:3f:20:47:f0:14:fa:6c:6a:70:da:ae:da:8f:7c:b3:18:f3:
         d8:5b:fc:7a:1e:3c:03:c6:0e:13:77:dd:d3:fc:a3:b7:35:89:
         a9:55:ff:e1:9f:a2:17:0d:38:a9:01:45:07:4d:15:c8:03:b3:
         b0:e7:03:95:d7:45:91:b5:72:91:d7:f2:7b:bb:f8:c3:ad:fe:
         9f:5f:3c:65:94:a4:3e:ef:da:ee:cc:ca:79:2e:50:97:5f:22:
         ba:43:d1:10:f6:bd:15:88:94:09:38:45:d2:f8:71:74:1b:57:
         c9:3e:8d:36:01:40:ac:7a:6e:71:2d:ef:b0:27:12:5c:75:87:
         d2:e9:2a:42:b7:0f:5c:1d:81:9a:bb:b3:6e:57:5b:2b:d4:53:
         b4:0e:3c:2b:7f:56:35:ed:0f:51:9c:78:16:b9:c8:1c:1f:6b:
         07:18:42:46
-----BEGIN CERTIFICATE-----
MIIDeDCCAmCgAwIBAgIRAMaddjhm9EIFZXIHuPqrQ9kwDQYJKoZIhvcNAQELBQAw
FjEUMBIGA1UEAwwLdGVhbTE1Ni1uZXQwHhcNMjMwODE0MTQyNTMxWhcNMjYwNzI5
MTQyNTMxWjAZMRcwFQYDVQQDDA50ZWFtMTU2LXNlcnZlcjCCASIwDQYJKoZIhvcN
AQEBBQADggEPADCCAQoCggEBAJOWPZB5xEg4TwBYMLa6Gy4T4cRBL24F9PVTBDvH
yNKOvr4kNUjrSXznJwhe7Hfi1Y/tDmurpLx8k3DM9jsiL2n056BSM5QHGZEXne2V
zSL3WRHGQWbVmAy3H0a75qP3oXPLHqskEhaD0qewDclVIsiqlTcJRL6cbTbstzXa
j3Q18LKM22al/lPrKMpZLS3+/5UzUQrXPnBNacY9mXprw5iovycwC7cQM8Z0xd5w
TrIt/rJAd6RKzdOlGvkmt1k/CLpor0JmzDlE1A6R+jBR2eKSOhHViMdmRhgzEhXn
VGrumZ/G5T3Dr44odDcIIt4nd++yINDM6OzfwPcUNKl2qWcCAwEAAaOBvTCBujAJ
BgNVHRMEAjAAMB0GA1UdDgQWBBTiCqA4qZXr9KbsDFWtrpn/iO/R8jBRBgNVHSME
SjBIgBTYqQDnzM7/FZoE334X4eYK92Xr9qEapBgwFjEUMBIGA1UEAwwLdGVhbTE1
Ni1uZXSCFBE1g4WNv9izttOgiLnGqgrSKoUxMBMGA1UdJQQMMAoGCCsGAQUFBwMB
MAsGA1UdDwQEAwIFoDAZBgNVHREEEjAQgg50ZWFtMTU2LXNlcnZlcjANBgkqhkiG
9w0BAQsFAAOCAQEAg3K8iCoziOz1V2lk0PNs9YeEefogHViM/JZJIxocayriEGD7
3gqCsNlqoa+JpXUVQehrXlL8jZ+V6Rkb28qROOVVQkI333INEAME0R2hx7Dq7Gjb
b61GsrXlED8gR/AU+mxqcNqu2o98sxjz2Fv8eh48A8YOE3fd0/yjtzWJqVX/4Z+i
Fw04qQFFB00VyAOzsOcDlddFkbVykdfye7v4w63+n188ZZSkPu/a7szKeS5Ql18i
ukPREPa9FYiUCThF0vhxdBtXyT6NNgFArHpucS3vsCcSXHWH0ukqQrcPXB2Bmruz
bldbK9RTtA48K39WNe0PUZx4FrnIHB9rBxhCRg==
-----END CERTIFICATE-----
