Certificate:
    Data:
        Version: 3 (0x2)
        Serial Number:
            31:3c:63:86:78:c7:2f:7a:da:bd:66:a3:4e:d8:1d:f1
        Signature Algorithm: sha256WithRSAEncryption
        Issuer: CN=team224-net
        Validity
            Not Before: Aug 14 14:26:48 2023 GMT
            Not After : Jul 29 14:26:48 2026 GMT
        Subject: CN=team224-server
        Subject Public Key Info:
            Public Key Algorithm: rsaEncryption
                RSA Public-Key: (2048 bit)
                Modulus:
                    00:d7:88:88:4c:4e:f7:b6:85:05:4e:63:85:6a:9b:
                    5b:53:ec:47:08:54:d3:f7:d7:de:4a:ca:99:55:67:
                    75:9e:21:c0:c5:f2:80:9c:93:e2:bc:3d:32:a7:e0:
                    b6:45:a9:5b:4a:bc:12:4a:27:22:a3:4b:16:97:43:
                    a4:a6:99:a2:04:5d:1f:34:47:d0:f0:ee:64:fc:8a:
                    c1:ea:7c:9c:3e:9f:f4:e0:f2:a0:2c:4b:38:5b:18:
                    25:89:77:1c:7e:f3:35:6e:65:97:ca:cf:eb:83:74:
                    81:42:65:36:24:7f:48:fe:3b:14:62:8d:07:45:86:
                    be:47:80:ae:2a:c9:a9:61:f7:f5:29:9a:1c:f1:3d:
                    80:48:95:60:c1:30:23:0b:2b:d5:3d:6d:8d:a0:72:
                    89:c1:85:62:f5:54:e6:24:f2:51:08:08:f0:12:1f:
                    89:c1:a2:4b:4b:bc:eb:d1:6d:98:2b:0a:f6:d8:1e:
                    80:85:77:2f:11:63:7b:d8:0a:ac:56:e9:5c:93:38:
                    f4:d3:c5:71:f9:e6:d4:2c:26:5b:39:04:c1:9f:68:
                    3d:f3:8d:75:20:90:89:66:5e:51:90:ae:6c:52:b3:
                    d4:d3:97:19:5a:84:06:75:b2:c2:a2:41:7b:66:c3:
                    db:86:b3:04:e1:a1:30:ce:0e:31:20:52:9b:ad:e5:
                    32:7d
                Exponent: 65537 (0x10001)
        X509v3 extensions:
            X509v3 Basic Constraints: 
                CA:FALSE
            X509v3 Subject Key Identifier: 
                5F:5F:7E:CB:D8:E7:BD:BC:C2:76:67:CE:7A:46:3C:BD:43:2F:FE:3B
            X509v3 Authority Key Identifier: 
                keyid:66:7F:25:93:53:44:6E:14:24:C7:C8:45:18:A1:90:37:9A:78:59:4B
                DirName:/CN=team224-net
                serial:28:F2:32:CE:B0:02:0B:45:37:CD:F6:D3:6B:8D:14:19:1B:76:B7:5B

            X509v3 Extended Key Usage: 
                TLS Web Server Authentication
            X509v3 Key Usage: 
                Digital Signature, Key Encipherment
            X509v3 Subject Alternative Name: 
                DNS:team224-server
    Signature Algorithm: sha256WithRSAEncryption
         9c:5e:22:73:ac:9d:90:74:a9:1d:3a:ed:7a:34:95:31:79:8a:
         73:91:61:46:ae:5c:f6:45:e9:f0:90:75:f5:07:17:a6:df:6b:
         d3:a6:3a:e0:db:03:45:d3:55:40:43:5d:21:05:42:fe:ab:81:
         c5:d8:c4:08:69:4b:98:47:c4:44:77:73:fc:e1:d7:c1:03:6d:
         b2:00:12:a9:54:e5:4e:df:a0:3a:aa:dc:16:a7:10:db:bb:d8:
         67:e4:56:79:c6:80:bb:19:e9:0e:67:47:a1:cf:c8:a5:54:4e:
         9c:cd:6c:e7:eb:86:79:ca:55:0f:0c:9f:80:8e:ff:ad:f3:d2:
         50:40:9c:88:ec:c3:5e:76:9c:1a:a3:13:84:e7:30:e9:20:6e:
         20:29:6d:cb:8e:3c:91:98:b7:29:4f:0b:ee:ff:bd:13:aa:95:
         b3:98:a0:90:aa:00:e4:d8:ee:95:e4:f6:62:33:be:81:2e:ef:
         45:34:22:e5:fc:e7:b9:60:b8:cc:6c:00:c5:a1:1c:aa:da:c8:
         e1:aa:75:99:2f:87:99:45:9c:b4:ed:54:23:99:e4:0f:9f:b7:
         33:1d:44:f4:0d:1b:b1:96:fc:2d:f0:c2:4d:9c:42:9e:0e:f4:
         d0:90:ef:b6:ba:95:5f:2b:b2:10:4e:64:c2:3c:a1:89:91:18:
         35:c0:98:bd
-----BEGIN CERTIFICATE-----
MIIDdzCCAl+gAwIBAgIQMTxjhnjHL3ravWajTtgd8TANBgkqhkiG9w0BAQsFADAW
MRQwEgYDVQQDDAt0ZWFtMjI0LW5ldDAeFw0yMzA4MTQxNDI2NDhaFw0yNjA3Mjkx
NDI2NDhaMBkxFzAVBgNVBAMMDnRlYW0yMjQtc2VydmVyMIIBIjANBgkqhkiG9w0B
AQEFAAOCAQ8AMIIBCgKCAQEA14iITE73toUFTmOFaptbU+xHCFTT99feSsqZVWd1
niHAxfKAnJPivD0yp+C2RalbSrwSSicio0sWl0OkppmiBF0fNEfQ8O5k/IrB6nyc
Pp/04PKgLEs4WxgliXccfvM1bmWXys/rg3SBQmU2JH9I/jsUYo0HRYa+R4CuKsmp
Yff1KZoc8T2ASJVgwTAjCyvVPW2NoHKJwYVi9VTmJPJRCAjwEh+JwaJLS7zr0W2Y
Kwr22B6AhXcvEWN72AqsVulckzj008Vx+ebULCZbOQTBn2g98411IJCJZl5RkK5s
UrPU05cZWoQGdbLCokF7ZsPbhrME4aEwzg4xIFKbreUyfQIDAQABo4G9MIG6MAkG
A1UdEwQCMAAwHQYDVR0OBBYEFF9ffsvY5728wnZnznpGPL1DL/47MFEGA1UdIwRK
MEiAFGZ/JZNTRG4UJMfIRRihkDeaeFlLoRqkGDAWMRQwEgYDVQQDDAt0ZWFtMjI0
LW5ldIIUKPIyzrACC0U3zfbTa40UGRt2t1swEwYDVR0lBAwwCgYIKwYBBQUHAwEw
CwYDVR0PBAQDAgWgMBkGA1UdEQQSMBCCDnRlYW0yMjQtc2VydmVyMA0GCSqGSIb3
DQEBCwUAA4IBAQCcXiJzrJ2QdKkdOu16NJUxeYpzkWFGrlz2RenwkHX1Bxem32vT
pjrg2wNF01VAQ10hBUL+q4HF2MQIaUuYR8REd3P84dfBA22yABKpVOVO36A6qtwW
pxDbu9hn5FZ5xoC7GekOZ0ehz8ilVE6czWzn64Z5ylUPDJ+Ajv+t89JQQJyI7MNe
dpwaoxOE5zDpIG4gKW3LjjyRmLcpTwvu/70TqpWzmKCQqgDk2O6V5PZiM76BLu9F
NCLl/Oe5YLjMbADFoRyq2sjhqnWZL4eZRZy07VQjmeQPn7czHUT0DRuxlvwt8MJN
nEKeDvTQkO+2upVfK7IQTmTCPKGJkRg1wJi9
-----END CERTIFICATE-----
