Certificate:
    Data:
        Version: 3 (0x2)
        Serial Number:
            ad:91:06:48:69:0a:1b:38:6c:bc:4a:1e:93:cd:f9:98
        Signature Algorithm: sha256WithRSAEncryption
        Issuer: CN=team153-net
        Validity
            Not Before: Aug 14 14:25:27 2023 GMT
            Not After : Jul 29 14:25:27 2026 GMT
        Subject: CN=team153-client
        Subject Public Key Info:
            Public Key Algorithm: rsaEncryption
                RSA Public-Key: (2048 bit)
                Modulus:
                    00:d7:b0:56:d9:f5:7d:72:aa:7d:22:af:35:77:ea:
                    0a:07:4a:0e:d3:d1:f2:80:71:c5:06:f1:df:13:8c:
                    f7:f2:d0:70:dd:bf:c6:a5:90:7b:ad:73:bb:1f:cc:
                    bb:dc:00:c3:ef:c7:66:2b:ef:18:a8:5c:44:2b:2e:
                    8a:dc:bc:39:95:9c:4c:75:dd:5b:d4:47:cf:57:e6:
                    f4:01:8d:54:d5:d8:9f:6e:4e:6a:6e:9f:ee:8d:5f:
                    04:39:02:01:36:dd:b9:01:c8:58:97:8a:19:8d:dc:
                    e8:a4:95:14:d2:45:c7:b3:67:5d:d1:93:c8:3c:7c:
                    7a:2b:aa:10:5e:cd:fe:44:4e:6b:46:0d:0b:c5:70:
                    4c:9f:4b:76:66:17:42:3a:1c:2f:ea:7a:81:ca:ee:
                    65:11:d9:2d:b3:f3:2e:ba:f8:3d:e9:e3:e1:3d:0f:
                    a6:b4:b9:39:bc:dd:65:cf:3a:a8:30:b8:22:47:d5:
                    10:58:b2:cd:fa:8d:0d:bb:f3:23:09:25:47:7a:65:
                    14:da:fe:43:4f:2c:b0:c5:af:35:a7:69:a7:27:bf:
                    fc:8c:23:83:da:53:b2:43:58:ec:ad:2a:16:8b:76:
                    8d:32:34:4d:41:82:da:70:49:20:19:8e:88:46:f2:
                    a3:31:61:38:40:ca:a6:43:49:53:bf:9a:70:1a:b3:
                    c1:e9
                Exponent: 65537 (0x10001)
        X509v3 extensions:
            X509v3 Basic Constraints: 
                CA:FALSE
            X509v3 Subject Key Identifier: 
                B3:10:13:69:F6:82:54:E3:2B:B9:70:6D:1F:7C:B9:18:64:71:E9:B3
            X509v3 Authority Key Identifier: 
                keyid:FD:04:AD:C9:AC:F7:12:63:26:D2:18:B0:1A:4D:6C:D2:19:00:9B:74
                DirName:/CN=team153-net
                serial:74:6E:20:90:66:D6:49:C0:9D:50:2A:10:FB:C6:FA:C7:1E:C4:09:47

            X509v3 Extended Key Usage: 
                TLS Web Client Authentication
            X509v3 Key Usage: 
                Digital Signature
    Signature Algorithm: sha256WithRSAEncryption
         10:0b:f9:82:c3:d5:53:d9:b6:34:98:18:b6:b3:70:e5:6b:ba:
         ca:35:93:39:0f:a3:8e:47:46:13:35:50:2b:2b:b4:f2:97:13:
         e8:dd:04:10:11:41:18:8e:a1:dd:b4:ff:9d:4b:44:bc:72:96:
         59:de:96:bd:c7:78:7e:18:4e:0f:91:0d:f0:fb:f1:ae:18:c9:
         de:4e:04:94:a7:4d:8b:32:6b:f0:41:6a:b4:9a:b6:2f:0e:2d:
         c3:30:5f:1b:b4:32:ac:16:1a:99:20:38:a2:c2:c9:28:7f:48:
         ef:88:79:89:0c:3e:f5:8d:20:e1:b0:47:3b:65:92:60:d6:8a:
         51:59:b2:1d:98:3c:00:0b:d8:df:9f:77:a9:d8:07:df:78:55:
         81:6e:24:49:c7:fb:68:ad:45:70:72:e6:5c:ab:d2:2e:26:ec:
         d1:e0:23:65:f1:ec:73:c5:87:5f:72:b9:71:bb:9a:ae:a0:e2:
         02:02:87:22:65:01:85:1a:84:2a:02:47:19:b4:28:0f:77:f9:
         dc:a2:9b:35:45:3f:80:0f:7f:c7:6c:57:a2:c7:1f:79:1b:19:
         5a:ad:88:bb:ee:ab:14:fe:5f:12:b7:44:b7:1c:67:d8:0a:9b:
         82:9c:a0:f6:c1:23:16:43:e2:3f:f8:b4:c9:56:67:ea:f0:6c:
         28:d5:de:b2
-----BEGIN CERTIFICATE-----
MIIDXTCCAkWgAwIBAgIRAK2RBkhpChs4bLxKHpPN+ZgwDQYJKoZIhvcNAQELBQAw
FjEUMBIGA1UEAwwLdGVhbTE1My1uZXQwHhcNMjMwODE0MTQyNTI3WhcNMjYwNzI5
MTQyNTI3WjAZMRcwFQYDVQQDDA50ZWFtMTUzLWNsaWVudDCCASIwDQYJKoZIhvcN
AQEBBQADggEPADCCAQoCggEBANewVtn1fXKqfSKvNXfqCgdKDtPR8oBxxQbx3xOM
9/LQcN2/xqWQe61zux/Mu9wAw+/HZivvGKhcRCsuity8OZWcTHXdW9RHz1fm9AGN
VNXYn25Oam6f7o1fBDkCATbduQHIWJeKGY3c6KSVFNJFx7NnXdGTyDx8eiuqEF7N
/kROa0YNC8VwTJ9LdmYXQjocL+p6gcruZRHZLbPzLrr4Penj4T0PprS5ObzdZc86
qDC4IkfVEFiyzfqNDbvzIwklR3plFNr+Q08ssMWvNadppye//Iwjg9pTskNY7K0q
Fot2jTI0TUGC2nBJIBmOiEbyozFhOEDKpkNJU7+acBqzwekCAwEAAaOBojCBnzAJ
BgNVHRMEAjAAMB0GA1UdDgQWBBSzEBNp9oJU4yu5cG0ffLkYZHHpszBRBgNVHSME
SjBIgBT9BK3JrPcSYybSGLAaTWzSGQCbdKEapBgwFjEUMBIGA1UEAwwLdGVhbTE1
My1uZXSCFHRuIJBm1knAnVAqEPvG+scexAlHMBMGA1UdJQQMMAoGCCsGAQUFBwMC
MAsGA1UdDwQEAwIHgDANBgkqhkiG9w0BAQsFAAOCAQEAEAv5gsPVU9m2NJgYtrNw
5Wu6yjWTOQ+jjkdGEzVQKyu08pcT6N0EEBFBGI6h3bT/nUtEvHKWWd6Wvcd4fhhO
D5EN8PvxrhjJ3k4ElKdNizJr8EFqtJq2Lw4twzBfG7QyrBYamSA4osLJKH9I74h5
iQw+9Y0g4bBHO2WSYNaKUVmyHZg8AAvY3593qdgH33hVgW4kScf7aK1FcHLmXKvS
Libs0eAjZfHsc8WHX3K5cbuarqDiAgKHImUBhRqEKgJHGbQoD3f53KKbNUU/gA9/
x2xXoscfeRsZWq2Iu+6rFP5fErdEtxxn2Aqbgpyg9sEjFkPiP/i0yVZn6vBsKNXe
sg==
-----END CERTIFICATE-----
