Certificate:
    Data:
        Version: 3 (0x2)
        Serial Number:
            01:ef:21:ca:c9:95:78:7b:1d:c1:20:16:26:10:26:ec
        Signature Algorithm: sha256WithRSAEncryption
        Issuer: CN=team89-net
        Validity
            Not Before: Aug 14 14:24:02 2023 GMT
            Not After : Jul 29 14:24:02 2026 GMT
        Subject: CN=team89-server
        Subject Public Key Info:
            Public Key Algorithm: rsaEncryption
                RSA Public-Key: (2048 bit)
                Modulus:
                    00:d0:ad:4f:12:75:42:95:9e:c0:6d:33:35:2c:70:
                    54:2e:98:3b:04:48:68:1f:bf:05:26:27:4a:36:98:
                    eb:e4:24:9f:f8:d4:57:a6:59:9f:6d:a8:9b:60:fd:
                    8c:55:28:f3:88:fb:83:1d:74:25:45:1f:ca:57:f6:
                    f1:95:5e:83:32:92:8a:28:a0:ca:2d:14:2d:c8:b7:
                    5c:33:65:95:51:28:9e:ca:c7:23:21:c8:60:d8:c3:
                    f2:29:be:3b:37:df:04:22:64:d7:3c:91:81:7b:8a:
                    5a:34:c5:f2:34:4a:61:f1:37:da:a7:bc:07:52:76:
                    73:3f:56:f1:e4:59:f7:85:21:d7:5b:69:fa:53:78:
                    eb:f2:4b:e4:dc:7e:6a:00:b4:34:f4:90:42:b2:61:
                    f3:0e:5b:cb:67:02:c4:aa:8c:da:49:5e:17:60:b7:
                    ae:d8:50:83:69:ef:ae:09:1f:27:c8:75:fc:64:f7:
                    a6:41:35:5d:c6:84:ea:a9:8e:6f:71:d7:4d:26:a1:
                    99:f5:c8:9b:f6:c4:cc:ea:2a:5e:b5:aa:1d:2d:ed:
                    ff:f8:c3:0e:61:b4:b1:61:09:04:49:33:c3:22:63:
                    36:1d:19:68:49:c6:3f:85:83:c1:c8:02:82:6e:86:
                    b5:55:cc:fc:72:d7:a7:3f:cf:19:66:c4:79:15:fb:
                    b3:e3
                Exponent: 65537 (0x10001)
        X509v3 extensions:
            X509v3 Basic Constraints: 
                CA:FALSE
            X509v3 Subject Key Identifier: 
                C2:3F:BA:63:DA:9F:FF:A4:D4:6C:48:C1:93:55:D2:4F:81:21:5D:43
            X509v3 Authority Key Identifier: 
                keyid:48:F0:09:81:E6:BD:80:71:4E:F5:38:5B:0A:D2:05:DD:09:57:4E:E3
                DirName:/CN=team89-net
                serial:65:B7:0E:77:E1:30:6A:CC:91:F2:91:AA:FC:FC:B6:45:A6:4D:4E:F0

            X509v3 Extended Key Usage: 
                TLS Web Server Authentication
            X509v3 Key Usage: 
                Digital Signature, Key Encipherment
            X509v3 Subject Alternative Name: 
                DNS:team89-server
    Signature Algorithm: sha256WithRSAEncryption
         38:99:ea:a1:96:f1:0d:56:10:9a:7b:0c:f1:19:80:5e:0c:ac:
         ea:c4:b0:4a:ca:e1:91:c1:fc:9a:89:ca:de:0b:99:87:d8:66:
         13:60:9a:1c:59:6f:1e:5c:a8:67:13:f3:fb:f1:91:e4:f1:2d:
         05:53:0c:18:e4:44:d1:8a:fb:76:32:c1:23:0e:c6:e6:c7:2b:
         e6:fd:fe:f4:d9:9e:e7:88:b8:ee:98:af:e6:5d:6c:00:a3:55:
         c2:be:9a:70:04:5a:73:26:43:f8:62:f8:a5:1d:72:d8:52:79:
         53:19:d5:07:1f:ed:5f:f4:51:cc:75:dd:56:4e:46:e3:30:b8:
         e2:6e:61:cb:c0:e1:c1:a1:9b:56:85:87:9d:75:8b:67:4d:12:
         ef:8a:5f:50:b8:02:95:05:ef:3e:ac:e8:b5:0c:97:b3:ff:9d:
         aa:9d:ef:4d:37:ae:a7:5c:49:90:03:29:72:a8:35:6c:04:41:
         2f:3e:79:a6:b5:02:ee:1a:27:fd:4d:f1:af:a2:29:94:19:2e:
         2a:a0:f7:e6:93:fe:53:3a:42:59:3d:dd:3f:36:56:41:e0:e7:
         5e:a6:b5:5e:eb:58:71:a0:a7:57:7a:04:fc:5c:22:c3:af:12:
         ce:3f:c7:c0:74:d0:f1:15:a7:0a:02:8d:b2:5a:a2:a3:94:ae:
         80:64:b6:17
-----BEGIN CERTIFICATE-----
MIIDczCCAlugAwIBAgIQAe8hysmVeHsdwSAWJhAm7DANBgkqhkiG9w0BAQsFADAV
MRMwEQYDVQQDDAp0ZWFtODktbmV0MB4XDTIzMDgxNDE0MjQwMloXDTI2MDcyOTE0
MjQwMlowGDEWMBQGA1UEAwwNdGVhbTg5LXNlcnZlcjCCASIwDQYJKoZIhvcNAQEB
BQADggEPADCCAQoCggEBANCtTxJ1QpWewG0zNSxwVC6YOwRIaB+/BSYnSjaY6+Qk
n/jUV6ZZn22om2D9jFUo84j7gx10JUUfylf28ZVegzKSiiigyi0ULci3XDNllVEo
nsrHIyHIYNjD8im+OzffBCJk1zyRgXuKWjTF8jRKYfE32qe8B1J2cz9W8eRZ94Uh
11tp+lN46/JL5Nx+agC0NPSQQrJh8w5by2cCxKqM2kleF2C3rthQg2nvrgkfJ8h1
/GT3pkE1XcaE6qmOb3HXTSahmfXIm/bEzOoqXrWqHS3t//jDDmG0sWEJBEkzwyJj
Nh0ZaEnGP4WDwcgCgm6GtVXM/HLXpz/PGWbEeRX7s+MCAwEAAaOBuzCBuDAJBgNV
HRMEAjAAMB0GA1UdDgQWBBTCP7pj2p//pNRsSMGTVdJPgSFdQzBQBgNVHSMESTBH
gBRI8AmB5r2AcU71OFsK0gXdCVdO46EZpBcwFTETMBEGA1UEAwwKdGVhbTg5LW5l
dIIUZbcOd+EwasyR8pGq/Py2RaZNTvAwEwYDVR0lBAwwCgYIKwYBBQUHAwEwCwYD
VR0PBAQDAgWgMBgGA1UdEQQRMA+CDXRlYW04OS1zZXJ2ZXIwDQYJKoZIhvcNAQEL
BQADggEBADiZ6qGW8Q1WEJp7DPEZgF4MrOrEsErK4ZHB/JqJyt4LmYfYZhNgmhxZ
bx5cqGcT8/vxkeTxLQVTDBjkRNGK+3YywSMOxubHK+b9/vTZnueIuO6Yr+ZdbACj
VcK+mnAEWnMmQ/hi+KUdcthSeVMZ1Qcf7V/0Ucx13VZORuMwuOJuYcvA4cGhm1aF
h511i2dNEu+KX1C4ApUF7z6s6LUMl7P/naqd7003rqdcSZADKXKoNWwEQS8+eaa1
Au4aJ/1N8a+iKZQZLiqg9+aT/lM6Qlk93T82VkHg516mtV7rWHGgp1d6BPxcIsOv
Es4/x8B00PEVpwoCjbJaoqOUroBkthc=
-----END CERTIFICATE-----
