Certificate:
    Data:
        Version: 3 (0x2)
        Serial Number:
            b4:5a:d3:c3:d1:b2:d3:22:f0:86:ec:8d:73:17:3e:0d
        Signature Algorithm: sha256WithRSAEncryption
        Issuer: CN=team132-net
        Validity
            Not Before: Aug 14 14:25:00 2023 GMT
            Not After : Jul 29 14:25:00 2026 GMT
        Subject: CN=team132-server
        Subject Public Key Info:
            Public Key Algorithm: rsaEncryption
                RSA Public-Key: (2048 bit)
                Modulus:
                    00:ca:0d:ea:d1:51:25:56:72:4f:29:89:41:54:5b:
                    e6:4a:2a:f8:f6:61:fc:4e:55:ce:06:28:7b:1a:a1:
                    ab:64:61:9c:57:8e:24:cc:49:4d:ae:e5:ab:1d:db:
                    ce:70:e5:eb:c8:b3:77:bb:b0:7e:05:69:8f:17:8d:
                    76:07:bc:57:32:9f:54:b8:6a:f2:30:5a:3d:3a:22:
                    10:7a:42:3c:ea:11:c4:b7:53:8d:fd:88:09:4e:d4:
                    1f:f8:f3:35:d5:ab:e5:c9:d0:56:ec:1a:f7:c3:58:
                    76:eb:3f:0b:e9:1f:34:f5:66:99:94:11:ee:f0:1b:
                    a0:d1:8a:be:31:bb:b1:55:1b:5a:a6:58:b7:a5:d4:
                    8e:39:67:8b:a4:32:e7:7c:01:7f:da:9f:a7:cc:e4:
                    8d:94:bd:59:cf:0c:04:75:d0:3b:04:9f:6e:02:62:
                    80:73:9d:62:82:3b:20:d3:47:d9:b7:cf:44:e2:d7:
                    29:9f:0d:60:a9:3a:cf:cc:65:1d:85:0c:f2:63:07:
                    6a:2f:43:82:be:cf:ce:f2:4c:4f:d1:9e:98:2e:31:
                    84:4c:d5:7a:24:95:a7:4f:85:16:95:f0:c5:49:c2:
                    79:87:a0:63:30:c0:4e:6f:f0:0d:25:e7:30:c5:94:
                    b7:05:aa:d7:dc:fe:1e:e7:83:ac:ff:a7:46:d0:18:
                    a3:55
                Exponent: 65537 (0x10001)
        X509v3 extensions:
            X509v3 Basic Constraints: 
                CA:FALSE
            X509v3 Subject Key Identifier: 
                24:54:8C:EF:67:BA:CA:78:FE:6D:9A:75:E7:96:A9:40:D6:4D:C7:E7
            X509v3 Authority Key Identifier: 
                keyid:09:BC:A1:68:EF:84:AF:91:C7:29:85:EF:E7:83:34:E6:F5:C7:17:D0
                DirName:/CN=team132-net
                serial:64:05:D8:8F:EC:CC:D9:F4:4F:B3:60:13:36:AC:AE:1D:5A:90:C0:A1

            X509v3 Extended Key Usage: 
                TLS Web Server Authentication
            X509v3 Key Usage: 
                Digital Signature, Key Encipherment
            X509v3 Subject Alternative Name: 
                DNS:team132-server
    Signature Algorithm: sha256WithRSAEncryption
         16:56:a3:f0:e2:31:53:18:10:07:b6:d7:a1:f4:3c:2e:e4:cb:
         94:c0:04:6f:88:67:42:b5:1e:8e:c6:9f:54:b2:02:a9:2f:f9:
         09:93:b5:bd:88:4a:0f:84:18:57:b5:2b:71:c1:32:d5:f5:b2:
         84:ab:6c:c3:a3:7d:d6:74:3a:75:38:61:55:d8:3f:1e:39:3e:
         78:90:04:ab:ae:61:d6:a6:43:1c:9d:7b:ae:66:5b:27:d7:f8:
         b5:7c:00:26:a5:88:c5:f7:0c:e5:26:4a:21:7e:80:ef:11:43:
         03:03:21:16:b6:c0:d1:eb:30:22:43:ff:39:16:11:01:82:ca:
         73:35:47:ec:7e:99:dd:bf:00:9e:62:69:f9:e2:90:9e:14:86:
         d3:a9:a2:8d:8c:f9:58:2e:c0:39:ef:db:ff:38:e7:5c:19:ad:
         c4:e4:82:ae:26:9b:a8:dd:5f:cc:b5:14:a0:82:4c:9b:a7:e7:
         9d:e5:cd:93:a6:f1:35:5c:5e:c9:73:b2:51:49:69:43:86:48:
         4c:8f:59:38:d3:8d:c6:91:ed:cb:89:c3:bb:ff:01:49:23:4a:
         c7:50:3f:c1:01:e1:bf:79:83:03:e4:11:47:d0:f5:46:e5:86:
         85:0c:e0:bf:53:ae:05:47:f2:1d:fa:53:3f:d0:51:6b:b5:13:
         34:36:85:a1
-----BEGIN CERTIFICATE-----
MIIDeDCCAmCgAwIBAgIRALRa08PRstMi8IbsjXMXPg0wDQYJKoZIhvcNAQELBQAw
FjEUMBIGA1UEAwwLdGVhbTEzMi1uZXQwHhcNMjMwODE0MTQyNTAwWhcNMjYwNzI5
MTQyNTAwWjAZMRcwFQYDVQQDDA50ZWFtMTMyLXNlcnZlcjCCASIwDQYJKoZIhvcN
AQEBBQADggEPADCCAQoCggEBAMoN6tFRJVZyTymJQVRb5koq+PZh/E5VzgYoexqh
q2RhnFeOJMxJTa7lqx3bznDl68izd7uwfgVpjxeNdge8VzKfVLhq8jBaPToiEHpC
POoRxLdTjf2ICU7UH/jzNdWr5cnQVuwa98NYdus/C+kfNPVmmZQR7vAboNGKvjG7
sVUbWqZYt6XUjjlni6Qy53wBf9qfp8zkjZS9Wc8MBHXQOwSfbgJigHOdYoI7INNH
2bfPROLXKZ8NYKk6z8xlHYUM8mMHai9Dgr7PzvJMT9GemC4xhEzVeiSVp0+FFpXw
xUnCeYegYzDATm/wDSXnMMWUtwWq19z+HueDrP+nRtAYo1UCAwEAAaOBvTCBujAJ
BgNVHRMEAjAAMB0GA1UdDgQWBBQkVIzvZ7rKeP5tmnXnlqlA1k3H5zBRBgNVHSME
SjBIgBQJvKFo74Svkccphe/ngzTm9ccX0KEapBgwFjEUMBIGA1UEAwwLdGVhbTEz
Mi1uZXSCFGQF2I/szNn0T7NgEzasrh1akMChMBMGA1UdJQQMMAoGCCsGAQUFBwMB
MAsGA1UdDwQEAwIFoDAZBgNVHREEEjAQgg50ZWFtMTMyLXNlcnZlcjANBgkqhkiG
9w0BAQsFAAOCAQEAFlaj8OIxUxgQB7bXofQ8LuTLlMAEb4hnQrUejsafVLICqS/5
CZO1vYhKD4QYV7UrccEy1fWyhKtsw6N91nQ6dThhVdg/Hjk+eJAEq65h1qZDHJ17
rmZbJ9f4tXwAJqWIxfcM5SZKIX6A7xFDAwMhFrbA0eswIkP/ORYRAYLKczVH7H6Z
3b8AnmJp+eKQnhSG06mijYz5WC7AOe/b/zjnXBmtxOSCriabqN1fzLUUoIJMm6fn
neXNk6bxNVxeyXOyUUlpQ4ZITI9ZONONxpHty4nDu/8BSSNKx1A/wQHhv3mDA+QR
R9D1RuWGhQzgv1OuBUfyHfpTP9BRa7UTNDaFoQ==
-----END CERTIFICATE-----
