Certificate:
    Data:
        Version: 3 (0x2)
        Serial Number:
            38:03:22:6c:61:4c:4d:a4:d7:4a:b4:6e:ad:ff:2f:79
        Signature Algorithm: sha256WithRSAEncryption
        Issuer: CN=team55-net
        Validity
            Not Before: Aug 14 14:23:20 2023 GMT
            Not After : Jul 29 14:23:20 2026 GMT
        Subject: CN=team55-client
        Subject Public Key Info:
            Public Key Algorithm: rsaEncryption
                RSA Public-Key: (2048 bit)
                Modulus:
                    00:c1:a1:06:75:00:a7:91:46:50:ca:66:b9:47:da:
                    a5:c0:88:6b:b0:97:f1:b5:32:c3:30:4c:20:61:8c:
                    30:52:94:11:4a:29:16:52:fa:5f:7a:54:3a:74:46:
                    2f:8f:50:bc:b1:70:a7:04:98:53:74:a0:7e:fe:f4:
                    07:a8:72:43:da:fe:dd:b3:0d:d3:32:f3:e2:03:50:
                    81:95:6d:96:7a:4c:94:51:a9:c4:9e:3e:65:0b:67:
                    11:59:65:b8:70:aa:f5:cc:73:a4:7b:65:0a:bd:f0:
                    74:0d:dd:f8:0e:ff:fe:06:1e:c0:6f:0c:95:db:31:
                    6d:44:f1:6e:48:a4:bc:b5:fe:e7:b7:d2:56:95:c2:
                    f4:b0:2c:b9:a2:32:3f:42:71:3d:5c:68:2d:f3:8d:
                    72:b2:23:dc:91:fd:8b:50:67:60:6d:f5:04:62:00:
                    4d:1b:14:b6:a4:0c:13:09:03:d5:67:86:95:b6:30:
                    2e:79:34:01:97:39:6a:33:00:77:b6:26:b1:72:5c:
                    2e:57:fb:d1:26:2d:51:3c:c9:f9:1b:43:bd:7f:02:
                    dd:c2:05:57:20:9c:74:59:63:80:90:48:a6:b3:3c:
                    40:10:4f:94:cf:f5:33:02:18:c4:32:fc:96:1a:bb:
                    dd:86:60:14:e4:80:55:46:9b:de:4a:fe:d3:c1:78:
                    f6:5d
                Exponent: 65537 (0x10001)
        X509v3 extensions:
            X509v3 Basic Constraints: 
                CA:FALSE
            X509v3 Subject Key Identifier: 
                8C:74:4A:CD:23:88:40:7E:48:78:EE:FD:EC:F4:95:26:78:43:53:A7
            X509v3 Authority Key Identifier: 
                keyid:4C:4C:0F:A1:2A:39:5E:5A:53:61:9D:D2:B6:97:E1:B0:65:37:A9:4F
                DirName:/CN=team55-net
                serial:36:03:36:F5:FB:20:B0:B7:A9:DB:C3:E8:4F:43:50:02:2C:3A:BC:7F

            X509v3 Extended Key Usage: 
                TLS Web Client Authentication
            X509v3 Key Usage: 
                Digital Signature
    Signature Algorithm: sha256WithRSAEncryption
         75:79:89:9a:32:51:4e:5f:02:3f:77:63:0d:fd:07:f0:9b:5c:
         42:25:64:59:8e:fc:96:a3:cc:1d:4e:cc:48:a9:21:4e:42:e7:
         aa:61:cb:c9:63:a8:79:f9:1f:b4:fd:c5:6e:cd:42:34:d7:c6:
         2e:be:0f:36:06:54:a6:b7:00:d9:45:5e:50:03:57:d9:1e:3a:
         d5:7b:56:ef:3b:e3:28:94:b1:1c:53:94:c1:69:57:f4:3a:93:
         b8:34:0f:29:1b:9c:9d:c4:c6:38:4e:62:ee:ef:45:39:59:b9:
         90:bb:15:39:f8:f6:0c:67:85:d2:bc:39:09:60:b0:b6:ba:01:
         f6:97:69:91:94:e2:73:3c:75:c6:15:66:20:92:59:7c:10:28:
         db:d2:b0:7f:e0:64:1f:40:78:39:56:97:80:47:8f:62:f8:14:
         d8:ec:60:19:d1:11:81:55:3d:a8:fd:84:c7:29:ae:39:ef:9f:
         fb:35:53:2c:0a:7b:f0:52:34:55:bc:f6:46:8a:37:d4:f0:73:
         1d:8a:b5:f0:1c:9e:b9:84:57:84:3e:35:37:a2:a6:18:f8:4c:
         a7:d7:6b:cd:b1:0e:3c:a7:5f:9a:ca:8e:27:bd:f1:d6:86:1f:
         10:90:c3:ec:df:f7:e5:67:f7:03:d4:33:0b:10:a9:dd:3d:18:
         b8:86:dd:21
-----BEGIN CERTIFICATE-----
MIIDWTCCAkGgAwIBAgIQOAMibGFMTaTXSrRurf8veTANBgkqhkiG9w0BAQsFADAV
MRMwEQYDVQQDDAp0ZWFtNTUtbmV0MB4XDTIzMDgxNDE0MjMyMFoXDTI2MDcyOTE0
MjMyMFowGDEWMBQGA1UEAwwNdGVhbTU1LWNsaWVudDCCASIwDQYJKoZIhvcNAQEB
BQADggEPADCCAQoCggEBAMGhBnUAp5FGUMpmuUfapcCIa7CX8bUywzBMIGGMMFKU
EUopFlL6X3pUOnRGL49QvLFwpwSYU3Sgfv70B6hyQ9r+3bMN0zLz4gNQgZVtlnpM
lFGpxJ4+ZQtnEVlluHCq9cxzpHtlCr3wdA3d+A7//gYewG8MldsxbUTxbkikvLX+
57fSVpXC9LAsuaIyP0JxPVxoLfONcrIj3JH9i1BnYG31BGIATRsUtqQMEwkD1WeG
lbYwLnk0AZc5ajMAd7YmsXJcLlf70SYtUTzJ+RtDvX8C3cIFVyCcdFljgJBIprM8
QBBPlM/1MwIYxDL8lhq73YZgFOSAVUab3kr+08F49l0CAwEAAaOBoTCBnjAJBgNV
HRMEAjAAMB0GA1UdDgQWBBSMdErNI4hAfkh47v3s9JUmeENTpzBQBgNVHSMESTBH
gBRMTA+hKjleWlNhndK2l+GwZTepT6EZpBcwFTETMBEGA1UEAwwKdGVhbTU1LW5l
dIIUNgM29fsgsLep28PoT0NQAiw6vH8wEwYDVR0lBAwwCgYIKwYBBQUHAwIwCwYD
VR0PBAQDAgeAMA0GCSqGSIb3DQEBCwUAA4IBAQB1eYmaMlFOXwI/d2MN/Qfwm1xC
JWRZjvyWo8wdTsxIqSFOQueqYcvJY6h5+R+0/cVuzUI018Yuvg82BlSmtwDZRV5Q
A1fZHjrVe1bvO+MolLEcU5TBaVf0OpO4NA8pG5ydxMY4TmLu70U5WbmQuxU5+PYM
Z4XSvDkJYLC2ugH2l2mRlOJzPHXGFWYgkll8ECjb0rB/4GQfQHg5VpeAR49i+BTY
7GAZ0RGBVT2o/YTHKa4575/7NVMsCnvwUjRVvPZGijfU8HMdirXwHJ65hFeEPjU3
oqYY+Eyn12vNsQ48p1+ayo4nvfHWhh8QkMPs3/flZ/cD1DMLEKndPRi4ht0h
-----END CERTIFICATE-----
