Certificate:
    Data:
        Version: 3 (0x2)
        Serial Number:
            83:ee:92:10:bd:3d:ef:c3:d2:fb:cc:83:4d:13:dd:9e
        Signature Algorithm: sha256WithRSAEncryption
        Issuer: CN=team188-net
        Validity
            Not Before: Aug 14 14:26:07 2023 GMT
            Not After : Jul 29 14:26:07 2026 GMT
        Subject: CN=team188-server
        Subject Public Key Info:
            Public Key Algorithm: rsaEncryption
                RSA Public-Key: (2048 bit)
                Modulus:
                    00:b8:cd:86:3d:cb:d7:80:4f:b0:1b:22:a3:8e:ee:
                    44:e3:6c:f8:dc:ef:20:1b:39:90:19:df:cd:72:66:
                    ee:7b:1d:a7:ab:03:21:16:82:2e:79:3c:74:c2:6b:
                    bf:c1:90:26:d7:54:f3:f6:80:35:53:59:ee:16:c5:
                    7d:72:8b:df:ba:cb:f8:d7:62:ad:eb:6b:e0:ae:e3:
                    a0:71:d5:01:0f:52:8a:20:dd:b4:85:34:06:f1:eb:
                    ec:f9:12:e0:cc:0e:7f:49:48:89:28:dc:b8:9b:5f:
                    ac:24:97:50:5b:42:ae:ea:da:e1:5f:2e:12:22:bd:
                    85:47:67:9e:44:0d:78:92:e5:7f:d9:47:09:ad:a9:
                    4b:4e:d8:a3:c8:0f:5b:1f:23:17:21:d9:a3:3c:6c:
                    57:eb:e8:22:9f:16:7f:c3:3d:20:60:f2:68:17:5c:
                    cf:e5:4e:e1:94:0a:4e:02:e4:2e:b4:5b:49:13:db:
                    a0:35:61:db:3d:9c:d2:02:ce:9c:e6:cc:18:e3:2f:
                    9f:00:5a:45:fc:7b:a6:f5:ce:51:b8:cd:5d:af:63:
                    d9:79:35:92:96:22:1e:9d:53:99:8c:62:2a:32:1c:
                    c4:a1:c1:bd:56:dc:15:a2:31:75:d3:ae:fb:27:b7:
                    71:ea:a4:af:0f:4a:19:d1:e7:ac:32:13:bb:e7:35:
                    83:8b
                Exponent: 65537 (0x10001)
        X509v3 extensions:
            X509v3 Basic Constraints: 
                CA:FALSE
            X509v3 Subject Key Identifier: 
                2C:06:39:A8:6F:B3:EE:34:65:CB:3D:85:2D:1C:C3:8F:72:9B:0D:62
            X509v3 Authority Key Identifier: 
                keyid:FB:FC:26:97:1E:BA:EA:D2:69:4E:0F:55:5A:C2:61:49:EF:9D:BD:CF
                DirName:/CN=team188-net
                serial:18:97:7C:96:97:E1:BE:73:2F:A9:B5:45:53:93:ED:82:E2:9A:16:92

            X509v3 Extended Key Usage: 
                TLS Web Server Authentication
            X509v3 Key Usage: 
                Digital Signature, Key Encipherment
            X509v3 Subject Alternative Name: 
                DNS:team188-server
    Signature Algorithm: sha256WithRSAEncryption
         66:3a:1d:ac:0a:d8:0c:31:a2:0e:d1:e6:6d:b8:48:8a:a8:2d:
         cd:ae:ff:27:58:69:d7:df:be:92:1d:00:b3:c8:31:33:13:6e:
         ef:35:84:07:9f:be:7a:c9:dd:34:74:bc:37:bc:18:9a:a2:a5:
         22:76:f1:ea:e5:14:05:89:c3:8c:4c:cf:d5:4e:55:94:89:00:
         fe:b4:32:68:b0:c3:e6:99:c0:24:b9:33:a1:a0:4a:bd:aa:be:
         37:b6:df:56:34:48:67:d2:dd:e6:8a:00:e3:8f:50:6f:f7:6d:
         02:8f:b8:8b:d8:40:6b:6c:c0:08:cb:88:d6:50:40:61:04:78:
         ed:5c:62:4b:0b:fb:79:06:ea:a2:b7:2a:2d:89:1d:61:aa:d9:
         12:77:0c:15:51:07:5f:b1:a1:85:c3:9b:3a:46:ea:78:8e:ed:
         27:10:93:4d:71:cc:8b:ea:2a:4f:a7:09:cb:c5:94:94:9c:23:
         d8:75:e4:2b:14:72:88:07:d1:c2:ff:df:a1:98:07:32:c0:2d:
         5c:84:27:1d:7d:19:4e:d4:95:85:d0:8c:93:6f:26:3e:d6:6f:
         1f:bf:75:28:29:47:02:42:6c:f6:7e:e4:b8:60:36:d0:38:be:
         f9:41:80:17:5b:a1:0b:54:9a:86:8b:a2:85:74:7d:62:8c:99:
         0d:51:fe:3e
-----BEGIN CERTIFICATE-----
MIIDeDCCAmCgAwIBAgIRAIPukhC9Pe/D0vvMg00T3Z4wDQYJKoZIhvcNAQELBQAw
FjEUMBIGA1UEAwwLdGVhbTE4OC1uZXQwHhcNMjMwODE0MTQyNjA3WhcNMjYwNzI5
MTQyNjA3WjAZMRcwFQYDVQQDDA50ZWFtMTg4LXNlcnZlcjCCASIwDQYJKoZIhvcN
AQEBBQADggEPADCCAQoCggEBALjNhj3L14BPsBsio47uRONs+NzvIBs5kBnfzXJm
7nsdp6sDIRaCLnk8dMJrv8GQJtdU8/aANVNZ7hbFfXKL37rL+Ndiretr4K7joHHV
AQ9SiiDdtIU0BvHr7PkS4MwOf0lIiSjcuJtfrCSXUFtCrura4V8uEiK9hUdnnkQN
eJLlf9lHCa2pS07Yo8gPWx8jFyHZozxsV+voIp8Wf8M9IGDyaBdcz+VO4ZQKTgLk
LrRbSRPboDVh2z2c0gLOnObMGOMvnwBaRfx7pvXOUbjNXa9j2Xk1kpYiHp1TmYxi
KjIcxKHBvVbcFaIxddOu+ye3ceqkrw9KGdHnrDITu+c1g4sCAwEAAaOBvTCBujAJ
BgNVHRMEAjAAMB0GA1UdDgQWBBQsBjmob7PuNGXLPYUtHMOPcpsNYjBRBgNVHSME
SjBIgBT7/CaXHrrq0mlOD1VawmFJ7529z6EapBgwFjEUMBIGA1UEAwwLdGVhbTE4
OC1uZXSCFBiXfJaX4b5zL6m1RVOT7YLimhaSMBMGA1UdJQQMMAoGCCsGAQUFBwMB
MAsGA1UdDwQEAwIFoDAZBgNVHREEEjAQgg50ZWFtMTg4LXNlcnZlcjANBgkqhkiG
9w0BAQsFAAOCAQEAZjodrArYDDGiDtHmbbhIiqgtza7/J1hp19++kh0As8gxMxNu
7zWEB5++esndNHS8N7wYmqKlInbx6uUUBYnDjEzP1U5VlIkA/rQyaLDD5pnAJLkz
oaBKvaq+N7bfVjRIZ9Ld5ooA449Qb/dtAo+4i9hAa2zACMuI1lBAYQR47VxiSwv7
eQbqorcqLYkdYarZEncMFVEHX7GhhcObOkbqeI7tJxCTTXHMi+oqT6cJy8WUlJwj
2HXkKxRyiAfRwv/foZgHMsAtXIQnHX0ZTtSVhdCMk28mPtZvH791KClHAkJs9n7k
uGA20Di++UGAF1uhC1SahouihXR9YoyZDVH+Pg==
-----END CERTIFICATE-----
