Certificate:
    Data:
        Version: 3 (0x2)
        Serial Number:
            ac:2e:40:0d:aa:da:a0:03:9f:da:ec:50:c7:16:5c:bd
        Signature Algorithm: sha256WithRSAEncryption
        Issuer: CN=team13-net
        Validity
            Not Before: Aug 14 14:22:18 2023 GMT
            Not After : Jul 29 14:22:18 2026 GMT
        Subject: CN=team13-server
        Subject Public Key Info:
            Public Key Algorithm: rsaEncryption
                RSA Public-Key: (2048 bit)
                Modulus:
                    00:d9:f4:30:1e:2f:81:d0:4e:65:63:68:97:2c:a6:
                    7e:74:2b:c2:7a:f6:cb:27:07:25:0a:46:5b:ed:46:
                    69:3e:64:a2:0e:a5:e1:d4:54:42:a5:c7:c2:34:bd:
                    06:1d:a9:51:c3:8b:d4:cf:4b:a4:de:1f:c1:59:bb:
                    9c:9d:18:e0:38:21:aa:71:00:b6:50:2e:83:6e:bb:
                    16:42:8c:78:84:0d:32:5e:54:b0:d9:fc:ff:0a:dc:
                    d1:68:01:a9:5e:bd:a4:cd:2c:f1:fc:5b:38:f5:6f:
                    79:59:16:94:41:b9:45:23:b9:58:15:67:bc:07:d1:
                    cc:6d:48:8e:a8:bd:f0:9e:97:fa:a9:f4:6c:b9:d8:
                    ee:62:11:f3:3a:1f:72:dc:83:f7:96:53:ac:1e:03:
                    38:e4:c6:86:8d:95:29:c4:be:67:d0:f7:c7:65:de:
                    6b:6e:74:61:ff:77:f0:72:47:73:f2:c8:d7:ad:b3:
                    da:d4:08:d9:b5:14:2b:dd:3b:4c:d0:02:a8:70:f9:
                    37:29:b8:08:ea:56:9f:17:5a:a4:72:79:ec:1e:e2:
                    cb:c8:27:9a:eb:80:94:f1:22:b9:f4:f3:13:e8:77:
                    2c:fa:71:b5:ef:38:c4:e3:97:8b:94:91:48:e3:60:
                    b5:13:02:09:d0:9c:8b:9d:a1:1d:76:04:74:8f:d9:
                    30:51
                Exponent: 65537 (0x10001)
        X509v3 extensions:
            X509v3 Basic Constraints: 
                CA:FALSE
            X509v3 Subject Key Identifier: 
                E6:B6:6E:BB:61:23:58:7B:78:D4:53:8C:C8:4C:9B:9E:D7:7D:5C:D4
            X509v3 Authority Key Identifier: 
                keyid:13:36:CB:95:E5:A3:63:09:E8:57:8F:ED:8B:B5:CB:49:0D:26:84:31
                DirName:/CN=team13-net
                serial:43:A8:94:35:83:97:E6:65:6A:19:03:30:80:4E:74:D7:97:78:F9:18

            X509v3 Extended Key Usage: 
                TLS Web Server Authentication
            X509v3 Key Usage: 
                Digital Signature, Key Encipherment
            X509v3 Subject Alternative Name: 
                DNS:team13-server
    Signature Algorithm: sha256WithRSAEncryption
         84:e9:05:78:43:c8:df:d3:e6:11:da:b7:d3:c1:df:07:2e:1a:
         b5:d2:9a:cc:94:04:10:35:ae:ed:4b:1d:2f:28:4b:4f:33:f8:
         73:d7:f1:35:7c:16:91:b4:d3:43:05:08:c9:e0:ad:4f:0c:0b:
         5a:2a:b2:99:49:bf:ce:98:b3:55:b6:d4:ee:37:07:aa:7c:db:
         4b:f5:2d:6c:70:82:c6:ed:58:38:ea:e8:00:da:9a:00:73:18:
         28:6b:29:12:36:47:82:25:45:fe:64:27:82:08:1e:54:f3:6f:
         82:93:85:49:55:fe:5d:fe:42:a0:05:95:28:d1:f3:6c:79:65:
         bf:18:47:83:18:c7:4c:b1:3e:33:47:72:91:46:2b:26:ed:d1:
         69:cc:64:23:0b:17:6c:17:c8:3e:52:fb:01:f2:8b:59:55:21:
         a1:2a:18:1e:3b:14:d8:a7:e4:45:da:3a:b5:69:80:cd:1c:6f:
         75:3b:a3:34:f5:99:ea:ab:22:5e:ce:eb:e2:e0:7a:ea:92:ae:
         0f:54:5d:20:5f:bd:e6:17:af:4c:7a:e9:5b:fd:e7:fe:34:4e:
         9d:24:f8:0a:b7:bb:62:ad:84:14:03:6d:49:76:a2:11:ab:f1:
         35:94:26:ce:77:00:b3:8a:8b:c1:a1:67:d9:0b:97:90:9d:0b:
         88:b9:78:47
-----BEGIN CERTIFICATE-----
MIIDdDCCAlygAwIBAgIRAKwuQA2q2qADn9rsUMcWXL0wDQYJKoZIhvcNAQELBQAw
FTETMBEGA1UEAwwKdGVhbTEzLW5ldDAeFw0yMzA4MTQxNDIyMThaFw0yNjA3Mjkx
NDIyMThaMBgxFjAUBgNVBAMMDXRlYW0xMy1zZXJ2ZXIwggEiMA0GCSqGSIb3DQEB
AQUAA4IBDwAwggEKAoIBAQDZ9DAeL4HQTmVjaJcspn50K8J69ssnByUKRlvtRmk+
ZKIOpeHUVEKlx8I0vQYdqVHDi9TPS6TeH8FZu5ydGOA4IapxALZQLoNuuxZCjHiE
DTJeVLDZ/P8K3NFoAalevaTNLPH8Wzj1b3lZFpRBuUUjuVgVZ7wH0cxtSI6ovfCe
l/qp9Gy52O5iEfM6H3Lcg/eWU6weAzjkxoaNlSnEvmfQ98dl3mtudGH/d/ByR3Py
yNets9rUCNm1FCvdO0zQAqhw+TcpuAjqVp8XWqRyeewe4svIJ5rrgJTxIrn08xPo
dyz6cbXvOMTjl4uUkUjjYLUTAgnQnIudoR12BHSP2TBRAgMBAAGjgbswgbgwCQYD
VR0TBAIwADAdBgNVHQ4EFgQU5rZuu2EjWHt41FOMyEybntd9XNQwUAYDVR0jBEkw
R4AUEzbLleWjYwnoV4/ti7XLSQ0mhDGhGaQXMBUxEzARBgNVBAMMCnRlYW0xMy1u
ZXSCFEOolDWDl+ZlahkDMIBOdNeXePkYMBMGA1UdJQQMMAoGCCsGAQUFBwMBMAsG
A1UdDwQEAwIFoDAYBgNVHREEETAPgg10ZWFtMTMtc2VydmVyMA0GCSqGSIb3DQEB
CwUAA4IBAQCE6QV4Q8jf0+YR2rfTwd8HLhq10prMlAQQNa7tSx0vKEtPM/hz1/E1
fBaRtNNDBQjJ4K1PDAtaKrKZSb/OmLNVttTuNweqfNtL9S1scILG7Vg46ugA2poA
cxgoaykSNkeCJUX+ZCeCCB5U82+Ck4VJVf5d/kKgBZUo0fNseWW/GEeDGMdMsT4z
R3KRRism7dFpzGQjCxdsF8g+UvsB8otZVSGhKhgeOxTYp+RF2jq1aYDNHG91O6M0
9ZnqqyJezuvi4Hrqkq4PVF0gX73mF69Meulb/ef+NE6dJPgKt7tirYQUA21JdqIR
q/E1lCbOdwCziovBoWfZC5eQnQuIuXhH
-----END CERTIFICATE-----
