Certificate:
    Data:
        Version: 3 (0x2)
        Serial Number:
            25:fa:48:e4:0a:ef:79:a9:09:1a:a3:14:1b:e2:87:2f
        Signature Algorithm: sha256WithRSAEncryption
        Issuer: CN=team78-net
        Validity
            Not Before: Aug 14 14:23:48 2023 GMT
            Not After : Jul 29 14:23:48 2026 GMT
        Subject: CN=team78-server
        Subject Public Key Info:
            Public Key Algorithm: rsaEncryption
                RSA Public-Key: (2048 bit)
                Modulus:
                    00:c7:79:e9:c0:51:c5:c0:17:9c:86:46:5b:a5:d0:
                    e9:4f:66:1b:ca:a0:d3:87:e5:af:59:8e:24:31:7c:
                    d1:97:c8:a1:23:52:69:ac:2e:a0:ab:e2:7a:4a:70:
                    55:e7:40:86:2d:35:f7:20:fd:c1:94:21:00:f3:4a:
                    e2:1e:04:39:01:1a:81:c5:61:48:9b:75:ab:a4:17:
                    52:00:32:65:e9:f2:79:d9:89:a4:45:d1:a5:ef:46:
                    a3:d9:da:a9:9d:ba:da:89:d5:ec:72:87:15:d7:4d:
                    32:57:8a:73:b0:82:25:70:a6:69:8b:f3:a1:28:18:
                    d1:7a:58:9f:02:de:d5:14:34:c8:13:9d:3d:46:38:
                    07:fe:78:43:d6:32:72:88:32:e9:2c:b9:a3:51:f3:
                    7e:da:c3:b4:14:f3:8d:2f:a4:92:c6:f7:16:d7:ad:
                    fd:a4:a4:e7:3c:3f:8b:d2:15:72:cf:0d:13:d2:47:
                    36:80:3d:02:ea:61:38:38:af:ea:a0:af:ce:20:bd:
                    fb:b4:f2:2e:fe:42:26:dd:7d:aa:ef:50:91:2c:75:
                    24:a7:28:1a:f2:5a:d4:40:a4:aa:24:34:45:c0:e6:
                    ef:f9:d5:72:e7:62:02:24:41:e8:e6:8b:40:13:93:
                    2f:ac:ba:05:78:b7:a9:c2:19:4e:54:e2:58:26:6f:
                    54:5d
                Exponent: 65537 (0x10001)
        X509v3 extensions:
            X509v3 Basic Constraints: 
                CA:FALSE
            X509v3 Subject Key Identifier: 
                74:39:49:4D:BF:DC:70:07:7E:9C:C5:0B:56:14:E0:05:8E:C7:41:1B
            X509v3 Authority Key Identifier: 
                keyid:B4:AE:B5:BC:F6:A9:DA:0D:FC:0C:EB:53:DE:00:74:91:DD:C0:54:2D
                DirName:/CN=team78-net
                serial:59:18:7C:FC:46:3C:37:3F:E8:82:68:08:FB:93:32:0B:D1:FF:22:30

            X509v3 Extended Key Usage: 
                TLS Web Server Authentication
            X509v3 Key Usage: 
                Digital Signature, Key Encipherment
            X509v3 Subject Alternative Name: 
                DNS:team78-server
    Signature Algorithm: sha256WithRSAEncryption
         a5:0e:c7:3c:94:a0:f7:80:36:14:8b:21:68:52:a1:c1:c6:40:
         da:05:2d:45:8d:2b:25:44:8e:bf:77:11:03:62:02:63:d6:4e:
         54:d6:73:26:16:f1:c4:72:17:ed:36:71:2d:81:33:dd:d3:7b:
         04:92:48:ea:0b:ec:e7:d0:ce:99:a1:96:26:14:89:33:3b:92:
         44:35:ef:44:3a:5b:a9:6b:25:e6:fa:34:a3:7f:28:00:1c:ab:
         14:4b:30:59:dd:f2:57:97:82:51:8f:35:9f:99:e4:3c:3a:7c:
         a4:f9:eb:7b:a9:7b:09:97:35:4b:ba:04:74:15:72:cf:a3:32:
         0e:90:41:d8:51:9d:8f:ed:89:87:59:77:18:56:26:53:db:3b:
         bd:c7:a9:86:62:23:48:fb:3a:ee:57:56:35:4e:aa:2b:e9:ce:
         ed:62:7d:7b:a9:29:49:3e:83:e9:b0:1e:b0:33:a5:85:a9:ba:
         de:aa:e5:8c:f4:00:a8:48:42:ed:85:ae:05:af:f3:30:61:02:
         79:0d:cd:2c:55:a8:8b:57:47:f0:d8:f2:11:92:00:70:d5:4e:
         0b:fd:c8:88:1a:9a:b1:01:ee:22:0c:19:47:2c:6a:5c:0e:57:
         49:e0:77:fb:a2:d5:53:07:a1:f2:1f:ed:c7:b5:66:92:b8:ac:
         34:f9:5f:d0
-----BEGIN CERTIFICATE-----
MIIDczCCAlugAwIBAgIQJfpI5ArveakJGqMUG+KHLzANBgkqhkiG9w0BAQsFADAV
MRMwEQYDVQQDDAp0ZWFtNzgtbmV0MB4XDTIzMDgxNDE0MjM0OFoXDTI2MDcyOTE0
MjM0OFowGDEWMBQGA1UEAwwNdGVhbTc4LXNlcnZlcjCCASIwDQYJKoZIhvcNAQEB
BQADggEPADCCAQoCggEBAMd56cBRxcAXnIZGW6XQ6U9mG8qg04flr1mOJDF80ZfI
oSNSaawuoKviekpwVedAhi019yD9wZQhAPNK4h4EOQEagcVhSJt1q6QXUgAyZeny
edmJpEXRpe9Go9naqZ262onV7HKHFddNMleKc7CCJXCmaYvzoSgY0XpYnwLe1RQ0
yBOdPUY4B/54Q9Yycogy6Sy5o1HzftrDtBTzjS+kksb3Ftet/aSk5zw/i9IVcs8N
E9JHNoA9AuphODiv6qCvziC9+7TyLv5CJt19qu9QkSx1JKcoGvJa1ECkqiQ0RcDm
7/nVcudiAiRB6OaLQBOTL6y6BXi3qcIZTlTiWCZvVF0CAwEAAaOBuzCBuDAJBgNV
HRMEAjAAMB0GA1UdDgQWBBR0OUlNv9xwB36cxQtWFOAFjsdBGzBQBgNVHSMESTBH
gBS0rrW89qnaDfwM61PeAHSR3cBULaEZpBcwFTETMBEGA1UEAwwKdGVhbTc4LW5l
dIIUWRh8/EY8Nz/ogmgI+5MyC9H/IjAwEwYDVR0lBAwwCgYIKwYBBQUHAwEwCwYD
VR0PBAQDAgWgMBgGA1UdEQQRMA+CDXRlYW03OC1zZXJ2ZXIwDQYJKoZIhvcNAQEL
BQADggEBAKUOxzyUoPeANhSLIWhSocHGQNoFLUWNKyVEjr93EQNiAmPWTlTWcyYW
8cRyF+02cS2BM93TewSSSOoL7OfQzpmhliYUiTM7kkQ170Q6W6lrJeb6NKN/KAAc
qxRLMFnd8leXglGPNZ+Z5Dw6fKT563upewmXNUu6BHQVcs+jMg6QQdhRnY/tiYdZ
dxhWJlPbO73HqYZiI0j7Ou5XVjVOqivpzu1ifXupKUk+g+mwHrAzpYWput6q5Yz0
AKhIQu2FrgWv8zBhAnkNzSxVqItXR/DY8hGSAHDVTgv9yIgamrEB7iIMGUcsalwO
V0ngd/ui1VMHofIf7ce1ZpK4rDT5X9A=
-----END CERTIFICATE-----
