Certificate:
    Data:
        Version: 3 (0x2)
        Serial Number:
            e6:41:66:d3:33:8b:25:ac:fd:f4:8c:66:f0:de:42:a0
        Signature Algorithm: sha256WithRSAEncryption
        Issuer: CN=team270-net
        Validity
            Not Before: Aug 14 14:27:48 2023 GMT
            Not After : Jul 29 14:27:48 2026 GMT
        Subject: CN=team270-server
        Subject Public Key Info:
            Public Key Algorithm: rsaEncryption
                RSA Public-Key: (2048 bit)
                Modulus:
                    00:93:05:62:b7:15:79:d8:45:e1:74:f8:bf:66:44:
                    9f:30:09:1b:68:b7:d7:cf:58:26:99:75:97:c4:7b:
                    73:27:ab:7a:4f:fa:66:81:b6:b4:df:c2:ad:20:38:
                    ef:1f:c5:fb:c2:e9:0d:ca:4f:5e:22:08:8b:da:12:
                    9b:df:66:9b:bb:4d:d3:7c:02:2a:e2:ef:6a:3f:ef:
                    31:68:4c:62:ed:4a:a9:13:85:97:21:31:44:a0:25:
                    d5:d6:07:ba:af:95:33:0d:36:33:0c:49:04:54:33:
                    e8:cf:82:f7:50:1a:4b:63:a8:f3:de:de:b4:c5:a9:
                    97:8c:58:aa:da:b2:cf:56:c1:65:07:8c:b4:24:f3:
                    4e:6f:a7:96:f8:e1:0a:e6:6d:94:a4:cd:ab:b6:47:
                    97:97:4a:7f:25:c8:a9:c2:6b:7f:8b:6e:0a:ab:29:
                    c4:a1:e0:5d:2e:3b:3f:97:84:97:18:55:17:bb:e0:
                    e9:c1:16:cb:7b:89:97:7c:13:3c:03:2c:78:b0:d3:
                    e7:9b:1a:39:cd:bb:a1:92:f0:73:77:90:fb:45:be:
                    05:e9:c9:69:eb:2f:84:a0:ac:d1:24:fc:0d:f0:b2:
                    cb:56:8e:c3:72:0a:bc:5e:0a:53:14:5f:ea:71:b7:
                    30:f1:89:e1:3b:7e:e6:da:8e:5e:74:8a:2a:be:13:
                    72:a5
                Exponent: 65537 (0x10001)
        X509v3 extensions:
            X509v3 Basic Constraints: 
                CA:FALSE
            X509v3 Subject Key Identifier: 
                4E:90:B6:CE:B9:31:69:FC:B5:AF:04:A6:15:AE:BA:81:C0:8F:C2:C9
            X509v3 Authority Key Identifier: 
                keyid:18:2E:AD:F9:58:36:5A:7C:A5:F2:80:05:4C:68:61:6D:C3:E2:B7:EC
                DirName:/CN=team270-net
                serial:75:52:6F:2E:65:44:6E:8C:EB:6F:69:3B:AE:46:AA:73:A2:63:0C:95

            X509v3 Extended Key Usage: 
                TLS Web Server Authentication
            X509v3 Key Usage: 
                Digital Signature, Key Encipherment
            X509v3 Subject Alternative Name: 
                DNS:team270-server
    Signature Algorithm: sha256WithRSAEncryption
         98:dd:07:5c:cf:bc:4c:36:e9:b7:ec:8f:f1:05:50:c6:af:db:
         52:87:96:6d:c0:e4:5e:83:31:2c:67:a8:bf:6f:ed:d9:01:09:
         6b:00:f9:93:e7:bb:39:b8:2d:1c:53:e7:b1:70:2d:3a:52:ac:
         78:a2:52:2f:b3:86:90:ec:12:0e:5c:f4:04:a0:44:55:a0:3a:
         f0:95:75:02:3f:9a:d9:f9:14:93:1b:07:0a:22:b4:ee:15:50:
         b0:ce:2c:9d:78:43:a3:f3:09:2d:32:45:47:6c:50:47:35:ab:
         87:14:fc:35:bb:e1:a0:6d:cb:c7:a4:15:61:a1:96:c0:59:06:
         c5:a3:92:ab:a0:7a:96:b8:96:95:eb:79:cb:d6:93:53:1b:eb:
         43:51:45:3d:be:65:89:6b:ae:3c:46:c7:5c:0f:4f:d9:31:87:
         18:6b:93:a1:c0:c6:1c:b6:9a:fd:29:99:c1:d9:3b:db:4b:da:
         4a:e4:64:c1:9c:ef:e2:c6:9d:32:68:e5:40:4f:e1:df:44:1c:
         58:04:14:b4:14:91:ef:7a:84:36:c1:ad:a1:19:1b:f5:3e:15:
         97:f2:79:72:b4:fb:42:e2:25:c3:55:fd:44:8b:ba:3c:99:75:
         ed:43:6f:19:65:d0:86:c0:13:e3:04:d9:28:66:1d:92:5e:66:
         59:c5:af:a4
-----BEGIN CERTIFICATE-----
MIIDeDCCAmCgAwIBAgIRAOZBZtMziyWs/fSMZvDeQqAwDQYJKoZIhvcNAQELBQAw
FjEUMBIGA1UEAwwLdGVhbTI3MC1uZXQwHhcNMjMwODE0MTQyNzQ4WhcNMjYwNzI5
MTQyNzQ4WjAZMRcwFQYDVQQDDA50ZWFtMjcwLXNlcnZlcjCCASIwDQYJKoZIhvcN
AQEBBQADggEPADCCAQoCggEBAJMFYrcVedhF4XT4v2ZEnzAJG2i3189YJpl1l8R7
cyerek/6ZoG2tN/CrSA47x/F+8LpDcpPXiIIi9oSm99mm7tN03wCKuLvaj/vMWhM
Yu1KqROFlyExRKAl1dYHuq+VMw02MwxJBFQz6M+C91AaS2Oo897etMWpl4xYqtqy
z1bBZQeMtCTzTm+nlvjhCuZtlKTNq7ZHl5dKfyXIqcJrf4tuCqspxKHgXS47P5eE
lxhVF7vg6cEWy3uJl3wTPAMseLDT55saOc27oZLwc3eQ+0W+BenJaesvhKCs0ST8
DfCyy1aOw3IKvF4KUxRf6nG3MPGJ4Tt+5tqOXnSKKr4TcqUCAwEAAaOBvTCBujAJ
BgNVHRMEAjAAMB0GA1UdDgQWBBROkLbOuTFp/LWvBKYVrrqBwI/CyTBRBgNVHSME
SjBIgBQYLq35WDZafKXygAVMaGFtw+K37KEapBgwFjEUMBIGA1UEAwwLdGVhbTI3
MC1uZXSCFHVSby5lRG6M629pO65GqnOiYwyVMBMGA1UdJQQMMAoGCCsGAQUFBwMB
MAsGA1UdDwQEAwIFoDAZBgNVHREEEjAQgg50ZWFtMjcwLXNlcnZlcjANBgkqhkiG
9w0BAQsFAAOCAQEAmN0HXM+8TDbpt+yP8QVQxq/bUoeWbcDkXoMxLGeov2/t2QEJ
awD5k+e7ObgtHFPnsXAtOlKseKJSL7OGkOwSDlz0BKBEVaA68JV1Aj+a2fkUkxsH
CiK07hVQsM4snXhDo/MJLTJFR2xQRzWrhxT8NbvhoG3Lx6QVYaGWwFkGxaOSq6B6
lriWlet5y9aTUxvrQ1FFPb5liWuuPEbHXA9P2TGHGGuTocDGHLaa/SmZwdk720va
SuRkwZzv4sadMmjlQE/h30QcWAQUtBSR73qENsGtoRkb9T4Vl/J5crT7QuIlw1X9
RIu6PJl17UNvGWXQhsAT4wTZKGYdkl5mWcWvpA==
-----END CERTIFICATE-----
