Certificate:
    Data:
        Version: 3 (0x2)
        Serial Number:
            01:32:39:7e:a1:a1:09:d0:86:15:38:0d:de:05:1b:5a
        Signature Algorithm: sha256WithRSAEncryption
        Issuer: CN=team276-net
        Validity
            Not Before: Aug 14 14:27:57 2023 GMT
            Not After : Jul 29 14:27:57 2026 GMT
        Subject: CN=team276-server
        Subject Public Key Info:
            Public Key Algorithm: rsaEncryption
                RSA Public-Key: (2048 bit)
                Modulus:
                    00:da:16:a4:ca:93:09:b6:c5:3f:77:7b:05:15:a9:
                    af:63:8b:f8:aa:88:dd:01:3c:b0:d4:47:f1:3e:3d:
                    02:11:06:9f:94:c7:3f:a8:4d:23:2c:a1:ef:f4:e0:
                    6f:36:1d:1b:90:10:72:a4:e2:e0:c0:d5:9b:91:04:
                    b4:c3:7a:78:87:3f:50:a0:e6:9f:37:f2:5e:0d:ce:
                    3a:ab:71:3b:90:5c:5d:e4:ed:ab:7b:e4:21:cc:d9:
                    7a:80:79:bd:21:ca:29:49:95:bf:a9:ba:bc:06:41:
                    2b:33:8a:30:10:40:5a:46:6a:ff:a0:03:24:d4:6b:
                    b9:0e:fa:99:5c:99:2b:c4:bf:0d:6d:9f:fc:6b:03:
                    e1:02:28:0c:f6:7b:1c:b5:28:fc:92:73:b3:18:fc:
                    06:80:6b:d6:b2:eb:2b:4e:e5:f9:64:4f:47:8b:d4:
                    b5:c8:b3:c6:a8:57:8b:0b:89:a9:29:e7:14:81:fb:
                    ef:b8:b9:94:7d:b8:c2:3b:90:c7:5d:4a:7e:1a:e7:
                    cd:75:59:17:17:d4:40:81:62:c9:1f:14:09:a5:ed:
                    16:61:2c:2f:1e:82:82:52:2d:6c:48:6f:64:85:67:
                    c7:a5:51:52:0c:7e:b1:c5:bb:22:aa:24:e8:b8:15:
                    a2:c5:51:2b:37:48:94:59:ce:fd:37:59:f2:eb:3f:
                    63:67
                Exponent: 65537 (0x10001)
        X509v3 extensions:
            X509v3 Basic Constraints: 
                CA:FALSE
            X509v3 Subject Key Identifier: 
                AF:1F:73:B0:92:6A:A2:B9:F8:79:35:6C:D0:69:98:33:96:E2:9B:B8
            X509v3 Authority Key Identifier: 
                keyid:82:BD:5A:8A:29:C8:21:17:0C:31:39:B4:84:E1:85:A8:23:3C:2A:B8
                DirName:/CN=team276-net
                serial:7F:0C:A7:12:DC:36:6E:C4:AF:EA:47:80:3F:6F:AD:BD:6E:1F:07:E0

            X509v3 Extended Key Usage: 
                TLS Web Server Authentication
            X509v3 Key Usage: 
                Digital Signature, Key Encipherment
            X509v3 Subject Alternative Name: 
                DNS:team276-server
    Signature Algorithm: sha256WithRSAEncryption
         97:e3:39:be:ac:41:94:68:6a:6d:4c:fb:c5:3d:e9:f3:ca:29:
         5f:b5:bd:33:b8:38:df:58:4a:e6:da:c9:a4:92:8a:eb:88:c9:
         c7:69:cf:35:7a:bd:d0:08:10:fd:53:dd:b0:52:70:8e:0e:ce:
         95:38:95:98:73:f9:83:56:08:19:7b:59:ee:9a:3f:ed:e0:99:
         f6:53:5e:76:fd:8a:c2:ca:3a:01:74:9e:9a:fb:04:54:f9:91:
         ae:36:e9:73:18:9a:71:9d:4f:77:13:a3:23:af:4c:25:3f:ef:
         8f:16:8c:aa:92:ff:a2:5e:0d:49:d9:a1:ee:46:aa:09:ed:00:
         5f:01:42:2a:ca:91:9a:28:b4:c9:11:0b:6a:18:53:d7:16:06:
         f1:be:46:a3:6c:3a:7e:ae:9a:a8:07:c1:6e:a8:cd:ca:fd:a9:
         b5:04:b5:e1:67:e6:9a:c3:04:a0:1f:ad:ee:13:02:b2:a4:35:
         d3:f7:a7:6a:5b:ff:7b:43:41:3c:cc:c1:bc:f4:45:b8:8d:b9:
         34:16:29:c5:91:98:72:1e:1c:c5:f5:0f:64:9f:3d:6b:95:58:
         2c:44:cc:b4:7d:eb:1c:ee:ac:79:d0:25:ea:2a:23:ef:6a:48:
         25:cb:4f:ee:2a:a1:03:ce:90:46:fd:4b:3e:1c:1f:e6:7b:e1:
         e6:a6:45:6b
-----BEGIN CERTIFICATE-----
MIIDdzCCAl+gAwIBAgIQATI5fqGhCdCGFTgN3gUbWjANBgkqhkiG9w0BAQsFADAW
MRQwEgYDVQQDDAt0ZWFtMjc2LW5ldDAeFw0yMzA4MTQxNDI3NTdaFw0yNjA3Mjkx
NDI3NTdaMBkxFzAVBgNVBAMMDnRlYW0yNzYtc2VydmVyMIIBIjANBgkqhkiG9w0B
AQEFAAOCAQ8AMIIBCgKCAQEA2hakypMJtsU/d3sFFamvY4v4qojdATyw1EfxPj0C
EQaflMc/qE0jLKHv9OBvNh0bkBBypOLgwNWbkQS0w3p4hz9QoOafN/JeDc46q3E7
kFxd5O2re+QhzNl6gHm9IcopSZW/qbq8BkErM4owEEBaRmr/oAMk1Gu5DvqZXJkr
xL8NbZ/8awPhAigM9nsctSj8knOzGPwGgGvWsusrTuX5ZE9Hi9S1yLPGqFeLC4mp
KecUgfvvuLmUfbjCO5DHXUp+GufNdVkXF9RAgWLJHxQJpe0WYSwvHoKCUi1sSG9k
hWfHpVFSDH6xxbsiqiTouBWixVErN0iUWc79N1ny6z9jZwIDAQABo4G9MIG6MAkG
A1UdEwQCMAAwHQYDVR0OBBYEFK8fc7CSaqK5+Hk1bNBpmDOW4pu4MFEGA1UdIwRK
MEiAFIK9WoopyCEXDDE5tIThhagjPCq4oRqkGDAWMRQwEgYDVQQDDAt0ZWFtMjc2
LW5ldIIUfwynEtw2bsSv6keAP2+tvW4fB+AwEwYDVR0lBAwwCgYIKwYBBQUHAwEw
CwYDVR0PBAQDAgWgMBkGA1UdEQQSMBCCDnRlYW0yNzYtc2VydmVyMA0GCSqGSIb3
DQEBCwUAA4IBAQCX4zm+rEGUaGptTPvFPenzyilftb0zuDjfWErm2smkkorriMnH
ac81er3QCBD9U92wUnCODs6VOJWYc/mDVggZe1numj/t4Jn2U152/YrCyjoBdJ6a
+wRU+ZGuNulzGJpxnU93E6Mjr0wlP++PFoyqkv+iXg1J2aHuRqoJ7QBfAUIqypGa
KLTJEQtqGFPXFgbxvkajbDp+rpqoB8FuqM3K/am1BLXhZ+aawwSgH63uEwKypDXT
96dqW/97Q0E8zMG89EW4jbk0FinFkZhyHhzF9Q9knz1rlVgsRMy0fesc7qx50CXq
KiPvakgly0/uKqEDzpBG/Us+HB/me+HmpkVr
-----END CERTIFICATE-----
