Certificate:
    Data:
        Version: 3 (0x2)
        Serial Number:
            6f:a4:57:f9:d4:9e:5a:d0:9d:39:56:21:56:16:ad:a8
        Signature Algorithm: sha256WithRSAEncryption
        Issuer: CN=team276-net
        Validity
            Not Before: Aug 14 14:27:56 2023 GMT
            Not After : Jul 29 14:27:56 2026 GMT
        Subject: CN=team276-client
        Subject Public Key Info:
            Public Key Algorithm: rsaEncryption
                RSA Public-Key: (2048 bit)
                Modulus:
                    00:a7:aa:19:8f:af:e6:40:aa:e4:8a:bf:c9:ce:d2:
                    b4:34:56:de:a5:65:f3:9f:b1:95:d3:5a:94:33:f6:
                    64:5a:35:60:f9:e8:19:5d:c7:50:8b:17:46:56:f2:
                    24:e3:74:7f:31:a9:b5:1f:74:e1:c8:af:b0:3c:d4:
                    09:27:25:56:da:d7:b5:dc:b3:6d:f2:17:3f:8d:fd:
                    2d:c1:60:36:51:63:73:ff:59:7b:20:24:c0:e0:5c:
                    06:c9:d5:35:cd:0a:63:52:ef:f6:fd:29:89:9a:48:
                    49:3e:b6:73:6e:47:94:a7:76:74:60:39:21:58:d3:
                    d7:d0:6c:3f:72:19:fa:60:f0:7e:db:24:9d:b1:65:
                    28:11:55:7b:a2:ab:b1:cf:86:48:55:7e:30:50:50:
                    8c:b4:ad:87:cf:e6:bf:b0:6a:6d:c0:5a:b0:d6:80:
                    1f:1b:f0:a7:2e:40:4f:7c:33:b1:82:47:d6:df:ed:
                    85:49:77:a1:0d:57:05:7b:fe:e4:c5:d7:ea:a6:42:
                    ac:a6:04:4f:46:e1:17:a9:a3:f5:2d:c5:a3:a6:e8:
                    fb:b8:34:60:fb:b6:a4:da:a2:1f:e8:f5:85:16:25:
                    a7:37:14:bd:62:54:08:f9:57:07:ae:ff:11:87:ec:
                    7c:b8:c0:88:bf:d9:4f:18:77:fc:c5:b0:e5:bd:03:
                    09:5d
                Exponent: 65537 (0x10001)
        X509v3 extensions:
            X509v3 Basic Constraints: 
                CA:FALSE
            X509v3 Subject Key Identifier: 
                83:9D:72:BE:2C:5E:84:42:F4:2F:89:EB:B3:8E:D1:85:B9:99:79:1B
            X509v3 Authority Key Identifier: 
                keyid:82:BD:5A:8A:29:C8:21:17:0C:31:39:B4:84:E1:85:A8:23:3C:2A:B8
                DirName:/CN=team276-net
                serial:7F:0C:A7:12:DC:36:6E:C4:AF:EA:47:80:3F:6F:AD:BD:6E:1F:07:E0

            X509v3 Extended Key Usage: 
                TLS Web Client Authentication
            X509v3 Key Usage: 
                Digital Signature
    Signature Algorithm: sha256WithRSAEncryption
         6e:d4:f9:5e:9d:fb:89:03:48:c9:7c:8b:7c:2e:7c:06:b6:e2:
         59:d1:20:66:2c:f3:b8:24:7b:5f:1f:a6:99:e2:79:aa:23:c5:
         dc:11:d2:b4:15:f7:89:9c:30:3b:d3:b3:d9:ed:b7:73:f9:9d:
         5f:41:04:72:7b:aa:e7:89:27:2f:79:fc:30:41:77:33:7c:6b:
         e8:38:95:76:f5:c7:2a:98:fb:bf:f9:d5:aa:09:22:27:a6:a8:
         eb:f2:93:92:4b:66:e6:bc:26:98:43:9f:96:49:9c:7a:0c:6d:
         c8:e0:77:6f:a3:ed:54:06:e6:40:01:87:6a:b4:5f:bc:62:86:
         db:36:ef:9f:fb:96:18:2c:de:e2:cd:2a:19:34:dc:8a:5d:63:
         53:31:27:64:94:34:8c:6e:08:47:2c:8c:6f:7d:88:e6:0a:e1:
         08:18:f4:47:92:08:85:f7:9c:e4:77:87:e7:1d:93:70:77:75:
         03:85:f5:5c:42:56:8d:20:ab:2d:6d:c9:e6:28:88:42:24:91:
         c7:d8:a8:85:fb:a9:3c:3b:7b:fc:2f:d0:69:a9:43:2a:e7:79:
         5f:b3:02:a0:74:c1:3f:2b:1c:93:20:ee:b0:4b:46:df:3d:08:
         48:1c:29:6d:69:c0:b4:ff:4b:e6:6a:0c:ae:4d:10:9e:cb:68:
         d5:e0:19:67
-----BEGIN CERTIFICATE-----
MIIDXDCCAkSgAwIBAgIQb6RX+dSeWtCdOVYhVhatqDANBgkqhkiG9w0BAQsFADAW
MRQwEgYDVQQDDAt0ZWFtMjc2LW5ldDAeFw0yMzA4MTQxNDI3NTZaFw0yNjA3Mjkx
NDI3NTZaMBkxFzAVBgNVBAMMDnRlYW0yNzYtY2xpZW50MIIBIjANBgkqhkiG9w0B
AQEFAAOCAQ8AMIIBCgKCAQEAp6oZj6/mQKrkir/JztK0NFbepWXzn7GV01qUM/Zk
WjVg+egZXcdQixdGVvIk43R/Mam1H3ThyK+wPNQJJyVW2te13LNt8hc/jf0twWA2
UWNz/1l7ICTA4FwGydU1zQpjUu/2/SmJmkhJPrZzbkeUp3Z0YDkhWNPX0Gw/chn6
YPB+2ySdsWUoEVV7oquxz4ZIVX4wUFCMtK2Hz+a/sGptwFqw1oAfG/CnLkBPfDOx
gkfW3+2FSXehDVcFe/7kxdfqpkKspgRPRuEXqaP1LcWjpuj7uDRg+7ak2qIf6PWF
FiWnNxS9YlQI+VcHrv8Rh+x8uMCIv9lPGHf8xbDlvQMJXQIDAQABo4GiMIGfMAkG
A1UdEwQCMAAwHQYDVR0OBBYEFIOdcr4sXoRC9C+J67OO0YW5mXkbMFEGA1UdIwRK
MEiAFIK9WoopyCEXDDE5tIThhagjPCq4oRqkGDAWMRQwEgYDVQQDDAt0ZWFtMjc2
LW5ldIIUfwynEtw2bsSv6keAP2+tvW4fB+AwEwYDVR0lBAwwCgYIKwYBBQUHAwIw
CwYDVR0PBAQDAgeAMA0GCSqGSIb3DQEBCwUAA4IBAQBu1PlenfuJA0jJfIt8LnwG
tuJZ0SBmLPO4JHtfH6aZ4nmqI8XcEdK0FfeJnDA707PZ7bdz+Z1fQQRye6rniScv
efwwQXczfGvoOJV29ccqmPu/+dWqCSInpqjr8pOSS2bmvCaYQ5+WSZx6DG3I4Hdv
o+1UBuZAAYdqtF+8YobbNu+f+5YYLN7izSoZNNyKXWNTMSdklDSMbghHLIxvfYjm
CuEIGPRHkgiF95zkd4fnHZNwd3UDhfVcQlaNIKstbcnmKIhCJJHH2KiF+6k8O3v8
L9BpqUMq53lfswKgdME/KxyTIO6wS0bfPQhIHCltacC0/0vmagyuTRCey2jV4Bln
-----END CERTIFICATE-----
