Certificate:
    Data:
        Version: 3 (0x2)
        Serial Number:
            53:d5:a4:67:b1:72:fc:81:1f:72:a4:aa:8a:77:c8:f3
        Signature Algorithm: sha256WithRSAEncryption
        Issuer: CN=team101-net
        Validity
            Not Before: Aug 14 14:24:17 2023 GMT
            Not After : Jul 29 14:24:17 2026 GMT
        Subject: CN=team101-client
        Subject Public Key Info:
            Public Key Algorithm: rsaEncryption
                RSA Public-Key: (2048 bit)
                Modulus:
                    00:c8:13:3c:60:67:6d:34:bc:c6:d8:73:34:cd:20:
                    07:13:11:bb:4e:32:3e:ea:34:8f:0e:d2:d5:15:40:
                    7a:34:f4:53:91:5f:fd:3c:b9:43:ae:d9:6a:fe:92:
                    c6:41:41:89:79:03:7f:cd:db:f7:96:e9:ad:9b:1c:
                    8d:81:ef:39:6b:69:dd:63:71:48:68:60:2b:e8:41:
                    46:2e:69:b5:94:1b:11:eb:6b:48:ea:f9:d4:4f:ab:
                    ff:2e:e5:a5:a0:b2:1e:69:29:1c:a0:b2:e1:d0:23:
                    34:03:16:72:d3:cf:87:fc:28:b4:be:61:b4:d0:f4:
                    ea:04:6c:b6:15:99:a9:0f:11:78:99:05:55:24:ba:
                    70:45:ef:72:e9:88:62:43:1b:09:d5:d8:02:f8:ce:
                    fa:73:49:38:98:d1:c2:07:c4:f8:25:72:93:bc:7e:
                    9c:7e:8a:34:56:76:79:94:36:81:68:ed:7f:81:9a:
                    e6:0a:3c:7a:28:a1:33:a3:3d:22:67:66:a2:e6:77:
                    9f:af:8f:08:dd:56:0e:12:e4:e6:eb:eb:b5:43:14:
                    73:1a:44:11:11:a5:d2:75:c3:46:c5:c0:71:e0:1a:
                    7e:e6:d3:f2:6c:c9:e3:73:9b:ea:e9:0b:5c:7f:85:
                    9d:06:19:c1:91:33:67:f0:2e:5d:a4:56:c6:79:b3:
                    ce:cb
                Exponent: 65537 (0x10001)
        X509v3 extensions:
            X509v3 Basic Constraints: 
                CA:FALSE
            X509v3 Subject Key Identifier: 
                C7:B8:A3:4D:4F:93:7C:12:DA:EC:DD:DF:CE:EE:82:CE:E6:CA:92:3B
            X509v3 Authority Key Identifier: 
                keyid:C6:0B:F3:D9:6E:42:D4:F7:C7:AC:8A:F1:41:C6:63:F3:77:E4:3A:50
                DirName:/CN=team101-net
                serial:3F:80:C7:5F:41:45:42:B7:84:D3:DC:FC:FC:85:8D:47:B2:37:5E:0E

            X509v3 Extended Key Usage: 
                TLS Web Client Authentication
            X509v3 Key Usage: 
                Digital Signature
    Signature Algorithm: sha256WithRSAEncryption
         07:11:3f:a4:51:64:92:ec:75:9a:85:2b:b4:9f:56:ab:a8:ce:
         9b:ab:fc:e6:8e:ca:e5:1d:fd:45:fc:27:56:e6:12:57:9a:5b:
         22:b5:a0:b3:c1:e6:f5:5e:bc:d9:53:35:69:40:71:0a:90:84:
         4f:53:77:2a:45:ab:46:48:9c:b0:f5:b9:ef:a9:25:c5:3e:8d:
         af:b6:8b:a1:c2:12:77:25:9b:44:f1:60:cd:fe:37:cb:fc:a6:
         e9:01:7c:15:cf:ff:6d:56:00:4f:bc:ee:03:83:03:3b:b1:3c:
         16:70:8d:70:23:85:b4:61:10:21:bf:87:10:c4:96:8b:c2:59:
         66:4c:86:8e:87:2b:c4:4d:e1:9d:c1:f6:e6:a8:d5:a2:5b:aa:
         f5:55:07:16:41:3c:66:1d:b5:77:a9:b3:5a:b1:22:4e:7c:80:
         d7:4b:d5:c0:18:84:66:f1:88:9f:48:9c:89:92:e2:a8:74:53:
         bd:5f:51:74:d8:94:fc:bc:a5:01:34:d5:59:04:6a:41:5a:e4:
         b6:f4:bb:79:b6:d2:57:53:97:30:4c:82:3e:9e:f4:5f:14:be:
         a1:5b:75:85:f7:31:75:fa:bb:17:4b:cc:b1:96:0a:4b:41:64:
         03:ef:42:17:88:41:55:e2:12:f9:5e:cd:6a:45:f0:74:0d:8e:
         20:4d:1b:b0
-----BEGIN CERTIFICATE-----
MIIDXDCCAkSgAwIBAgIQU9WkZ7Fy/IEfcqSqinfI8zANBgkqhkiG9w0BAQsFADAW
MRQwEgYDVQQDDAt0ZWFtMTAxLW5ldDAeFw0yMzA4MTQxNDI0MTdaFw0yNjA3Mjkx
NDI0MTdaMBkxFzAVBgNVBAMMDnRlYW0xMDEtY2xpZW50MIIBIjANBgkqhkiG9w0B
AQEFAAOCAQ8AMIIBCgKCAQEAyBM8YGdtNLzG2HM0zSAHExG7TjI+6jSPDtLVFUB6
NPRTkV/9PLlDrtlq/pLGQUGJeQN/zdv3lumtmxyNge85a2ndY3FIaGAr6EFGLmm1
lBsR62tI6vnUT6v/LuWloLIeaSkcoLLh0CM0AxZy08+H/Ci0vmG00PTqBGy2FZmp
DxF4mQVVJLpwRe9y6YhiQxsJ1dgC+M76c0k4mNHCB8T4JXKTvH6cfoo0VnZ5lDaB
aO1/gZrmCjx6KKEzoz0iZ2ai5nefr48I3VYOEuTm6+u1QxRzGkQREaXSdcNGxcBx
4Bp+5tPybMnjc5vq6Qtcf4WdBhnBkTNn8C5dpFbGebPOywIDAQABo4GiMIGfMAkG
A1UdEwQCMAAwHQYDVR0OBBYEFMe4o01Pk3wS2uzd387ugs7mypI7MFEGA1UdIwRK
MEiAFMYL89luQtT3x6yK8UHGY/N35DpQoRqkGDAWMRQwEgYDVQQDDAt0ZWFtMTAx
LW5ldIIUP4DHX0FFQreE09z8/IWNR7I3Xg4wEwYDVR0lBAwwCgYIKwYBBQUHAwIw
CwYDVR0PBAQDAgeAMA0GCSqGSIb3DQEBCwUAA4IBAQAHET+kUWSS7HWahSu0n1ar
qM6bq/zmjsrlHf1F/CdW5hJXmlsitaCzweb1XrzZUzVpQHEKkIRPU3cqRatGSJyw
9bnvqSXFPo2vtouhwhJ3JZtE8WDN/jfL/KbpAXwVz/9tVgBPvO4DgwM7sTwWcI1w
I4W0YRAhv4cQxJaLwllmTIaOhyvETeGdwfbmqNWiW6r1VQcWQTxmHbV3qbNasSJO
fIDXS9XAGIRm8YifSJyJkuKodFO9X1F02JT8vKUBNNVZBGpBWuS29Lt5ttJXU5cw
TII+nvRfFL6hW3WF9zF1+rsXS8yxlgpLQWQD70IXiEFV4hL5Xs1qRfB0DY4gTRuw
-----END CERTIFICATE-----
