Certificate:
    Data:
        Version: 3 (0x2)
        Serial Number:
            d5:fd:5a:80:48:76:f5:bd:24:a5:66:74:97:e1:df:05
        Signature Algorithm: sha256WithRSAEncryption
        Issuer: CN=team101-net
        Validity
            Not Before: Aug 14 14:24:17 2023 GMT
            Not After : Jul 29 14:24:17 2026 GMT
        Subject: CN=team101-server
        Subject Public Key Info:
            Public Key Algorithm: rsaEncryption
                RSA Public-Key: (2048 bit)
                Modulus:
                    00:b2:35:e3:b3:c4:31:c6:17:5a:af:d3:2a:dd:e4:
                    dd:50:76:d0:65:e3:ad:c1:d6:8d:18:1b:65:39:c5:
                    e1:83:88:37:6b:2e:2b:43:18:bd:90:66:cb:94:82:
                    82:27:32:73:25:44:bf:1b:05:2a:8b:c7:a9:21:5d:
                    2b:4c:44:7c:8b:a7:fd:44:87:12:d7:4e:e3:65:5e:
                    7c:af:a3:1d:d4:15:f8:97:df:a2:24:9b:f6:a8:2f:
                    4a:d9:f5:4b:3b:09:8a:16:a4:87:8f:1f:26:25:5d:
                    bc:10:20:11:f9:88:e9:94:da:e4:a1:07:99:5a:d4:
                    d9:c5:6a:ab:41:d2:df:c8:88:c3:93:08:b8:1c:5b:
                    39:ea:6a:fc:67:9e:d5:3b:d7:1d:37:e9:51:5a:07:
                    a3:6b:e8:88:6f:13:2f:72:a5:78:48:15:f3:9b:1c:
                    5d:10:0c:12:19:4a:86:28:7b:74:b7:56:ba:6e:4c:
                    8c:dd:bf:4b:8a:dc:25:26:c4:39:e3:9d:4e:8f:b0:
                    04:08:77:6f:06:12:71:8d:de:55:f3:79:87:b9:73:
                    3c:97:a8:f5:35:5a:8b:85:03:54:c4:04:6d:22:bc:
                    33:17:5c:ba:a6:15:b4:f6:33:d9:4e:41:b3:29:e1:
                    7e:6c:76:fc:3c:c7:a8:39:a9:70:05:c9:e2:f3:b9:
                    b5:c5
                Exponent: 65537 (0x10001)
        X509v3 extensions:
            X509v3 Basic Constraints: 
                CA:FALSE
            X509v3 Subject Key Identifier: 
                56:56:73:83:71:12:9F:F8:A9:8F:21:F3:7E:13:2D:E8:A6:B0:EF:65
            X509v3 Authority Key Identifier: 
                keyid:C6:0B:F3:D9:6E:42:D4:F7:C7:AC:8A:F1:41:C6:63:F3:77:E4:3A:50
                DirName:/CN=team101-net
                serial:3F:80:C7:5F:41:45:42:B7:84:D3:DC:FC:FC:85:8D:47:B2:37:5E:0E

            X509v3 Extended Key Usage: 
                TLS Web Server Authentication
            X509v3 Key Usage: 
                Digital Signature, Key Encipherment
            X509v3 Subject Alternative Name: 
                DNS:team101-server
    Signature Algorithm: sha256WithRSAEncryption
         9e:49:8c:f8:db:5f:60:9b:40:68:cc:1e:11:87:ff:7e:de:42:
         f6:17:bd:09:ee:3b:87:88:fb:96:4c:a7:d0:e6:2b:48:e0:c6:
         4b:c0:64:54:51:00:f4:17:c2:70:45:29:48:09:fc:b0:3d:5c:
         21:d1:a5:5c:6c:32:49:4f:ed:e8:6f:0a:f5:ce:e8:b8:8a:c5:
         de:bc:14:22:c9:16:57:55:b7:5d:24:b1:13:b5:5e:3a:a1:60:
         6f:31:74:dd:84:38:43:68:02:d8:a2:fd:c5:eb:70:92:e2:54:
         1e:aa:3a:2a:c4:52:eb:08:a7:96:a4:d4:0a:34:f2:55:e7:68:
         af:61:18:e2:15:87:f2:7b:c6:c6:11:00:03:c7:84:6f:fc:5c:
         44:b9:7a:84:75:24:cb:2c:ea:f0:9a:bc:e9:fd:29:7a:b3:12:
         37:de:b8:d4:12:0c:cb:a5:c5:30:fd:1f:d5:ad:24:bf:54:9d:
         00:4d:0e:e7:e1:6a:08:11:da:aa:39:45:9f:bc:21:0c:f9:d5:
         85:49:96:85:06:5f:e1:81:4d:09:9a:d6:21:da:f8:83:a9:43:
         6b:f7:9b:26:97:d4:67:df:f8:b5:77:29:d3:9b:a4:52:6e:14:
         43:75:ea:b3:1f:6f:ff:44:47:cd:97:44:a6:a2:1b:f2:bb:e1:
         6a:d9:21:1a
-----BEGIN CERTIFICATE-----
MIIDeDCCAmCgAwIBAgIRANX9WoBIdvW9JKVmdJfh3wUwDQYJKoZIhvcNAQELBQAw
FjEUMBIGA1UEAwwLdGVhbTEwMS1uZXQwHhcNMjMwODE0MTQyNDE3WhcNMjYwNzI5
MTQyNDE3WjAZMRcwFQYDVQQDDA50ZWFtMTAxLXNlcnZlcjCCASIwDQYJKoZIhvcN
AQEBBQADggEPADCCAQoCggEBALI147PEMcYXWq/TKt3k3VB20GXjrcHWjRgbZTnF
4YOIN2suK0MYvZBmy5SCgicycyVEvxsFKovHqSFdK0xEfIun/USHEtdO42VefK+j
HdQV+JffoiSb9qgvStn1SzsJihakh48fJiVdvBAgEfmI6ZTa5KEHmVrU2cVqq0HS
38iIw5MIuBxbOepq/Gee1TvXHTfpUVoHo2voiG8TL3KleEgV85scXRAMEhlKhih7
dLdWum5MjN2/S4rcJSbEOeOdTo+wBAh3bwYScY3eVfN5h7lzPJeo9TVai4UDVMQE
bSK8MxdcuqYVtPYz2U5Bsynhfmx2/DzHqDmpcAXJ4vO5tcUCAwEAAaOBvTCBujAJ
BgNVHRMEAjAAMB0GA1UdDgQWBBRWVnODcRKf+KmPIfN+Ey3oprDvZTBRBgNVHSME
SjBIgBTGC/PZbkLU98esivFBxmPzd+Q6UKEapBgwFjEUMBIGA1UEAwwLdGVhbTEw
MS1uZXSCFD+Ax19BRUK3hNPc/PyFjUeyN14OMBMGA1UdJQQMMAoGCCsGAQUFBwMB
MAsGA1UdDwQEAwIFoDAZBgNVHREEEjAQgg50ZWFtMTAxLXNlcnZlcjANBgkqhkiG
9w0BAQsFAAOCAQEAnkmM+NtfYJtAaMweEYf/ft5C9he9Ce47h4j7lkyn0OYrSODG
S8BkVFEA9BfCcEUpSAn8sD1cIdGlXGwySU/t6G8K9c7ouIrF3rwUIskWV1W3XSSx
E7VeOqFgbzF03YQ4Q2gC2KL9xetwkuJUHqo6KsRS6winlqTUCjTyVedor2EY4hWH
8nvGxhEAA8eEb/xcRLl6hHUkyyzq8Jq86f0perMSN9641BIMy6XFMP0f1a0kv1Sd
AE0O5+FqCBHaqjlFn7whDPnVhUmWhQZf4YFNCZrWIdr4g6lDa/ebJpfUZ9/4tXcp
05ukUm4UQ3Xqsx9v/0RHzZdEpqIb8rvhatkhGg==
-----END CERTIFICATE-----
