Certificate:
    Data:
        Version: 3 (0x2)
        Serial Number:
            09:8a:9c:28:12:53:cd:8f:e7:45:4f:7c:91:22:bd:14
        Signature Algorithm: sha256WithRSAEncryption
        Issuer: CN=team161-net
        Validity
            Not Before: Aug 14 14:25:37 2023 GMT
            Not After : Jul 29 14:25:37 2026 GMT
        Subject: CN=team161-server
        Subject Public Key Info:
            Public Key Algorithm: rsaEncryption
                RSA Public-Key: (2048 bit)
                Modulus:
                    00:ee:52:b0:d4:96:ea:f9:dd:15:e6:e8:72:aa:c3:
                    11:af:de:25:18:fb:d9:96:53:6b:a3:a2:ec:31:5a:
                    75:42:60:87:9a:3b:49:b4:21:4d:b6:71:3d:29:02:
                    55:65:c2:51:58:18:b1:52:98:f1:a6:70:85:0b:1f:
                    13:ad:8e:03:1d:80:b7:64:f4:59:ad:13:aa:6c:9e:
                    0c:0b:95:a6:cb:fb:8a:3a:73:39:22:2f:d1:d0:7d:
                    64:d1:c9:e8:9d:f3:75:ae:31:0f:2b:c1:3b:1f:c2:
                    59:93:8f:e8:bc:ed:33:65:73:e8:be:dd:ed:9e:a3:
                    a4:e2:a6:8f:a5:0f:02:46:54:a4:70:57:d9:e6:12:
                    f9:b3:36:7d:06:6f:57:9b:71:e7:4b:84:78:c2:68:
                    b5:52:d2:1a:e2:a7:94:ec:0a:8e:1a:cc:2d:95:f0:
                    90:f2:a3:a4:ec:2d:37:ee:3f:68:d1:f3:31:b6:9b:
                    24:de:9d:b2:c5:65:e6:8a:95:30:b5:57:ca:0f:e5:
                    56:37:4c:81:fb:b5:d4:20:c2:c7:3f:e4:fd:98:d4:
                    75:c5:39:7f:15:77:92:9b:a7:45:2b:9a:99:fb:2c:
                    17:4c:11:ae:ea:d3:c6:eb:c5:a4:b3:ad:9c:de:67:
                    a6:bc:84:0c:c1:15:9f:ec:98:99:f1:0f:87:ed:ce:
                    42:35
                Exponent: 65537 (0x10001)
        X509v3 extensions:
            X509v3 Basic Constraints: 
                CA:FALSE
            X509v3 Subject Key Identifier: 
                53:4E:4E:94:D5:97:60:F1:07:F3:3F:8E:3B:42:B0:B8:E1:2D:6D:AB
            X509v3 Authority Key Identifier: 
                keyid:CF:22:A2:8F:53:3A:BA:51:3A:7C:4A:84:82:7C:5F:EB:18:0A:47:84
                DirName:/CN=team161-net
                serial:11:4F:76:3E:93:1A:01:B5:17:F5:2D:7B:80:85:D1:B1:F6:21:24:80

            X509v3 Extended Key Usage: 
                TLS Web Server Authentication
            X509v3 Key Usage: 
                Digital Signature, Key Encipherment
            X509v3 Subject Alternative Name: 
                DNS:team161-server
    Signature Algorithm: sha256WithRSAEncryption
         ad:18:41:61:a0:91:ba:67:19:ea:78:c4:a1:6a:d2:e7:79:a9:
         fc:e6:df:46:0d:33:a1:9d:d2:33:40:a1:18:9e:26:8e:28:b0:
         a9:fc:b1:5b:03:a1:73:95:8b:6b:cb:d8:4b:6f:26:8c:91:86:
         bb:df:31:ce:23:0d:71:bc:3c:4a:6f:ee:31:83:3b:73:3e:4c:
         e0:dc:2c:81:2c:1e:79:cf:e3:29:9f:c3:16:20:58:ae:71:f1:
         af:3c:3b:46:12:9a:22:6f:4a:eb:d4:8f:54:7c:1b:a6:a9:b3:
         fa:49:0a:c0:a6:61:56:0c:7c:35:7a:36:7e:60:75:ac:16:d3:
         fe:01:42:73:b4:61:7a:97:ef:73:10:48:ab:db:3f:88:53:13:
         09:4a:6e:37:28:34:1f:07:81:0d:18:30:98:3d:ad:9d:67:c3:
         65:99:39:8c:54:84:20:00:e2:39:86:23:93:c0:8d:65:b1:46:
         56:59:2b:b3:a2:f9:4a:0b:a7:5f:6b:17:bd:92:ea:69:1d:8f:
         a3:32:c1:9d:df:44:31:7d:b2:92:b4:16:e6:ab:dc:02:f6:e3:
         9f:df:23:f0:f3:a6:44:ee:7d:b4:ad:cc:70:56:f0:44:b3:b1:
         ee:48:97:f9:c8:ee:01:1d:d9:90:bf:70:0b:bc:38:f6:f9:47:
         28:cb:6a:e9
-----BEGIN CERTIFICATE-----
MIIDdzCCAl+gAwIBAgIQCYqcKBJTzY/nRU98kSK9FDANBgkqhkiG9w0BAQsFADAW
MRQwEgYDVQQDDAt0ZWFtMTYxLW5ldDAeFw0yMzA4MTQxNDI1MzdaFw0yNjA3Mjkx
NDI1MzdaMBkxFzAVBgNVBAMMDnRlYW0xNjEtc2VydmVyMIIBIjANBgkqhkiG9w0B
AQEFAAOCAQ8AMIIBCgKCAQEA7lKw1Jbq+d0V5uhyqsMRr94lGPvZllNro6LsMVp1
QmCHmjtJtCFNtnE9KQJVZcJRWBixUpjxpnCFCx8TrY4DHYC3ZPRZrROqbJ4MC5Wm
y/uKOnM5Ii/R0H1k0cnonfN1rjEPK8E7H8JZk4/ovO0zZXPovt3tnqOk4qaPpQ8C
RlSkcFfZ5hL5szZ9Bm9Xm3HnS4R4wmi1UtIa4qeU7AqOGswtlfCQ8qOk7C037j9o
0fMxtpsk3p2yxWXmipUwtVfKD+VWN0yB+7XUIMLHP+T9mNR1xTl/FXeSm6dFK5qZ
+ywXTBGu6tPG68Wks62c3memvIQMwRWf7JiZ8Q+H7c5CNQIDAQABo4G9MIG6MAkG
A1UdEwQCMAAwHQYDVR0OBBYEFFNOTpTVl2DxB/M/jjtCsLjhLW2rMFEGA1UdIwRK
MEiAFM8ioo9TOrpROnxKhIJ8X+sYCkeEoRqkGDAWMRQwEgYDVQQDDAt0ZWFtMTYx
LW5ldIIUEU92PpMaAbUX9S17gIXRsfYhJIAwEwYDVR0lBAwwCgYIKwYBBQUHAwEw
CwYDVR0PBAQDAgWgMBkGA1UdEQQSMBCCDnRlYW0xNjEtc2VydmVyMA0GCSqGSIb3
DQEBCwUAA4IBAQCtGEFhoJG6ZxnqeMShatLnean85t9GDTOhndIzQKEYniaOKLCp
/LFbA6FzlYtry9hLbyaMkYa73zHOIw1xvDxKb+4xgztzPkzg3CyBLB55z+Mpn8MW
IFiucfGvPDtGEpoib0rr1I9UfBumqbP6SQrApmFWDHw1ejZ+YHWsFtP+AUJztGF6
l+9zEEir2z+IUxMJSm43KDQfB4ENGDCYPa2dZ8NlmTmMVIQgAOI5hiOTwI1lsUZW
WSuzovlKC6dfaxe9kuppHY+jMsGd30QxfbKStBbmq9wC9uOf3yPw86ZE7n20rcxw
VvBEs7HuSJf5yO4BHdmQv3ALvDj2+Ucoy2rp
-----END CERTIFICATE-----
