Certificate:
    Data:
        Version: 3 (0x2)
        Serial Number:
            29:ba:bc:19:8a:3f:04:cb:8e:4b:30:91:98:fb:95:48
        Signature Algorithm: sha256WithRSAEncryption
        Issuer: CN=team161-net
        Validity
            Not Before: Aug 14 14:25:36 2023 GMT
            Not After : Jul 29 14:25:36 2026 GMT
        Subject: CN=team161-client
        Subject Public Key Info:
            Public Key Algorithm: rsaEncryption
                RSA Public-Key: (2048 bit)
                Modulus:
                    00:a9:ef:1d:ce:8b:b8:b6:e5:46:68:ee:0a:59:3c:
                    31:da:6c:7d:96:fe:01:3e:69:20:a5:5e:0d:13:65:
                    e9:09:4d:d9:b7:ab:72:42:3d:30:5e:8c:9d:7e:a3:
                    34:8c:82:34:92:96:7a:d7:5d:4e:26:26:51:4e:d0:
                    35:d8:ae:c6:d9:27:16:43:56:11:e0:4f:ce:e2:65:
                    46:25:4a:7a:b2:22:1c:b1:8f:39:f2:9f:8b:79:f0:
                    01:40:70:55:7d:97:69:99:e0:07:78:8b:78:32:5c:
                    df:be:18:71:77:1a:86:d0:9e:01:4d:b2:70:dd:31:
                    f1:38:9a:18:fb:85:0f:03:24:9b:a2:48:e5:37:e7:
                    54:73:55:a2:40:16:11:e4:6d:3b:85:c1:8e:63:64:
                    b6:f6:a5:4e:c7:9e:14:12:f2:17:0b:16:a6:d6:40:
                    28:9d:fb:83:db:e4:06:ca:18:35:79:30:10:d3:3f:
                    7a:8b:9e:84:61:cf:9b:13:06:9d:ed:61:90:6d:8e:
                    6a:d9:a3:f8:c1:de:4e:4c:97:c2:19:6a:73:71:ac:
                    af:2a:cf:32:56:fb:45:6e:ae:9c:75:92:dd:ed:7e:
                    8c:68:d2:c8:9e:56:4e:93:34:02:21:7d:c7:4a:9a:
                    ee:cc:0d:7d:ea:83:fd:39:2d:39:3e:c0:04:93:09:
                    a7:65
                Exponent: 65537 (0x10001)
        X509v3 extensions:
            X509v3 Basic Constraints: 
                CA:FALSE
            X509v3 Subject Key Identifier: 
                84:A1:61:F3:07:C6:7C:0B:5C:7B:E1:67:08:BE:74:AE:D5:86:8C:64
            X509v3 Authority Key Identifier: 
                keyid:CF:22:A2:8F:53:3A:BA:51:3A:7C:4A:84:82:7C:5F:EB:18:0A:47:84
                DirName:/CN=team161-net
                serial:11:4F:76:3E:93:1A:01:B5:17:F5:2D:7B:80:85:D1:B1:F6:21:24:80

            X509v3 Extended Key Usage: 
                TLS Web Client Authentication
            X509v3 Key Usage: 
                Digital Signature
    Signature Algorithm: sha256WithRSAEncryption
         12:15:f9:c0:24:0c:fc:ea:56:18:8f:c0:9d:36:fa:5f:f1:4a:
         75:16:0b:00:13:85:49:3a:2f:90:0c:49:0a:2e:ad:4b:6f:22:
         0d:16:b8:46:2f:9c:cb:44:eb:43:09:7e:ad:e4:18:7f:c9:cc:
         84:ed:4e:47:28:9a:4a:60:fb:9d:43:df:21:1a:f8:11:a4:c9:
         f5:64:df:b3:91:43:71:ee:ce:fc:fb:3e:25:a8:26:9b:95:68:
         cf:42:39:cb:65:78:11:d7:38:95:d5:a3:6d:93:d8:5e:8f:ca:
         16:5d:f5:3c:91:5e:cd:a7:49:6c:8d:e7:05:0a:76:db:dd:7e:
         35:93:b5:6a:77:e9:7e:44:f9:a7:d5:cc:92:ee:0d:2d:9d:5e:
         5c:c0:02:e2:fd:5d:63:17:f8:4e:e9:46:41:67:eb:b1:47:36:
         3e:dd:0f:be:7a:63:b1:27:db:3b:c1:d5:63:0b:17:e3:cb:48:
         ee:e6:bf:a5:93:85:f6:e8:b9:df:02:47:e3:5a:90:9f:f1:19:
         38:3f:d6:e7:fb:e3:ee:dc:4b:8c:2e:9f:6d:7f:2d:04:d0:42:
         37:4c:73:02:1f:d6:2c:14:e9:c0:f7:0e:36:51:b8:48:60:19:
         b8:8c:5f:09:4e:32:6c:87:14:ed:36:c0:41:dd:87:c7:24:ed:
         25:c2:5c:64
-----BEGIN CERTIFICATE-----
MIIDXDCCAkSgAwIBAgIQKbq8GYo/BMuOSzCRmPuVSDANBgkqhkiG9w0BAQsFADAW
MRQwEgYDVQQDDAt0ZWFtMTYxLW5ldDAeFw0yMzA4MTQxNDI1MzZaFw0yNjA3Mjkx
NDI1MzZaMBkxFzAVBgNVBAMMDnRlYW0xNjEtY2xpZW50MIIBIjANBgkqhkiG9w0B
AQEFAAOCAQ8AMIIBCgKCAQEAqe8dzou4tuVGaO4KWTwx2mx9lv4BPmkgpV4NE2Xp
CU3Zt6tyQj0wXoydfqM0jII0kpZ6111OJiZRTtA12K7G2ScWQ1YR4E/O4mVGJUp6
siIcsY858p+LefABQHBVfZdpmeAHeIt4MlzfvhhxdxqG0J4BTbJw3THxOJoY+4UP
AySbokjlN+dUc1WiQBYR5G07hcGOY2S29qVOx54UEvIXCxam1kAonfuD2+QGyhg1
eTAQ0z96i56EYc+bEwad7WGQbY5q2aP4wd5OTJfCGWpzcayvKs8yVvtFbq6cdZLd
7X6MaNLInlZOkzQCIX3HSpruzA196oP9OS05PsAEkwmnZQIDAQABo4GiMIGfMAkG
A1UdEwQCMAAwHQYDVR0OBBYEFIShYfMHxnwLXHvhZwi+dK7VhoxkMFEGA1UdIwRK
MEiAFM8ioo9TOrpROnxKhIJ8X+sYCkeEoRqkGDAWMRQwEgYDVQQDDAt0ZWFtMTYx
LW5ldIIUEU92PpMaAbUX9S17gIXRsfYhJIAwEwYDVR0lBAwwCgYIKwYBBQUHAwIw
CwYDVR0PBAQDAgeAMA0GCSqGSIb3DQEBCwUAA4IBAQASFfnAJAz86lYYj8CdNvpf
8Up1FgsAE4VJOi+QDEkKLq1LbyINFrhGL5zLROtDCX6t5Bh/ycyE7U5HKJpKYPud
Q98hGvgRpMn1ZN+zkUNx7s78+z4lqCablWjPQjnLZXgR1ziV1aNtk9hej8oWXfU8
kV7Np0lsjecFCnbb3X41k7Vqd+l+RPmn1cyS7g0tnV5cwALi/V1jF/hO6UZBZ+ux
RzY+3Q++emOxJ9s7wdVjCxfjy0ju5r+lk4X26LnfAkfjWpCf8Rk4P9bn++Pu3EuM
Lp9tfy0E0EI3THMCH9YsFOnA9w42UbhIYBm4jF8JTjJshxTtNsBB3YfHJO0lwlxk
-----END CERTIFICATE-----
