Certificate:
    Data:
        Version: 3 (0x2)
        Serial Number:
            af:47:37:bb:7f:a3:e1:81:4f:5b:b4:74:1d:a7:26:93
        Signature Algorithm: sha256WithRSAEncryption
        Issuer: CN=team257-net
        Validity
            Not Before: Aug 14 14:27:29 2023 GMT
            Not After : Jul 29 14:27:29 2026 GMT
        Subject: CN=team257-server
        Subject Public Key Info:
            Public Key Algorithm: rsaEncryption
                RSA Public-Key: (2048 bit)
                Modulus:
                    00:c1:28:d5:75:9a:74:02:b5:03:b9:75:92:b5:d7:
                    d3:0a:7a:07:51:25:6e:0d:a2:b5:c8:85:dd:3b:cf:
                    81:b1:f8:40:0e:27:b0:2a:35:89:2c:3e:9e:5c:a9:
                    a1:28:23:77:88:d5:a2:a5:52:12:c6:e7:03:eb:cf:
                    ea:fd:ba:65:90:1b:ec:26:60:13:1a:e7:67:85:ec:
                    d1:69:b5:c3:e5:ce:78:e5:42:d0:12:28:1d:dc:1e:
                    7a:f4:75:81:dc:7c:35:22:a9:63:5f:9b:e5:a8:bd:
                    8c:94:26:1a:c2:3a:f7:67:fd:fa:d6:9c:f6:a7:53:
                    22:1f:a0:e0:ef:e8:d7:60:fa:81:19:58:93:26:bf:
                    61:f6:1f:22:9e:43:46:fd:f4:c2:74:be:8f:aa:5c:
                    6d:a9:29:4c:f3:39:af:c1:2b:cf:40:46:4b:b5:d4:
                    89:ec:01:66:9f:88:93:6e:49:42:85:43:b5:a7:10:
                    df:b6:9e:ed:68:be:11:f9:62:f9:e0:57:8c:58:ba:
                    7d:0e:60:89:d5:d0:3c:95:1d:91:cb:89:01:c6:a4:
                    05:b0:fc:08:ae:b7:e9:17:0d:af:57:70:da:f7:3e:
                    79:59:cd:2d:bc:58:5b:1a:d7:ba:df:2f:02:1d:44:
                    91:cd:d4:c5:87:bb:ac:86:a3:b2:e2:bb:bd:cd:d1:
                    b8:37
                Exponent: 65537 (0x10001)
        X509v3 extensions:
            X509v3 Basic Constraints: 
                CA:FALSE
            X509v3 Subject Key Identifier: 
                42:92:9A:5E:E8:D4:07:C2:27:1A:C4:B2:0F:4C:05:24:D0:A7:3F:CC
            X509v3 Authority Key Identifier: 
                keyid:C3:51:D3:27:F7:73:9B:FA:0C:C5:AA:1D:CF:BC:7D:A2:97:17:F1:84
                DirName:/CN=team257-net
                serial:5F:B2:1D:AC:26:2F:30:AF:6F:2E:7C:DB:DF:95:3A:7A:E8:D9:FD:78

            X509v3 Extended Key Usage: 
                TLS Web Server Authentication
            X509v3 Key Usage: 
                Digital Signature, Key Encipherment
            X509v3 Subject Alternative Name: 
                DNS:team257-server
    Signature Algorithm: sha256WithRSAEncryption
         68:0e:f4:0f:65:cd:a6:9d:f0:e5:f0:f2:26:d9:49:50:85:20:
         ff:ee:c8:54:59:3d:50:7d:b0:4f:e9:23:c8:e2:35:46:de:cb:
         4f:16:c7:15:c6:c6:d6:c6:fe:00:36:d1:9e:fc:70:75:d6:83:
         2a:e5:11:e9:17:ea:a6:de:e1:6d:fd:2e:22:16:5b:0f:90:01:
         b2:76:58:c2:22:9e:be:52:8a:50:a7:5d:f4:4e:40:0c:05:f5:
         6b:cc:39:97:a4:a4:03:ce:f6:f8:6c:26:4b:d0:b8:3b:07:49:
         f0:15:05:49:dd:80:7b:ee:54:4c:07:93:ee:34:21:b1:69:05:
         39:42:ff:29:a0:23:4d:f3:5d:c0:3f:ec:ad:02:bf:59:66:7d:
         55:3d:2e:87:3d:71:e7:95:16:ba:f2:b6:92:66:fd:b2:3b:30:
         a4:01:55:1f:45:9c:4c:d5:83:88:be:60:3d:49:fb:87:3c:7e:
         87:3f:e4:aa:18:0e:57:62:ca:71:5d:39:4f:e1:13:10:9a:8e:
         32:8c:68:c5:b6:7a:ca:17:ab:e4:00:18:37:51:66:31:94:4a:
         6d:e9:99:b4:3e:67:12:96:2e:78:e0:66:4a:84:85:60:5b:5c:
         28:f5:10:dd:d9:54:da:e8:c0:84:ec:a2:6a:40:69:8e:9a:28:
         b9:bb:b1:c3
-----BEGIN CERTIFICATE-----
MIIDeDCCAmCgAwIBAgIRAK9HN7t/o+GBT1u0dB2nJpMwDQYJKoZIhvcNAQELBQAw
FjEUMBIGA1UEAwwLdGVhbTI1Ny1uZXQwHhcNMjMwODE0MTQyNzI5WhcNMjYwNzI5
MTQyNzI5WjAZMRcwFQYDVQQDDA50ZWFtMjU3LXNlcnZlcjCCASIwDQYJKoZIhvcN
AQEBBQADggEPADCCAQoCggEBAMEo1XWadAK1A7l1krXX0wp6B1Elbg2itciF3TvP
gbH4QA4nsCo1iSw+nlypoSgjd4jVoqVSEsbnA+vP6v26ZZAb7CZgExrnZ4Xs0Wm1
w+XOeOVC0BIoHdweevR1gdx8NSKpY1+b5ai9jJQmGsI692f9+tac9qdTIh+g4O/o
12D6gRlYkya/YfYfIp5DRv30wnS+j6pcbakpTPM5r8Erz0BGS7XUiewBZp+Ik25J
QoVDtacQ37ae7Wi+Efli+eBXjFi6fQ5gidXQPJUdkcuJAcakBbD8CK636RcNr1dw
2vc+eVnNLbxYWxrXut8vAh1Ekc3UxYe7rIajsuK7vc3RuDcCAwEAAaOBvTCBujAJ
BgNVHRMEAjAAMB0GA1UdDgQWBBRCkppe6NQHwicaxLIPTAUk0Kc/zDBRBgNVHSME
SjBIgBTDUdMn93Ob+gzFqh3PvH2ilxfxhKEapBgwFjEUMBIGA1UEAwwLdGVhbTI1
Ny1uZXSCFF+yHawmLzCvby5829+VOnro2f14MBMGA1UdJQQMMAoGCCsGAQUFBwMB
MAsGA1UdDwQEAwIFoDAZBgNVHREEEjAQgg50ZWFtMjU3LXNlcnZlcjANBgkqhkiG
9w0BAQsFAAOCAQEAaA70D2XNpp3w5fDyJtlJUIUg/+7IVFk9UH2wT+kjyOI1Rt7L
TxbHFcbG1sb+ADbRnvxwddaDKuUR6Rfqpt7hbf0uIhZbD5ABsnZYwiKevlKKUKdd
9E5ADAX1a8w5l6SkA872+GwmS9C4OwdJ8BUFSd2Ae+5UTAeT7jQhsWkFOUL/KaAj
TfNdwD/srQK/WWZ9VT0uhz1x55UWuvK2kmb9sjswpAFVH0WcTNWDiL5gPUn7hzx+
hz/kqhgOV2LKcV05T+ETEJqOMoxoxbZ6yher5AAYN1FmMZRKbemZtD5nEpYueOBm
SoSFYFtcKPUQ3dlU2ujAhOyiakBpjpooubuxww==
-----END CERTIFICATE-----
