Certificate:
    Data:
        Version: 3 (0x2)
        Serial Number:
            40:d9:ce:a9:88:71:6f:76:87:53:a7:f1:d8:28:9c:a0
        Signature Algorithm: sha256WithRSAEncryption
        Issuer: CN=team234-net
        Validity
            Not Before: Aug 14 14:27:02 2023 GMT
            Not After : Jul 29 14:27:02 2026 GMT
        Subject: CN=team234-server
        Subject Public Key Info:
            Public Key Algorithm: rsaEncryption
                RSA Public-Key: (2048 bit)
                Modulus:
                    00:d5:38:6f:b2:31:69:0d:0e:c5:48:2f:20:9c:e9:
                    c4:9e:5d:74:16:77:05:23:a8:6d:9d:a6:30:ed:0b:
                    87:75:e0:f6:6f:42:d0:35:d2:f6:0c:7c:e6:93:b8:
                    af:87:fb:50:84:3f:60:f1:1a:97:78:1e:b7:3c:73:
                    8b:28:a2:b9:2a:b7:4d:c5:c8:fb:2e:b5:07:9e:ea:
                    57:33:ed:f2:dd:ee:d0:d8:1b:1a:6e:8e:28:37:0e:
                    7c:a1:47:4c:f1:9f:b2:87:91:39:df:61:c7:f5:01:
                    4f:dc:15:a2:66:f2:b1:be:19:8b:f2:f4:5c:3c:d3:
                    a9:01:6c:cb:16:ab:4c:56:22:24:24:cc:af:10:74:
                    13:9d:70:dc:ba:59:13:f7:16:ba:79:8d:50:3e:ad:
                    1f:37:1b:f3:7e:56:4d:1d:85:22:e0:d3:b3:59:67:
                    76:88:cb:a5:87:7d:32:81:01:b1:c2:bd:96:b3:88:
                    49:7c:8f:3f:b7:6f:dd:18:a4:6a:61:d2:e7:32:9c:
                    fe:cd:b1:73:a9:f8:68:e0:af:95:66:12:b9:86:57:
                    ff:43:45:74:41:7e:69:b6:07:be:8e:67:88:69:2a:
                    03:6f:3c:dd:d3:5c:fa:31:ce:45:58:42:fb:19:ce:
                    f3:76:04:42:03:7e:79:ea:f5:89:8e:e5:4c:67:3e:
                    80:03
                Exponent: 65537 (0x10001)
        X509v3 extensions:
            X509v3 Basic Constraints: 
                CA:FALSE
            X509v3 Subject Key Identifier: 
                50:3E:B6:E8:17:77:3E:14:B7:8C:62:EC:B6:0E:33:B4:FB:FF:33:68
            X509v3 Authority Key Identifier: 
                keyid:AE:43:0F:9E:B0:64:99:ED:0B:62:01:56:90:4D:28:60:77:8D:2F:74
                DirName:/CN=team234-net
                serial:5D:F6:4A:3C:20:1D:0D:57:A5:06:22:45:C2:22:4D:11:05:7C:9A:3C

            X509v3 Extended Key Usage: 
                TLS Web Server Authentication
            X509v3 Key Usage: 
                Digital Signature, Key Encipherment
            X509v3 Subject Alternative Name: 
                DNS:team234-server
    Signature Algorithm: sha256WithRSAEncryption
         0e:0a:6b:66:67:82:c6:fe:88:c9:84:1f:63:4a:72:2d:94:f3:
         08:c0:da:2b:42:a3:68:b2:8c:c3:dc:de:8d:ab:02:6b:69:1c:
         1c:ea:e9:9d:f5:60:13:8c:ea:8a:e2:55:41:a8:6f:17:47:90:
         0c:ca:00:b1:61:45:c4:82:b1:17:14:4d:64:13:dd:98:8d:72:
         3d:83:62:34:33:88:3f:52:72:79:6c:38:90:7e:4c:e6:c3:eb:
         4d:f1:e5:89:35:53:d1:a5:5d:76:d5:42:75:91:9c:99:5f:33:
         eb:32:97:12:ed:d2:7c:a0:18:82:1f:fb:68:97:14:f6:5e:0c:
         f6:c3:5c:5a:0a:74:c4:19:ed:43:63:a7:b7:37:80:31:58:9e:
         ee:4b:e2:06:87:d8:bb:c8:f1:1b:14:f2:29:66:f1:7b:86:e2:
         9c:ca:db:d0:91:fe:3a:72:d5:97:79:cb:d7:3f:47:92:15:23:
         be:94:8d:0b:4d:2e:63:08:16:03:0b:3f:00:19:bc:69:7d:3a:
         74:3f:18:07:59:c1:f5:50:b2:1e:f4:17:a7:d9:7c:34:1b:bc:
         c2:bb:f8:58:e5:a6:f9:a2:0c:c0:8e:05:7c:ea:10:91:10:61:
         01:f8:4b:d7:2e:c4:aa:3d:fa:52:f1:bf:ee:b4:15:b3:00:6e:
         fa:7e:a3:b2
-----BEGIN CERTIFICATE-----
MIIDdzCCAl+gAwIBAgIQQNnOqYhxb3aHU6fx2CicoDANBgkqhkiG9w0BAQsFADAW
MRQwEgYDVQQDDAt0ZWFtMjM0LW5ldDAeFw0yMzA4MTQxNDI3MDJaFw0yNjA3Mjkx
NDI3MDJaMBkxFzAVBgNVBAMMDnRlYW0yMzQtc2VydmVyMIIBIjANBgkqhkiG9w0B
AQEFAAOCAQ8AMIIBCgKCAQEA1ThvsjFpDQ7FSC8gnOnEnl10FncFI6htnaYw7QuH
deD2b0LQNdL2DHzmk7ivh/tQhD9g8RqXeB63PHOLKKK5KrdNxcj7LrUHnupXM+3y
3e7Q2Bsabo4oNw58oUdM8Z+yh5E532HH9QFP3BWiZvKxvhmL8vRcPNOpAWzLFqtM
ViIkJMyvEHQTnXDculkT9xa6eY1QPq0fNxvzflZNHYUi4NOzWWd2iMulh30ygQGx
wr2Ws4hJfI8/t2/dGKRqYdLnMpz+zbFzqfho4K+VZhK5hlf/Q0V0QX5ptge+jmeI
aSoDbzzd01z6Mc5FWEL7Gc7zdgRCA3556vWJjuVMZz6AAwIDAQABo4G9MIG6MAkG
A1UdEwQCMAAwHQYDVR0OBBYEFFA+tugXdz4Ut4xi7LYOM7T7/zNoMFEGA1UdIwRK
MEiAFK5DD56wZJntC2IBVpBNKGB3jS90oRqkGDAWMRQwEgYDVQQDDAt0ZWFtMjM0
LW5ldIIUXfZKPCAdDVelBiJFwiJNEQV8mjwwEwYDVR0lBAwwCgYIKwYBBQUHAwEw
CwYDVR0PBAQDAgWgMBkGA1UdEQQSMBCCDnRlYW0yMzQtc2VydmVyMA0GCSqGSIb3
DQEBCwUAA4IBAQAOCmtmZ4LG/ojJhB9jSnItlPMIwNorQqNosozD3N6NqwJraRwc
6umd9WATjOqK4lVBqG8XR5AMygCxYUXEgrEXFE1kE92YjXI9g2I0M4g/UnJ5bDiQ
fkzmw+tN8eWJNVPRpV121UJ1kZyZXzPrMpcS7dJ8oBiCH/tolxT2Xgz2w1xaCnTE
Ge1DY6e3N4AxWJ7uS+IGh9i7yPEbFPIpZvF7huKcytvQkf46ctWXecvXP0eSFSO+
lI0LTS5jCBYDCz8AGbxpfTp0PxgHWcH1ULIe9Ben2Xw0G7zCu/hY5ab5ogzAjgV8
6hCREGEB+EvXLsSqPfpS8b/utBWzAG76fqOy
-----END CERTIFICATE-----
