Certificate:
    Data:
        Version: 3 (0x2)
        Serial Number:
            72:18:96:51:a0:6e:3a:58:4b:7d:0f:56:81:b9:c9:11
        Signature Algorithm: sha256WithRSAEncryption
        Issuer: CN=team263-net
        Validity
            Not Before: Aug 14 14:27:37 2023 GMT
            Not After : Jul 29 14:27:37 2026 GMT
        Subject: CN=team263-client
        Subject Public Key Info:
            Public Key Algorithm: rsaEncryption
                RSA Public-Key: (2048 bit)
                Modulus:
                    00:d4:4b:ea:ce:82:17:57:f6:0d:16:b0:c5:ad:c6:
                    49:2e:fd:9d:17:e5:cf:e9:f3:ab:7f:50:a6:4f:7e:
                    c0:9d:80:24:be:d8:2c:aa:6f:9b:80:57:94:cb:f6:
                    4b:f9:68:1c:a6:2e:4f:4d:8e:45:e4:17:67:6a:f9:
                    47:35:93:76:51:a1:1c:50:4e:c8:76:95:f1:a6:0c:
                    fc:01:41:01:ae:1d:18:df:c5:3a:5d:77:76:34:24:
                    7a:d6:21:c0:8e:61:1f:b9:ab:c3:4e:6e:53:0d:4a:
                    52:e6:56:07:20:51:37:b3:ae:86:ce:23:4d:34:4d:
                    5a:f5:f4:a5:99:26:b8:ae:c7:b2:d4:04:ed:99:9b:
                    28:13:13:d7:bb:ea:55:e3:b4:5c:ef:4e:e4:e2:f9:
                    49:c6:2d:07:ba:1c:ca:17:f8:8f:0e:42:cb:da:d1:
                    ff:7c:40:77:1b:7f:d1:c7:2b:e8:1c:dd:d0:4a:57:
                    dd:93:92:16:ea:99:b9:31:b0:ad:ac:e8:63:1e:c6:
                    d0:11:65:31:92:52:5b:82:0d:dd:b3:86:30:15:03:
                    cf:53:a7:24:45:7a:fd:9d:96:ff:2d:4a:a2:94:fe:
                    33:95:91:f8:02:bf:b7:94:7f:79:ce:dc:d5:54:5e:
                    b8:b6:c7:f7:11:7e:36:ee:06:12:50:47:a8:95:34:
                    6e:f7
                Exponent: 65537 (0x10001)
        X509v3 extensions:
            X509v3 Basic Constraints: 
                CA:FALSE
            X509v3 Subject Key Identifier: 
                0C:3B:A1:20:85:AB:D2:E9:29:F9:26:30:E2:0B:4A:5A:15:BA:DC:CA
            X509v3 Authority Key Identifier: 
                keyid:F8:53:D7:AD:87:24:59:4F:47:9F:EB:51:7D:76:F5:D2:27:B4:A7:78
                DirName:/CN=team263-net
                serial:75:54:DF:A3:BC:77:07:01:AF:FB:37:C9:3C:BB:C1:84:D8:9D:37:44

            X509v3 Extended Key Usage: 
                TLS Web Client Authentication
            X509v3 Key Usage: 
                Digital Signature
    Signature Algorithm: sha256WithRSAEncryption
         a9:fe:66:16:1c:74:51:9b:24:64:f3:f3:52:72:df:fd:65:37:
         9b:5f:43:cf:9c:63:c3:28:5c:29:e1:37:73:89:a4:f7:38:f0:
         61:d8:3a:cd:3f:fc:11:91:80:8a:31:f8:c6:a2:fb:1d:a2:ee:
         42:c3:df:22:96:0a:3a:41:b5:fe:98:ee:f9:23:44:44:7e:e2:
         a8:30:13:96:b9:57:37:cc:59:11:e4:f7:9d:9a:dd:a6:ac:d2:
         e6:87:a1:cd:c4:1d:35:82:3f:85:d0:ae:bf:72:b7:43:f2:18:
         b0:b4:ba:68:20:b7:41:20:84:bb:84:6e:6e:81:41:d3:b8:af:
         d5:d4:02:4e:44:79:fd:e2:b4:45:cb:03:39:d9:cc:cd:36:bd:
         8a:3f:da:99:98:e1:70:33:3e:0f:68:43:ea:94:cf:ad:51:3b:
         ea:1e:b4:94:bd:1c:c7:f9:0d:77:db:f5:d1:04:c3:56:05:f9:
         65:06:92:05:f0:b2:d3:18:58:41:95:ed:c3:09:02:fc:86:e0:
         6a:dd:23:70:27:46:1a:1e:b2:04:9e:88:1d:2e:00:5f:d2:05:
         72:22:fb:3d:a0:67:6b:c8:42:21:d9:89:8b:35:7a:b5:d8:c2:
         eb:f7:17:ac:7c:3f:5f:69:bb:f0:93:d0:f9:46:11:38:57:d5:
         41:d9:21:89
-----BEGIN CERTIFICATE-----
MIIDXDCCAkSgAwIBAgIQchiWUaBuOlhLfQ9WgbnJETANBgkqhkiG9w0BAQsFADAW
MRQwEgYDVQQDDAt0ZWFtMjYzLW5ldDAeFw0yMzA4MTQxNDI3MzdaFw0yNjA3Mjkx
NDI3MzdaMBkxFzAVBgNVBAMMDnRlYW0yNjMtY2xpZW50MIIBIjANBgkqhkiG9w0B
AQEFAAOCAQ8AMIIBCgKCAQEA1EvqzoIXV/YNFrDFrcZJLv2dF+XP6fOrf1CmT37A
nYAkvtgsqm+bgFeUy/ZL+Wgcpi5PTY5F5BdnavlHNZN2UaEcUE7IdpXxpgz8AUEB
rh0Y38U6XXd2NCR61iHAjmEfuavDTm5TDUpS5lYHIFE3s66GziNNNE1a9fSlmSa4
rsey1ATtmZsoExPXu+pV47Rc707k4vlJxi0HuhzKF/iPDkLL2tH/fEB3G3/Rxyvo
HN3QSlfdk5IW6pm5MbCtrOhjHsbQEWUxklJbgg3ds4YwFQPPU6ckRXr9nZb/LUqi
lP4zlZH4Ar+3lH95ztzVVF64tsf3EX427gYSUEeolTRu9wIDAQABo4GiMIGfMAkG
A1UdEwQCMAAwHQYDVR0OBBYEFAw7oSCFq9LpKfkmMOILSloVutzKMFEGA1UdIwRK
MEiAFPhT162HJFlPR5/rUX129dIntKd4oRqkGDAWMRQwEgYDVQQDDAt0ZWFtMjYz
LW5ldIIUdVTfo7x3BwGv+zfJPLvBhNidN0QwEwYDVR0lBAwwCgYIKwYBBQUHAwIw
CwYDVR0PBAQDAgeAMA0GCSqGSIb3DQEBCwUAA4IBAQCp/mYWHHRRmyRk8/NSct/9
ZTebX0PPnGPDKFwp4TdziaT3OPBh2DrNP/wRkYCKMfjGovsdou5Cw98ilgo6QbX+
mO75I0REfuKoMBOWuVc3zFkR5Pedmt2mrNLmh6HNxB01gj+F0K6/crdD8hiwtLpo
ILdBIIS7hG5ugUHTuK/V1AJORHn94rRFywM52czNNr2KP9qZmOFwMz4PaEPqlM+t
UTvqHrSUvRzH+Q132/XRBMNWBfllBpIF8LLTGFhBle3DCQL8huBq3SNwJ0YaHrIE
nogdLgBf0gVyIvs9oGdryEIh2YmLNXq12MLr9xesfD9fabvwk9D5RhE4V9VB2SGJ
-----END CERTIFICATE-----
