Certificate:
    Data:
        Version: 3 (0x2)
        Serial Number:
            96:89:9d:d9:6f:79:41:3d:3e:ef:68:24:75:b3:63:77
        Signature Algorithm: sha256WithRSAEncryption
        Issuer: CN=team73-net
        Validity
            Not Before: Aug 14 14:23:41 2023 GMT
            Not After : Jul 29 14:23:41 2026 GMT
        Subject: CN=team73-client
        Subject Public Key Info:
            Public Key Algorithm: rsaEncryption
                RSA Public-Key: (2048 bit)
                Modulus:
                    00:d5:38:10:9a:f0:77:bb:5f:25:af:76:22:82:96:
                    67:13:c7:3a:fd:61:83:d2:27:25:6c:a0:97:02:dd:
                    9a:0a:36:f3:fe:8b:12:7a:5f:70:d4:11:fe:c5:14:
                    1a:ba:c8:96:67:fa:51:fe:58:8c:92:86:ae:94:b8:
                    6e:d8:3d:a2:84:c4:98:f5:22:b7:ff:ee:91:7c:48:
                    bb:c2:4d:cc:3e:51:6f:35:04:e2:c9:29:a0:65:f0:
                    1e:25:24:ce:93:3f:c3:8e:4d:a1:01:61:73:e2:18:
                    32:29:1b:cf:cf:26:38:0a:15:64:5a:ff:85:54:73:
                    17:2a:b8:c0:1d:8c:4f:32:2a:48:48:43:5b:f2:13:
                    34:aa:f6:bd:54:d7:8a:6d:e1:40:c3:e3:57:88:c2:
                    52:85:b7:0b:73:e1:57:69:90:5c:bd:d1:b4:c9:61:
                    78:d5:a2:92:c8:0f:7c:fd:a3:99:bc:61:a7:73:77:
                    f0:07:1b:4f:3b:88:67:95:22:00:53:f8:df:ad:6a:
                    f4:82:ee:b9:4d:2e:4c:01:a2:5e:2c:08:e3:9b:69:
                    fe:e9:d3:a0:4f:fc:eb:09:86:18:a2:c9:a3:1c:7b:
                    11:12:f8:81:71:40:56:bb:8d:cc:71:92:f4:bd:b5:
                    e8:e1:b0:34:40:8b:58:de:50:87:00:5c:30:88:42:
                    68:95
                Exponent: 65537 (0x10001)
        X509v3 extensions:
            X509v3 Basic Constraints: 
                CA:FALSE
            X509v3 Subject Key Identifier: 
                4C:45:5C:C1:BA:FA:F7:2A:E9:E6:5D:F1:2A:ED:7D:EE:47:6C:20:81
            X509v3 Authority Key Identifier: 
                keyid:58:62:16:9B:04:D5:CD:40:B5:2F:17:9C:42:66:DC:E3:E0:05:3D:65
                DirName:/CN=team73-net
                serial:7B:BF:E0:34:B1:9F:23:F5:36:8E:3D:4A:51:89:80:28:80:15:77:34

            X509v3 Extended Key Usage: 
                TLS Web Client Authentication
            X509v3 Key Usage: 
                Digital Signature
    Signature Algorithm: sha256WithRSAEncryption
         19:be:4d:dd:61:41:33:7f:b8:31:45:dd:74:32:17:99:ff:8c:
         f6:5c:f1:a4:65:b5:31:df:b2:c6:76:c5:38:aa:d6:f7:9f:be:
         9a:03:4b:86:47:04:f5:2d:88:0c:55:21:88:67:af:f4:e7:12:
         0d:8f:c0:df:18:f9:3e:cf:20:43:15:f2:97:06:22:0a:05:f8:
         b2:5e:35:c2:69:02:11:4a:fb:44:7d:25:40:41:36:39:1c:a1:
         dd:21:33:d3:0d:6c:7c:1b:9a:94:2d:b1:dd:0a:6f:37:25:83:
         e8:41:c3:ed:e3:34:8d:64:d2:c7:67:86:42:1f:c5:8a:1b:c9:
         39:02:be:85:10:d4:d4:0f:72:2d:20:04:03:eb:f2:8c:85:99:
         6e:7c:00:93:2d:3f:69:de:9b:dc:dc:37:e9:ae:0f:b1:44:63:
         3f:38:cf:be:b3:67:ff:e2:ec:70:7e:7d:08:f3:79:16:5d:9c:
         e6:f6:b9:ff:95:25:a5:af:83:b1:21:a4:d8:93:e9:35:5d:18:
         7a:c6:c3:7e:77:8c:d2:16:27:b7:fa:89:78:39:4b:f5:53:11:
         51:59:f9:06:29:46:0e:dd:1b:d6:b0:c9:c9:50:31:86:fe:dd:
         a8:c2:d8:fc:1b:07:11:da:ed:a1:ee:09:4e:37:e9:46:62:f7:
         4e:39:31:c7
-----BEGIN CERTIFICATE-----
MIIDWjCCAkKgAwIBAgIRAJaJndlveUE9Pu9oJHWzY3cwDQYJKoZIhvcNAQELBQAw
FTETMBEGA1UEAwwKdGVhbTczLW5ldDAeFw0yMzA4MTQxNDIzNDFaFw0yNjA3Mjkx
NDIzNDFaMBgxFjAUBgNVBAMMDXRlYW03My1jbGllbnQwggEiMA0GCSqGSIb3DQEB
AQUAA4IBDwAwggEKAoIBAQDVOBCa8He7XyWvdiKClmcTxzr9YYPSJyVsoJcC3ZoK
NvP+ixJ6X3DUEf7FFBq6yJZn+lH+WIyShq6UuG7YPaKExJj1Irf/7pF8SLvCTcw+
UW81BOLJKaBl8B4lJM6TP8OOTaEBYXPiGDIpG8/PJjgKFWRa/4VUcxcquMAdjE8y
KkhIQ1vyEzSq9r1U14pt4UDD41eIwlKFtwtz4VdpkFy90bTJYXjVopLID3z9o5m8
Yadzd/AHG087iGeVIgBT+N+tavSC7rlNLkwBol4sCOObaf7p06BP/OsJhhiiyaMc
exES+IFxQFa7jcxxkvS9tejhsDRAi1jeUIcAXDCIQmiVAgMBAAGjgaEwgZ4wCQYD
VR0TBAIwADAdBgNVHQ4EFgQUTEVcwbr69yrp5l3xKu197kdsIIEwUAYDVR0jBEkw
R4AUWGIWmwTVzUC1LxecQmbc4+AFPWWhGaQXMBUxEzARBgNVBAMMCnRlYW03My1u
ZXSCFHu/4DSxnyP1No49SlGJgCiAFXc0MBMGA1UdJQQMMAoGCCsGAQUFBwMCMAsG
A1UdDwQEAwIHgDANBgkqhkiG9w0BAQsFAAOCAQEAGb5N3WFBM3+4MUXddDIXmf+M
9lzxpGW1Md+yxnbFOKrW95++mgNLhkcE9S2IDFUhiGev9OcSDY/A3xj5Ps8gQxXy
lwYiCgX4sl41wmkCEUr7RH0lQEE2ORyh3SEz0w1sfBualC2x3QpvNyWD6EHD7eM0
jWTSx2eGQh/FihvJOQK+hRDU1A9yLSAEA+vyjIWZbnwAky0/ad6b3Nw36a4PsURj
PzjPvrNn/+LscH59CPN5Fl2c5va5/5Ulpa+DsSGk2JPpNV0YesbDfneM0hYnt/qJ
eDlL9VMRUVn5BilGDt0b1rDJyVAxhv7dqMLY/BsHEdrtoe4JTjfpRmL3Tjkxxw==
-----END CERTIFICATE-----
