Certificate:
    Data:
        Version: 3 (0x2)
        Serial Number:
            f4:46:d9:90:9e:7e:21:e6:0d:53:31:2b:1c:b1:65:43
        Signature Algorithm: sha256WithRSAEncryption
        Issuer: CN=team93-net
        Validity
            Not Before: Aug 14 14:24:06 2023 GMT
            Not After : Jul 29 14:24:06 2026 GMT
        Subject: CN=team93-client
        Subject Public Key Info:
            Public Key Algorithm: rsaEncryption
                RSA Public-Key: (2048 bit)
                Modulus:
                    00:d6:3e:2b:29:f0:84:b1:74:2d:36:a3:56:65:11:
                    0f:de:9e:2f:43:9e:94:2a:0f:a5:7f:b7:c9:45:86:
                    a4:02:0e:55:8a:36:23:db:d5:80:d3:28:52:50:3a:
                    9f:2d:ff:d9:b1:f2:fa:7d:4e:01:5c:87:db:0e:56:
                    64:87:6a:ca:1c:07:a1:f7:dc:48:80:40:31:5c:ed:
                    63:c2:b5:09:4b:22:55:15:b4:4f:4e:2d:d4:e8:eb:
                    74:bd:6c:d2:e8:0d:f7:80:1f:df:c1:07:5b:c6:6a:
                    61:de:80:7d:d0:43:3b:7e:5e:69:d6:af:f6:58:c5:
                    23:b1:ac:19:6e:a5:6b:ee:67:0d:0a:63:4a:ab:b0:
                    ec:bf:44:d3:90:55:0c:cb:84:8f:92:0d:8f:bc:d0:
                    7e:24:34:d3:fb:6d:3c:63:27:d0:1d:7e:57:f4:ff:
                    c5:b4:34:81:ac:28:fb:10:53:5a:31:55:3a:65:a7:
                    e7:4e:f8:db:4b:c2:d9:05:6c:51:14:dc:0b:f0:5f:
                    d0:cf:37:a3:30:13:b2:13:8c:72:17:eb:13:ae:ff:
                    d4:b2:b3:ea:cc:ca:67:1a:22:53:4a:69:14:42:ca:
                    31:0f:d4:34:ea:b8:18:96:dc:14:96:83:5a:cc:8d:
                    c9:54:e5:45:12:97:b8:0f:4a:d5:0c:3c:14:7c:a4:
                    2f:1b
                Exponent: 65537 (0x10001)
        X509v3 extensions:
            X509v3 Basic Constraints: 
                CA:FALSE
            X509v3 Subject Key Identifier: 
                E1:A2:55:AB:95:CD:8F:B3:96:4C:17:48:72:58:31:E4:A2:F2:83:2F
            X509v3 Authority Key Identifier: 
                keyid:54:92:F2:3C:AB:E9:6B:54:F6:EB:FF:45:50:79:AE:EA:9F:3C:70:6A
                DirName:/CN=team93-net
                serial:17:DB:7A:64:5C:EF:86:DF:A7:77:59:5F:ED:09:20:6C:D5:75:B4:FF

            X509v3 Extended Key Usage: 
                TLS Web Client Authentication
            X509v3 Key Usage: 
                Digital Signature
    Signature Algorithm: sha256WithRSAEncryption
         0b:1c:b2:f5:2c:e2:91:1a:3d:5f:b7:8a:4a:d7:47:56:71:bf:
         04:53:2d:e8:57:a9:73:da:ec:7b:1c:e2:a6:7c:c8:0d:f5:2d:
         7e:22:ae:f9:41:68:03:b7:ca:10:f9:72:6d:16:0f:b3:3e:c2:
         dc:d8:6c:f6:31:21:55:9a:bb:cb:17:b0:36:60:45:b8:83:0d:
         75:40:e6:56:f3:38:44:5c:7d:df:df:a1:66:80:cd:c5:94:24:
         68:49:76:3c:d2:ad:57:92:df:43:0e:7b:77:a2:37:e1:8f:be:
         ce:50:e8:7c:89:bd:7a:8e:8e:6d:37:b5:c9:68:ec:3b:b2:99:
         00:18:ea:fe:69:89:68:e0:dc:b4:a8:d2:32:b3:59:92:12:79:
         7f:28:50:53:eb:05:74:44:f8:b2:b2:6f:96:f5:27:6d:50:66:
         de:0a:63:44:49:fb:b8:6b:50:f5:22:cb:8f:e6:09:c0:d0:d9:
         9a:11:bc:c6:9c:72:83:70:68:41:5a:b3:a8:e0:ed:74:31:fe:
         bd:4c:ca:76:1d:07:df:12:d7:7d:b5:96:00:8f:3d:73:ff:5a:
         e9:fc:69:a3:dc:1b:77:19:c3:97:7e:ac:d0:f6:c7:97:8d:46:
         12:ec:e7:ee:a1:49:5c:1b:aa:cc:51:11:79:15:97:f8:55:dc:
         04:0b:b8:20
-----BEGIN CERTIFICATE-----
MIIDWjCCAkKgAwIBAgIRAPRG2ZCefiHmDVMxKxyxZUMwDQYJKoZIhvcNAQELBQAw
FTETMBEGA1UEAwwKdGVhbTkzLW5ldDAeFw0yMzA4MTQxNDI0MDZaFw0yNjA3Mjkx
NDI0MDZaMBgxFjAUBgNVBAMMDXRlYW05My1jbGllbnQwggEiMA0GCSqGSIb3DQEB
AQUAA4IBDwAwggEKAoIBAQDWPisp8ISxdC02o1ZlEQ/eni9DnpQqD6V/t8lFhqQC
DlWKNiPb1YDTKFJQOp8t/9mx8vp9TgFch9sOVmSHasocB6H33EiAQDFc7WPCtQlL
IlUVtE9OLdTo63S9bNLoDfeAH9/BB1vGamHegH3QQzt+XmnWr/ZYxSOxrBlupWvu
Zw0KY0qrsOy/RNOQVQzLhI+SDY+80H4kNNP7bTxjJ9Adflf0/8W0NIGsKPsQU1ox
VTplp+dO+NtLwtkFbFEU3AvwX9DPN6MwE7ITjHIX6xOu/9Sys+rMymcaIlNKaRRC
yjEP1DTquBiW3BSWg1rMjclU5UUSl7gPStUMPBR8pC8bAgMBAAGjgaEwgZ4wCQYD
VR0TBAIwADAdBgNVHQ4EFgQU4aJVq5XNj7OWTBdIclgx5KLygy8wUAYDVR0jBEkw
R4AUVJLyPKvpa1T26/9FUHmu6p88cGqhGaQXMBUxEzARBgNVBAMMCnRlYW05My1u
ZXSCFBfbemRc74bfp3dZX+0JIGzVdbT/MBMGA1UdJQQMMAoGCCsGAQUFBwMCMAsG
A1UdDwQEAwIHgDANBgkqhkiG9w0BAQsFAAOCAQEACxyy9SzikRo9X7eKStdHVnG/
BFMt6Fepc9rsexzipnzIDfUtfiKu+UFoA7fKEPlybRYPsz7C3Nhs9jEhVZq7yxew
NmBFuIMNdUDmVvM4RFx939+hZoDNxZQkaEl2PNKtV5LfQw57d6I34Y++zlDofIm9
eo6ObTe1yWjsO7KZABjq/mmJaODctKjSMrNZkhJ5fyhQU+sFdET4srJvlvUnbVBm
3gpjREn7uGtQ9SLLj+YJwNDZmhG8xpxyg3BoQVqzqODtdDH+vUzKdh0H3xLXfbWW
AI89c/9a6fxpo9wbdxnDl36s0PbHl41GEuzn7qFJXBuqzFEReRWX+FXcBAu4IA==
-----END CERTIFICATE-----
