Certificate:
    Data:
        Version: 3 (0x2)
        Serial Number:
            06:78:cc:29:bb:85:09:1f:a6:a9:d5:90:aa:36:73:70
        Signature Algorithm: sha256WithRSAEncryption
        Issuer: CN=team7-net
        Validity
            Not Before: Aug 14 14:22:12 2023 GMT
            Not After : Jul 29 14:22:12 2026 GMT
        Subject: CN=team7-server
        Subject Public Key Info:
            Public Key Algorithm: rsaEncryption
                RSA Public-Key: (2048 bit)
                Modulus:
                    00:d5:b9:f9:92:df:73:17:91:29:c1:43:90:b4:e7:
                    dd:7d:70:db:75:00:aa:90:09:b5:e7:29:df:ce:68:
                    e3:22:af:66:67:4b:37:e3:85:7c:90:69:8b:b3:dd:
                    98:26:0e:9d:e1:cc:52:da:1b:ae:b9:2f:71:17:2d:
                    01:d4:ae:21:ae:4d:b0:7e:68:ed:a1:e5:33:94:e2:
                    9a:cf:e9:8a:ad:c0:e0:2b:e6:0c:0b:37:ae:ca:8e:
                    bf:46:b9:f1:8e:bb:bb:56:b1:78:67:1b:3c:96:4c:
                    df:06:34:d8:91:99:e6:ed:da:55:df:12:b5:bb:17:
                    24:a3:4d:34:a0:ee:87:3f:32:46:cd:0e:e8:3b:8b:
                    98:16:d0:b7:90:6b:5c:7b:67:1e:29:8a:74:e1:15:
                    87:d3:04:b4:53:74:b1:43:65:8c:f7:4c:b8:db:a9:
                    af:a0:a3:30:ba:b4:f9:27:ae:2c:8a:16:2a:d6:1c:
                    0f:d9:64:d3:18:4f:0b:05:22:f2:b7:55:ea:de:b3:
                    be:0a:15:5e:2a:66:2f:e2:c4:59:76:f6:68:73:f9:
                    da:88:83:91:2e:05:1f:00:8d:39:ad:71:66:f5:36:
                    70:53:18:9a:39:26:66:ac:5e:51:a0:d8:55:05:2b:
                    58:6e:3f:d4:90:53:07:f4:4b:21:7f:84:46:52:7d:
                    69:a9
                Exponent: 65537 (0x10001)
        X509v3 extensions:
            X509v3 Basic Constraints: 
                CA:FALSE
            X509v3 Subject Key Identifier: 
                65:92:BC:1C:F2:52:B2:9E:E8:47:58:C3:63:ED:58:88:2E:D5:6F:56
            X509v3 Authority Key Identifier: 
                keyid:4C:A0:B8:96:52:61:83:A0:AA:C9:2B:E3:9B:59:B3:22:13:AC:90:3B
                DirName:/CN=team7-net
                serial:4F:B5:1D:9E:F9:CD:3D:C6:37:9F:10:CE:19:1B:A2:F7:C1:DB:6B:6D

            X509v3 Extended Key Usage: 
                TLS Web Server Authentication
            X509v3 Key Usage: 
                Digital Signature, Key Encipherment
            X509v3 Subject Alternative Name: 
                DNS:team7-server
    Signature Algorithm: sha256WithRSAEncryption
         ca:e3:0b:b9:38:73:30:0f:30:95:be:d8:21:0c:91:03:fb:d2:
         07:0f:90:2b:da:05:30:4d:92:8c:5f:0b:5e:a6:46:e7:3a:7d:
         00:07:59:30:fd:02:f4:ea:ba:fc:78:bb:60:ed:04:4c:b9:a1:
         e0:bc:64:af:27:53:0d:32:ff:2f:65:0c:fc:38:d3:63:b8:61:
         d4:df:27:ea:f6:00:17:21:72:de:75:14:ba:f5:56:92:08:40:
         5b:a4:83:b8:6a:ef:5d:ff:e2:40:bf:10:78:2f:8b:73:df:44:
         4e:81:ff:d4:c0:81:b1:5b:40:f4:0a:6d:05:7d:ed:68:52:f4:
         44:1b:2d:ff:d7:60:38:68:6f:ce:fc:c5:48:8a:78:e0:de:0b:
         13:5e:2e:ba:ea:c4:54:8f:83:23:75:5a:73:b6:96:d3:6c:ff:
         52:61:89:7c:d0:f5:90:d7:12:b9:9e:ad:48:96:79:da:bd:6b:
         64:aa:72:c4:5f:b1:16:ef:97:96:fc:c2:ff:01:07:5d:53:3e:
         42:bc:8c:13:89:18:48:d5:25:5c:15:5d:fa:f4:76:20:7b:34:
         de:c7:90:d2:83:53:8c:83:33:02:74:91:5b:f6:bc:82:5b:08:
         35:39:37:28:99:93:e8:31:56:29:58:d1:43:55:a9:85:aa:96:
         bd:ed:a5:12
-----BEGIN CERTIFICATE-----
MIIDbzCCAlegAwIBAgIQBnjMKbuFCR+mqdWQqjZzcDANBgkqhkiG9w0BAQsFADAU
MRIwEAYDVQQDDAl0ZWFtNy1uZXQwHhcNMjMwODE0MTQyMjEyWhcNMjYwNzI5MTQy
MjEyWjAXMRUwEwYDVQQDDAx0ZWFtNy1zZXJ2ZXIwggEiMA0GCSqGSIb3DQEBAQUA
A4IBDwAwggEKAoIBAQDVufmS33MXkSnBQ5C05919cNt1AKqQCbXnKd/OaOMir2Zn
SzfjhXyQaYuz3ZgmDp3hzFLaG665L3EXLQHUriGuTbB+aO2h5TOU4prP6YqtwOAr
5gwLN67Kjr9GufGOu7tWsXhnGzyWTN8GNNiRmebt2lXfErW7FySjTTSg7oc/MkbN
Dug7i5gW0LeQa1x7Zx4pinThFYfTBLRTdLFDZYz3TLjbqa+gozC6tPknriyKFirW
HA/ZZNMYTwsFIvK3Veres74KFV4qZi/ixFl29mhz+dqIg5EuBR8AjTmtcWb1NnBT
GJo5JmasXlGg2FUFK1huP9SQUwf0SyF/hEZSfWmpAgMBAAGjgbkwgbYwCQYDVR0T
BAIwADAdBgNVHQ4EFgQUZZK8HPJSsp7oR1jDY+1YiC7Vb1YwTwYDVR0jBEgwRoAU
TKC4llJhg6CqySvjm1mzIhOskDuhGKQWMBQxEjAQBgNVBAMMCXRlYW03LW5ldIIU
T7UdnvnNPcY3nxDOGRui98Hba20wEwYDVR0lBAwwCgYIKwYBBQUHAwEwCwYDVR0P
BAQDAgWgMBcGA1UdEQQQMA6CDHRlYW03LXNlcnZlcjANBgkqhkiG9w0BAQsFAAOC
AQEAyuMLuThzMA8wlb7YIQyRA/vSBw+QK9oFME2SjF8LXqZG5zp9AAdZMP0C9Oq6
/Hi7YO0ETLmh4LxkrydTDTL/L2UM/DjTY7hh1N8n6vYAFyFy3nUUuvVWkghAW6SD
uGrvXf/iQL8QeC+Lc99EToH/1MCBsVtA9AptBX3taFL0RBst/9dgOGhvzvzFSIp4
4N4LE14uuurEVI+DI3Vac7aW02z/UmGJfND1kNcSuZ6tSJZ52r1rZKpyxF+xFu+X
lvzC/wEHXVM+QryME4kYSNUlXBVd+vR2IHs03seQ0oNTjIMzAnSRW/a8glsINTk3
KJmT6DFWKVjRQ1WphaqWve2lEg==
-----END CERTIFICATE-----
