Certificate:
    Data:
        Version: 3 (0x2)
        Serial Number:
            78:63:62:3c:90:f0:f1:1e:22:5b:d5:a0:48:d5:45:aa
        Signature Algorithm: sha256WithRSAEncryption
        Issuer: CN=team289-net
        Validity
            Not Before: Aug 14 14:28:11 2023 GMT
            Not After : Jul 29 14:28:11 2026 GMT
        Subject: CN=team289-server
        Subject Public Key Info:
            Public Key Algorithm: rsaEncryption
                RSA Public-Key: (2048 bit)
                Modulus:
                    00:a7:89:ab:2a:3b:52:87:a2:37:83:bd:ce:22:8e:
                    a4:ef:e3:6c:63:c1:df:19:0b:13:c3:2e:3a:9f:47:
                    81:76:e0:07:04:61:52:a2:1a:69:8f:d3:10:d5:5b:
                    a7:60:bc:42:8b:b4:7c:77:87:02:1b:66:ff:b5:3e:
                    a3:b4:75:be:cc:96:6f:20:6a:fd:e5:d7:de:7a:e0:
                    66:d5:75:90:f8:20:d4:df:d2:2e:cd:81:97:59:22:
                    4f:55:a7:78:ab:5d:4f:e0:34:1e:58:76:be:9d:5f:
                    0f:c4:c5:7c:5f:09:6b:4f:dd:b2:0b:8b:fc:f8:10:
                    2d:41:4a:75:99:d1:07:b2:78:ea:5c:11:de:aa:6f:
                    06:a2:b0:30:5d:fd:9a:be:be:bb:c9:1e:de:73:e9:
                    56:a4:3b:77:e5:c5:18:b6:ec:51:c2:d1:e6:5b:ba:
                    44:a3:97:bf:0a:03:c5:58:d6:e7:a9:52:9b:4f:ed:
                    e1:c6:dc:36:f9:20:e5:83:2a:c6:9e:1f:66:6c:26:
                    fa:8b:eb:31:bf:43:f7:18:82:1b:11:70:eb:55:4c:
                    61:c8:92:5d:af:da:41:8c:e4:77:3c:21:e2:b2:c6:
                    f7:36:31:53:a7:69:8f:b7:5b:12:84:e8:b0:99:fd:
                    a2:6e:8a:57:3b:bf:11:91:b4:d7:07:fe:25:f3:99:
                    52:cb
                Exponent: 65537 (0x10001)
        X509v3 extensions:
            X509v3 Basic Constraints: 
                CA:FALSE
            X509v3 Subject Key Identifier: 
                91:FA:1F:8E:5A:23:B0:55:2A:9A:37:D4:47:40:F0:4E:7F:DB:E5:32
            X509v3 Authority Key Identifier: 
                keyid:97:98:F2:74:57:FE:D0:55:35:32:07:E4:3C:EA:4A:26:03:4F:31:BA
                DirName:/CN=team289-net
                serial:13:DE:CA:9D:D0:1A:AE:F7:00:29:88:B0:03:A3:3C:D0:AC:7D:11:6A

            X509v3 Extended Key Usage: 
                TLS Web Server Authentication
            X509v3 Key Usage: 
                Digital Signature, Key Encipherment
            X509v3 Subject Alternative Name: 
                DNS:team289-server
    Signature Algorithm: sha256WithRSAEncryption
         1b:67:e7:79:9c:6f:dd:4f:19:7e:60:91:5e:4e:1a:36:e7:a6:
         0d:39:6c:8f:c0:93:3d:fb:cd:0e:f3:0a:90:63:33:f2:66:09:
         3b:3e:d4:89:90:b5:2f:05:69:1b:7a:d4:db:51:3f:a4:8f:44:
         9e:79:58:82:51:a6:a4:c8:e1:db:99:51:3c:0a:2f:8a:88:d9:
         a6:4c:d2:64:e7:04:c4:4c:96:80:cc:4d:a4:45:88:5e:43:c1:
         ef:b7:f2:cb:07:b0:7c:6f:2d:57:cf:05:f6:33:55:d0:5e:8e:
         9b:9b:d5:59:01:15:da:71:4d:fb:89:12:f2:0b:8b:76:a2:0d:
         9b:23:ba:7c:4a:64:71:32:75:af:b8:70:23:ed:89:5d:2d:7f:
         df:5c:50:0f:9e:d6:50:a2:04:cb:6a:ff:7f:3a:0a:d9:c9:17:
         67:f5:56:a9:ba:4e:6b:bc:a8:52:42:3d:73:8a:00:17:6c:2d:
         50:0d:e5:5f:75:d0:ef:ad:17:a9:3f:b1:35:d1:32:4d:6d:c4:
         05:03:96:28:6b:47:5b:67:06:ad:45:f2:94:ea:28:d1:57:59:
         c9:ab:dd:99:eb:c1:76:f6:b4:a7:69:34:b0:6f:a4:f4:24:4b:
         4e:cb:09:77:0c:d6:d4:90:40:d9:54:c2:a7:ec:24:ad:99:9b:
         3d:25:55:d9
-----BEGIN CERTIFICATE-----
MIIDdzCCAl+gAwIBAgIQeGNiPJDw8R4iW9WgSNVFqjANBgkqhkiG9w0BAQsFADAW
MRQwEgYDVQQDDAt0ZWFtMjg5LW5ldDAeFw0yMzA4MTQxNDI4MTFaFw0yNjA3Mjkx
NDI4MTFaMBkxFzAVBgNVBAMMDnRlYW0yODktc2VydmVyMIIBIjANBgkqhkiG9w0B
AQEFAAOCAQ8AMIIBCgKCAQEAp4mrKjtSh6I3g73OIo6k7+NsY8HfGQsTwy46n0eB
duAHBGFSohppj9MQ1VunYLxCi7R8d4cCG2b/tT6jtHW+zJZvIGr95dfeeuBm1XWQ
+CDU39IuzYGXWSJPVad4q11P4DQeWHa+nV8PxMV8XwlrT92yC4v8+BAtQUp1mdEH
snjqXBHeqm8GorAwXf2avr67yR7ec+lWpDt35cUYtuxRwtHmW7pEo5e/CgPFWNbn
qVKbT+3hxtw2+SDlgyrGnh9mbCb6i+sxv0P3GIIbEXDrVUxhyJJdr9pBjOR3PCHi
ssb3NjFTp2mPt1sShOiwmf2ibopXO78RkbTXB/4l85lSywIDAQABo4G9MIG6MAkG
A1UdEwQCMAAwHQYDVR0OBBYEFJH6H45aI7BVKpo31EdA8E5/2+UyMFEGA1UdIwRK
MEiAFJeY8nRX/tBVNTIH5DzqSiYDTzG6oRqkGDAWMRQwEgYDVQQDDAt0ZWFtMjg5
LW5ldIIUE97KndAarvcAKYiwA6M80Kx9EWowEwYDVR0lBAwwCgYIKwYBBQUHAwEw
CwYDVR0PBAQDAgWgMBkGA1UdEQQSMBCCDnRlYW0yODktc2VydmVyMA0GCSqGSIb3
DQEBCwUAA4IBAQAbZ+d5nG/dTxl+YJFeTho256YNOWyPwJM9+80O8wqQYzPyZgk7
PtSJkLUvBWkbetTbUT+kj0SeeViCUaakyOHbmVE8Ci+KiNmmTNJk5wTETJaAzE2k
RYheQ8Hvt/LLB7B8by1XzwX2M1XQXo6bm9VZARXacU37iRLyC4t2og2bI7p8SmRx
MnWvuHAj7YldLX/fXFAPntZQogTLav9/OgrZyRdn9Vapuk5rvKhSQj1zigAXbC1Q
DeVfddDvrRepP7E10TJNbcQFA5Yoa0dbZwatRfKU6ijRV1nJq92Z68F29rSnaTSw
b6T0JEtOywl3DNbUkEDZVMKn7CStmZs9JVXZ
-----END CERTIFICATE-----
