Certificate:
    Data:
        Version: 3 (0x2)
        Serial Number:
            e3:ea:c1:8e:73:7c:b0:fd:1e:4a:1e:f2:26:ad:e5:2b
        Signature Algorithm: sha256WithRSAEncryption
        Issuer: CN=team5-net
        Validity
            Not Before: Aug 14 14:22:09 2023 GMT
            Not After : Jul 29 14:22:09 2026 GMT
        Subject: CN=team5-client
        Subject Public Key Info:
            Public Key Algorithm: rsaEncryption
                RSA Public-Key: (2048 bit)
                Modulus:
                    00:bd:84:b0:85:09:ce:54:2f:0f:52:2a:f7:6d:01:
                    55:fa:48:c2:9f:a1:a6:ee:c2:6d:95:51:5e:3d:62:
                    c1:3b:37:59:8f:4a:73:6a:da:df:78:92:36:41:41:
                    b5:77:24:ab:23:57:a0:e5:0b:f9:0c:d9:63:2c:fc:
                    2e:0c:3a:88:09:3c:dc:fc:77:94:c6:58:db:99:6c:
                    e0:89:70:c6:3a:8f:a4:d7:8f:6f:bd:f2:68:de:99:
                    34:74:0f:04:7b:a9:80:98:54:48:5c:be:c5:b3:d1:
                    bc:dc:09:e1:66:45:15:43:68:21:e9:77:c5:38:68:
                    c7:40:15:f6:54:e8:cd:65:5a:42:38:2c:a1:16:98:
                    84:5f:1e:9e:ed:5c:cd:e3:0e:bc:18:13:da:32:c7:
                    a2:d6:35:f7:e6:a2:16:0e:45:e2:8a:50:c4:a2:12:
                    83:d7:4f:dd:6f:ab:bc:e2:d3:06:7b:52:8b:1d:ad:
                    aa:fa:72:84:0c:4b:c7:c1:98:41:ef:1f:09:91:97:
                    44:9f:8d:52:08:54:f2:f7:8a:55:84:d5:6f:8b:9b:
                    bf:89:7c:d4:41:fa:f2:9c:b5:2c:f7:67:f3:61:d6:
                    da:df:ab:a3:6b:30:33:ee:f3:af:42:12:ff:6d:f1:
                    12:04:6e:d2:60:06:0d:79:30:4f:f5:30:21:de:6d:
                    1d:5f
                Exponent: 65537 (0x10001)
        X509v3 extensions:
            X509v3 Basic Constraints: 
                CA:FALSE
            X509v3 Subject Key Identifier: 
                10:BD:CF:C6:9E:E5:FC:A5:12:4E:66:7C:06:4C:00:F1:03:5A:DC:12
            X509v3 Authority Key Identifier: 
                keyid:D6:0C:ED:2B:8D:F1:8B:C2:DE:A6:61:D8:D8:11:9A:48:D1:2A:86:5F
                DirName:/CN=team5-net
                serial:53:43:74:47:BD:84:F5:2C:18:D8:A5:5A:24:79:7C:C7:D3:B0:BC:98

            X509v3 Extended Key Usage: 
                TLS Web Client Authentication
            X509v3 Key Usage: 
                Digital Signature
    Signature Algorithm: sha256WithRSAEncryption
         1e:89:ef:19:6e:dd:73:d3:48:45:e1:30:69:31:be:5d:2d:28:
         de:16:e5:6c:a6:b6:be:33:57:6b:e3:c8:65:45:3d:31:fe:2a:
         5d:de:2b:90:74:39:e5:b9:7e:92:77:e5:9d:d0:95:d7:ba:5b:
         0f:d7:2c:cc:d9:32:90:10:72:77:1d:5a:cd:56:42:16:da:48:
         24:23:fe:9c:54:14:be:fb:65:0f:c4:16:b7:f6:49:ad:2b:57:
         61:b7:c4:4d:cc:2c:62:2b:4a:13:a8:22:c2:78:5a:17:4b:7f:
         6f:4d:23:a3:7d:a3:b3:32:e7:24:57:dd:f3:a3:03:14:7b:dd:
         39:1e:b7:0a:2c:df:4e:64:c9:99:a8:fc:87:c4:43:d7:40:a7:
         75:6a:bb:db:0a:e7:4a:7c:50:74:23:96:15:74:37:c3:78:a9:
         da:9c:e3:a4:bb:8d:7d:a9:d6:80:cd:db:1f:01:bb:cb:55:63:
         da:d5:21:eb:b7:fa:e2:a3:43:d3:17:8b:e9:6a:67:f9:cd:ad:
         39:2d:03:1a:84:a8:a4:02:c9:4a:1b:ef:93:95:83:e0:3a:93:
         70:ab:2e:7e:04:2c:2d:db:dd:fd:23:9d:53:b1:be:4c:0b:73:
         3e:64:d2:35:e4:01:1a:8d:dc:aa:20:4b:62:5d:8d:68:07:f1:
         9e:75:2b:9c
-----BEGIN CERTIFICATE-----
MIIDVzCCAj+gAwIBAgIRAOPqwY5zfLD9Hkoe8iat5SswDQYJKoZIhvcNAQELBQAw
FDESMBAGA1UEAwwJdGVhbTUtbmV0MB4XDTIzMDgxNDE0MjIwOVoXDTI2MDcyOTE0
MjIwOVowFzEVMBMGA1UEAwwMdGVhbTUtY2xpZW50MIIBIjANBgkqhkiG9w0BAQEF
AAOCAQ8AMIIBCgKCAQEAvYSwhQnOVC8PUir3bQFV+kjCn6Gm7sJtlVFePWLBOzdZ
j0pzatrfeJI2QUG1dySrI1eg5Qv5DNljLPwuDDqICTzc/HeUxljbmWzgiXDGOo+k
149vvfJo3pk0dA8Ee6mAmFRIXL7Fs9G83AnhZkUVQ2gh6XfFOGjHQBX2VOjNZVpC
OCyhFpiEXx6e7VzN4w68GBPaMsei1jX35qIWDkXiilDEohKD10/db6u84tMGe1KL
Ha2q+nKEDEvHwZhB7x8JkZdEn41SCFTy94pVhNVvi5u/iXzUQfrynLUs92fzYdba
36ujazAz7vOvQhL/bfESBG7SYAYNeTBP9TAh3m0dXwIDAQABo4GgMIGdMAkGA1Ud
EwQCMAAwHQYDVR0OBBYEFBC9z8ae5fylEk5mfAZMAPEDWtwSME8GA1UdIwRIMEaA
FNYM7SuN8YvC3qZh2NgRmkjRKoZfoRikFjAUMRIwEAYDVQQDDAl0ZWFtNS1uZXSC
FFNDdEe9hPUsGNilWiR5fMfTsLyYMBMGA1UdJQQMMAoGCCsGAQUFBwMCMAsGA1Ud
DwQEAwIHgDANBgkqhkiG9w0BAQsFAAOCAQEAHonvGW7dc9NIReEwaTG+XS0o3hbl
bKa2vjNXa+PIZUU9Mf4qXd4rkHQ55bl+knflndCV17pbD9cszNkykBBydx1azVZC
FtpIJCP+nFQUvvtlD8QWt/ZJrStXYbfETcwsYitKE6giwnhaF0t/b00jo32jszLn
JFfd86MDFHvdOR63CizfTmTJmaj8h8RD10CndWq72wrnSnxQdCOWFXQ3w3ip2pzj
pLuNfanWgM3bHwG7y1Vj2tUh67f64qND0xeL6Wpn+c2tOS0DGoSopALJShvvk5WD
4DqTcKsufgQsLdvd/SOdU7G+TAtzPmTSNeQBGo3cqiBLYl2NaAfxnnUrnA==
-----END CERTIFICATE-----
