Certificate:
    Data:
        Version: 3 (0x2)
        Serial Number:
            07:b4:87:81:99:b1:81:c1:30:bd:8a:33:4b:3e:31:11
        Signature Algorithm: sha256WithRSAEncryption
        Issuer: CN=team185-net
        Validity
            Not Before: Aug 14 14:26:03 2023 GMT
            Not After : Jul 29 14:26:03 2026 GMT
        Subject: CN=team185-client
        Subject Public Key Info:
            Public Key Algorithm: rsaEncryption
                RSA Public-Key: (2048 bit)
                Modulus:
                    00:b2:71:17:5e:08:0a:02:25:42:2c:e6:cc:74:76:
                    00:0d:c1:3b:c9:7e:f5:bf:98:07:e9:02:9e:27:a7:
                    69:ac:2e:63:9c:5a:1a:59:3e:0d:8d:84:2c:71:51:
                    d1:5b:61:b0:ff:5f:62:b5:fe:c5:44:cf:00:cb:94:
                    ce:b9:02:3f:a1:33:47:fd:b0:0e:f7:9f:b5:23:c1:
                    df:01:e5:8b:5f:08:df:2f:4a:15:43:5f:77:f8:8f:
                    bf:09:0c:ec:ad:b9:a4:bd:4d:11:c7:63:16:46:54:
                    dc:6b:42:b3:1f:69:8c:81:2d:ff:5c:dd:0e:04:58:
                    d8:a7:83:0f:39:db:be:8d:0d:a6:ab:09:d8:90:7a:
                    60:c4:e2:c6:3f:a8:a6:11:78:64:9c:8c:d2:a5:14:
                    5a:72:d6:c1:ac:25:04:95:b8:e4:92:25:bf:68:36:
                    3b:cb:3c:a0:b8:ad:f4:da:20:dd:cf:6f:2d:12:c8:
                    42:ae:75:57:0c:fc:8b:0f:fd:eb:3a:d5:e5:06:d2:
                    df:5f:4b:a7:a6:55:6d:5d:8a:4e:e1:46:b9:75:bd:
                    f8:5d:4c:48:7a:46:c0:09:1a:3e:31:3d:13:eb:44:
                    4e:85:f3:65:1d:41:47:0c:c7:45:e3:86:ad:41:13:
                    05:b5:08:70:5f:e6:e9:95:8a:88:94:b4:9f:7c:86:
                    5d:97
                Exponent: 65537 (0x10001)
        X509v3 extensions:
            X509v3 Basic Constraints: 
                CA:FALSE
            X509v3 Subject Key Identifier: 
                B4:B3:DE:BE:44:AA:80:D3:E3:53:8B:CB:FE:BE:AC:92:0C:75:58:C9
            X509v3 Authority Key Identifier: 
                keyid:76:57:10:C5:23:1E:E1:74:86:CA:F5:DC:8A:18:34:9A:A8:37:34:BC
                DirName:/CN=team185-net
                serial:37:1C:CD:AC:CA:D9:87:9F:20:20:76:1D:A1:75:15:E7:BD:61:F6:F3

            X509v3 Extended Key Usage: 
                TLS Web Client Authentication
            X509v3 Key Usage: 
                Digital Signature
    Signature Algorithm: sha256WithRSAEncryption
         57:b8:3e:8b:49:55:f8:7e:12:f7:84:2c:b0:d5:be:98:f0:a5:
         37:41:e4:f6:42:cf:38:cd:7a:a6:88:ea:49:85:50:d1:bc:0b:
         e4:8c:59:52:b9:b2:b3:ac:55:00:c2:6e:a0:4d:0b:d6:6b:04:
         36:54:c4:b5:4c:11:28:7c:e3:9d:38:5b:47:cd:72:b4:55:5d:
         73:61:32:87:34:40:6f:9e:99:23:ec:14:6b:60:f1:fc:87:bf:
         62:d0:3d:be:8d:00:c8:23:3d:02:6f:46:fa:c8:83:9f:dd:53:
         cd:26:28:ee:aa:33:9f:21:3f:c2:b0:02:49:b9:47:17:ed:0a:
         16:5d:42:1a:d8:97:b5:ac:4f:11:60:02:1c:c7:82:9e:7a:4a:
         77:d0:4b:cc:67:42:c4:06:8a:ba:fd:fc:0e:4e:21:98:1a:93:
         d9:14:d4:9a:c8:cd:2e:37:47:99:ba:47:bb:b5:70:78:c8:28:
         88:00:58:82:a8:27:20:01:4b:2c:ed:c1:95:c1:08:d4:c7:d2:
         b5:6a:bb:2f:89:d3:88:cf:2e:d8:92:80:fb:65:62:76:67:30:
         fb:24:60:6b:20:37:e1:07:06:75:a7:aa:c2:a5:88:55:5e:32:
         bb:56:33:29:52:12:1a:20:34:9a:28:07:f7:8e:be:a5:04:34:
         d4:4d:43:fe
-----BEGIN CERTIFICATE-----
MIIDXDCCAkSgAwIBAgIQB7SHgZmxgcEwvYozSz4xETANBgkqhkiG9w0BAQsFADAW
MRQwEgYDVQQDDAt0ZWFtMTg1LW5ldDAeFw0yMzA4MTQxNDI2MDNaFw0yNjA3Mjkx
NDI2MDNaMBkxFzAVBgNVBAMMDnRlYW0xODUtY2xpZW50MIIBIjANBgkqhkiG9w0B
AQEFAAOCAQ8AMIIBCgKCAQEAsnEXXggKAiVCLObMdHYADcE7yX71v5gH6QKeJ6dp
rC5jnFoaWT4NjYQscVHRW2Gw/19itf7FRM8Ay5TOuQI/oTNH/bAO95+1I8HfAeWL
XwjfL0oVQ193+I+/CQzsrbmkvU0Rx2MWRlTca0KzH2mMgS3/XN0OBFjYp4MPOdu+
jQ2mqwnYkHpgxOLGP6imEXhknIzSpRRactbBrCUElbjkkiW/aDY7yzyguK302iDd
z28tEshCrnVXDPyLD/3rOtXlBtLfX0unplVtXYpO4Ua5db34XUxIekbACRo+MT0T
60ROhfNlHUFHDMdF44atQRMFtQhwX+bplYqIlLSffIZdlwIDAQABo4GiMIGfMAkG
A1UdEwQCMAAwHQYDVR0OBBYEFLSz3r5EqoDT41OLy/6+rJIMdVjJMFEGA1UdIwRK
MEiAFHZXEMUjHuF0hsr13IoYNJqoNzS8oRqkGDAWMRQwEgYDVQQDDAt0ZWFtMTg1
LW5ldIIUNxzNrMrZh58gIHYdoXUV571h9vMwEwYDVR0lBAwwCgYIKwYBBQUHAwIw
CwYDVR0PBAQDAgeAMA0GCSqGSIb3DQEBCwUAA4IBAQBXuD6LSVX4fhL3hCyw1b6Y
8KU3QeT2Qs84zXqmiOpJhVDRvAvkjFlSubKzrFUAwm6gTQvWawQ2VMS1TBEofOOd
OFtHzXK0VV1zYTKHNEBvnpkj7BRrYPH8h79i0D2+jQDIIz0Cb0b6yIOf3VPNJiju
qjOfIT/CsAJJuUcX7QoWXUIa2Je1rE8RYAIcx4Keekp30EvMZ0LEBoq6/fwOTiGY
GpPZFNSayM0uN0eZuke7tXB4yCiIAFiCqCcgAUss7cGVwQjUx9K1arsvidOIzy7Y
koD7ZWJ2ZzD7JGBrIDfhBwZ1p6rCpYhVXjK7VjMpUhIaIDSaKAf3jr6lBDTUTUP+
-----END CERTIFICATE-----
