Certificate:
    Data:
        Version: 3 (0x2)
        Serial Number:
            db:d9:dd:17:50:e9:6b:00:98:e6:a1:46:3a:a2:9f:78
        Signature Algorithm: sha256WithRSAEncryption
        Issuer: CN=team185-net
        Validity
            Not Before: Aug 14 14:26:03 2023 GMT
            Not After : Jul 29 14:26:03 2026 GMT
        Subject: CN=team185-server
        Subject Public Key Info:
            Public Key Algorithm: rsaEncryption
                RSA Public-Key: (2048 bit)
                Modulus:
                    00:a3:dd:46:d6:d9:a3:b4:56:9d:2f:4b:89:ad:ee:
                    fa:37:0f:16:d9:ec:56:28:c6:14:40:5c:14:c7:93:
                    2b:a7:7c:51:8c:a1:d1:ec:bb:3b:4a:aa:f3:39:dd:
                    39:c7:75:b4:c6:86:cd:cb:a6:6e:f6:2a:00:bc:54:
                    29:59:98:fa:88:97:c7:50:5b:f0:8f:ec:86:0c:8b:
                    c0:ca:ab:39:c5:ed:f5:04:75:28:aa:9d:89:26:1b:
                    df:0b:0d:d2:68:83:55:7a:66:d8:fe:0d:53:17:c9:
                    ab:22:36:20:ab:a7:73:36:35:26:14:07:bd:2e:39:
                    5a:07:49:11:d7:06:8f:6a:21:d2:d1:f0:a3:22:56:
                    d8:ca:6f:98:c1:f0:bb:84:bd:f5:33:75:e6:a6:c7:
                    9b:51:3c:d7:ee:18:87:00:69:7c:8e:d0:94:88:b0:
                    9c:3d:fd:2f:77:66:51:0b:ef:63:c3:e4:3a:2d:e2:
                    5a:88:ae:a9:3e:00:8f:c7:9a:75:26:fd:22:a2:09:
                    a8:be:f6:54:ff:08:8c:c2:f3:79:05:e3:23:30:ff:
                    44:0e:4f:31:ed:98:39:28:c1:77:85:ef:cd:80:ec:
                    4a:a0:54:2e:82:f5:be:4b:48:54:5c:a9:f0:f5:d4:
                    0c:84:15:29:92:a9:a4:fc:0a:05:69:af:1b:27:46:
                    ce:39
                Exponent: 65537 (0x10001)
        X509v3 extensions:
            X509v3 Basic Constraints: 
                CA:FALSE
            X509v3 Subject Key Identifier: 
                84:78:1A:9F:C6:34:CB:63:F7:1D:10:3C:A8:78:B7:8A:0B:92:D8:5D
            X509v3 Authority Key Identifier: 
                keyid:76:57:10:C5:23:1E:E1:74:86:CA:F5:DC:8A:18:34:9A:A8:37:34:BC
                DirName:/CN=team185-net
                serial:37:1C:CD:AC:CA:D9:87:9F:20:20:76:1D:A1:75:15:E7:BD:61:F6:F3

            X509v3 Extended Key Usage: 
                TLS Web Server Authentication
            X509v3 Key Usage: 
                Digital Signature, Key Encipherment
            X509v3 Subject Alternative Name: 
                DNS:team185-server
    Signature Algorithm: sha256WithRSAEncryption
         1c:30:71:05:b1:53:a6:52:44:0e:b2:b0:7c:b6:59:12:b3:f8:
         b7:3a:79:d1:f3:c5:18:8f:74:98:ea:be:c5:a4:ad:b0:17:78:
         8b:42:6f:7b:5b:cc:dc:2a:c9:6d:e1:a0:d3:b7:2b:56:eb:3c:
         d8:42:a5:a4:d6:94:af:db:80:63:ce:92:17:f1:d6:a4:40:d3:
         a1:7f:50:e7:33:36:6f:6e:a4:dc:28:b2:3a:e6:05:59:fa:68:
         65:0f:87:7c:de:70:28:e8:30:d8:61:39:46:d1:24:dd:df:8c:
         ae:15:4e:9c:aa:e0:d4:ae:59:01:f0:29:89:3b:e3:2f:4a:52:
         43:9a:b7:5a:03:05:af:f0:3d:f0:80:0c:90:80:3c:bf:fc:fb:
         12:9e:85:a6:e3:89:34:99:f5:9b:d4:d0:27:1a:f2:f7:cb:db:
         14:dd:0c:30:c0:3b:03:f0:a7:92:c5:d3:1c:4e:41:3b:8b:89:
         f7:7b:37:12:1c:b0:49:ed:e1:47:09:54:b1:68:33:d6:13:00:
         b1:e1:d8:36:2c:91:9a:9c:8a:2b:7e:2d:37:34:3b:bb:dd:8d:
         4e:d8:d2:98:20:e7:77:b2:55:50:64:a1:18:f9:e4:f3:f4:3b:
         af:33:95:70:01:2d:78:0e:58:1f:a9:f0:a7:38:ce:6b:0c:03:
         af:ee:db:41
-----BEGIN CERTIFICATE-----
MIIDeDCCAmCgAwIBAgIRANvZ3RdQ6WsAmOahRjqin3gwDQYJKoZIhvcNAQELBQAw
FjEUMBIGA1UEAwwLdGVhbTE4NS1uZXQwHhcNMjMwODE0MTQyNjAzWhcNMjYwNzI5
MTQyNjAzWjAZMRcwFQYDVQQDDA50ZWFtMTg1LXNlcnZlcjCCASIwDQYJKoZIhvcN
AQEBBQADggEPADCCAQoCggEBAKPdRtbZo7RWnS9Lia3u+jcPFtnsVijGFEBcFMeT
K6d8UYyh0ey7O0qq8zndOcd1tMaGzcumbvYqALxUKVmY+oiXx1Bb8I/shgyLwMqr
OcXt9QR1KKqdiSYb3wsN0miDVXpm2P4NUxfJqyI2IKunczY1JhQHvS45WgdJEdcG
j2oh0tHwoyJW2MpvmMHwu4S99TN15qbHm1E81+4YhwBpfI7QlIiwnD39L3dmUQvv
Y8PkOi3iWoiuqT4Aj8eadSb9IqIJqL72VP8IjMLzeQXjIzD/RA5PMe2YOSjBd4Xv
zYDsSqBULoL1vktIVFyp8PXUDIQVKZKppPwKBWmvGydGzjkCAwEAAaOBvTCBujAJ
BgNVHRMEAjAAMB0GA1UdDgQWBBSEeBqfxjTLY/cdEDyoeLeKC5LYXTBRBgNVHSME
SjBIgBR2VxDFIx7hdIbK9dyKGDSaqDc0vKEapBgwFjEUMBIGA1UEAwwLdGVhbTE4
NS1uZXSCFDcczazK2YefICB2HaF1Fee9YfbzMBMGA1UdJQQMMAoGCCsGAQUFBwMB
MAsGA1UdDwQEAwIFoDAZBgNVHREEEjAQgg50ZWFtMTg1LXNlcnZlcjANBgkqhkiG
9w0BAQsFAAOCAQEAHDBxBbFTplJEDrKwfLZZErP4tzp50fPFGI90mOq+xaStsBd4
i0Jve1vM3CrJbeGg07crVus82EKlpNaUr9uAY86SF/HWpEDToX9Q5zM2b26k3Ciy
OuYFWfpoZQ+HfN5wKOgw2GE5RtEk3d+MrhVOnKrg1K5ZAfApiTvjL0pSQ5q3WgMF
r/A98IAMkIA8v/z7Ep6FpuOJNJn1m9TQJxry98vbFN0MMMA7A/CnksXTHE5BO4uJ
93s3EhywSe3hRwlUsWgz1hMAseHYNiyRmpyKK34tNzQ7u92NTtjSmCDnd7JVUGSh
GPnk8/Q7rzOVcAEteA5YH6nwpzjOawwDr+7bQQ==
-----END CERTIFICATE-----
