Certificate:
    Data:
        Version: 3 (0x2)
        Serial Number:
            c1:a5:6d:d7:ec:67:c9:0d:50:4c:c5:69:b2:6b:8a:2c
        Signature Algorithm: sha256WithRSAEncryption
        Issuer: CN=team286-net
        Validity
            Not Before: Aug 14 14:28:08 2023 GMT
            Not After : Jul 29 14:28:08 2026 GMT
        Subject: CN=team286-server
        Subject Public Key Info:
            Public Key Algorithm: rsaEncryption
                RSA Public-Key: (2048 bit)
                Modulus:
                    00:e9:44:5a:d3:d5:6f:5f:7a:6e:b3:15:ed:fb:a2:
                    e7:d5:94:29:b5:11:ff:25:e7:8b:90:03:ab:b7:f3:
                    ef:63:0f:37:1a:40:75:2b:fa:a4:f3:1a:62:21:8e:
                    0a:44:e7:97:ff:2e:c4:7d:16:31:87:03:21:76:40:
                    1d:fb:85:09:41:0a:4c:f7:27:33:29:aa:da:39:45:
                    e0:f1:ac:c7:ed:66:a7:cd:1b:1c:f9:40:1d:fe:d9:
                    44:a7:9c:df:09:85:ad:8e:7e:55:79:8c:bb:77:13:
                    4d:fe:56:21:f9:36:8f:8c:8f:29:db:53:d9:4f:8e:
                    d5:ff:7a:28:89:9a:9f:26:69:54:41:62:c0:72:96:
                    57:6d:f9:55:e6:15:ef:2c:1c:d5:cd:02:06:81:f1:
                    ab:21:87:08:82:2c:db:63:ff:12:9a:5c:6c:ad:ea:
                    c1:82:47:75:e1:e5:68:94:d6:c8:86:a3:2a:2b:2c:
                    02:f9:eb:8f:c0:97:6f:4b:38:ed:d1:39:9c:5d:8f:
                    ac:28:4a:c6:3f:b5:f6:dd:e7:6d:86:b5:01:e7:25:
                    7f:98:6d:c7:ab:0e:62:71:87:b3:63:1d:80:6e:0e:
                    34:e8:d5:de:90:5e:7e:b9:fd:40:36:6f:53:08:b4:
                    74:8a:fd:b6:fc:c4:b2:e5:91:7b:72:e5:94:93:2e:
                    f2:35
                Exponent: 65537 (0x10001)
        X509v3 extensions:
            X509v3 Basic Constraints: 
                CA:FALSE
            X509v3 Subject Key Identifier: 
                B0:47:2C:A6:36:D3:75:EC:1C:C2:08:B5:83:E6:7E:1B:B1:6E:B7:29
            X509v3 Authority Key Identifier: 
                keyid:CB:E8:04:30:5C:9C:DC:CC:17:BE:E9:56:84:44:CB:F0:A3:D3:F8:AD
                DirName:/CN=team286-net
                serial:55:E0:19:47:CE:27:16:11:3B:31:03:15:14:10:A6:79:59:91:62:C6

            X509v3 Extended Key Usage: 
                TLS Web Server Authentication
            X509v3 Key Usage: 
                Digital Signature, Key Encipherment
            X509v3 Subject Alternative Name: 
                DNS:team286-server
    Signature Algorithm: sha256WithRSAEncryption
         51:d2:8c:a8:f0:d8:4f:93:2f:82:c8:dd:2a:20:89:fb:ff:70:
         ce:14:94:58:5a:55:ab:59:07:2e:31:cf:6c:c5:f3:bb:ae:1e:
         44:a1:0c:1a:ca:f6:f5:d9:0f:5e:5a:72:2e:3e:48:3d:61:5d:
         b4:a7:c4:74:51:9b:25:e3:52:84:74:37:31:a3:2e:c9:5f:f6:
         5b:12:9b:fc:11:01:ce:15:12:8d:93:6a:d6:b1:bf:92:ae:1f:
         cf:83:f0:7d:e0:2c:2c:31:1f:fb:27:6d:b4:7c:a6:5a:28:da:
         9a:f0:d4:4b:0a:cd:73:ec:b1:fd:02:e4:56:86:bb:63:d3:43:
         55:53:66:2d:45:17:7c:50:e9:73:ba:5d:91:ae:ef:59:71:d5:
         80:70:9b:7e:6e:b8:0b:51:88:ae:2e:be:21:29:7e:38:e1:38:
         bf:b1:e6:8d:93:da:3a:59:06:58:5a:ba:b3:9b:f9:5d:98:af:
         e8:c7:fc:52:0d:e9:38:05:e4:c4:8d:a6:48:d5:0d:ae:18:8f:
         60:dd:96:a2:2f:bd:03:6c:7e:4c:b8:f4:ce:13:82:d0:6e:42:
         cf:5f:c2:2d:6c:32:aa:d9:2a:bd:79:bc:48:77:ee:54:4a:b8:
         12:5b:74:f1:16:f9:79:40:98:9d:24:50:0a:c7:46:ff:1e:36:
         8c:f1:81:17
-----BEGIN CERTIFICATE-----
MIIDeDCCAmCgAwIBAgIRAMGlbdfsZ8kNUEzFabJriiwwDQYJKoZIhvcNAQELBQAw
FjEUMBIGA1UEAwwLdGVhbTI4Ni1uZXQwHhcNMjMwODE0MTQyODA4WhcNMjYwNzI5
MTQyODA4WjAZMRcwFQYDVQQDDA50ZWFtMjg2LXNlcnZlcjCCASIwDQYJKoZIhvcN
AQEBBQADggEPADCCAQoCggEBAOlEWtPVb196brMV7fui59WUKbUR/yXni5ADq7fz
72MPNxpAdSv6pPMaYiGOCkTnl/8uxH0WMYcDIXZAHfuFCUEKTPcnMymq2jlF4PGs
x+1mp80bHPlAHf7ZRKec3wmFrY5+VXmMu3cTTf5WIfk2j4yPKdtT2U+O1f96KIma
nyZpVEFiwHKWV235VeYV7ywc1c0CBoHxqyGHCIIs22P/EppcbK3qwYJHdeHlaJTW
yIajKissAvnrj8CXb0s47dE5nF2PrChKxj+19t3nbYa1Aeclf5htx6sOYnGHs2Md
gG4ONOjV3pBefrn9QDZvUwi0dIr9tvzEsuWRe3LllJMu8jUCAwEAAaOBvTCBujAJ
BgNVHRMEAjAAMB0GA1UdDgQWBBSwRyymNtN17BzCCLWD5n4bsW63KTBRBgNVHSME
SjBIgBTL6AQwXJzczBe+6VaERMvwo9P4raEapBgwFjEUMBIGA1UEAwwLdGVhbTI4
Ni1uZXSCFFXgGUfOJxYROzEDFRQQpnlZkWLGMBMGA1UdJQQMMAoGCCsGAQUFBwMB
MAsGA1UdDwQEAwIFoDAZBgNVHREEEjAQgg50ZWFtMjg2LXNlcnZlcjANBgkqhkiG
9w0BAQsFAAOCAQEAUdKMqPDYT5MvgsjdKiCJ+/9wzhSUWFpVq1kHLjHPbMXzu64e
RKEMGsr29dkPXlpyLj5IPWFdtKfEdFGbJeNShHQ3MaMuyV/2WxKb/BEBzhUSjZNq
1rG/kq4fz4PwfeAsLDEf+ydttHymWijamvDUSwrNc+yx/QLkVoa7Y9NDVVNmLUUX
fFDpc7pdka7vWXHVgHCbfm64C1GIri6+ISl+OOE4v7HmjZPaOlkGWFq6s5v5XZiv
6Mf8Ug3pOAXkxI2mSNUNrhiPYN2Woi+9A2x+TLj0zhOC0G5Cz1/CLWwyqtkqvXm8
SHfuVEq4Elt08Rb5eUCYnSRQCsdG/x42jPGBFw==
-----END CERTIFICATE-----
