Certificate:
    Data:
        Version: 3 (0x2)
        Serial Number:
            09:22:01:8f:e9:61:a5:e3:16:92:ae:ac:26:db:23:47
        Signature Algorithm: sha256WithRSAEncryption
        Issuer: CN=team138-net
        Validity
            Not Before: Aug 14 14:25:07 2023 GMT
            Not After : Jul 29 14:25:07 2026 GMT
        Subject: CN=team138-client
        Subject Public Key Info:
            Public Key Algorithm: rsaEncryption
                RSA Public-Key: (2048 bit)
                Modulus:
                    00:af:d5:43:cc:b2:6f:70:d0:47:d1:21:b7:d7:69:
                    2e:f3:1c:80:24:ac:64:d8:90:56:a6:9e:7c:9c:10:
                    64:3f:59:99:36:4f:91:2f:20:d5:fb:97:15:04:aa:
                    2d:ac:a0:9d:fa:9e:9b:cb:dd:72:d9:8e:4a:1d:b7:
                    36:36:68:ae:2d:fa:f3:6a:94:61:8d:b1:c7:10:a0:
                    99:a6:e1:0b:f9:49:14:f5:c2:ad:82:cf:b5:11:30:
                    ab:3e:e5:f0:60:50:19:d6:e9:28:8a:95:75:3d:1e:
                    85:f0:21:11:c2:d4:7f:d0:4f:85:ff:5f:64:ce:5f:
                    bd:8a:de:89:9e:00:36:e1:53:3a:1e:5e:29:57:ca:
                    b3:05:10:21:1b:a7:72:dc:90:6a:ea:7c:2f:ef:ab:
                    c5:65:2e:4d:a1:1d:95:b8:c9:29:5d:7f:80:47:93:
                    f8:ef:f0:4d:8c:10:28:c2:fe:f9:07:be:b0:67:ca:
                    ec:86:b6:27:9a:80:03:28:40:15:00:19:41:b0:38:
                    dc:c4:af:28:a1:69:37:ac:08:06:14:54:cd:2f:3d:
                    ec:22:7e:73:81:fa:8e:03:cb:80:51:08:d5:e7:5f:
                    26:06:19:54:86:0a:21:18:b6:28:a6:fd:ff:c7:bc:
                    00:81:4e:fe:c2:b0:93:47:70:ae:d6:23:19:b4:53:
                    8b:ff
                Exponent: 65537 (0x10001)
        X509v3 extensions:
            X509v3 Basic Constraints: 
                CA:FALSE
            X509v3 Subject Key Identifier: 
                A9:4D:8A:2F:32:3C:B3:80:AB:CB:76:8F:6F:06:57:93:4F:50:4C:C3
            X509v3 Authority Key Identifier: 
                keyid:D6:37:EB:23:DD:8C:9D:F1:AF:0A:B4:D0:01:E0:64:C9:42:E6:44:BB
                DirName:/CN=team138-net
                serial:4C:EA:CE:3B:97:74:A6:EC:BA:EA:A3:1B:B9:03:C1:6F:E9:39:F8:58

            X509v3 Extended Key Usage: 
                TLS Web Client Authentication
            X509v3 Key Usage: 
                Digital Signature
    Signature Algorithm: sha256WithRSAEncryption
         9f:ab:d4:71:e6:2f:13:30:f2:ef:b3:11:f5:33:0e:53:b3:ec:
         e8:85:29:95:85:af:5f:71:39:76:80:a7:aa:df:d0:71:c6:ce:
         98:c8:67:da:95:79:8b:86:b7:46:59:b4:8c:82:e2:76:3e:e2:
         43:3b:63:a3:cd:e9:d5:69:50:f1:03:b2:28:34:6e:ca:5b:72:
         e8:91:5e:52:86:76:bb:f5:8a:62:06:d4:2c:f9:86:f1:8d:e2:
         d6:9b:75:66:e5:9c:aa:5b:67:57:0b:fd:7f:09:dc:84:8f:48:
         a5:fd:66:ed:35:aa:9f:ce:44:54:55:ee:89:9a:83:91:b8:35:
         b9:40:c4:27:79:b5:ba:26:56:85:e0:90:5c:69:59:90:a4:d4:
         f7:26:12:9e:af:35:3c:56:c8:2a:fe:ff:1d:16:b8:3f:e7:b3:
         9f:b1:d7:73:eb:96:01:48:e0:39:ba:11:ae:54:2f:47:cd:92:
         f5:22:ca:e5:b3:92:f8:d0:a3:d8:6e:11:1d:d1:1b:da:b8:e2:
         16:16:88:34:be:23:2b:f1:69:22:bf:02:c8:a5:7a:50:2f:3e:
         30:98:3f:c3:7a:fe:dd:31:7a:4e:86:af:15:6e:bd:0a:70:53:
         73:bc:cc:fb:f6:ce:0c:79:d0:2e:ba:cf:6d:de:ac:82:9e:72:
         2c:be:64:94
-----BEGIN CERTIFICATE-----
MIIDXDCCAkSgAwIBAgIQCSIBj+lhpeMWkq6sJtsjRzANBgkqhkiG9w0BAQsFADAW
MRQwEgYDVQQDDAt0ZWFtMTM4LW5ldDAeFw0yMzA4MTQxNDI1MDdaFw0yNjA3Mjkx
NDI1MDdaMBkxFzAVBgNVBAMMDnRlYW0xMzgtY2xpZW50MIIBIjANBgkqhkiG9w0B
AQEFAAOCAQ8AMIIBCgKCAQEAr9VDzLJvcNBH0SG312ku8xyAJKxk2JBWpp58nBBk
P1mZNk+RLyDV+5cVBKotrKCd+p6by91y2Y5KHbc2NmiuLfrzapRhjbHHEKCZpuEL
+UkU9cKtgs+1ETCrPuXwYFAZ1ukoipV1PR6F8CERwtR/0E+F/19kzl+9it6JngA2
4VM6Hl4pV8qzBRAhG6dy3JBq6nwv76vFZS5NoR2VuMkpXX+AR5P47/BNjBAowv75
B76wZ8rshrYnmoADKEAVABlBsDjcxK8ooWk3rAgGFFTNLz3sIn5zgfqOA8uAUQjV
518mBhlUhgohGLYopv3/x7wAgU7+wrCTR3Cu1iMZtFOL/wIDAQABo4GiMIGfMAkG
A1UdEwQCMAAwHQYDVR0OBBYEFKlNii8yPLOAq8t2j28GV5NPUEzDMFEGA1UdIwRK
MEiAFNY36yPdjJ3xrwq00AHgZMlC5kS7oRqkGDAWMRQwEgYDVQQDDAt0ZWFtMTM4
LW5ldIIUTOrOO5d0puy66qMbuQPBb+k5+FgwEwYDVR0lBAwwCgYIKwYBBQUHAwIw
CwYDVR0PBAQDAgeAMA0GCSqGSIb3DQEBCwUAA4IBAQCfq9Rx5i8TMPLvsxH1Mw5T
s+zohSmVha9fcTl2gKeq39Bxxs6YyGfalXmLhrdGWbSMguJ2PuJDO2OjzenVaVDx
A7IoNG7KW3LokV5Shna79YpiBtQs+YbxjeLWm3Vm5ZyqW2dXC/1/CdyEj0il/Wbt
NaqfzkRUVe6JmoORuDW5QMQnebW6JlaF4JBcaVmQpNT3JhKerzU8Vsgq/v8dFrg/
57Ofsddz65YBSOA5uhGuVC9HzZL1Isrls5L40KPYbhEd0RvauOIWFog0viMr8Wki
vwLIpXpQLz4wmD/Dev7dMXpOhq8Vbr0KcFNzvMz79s4MedAuus9t3qyCnnIsvmSU
-----END CERTIFICATE-----
