Certificate:
    Data:
        Version: 3 (0x2)
        Serial Number:
            b9:53:8a:b8:4d:62:0f:f3:ca:30:02:15:1b:24:d4:45
        Signature Algorithm: sha256WithRSAEncryption
        Issuer: CN=team138-net
        Validity
            Not Before: Aug 14 14:25:08 2023 GMT
            Not After : Jul 29 14:25:08 2026 GMT
        Subject: CN=team138-server
        Subject Public Key Info:
            Public Key Algorithm: rsaEncryption
                RSA Public-Key: (2048 bit)
                Modulus:
                    00:c1:42:e0:18:a0:01:e9:8e:42:13:7f:f7:ff:33:
                    d0:38:24:12:81:68:41:36:04:37:b2:32:2d:45:24:
                    d5:a5:01:11:11:60:10:6f:bb:ed:6c:72:a9:16:37:
                    79:82:21:c2:ee:08:ea:bd:f0:9f:f8:91:fc:1a:91:
                    ed:67:dd:9b:89:46:c2:a9:e2:f3:75:95:51:67:80:
                    6e:93:bb:fe:38:b5:37:67:1a:3a:a5:8e:1a:7f:c3:
                    d2:07:ba:b8:3e:85:e1:80:52:ba:97:3c:a6:e1:01:
                    2c:d7:b8:95:71:89:e5:5a:78:a3:16:69:50:a5:b4:
                    17:e4:c6:6c:1f:eb:75:5e:87:aa:23:8d:ac:f0:99:
                    27:26:9b:53:0d:75:98:cd:6a:81:2f:99:da:3d:cb:
                    a7:ef:0d:38:cc:5d:dd:b8:07:c0:db:b2:d3:ce:f6:
                    f9:7c:23:ac:78:69:9b:97:a3:00:f7:32:8e:10:2f:
                    2a:22:67:93:a2:b6:7d:d8:d4:a2:ab:3d:76:56:2f:
                    d0:68:fb:99:22:f0:81:7c:52:f2:f3:73:43:d1:cc:
                    d7:55:93:fc:fa:a7:1d:ca:8c:6d:f9:ec:84:59:7c:
                    6a:3a:f3:f4:dc:b0:1a:3a:13:16:5f:3a:a6:2c:69:
                    f4:f7:89:53:63:90:c9:c4:2c:46:f2:f5:a6:ee:52:
                    1d:89
                Exponent: 65537 (0x10001)
        X509v3 extensions:
            X509v3 Basic Constraints: 
                CA:FALSE
            X509v3 Subject Key Identifier: 
                D3:8C:AD:E0:44:5C:5E:A4:17:43:BB:D6:1E:FC:75:44:CA:4D:E3:E0
            X509v3 Authority Key Identifier: 
                keyid:D6:37:EB:23:DD:8C:9D:F1:AF:0A:B4:D0:01:E0:64:C9:42:E6:44:BB
                DirName:/CN=team138-net
                serial:4C:EA:CE:3B:97:74:A6:EC:BA:EA:A3:1B:B9:03:C1:6F:E9:39:F8:58

            X509v3 Extended Key Usage: 
                TLS Web Server Authentication
            X509v3 Key Usage: 
                Digital Signature, Key Encipherment
            X509v3 Subject Alternative Name: 
                DNS:team138-server
    Signature Algorithm: sha256WithRSAEncryption
         87:e5:9d:76:a6:61:a3:22:f5:59:9c:0a:d6:f8:0c:3c:63:4f:
         fd:66:64:d6:67:a1:38:7c:d9:8c:a4:4d:48:0a:c9:02:1d:2a:
         93:ca:c3:e9:51:7a:bc:22:d8:6e:11:d1:d6:ed:b1:53:6a:c6:
         04:a7:d9:d9:da:90:a7:cb:0b:f0:0b:30:27:64:df:72:70:7e:
         c2:5f:83:8b:92:c8:66:ec:4c:18:0b:5a:8d:9e:50:dc:1a:d6:
         bd:69:37:65:06:72:b8:4e:0a:c7:4b:cc:52:21:3a:3a:6d:7b:
         73:25:6d:dc:b2:c1:91:aa:f4:9c:34:01:fb:08:ba:33:79:f7:
         fb:52:ab:6b:37:c2:9e:26:80:5e:0a:87:9f:a0:60:12:67:73:
         e8:72:79:f6:9b:a7:1f:af:15:16:5c:ea:59:c5:13:5a:7f:75:
         c3:4e:dd:88:e9:92:47:66:2e:9c:0a:0b:20:f5:16:06:e6:7d:
         41:a3:24:03:74:dc:8f:df:32:4d:1f:4b:77:1a:e9:bf:8a:5a:
         8c:9e:41:6d:e3:f4:03:bc:48:6f:70:3e:c6:93:52:f4:a0:78:
         ca:b2:38:93:ed:61:fd:7e:95:2a:76:66:c6:2f:c5:e2:57:c5:
         c6:ca:87:d2:ac:e2:1d:56:8b:22:d3:38:b4:dd:37:87:1e:47:
         d2:7c:41:93
-----BEGIN CERTIFICATE-----
MIIDeDCCAmCgAwIBAgIRALlTirhNYg/zyjACFRsk1EUwDQYJKoZIhvcNAQELBQAw
FjEUMBIGA1UEAwwLdGVhbTEzOC1uZXQwHhcNMjMwODE0MTQyNTA4WhcNMjYwNzI5
MTQyNTA4WjAZMRcwFQYDVQQDDA50ZWFtMTM4LXNlcnZlcjCCASIwDQYJKoZIhvcN
AQEBBQADggEPADCCAQoCggEBAMFC4BigAemOQhN/9/8z0DgkEoFoQTYEN7IyLUUk
1aUBERFgEG+77WxyqRY3eYIhwu4I6r3wn/iR/BqR7Wfdm4lGwqni83WVUWeAbpO7
/ji1N2caOqWOGn/D0ge6uD6F4YBSupc8puEBLNe4lXGJ5Vp4oxZpUKW0F+TGbB/r
dV6HqiONrPCZJyabUw11mM1qgS+Z2j3Lp+8NOMxd3bgHwNuy0872+XwjrHhpm5ej
APcyjhAvKiJnk6K2fdjUoqs9dlYv0Gj7mSLwgXxS8vNzQ9HM11WT/PqnHcqMbfns
hFl8ajrz9NywGjoTFl86pixp9PeJU2OQycQsRvL1pu5SHYkCAwEAAaOBvTCBujAJ
BgNVHRMEAjAAMB0GA1UdDgQWBBTTjK3gRFxepBdDu9Ye/HVEyk3j4DBRBgNVHSME
SjBIgBTWN+sj3Yyd8a8KtNAB4GTJQuZEu6EapBgwFjEUMBIGA1UEAwwLdGVhbTEz
OC1uZXSCFEzqzjuXdKbsuuqjG7kDwW/pOfhYMBMGA1UdJQQMMAoGCCsGAQUFBwMB
MAsGA1UdDwQEAwIFoDAZBgNVHREEEjAQgg50ZWFtMTM4LXNlcnZlcjANBgkqhkiG
9w0BAQsFAAOCAQEAh+WddqZhoyL1WZwK1vgMPGNP/WZk1mehOHzZjKRNSArJAh0q
k8rD6VF6vCLYbhHR1u2xU2rGBKfZ2dqQp8sL8AswJ2TfcnB+wl+Di5LIZuxMGAta
jZ5Q3BrWvWk3ZQZyuE4Kx0vMUiE6Om17cyVt3LLBkar0nDQB+wi6M3n3+1KrazfC
niaAXgqHn6BgEmdz6HJ59punH68VFlzqWcUTWn91w07diOmSR2YunAoLIPUWBuZ9
QaMkA3Tcj98yTR9Ldxrpv4pajJ5BbeP0A7xIb3A+xpNS9KB4yrI4k+1h/X6VKnZm
xi/F4lfFxsqH0qziHVaLItM4tN03hx5H0nxBkw==
-----END CERTIFICATE-----
