Certificate:
    Data:
        Version: 3 (0x2)
        Serial Number:
            2e:a5:f3:d5:98:b0:91:e8:24:cd:c8:21:a1:33:cd:a5
        Signature Algorithm: sha256WithRSAEncryption
        Issuer: CN=team173-net
        Validity
            Not Before: Aug 14 14:25:50 2023 GMT
            Not After : Jul 29 14:25:50 2026 GMT
        Subject: CN=team173-client
        Subject Public Key Info:
            Public Key Algorithm: rsaEncryption
                RSA Public-Key: (2048 bit)
                Modulus:
                    00:af:f5:3e:08:7e:0e:74:d9:6d:60:5b:02:47:e8:
                    38:eb:41:86:6f:80:cd:c4:b5:20:be:f3:ce:f1:97:
                    ea:4f:66:2d:b3:c2:c1:b0:ce:3a:4a:ce:0f:44:c2:
                    a2:57:61:57:92:cc:72:3b:d3:56:b8:71:ac:b0:89:
                    07:c1:64:8b:29:99:be:24:8a:d8:cb:73:ce:86:be:
                    71:f9:bd:7d:1b:e4:b3:86:63:be:ab:94:76:e5:67:
                    b6:ef:fa:b2:9a:15:75:68:d1:2c:95:2a:ec:91:97:
                    72:08:07:a1:c6:26:ff:e8:8a:75:f5:71:47:8c:a0:
                    c9:0b:d2:15:23:7e:36:cc:fc:05:ee:61:62:c6:5c:
                    2c:73:40:30:98:6c:fc:ba:52:22:d2:7f:e2:cb:0f:
                    93:3d:54:4e:bd:93:37:fd:7b:14:93:d5:66:84:fd:
                    2e:c3:86:85:7a:7c:b6:92:03:c7:80:e2:53:12:25:
                    aa:1c:b3:33:55:2c:a8:7c:e8:24:59:4a:73:51:4f:
                    31:6a:85:93:a5:c5:7d:c6:d7:b6:e3:f4:62:df:52:
                    1d:4a:96:da:21:dd:dd:e9:53:e5:e2:19:ac:fe:bf:
                    95:ed:24:4c:26:48:62:d9:0f:6a:7a:73:4c:ec:2a:
                    2a:fa:f1:3f:8f:03:c5:4b:48:56:94:42:42:19:0d:
                    4b:c7
                Exponent: 65537 (0x10001)
        X509v3 extensions:
            X509v3 Basic Constraints: 
                CA:FALSE
            X509v3 Subject Key Identifier: 
                E8:34:4B:75:A7:10:2A:BF:7C:FB:33:22:85:A6:B3:8F:F5:17:57:D1
            X509v3 Authority Key Identifier: 
                keyid:F2:E4:89:0C:E0:E3:47:A7:05:8C:6C:DB:ED:1B:CC:49:55:1E:5E:BC
                DirName:/CN=team173-net
                serial:48:2E:F2:E3:9C:73:1A:45:2A:31:0F:81:A1:38:5F:67:DE:02:2F:81

            X509v3 Extended Key Usage: 
                TLS Web Client Authentication
            X509v3 Key Usage: 
                Digital Signature
    Signature Algorithm: sha256WithRSAEncryption
         6e:77:3e:6d:f5:11:58:8f:79:ae:e1:91:1a:f4:e4:25:3d:30:
         ef:97:c5:d2:ec:c1:8a:61:07:95:a2:bc:b7:f1:bb:53:f2:32:
         df:50:67:a4:13:cd:f9:6a:03:26:27:6c:1c:bf:55:b6:a7:b7:
         08:d6:6b:5c:2f:ad:c6:e7:6f:3d:e7:0a:05:39:35:3b:83:c0:
         91:3d:bd:e3:94:91:6f:02:fe:c8:82:db:16:bf:1a:e7:45:c0:
         2e:3e:e1:29:4a:c5:df:6d:75:f5:82:c7:11:ce:e0:55:ab:a6:
         a3:ec:3b:84:83:83:bb:a2:97:43:c8:dc:ad:0e:ee:5c:3f:15:
         e8:ef:05:94:86:9f:b1:70:2e:78:bc:fc:7b:52:a6:07:50:f5:
         f1:10:d9:39:f6:11:d5:40:e6:cf:07:e7:8f:4e:7c:bf:bc:8a:
         d7:23:d4:24:d4:81:1b:30:24:dd:dd:db:7e:9c:29:b3:8e:dc:
         8b:12:57:ed:eb:c0:65:30:08:b5:15:78:f1:1d:f8:40:73:1f:
         ab:f7:e6:e6:13:4a:71:fa:43:6c:90:13:41:e4:0e:62:66:03:
         9c:b3:5a:f3:f2:62:62:ac:3f:e4:1e:db:7a:15:5c:52:de:0c:
         13:93:93:b7:3c:a4:be:ad:c8:bc:ef:90:83:03:2f:d3:48:32:
         27:07:d9:d6
-----BEGIN CERTIFICATE-----
MIIDXDCCAkSgAwIBAgIQLqXz1ZiwkegkzcghoTPNpTANBgkqhkiG9w0BAQsFADAW
MRQwEgYDVQQDDAt0ZWFtMTczLW5ldDAeFw0yMzA4MTQxNDI1NTBaFw0yNjA3Mjkx
NDI1NTBaMBkxFzAVBgNVBAMMDnRlYW0xNzMtY2xpZW50MIIBIjANBgkqhkiG9w0B
AQEFAAOCAQ8AMIIBCgKCAQEAr/U+CH4OdNltYFsCR+g460GGb4DNxLUgvvPO8Zfq
T2Yts8LBsM46Ss4PRMKiV2FXksxyO9NWuHGssIkHwWSLKZm+JIrYy3POhr5x+b19
G+SzhmO+q5R25We27/qymhV1aNEslSrskZdyCAehxib/6Ip19XFHjKDJC9IVI342
zPwF7mFixlwsc0AwmGz8ulIi0n/iyw+TPVROvZM3/XsUk9VmhP0uw4aFeny2kgPH
gOJTEiWqHLMzVSyofOgkWUpzUU8xaoWTpcV9xte24/Ri31IdSpbaId3d6VPl4hms
/r+V7SRMJkhi2Q9qenNM7Coq+vE/jwPFS0hWlEJCGQ1LxwIDAQABo4GiMIGfMAkG
A1UdEwQCMAAwHQYDVR0OBBYEFOg0S3WnECq/fPszIoWms4/1F1fRMFEGA1UdIwRK
MEiAFPLkiQzg40enBYxs2+0bzElVHl68oRqkGDAWMRQwEgYDVQQDDAt0ZWFtMTcz
LW5ldIIUSC7y45xzGkUqMQ+BoThfZ94CL4EwEwYDVR0lBAwwCgYIKwYBBQUHAwIw
CwYDVR0PBAQDAgeAMA0GCSqGSIb3DQEBCwUAA4IBAQBudz5t9RFYj3mu4ZEa9OQl
PTDvl8XS7MGKYQeVory38btT8jLfUGekE835agMmJ2wcv1W2p7cI1mtcL63G5289
5woFOTU7g8CRPb3jlJFvAv7IgtsWvxrnRcAuPuEpSsXfbXX1gscRzuBVq6aj7DuE
g4O7opdDyNytDu5cPxXo7wWUhp+xcC54vPx7UqYHUPXxENk59hHVQObPB+ePTny/
vIrXI9Qk1IEbMCTd3dt+nCmzjtyLElft68BlMAi1FXjxHfhAcx+r9+bmE0px+kNs
kBNB5A5iZgOcs1rz8mJirD/kHtt6FVxS3gwTk5O3PKS+rci875CDAy/TSDInB9nW
-----END CERTIFICATE-----
