Certificate:
    Data:
        Version: 3 (0x2)
        Serial Number:
            a0:28:c4:d8:98:65:47:05:6d:f4:3e:4a:a8:21:b4:1a
        Signature Algorithm: sha256WithRSAEncryption
        Issuer: CN=team173-net
        Validity
            Not Before: Aug 14 14:25:50 2023 GMT
            Not After : Jul 29 14:25:50 2026 GMT
        Subject: CN=team173-server
        Subject Public Key Info:
            Public Key Algorithm: rsaEncryption
                RSA Public-Key: (2048 bit)
                Modulus:
                    00:ec:45:b7:74:2e:58:df:cd:a9:4e:71:a9:cd:fc:
                    b5:5b:79:f3:b8:99:60:3f:6c:4d:b9:7f:d6:89:9b:
                    39:7d:ac:96:c5:33:5b:5e:3a:eb:91:14:5a:31:21:
                    e2:7d:49:66:95:e3:e5:c6:02:ac:c2:94:d8:ec:7a:
                    8e:b8:36:de:78:88:bf:cc:d5:8f:18:16:5d:5c:de:
                    1f:77:4a:ba:c5:1e:c7:40:7a:74:45:5f:9e:67:27:
                    ab:d8:9b:a4:6a:90:33:cf:af:d0:97:c8:c3:f8:57:
                    69:9a:1e:d4:0f:a1:03:11:d7:9f:c3:45:12:5f:a8:
                    27:2e:e6:33:42:c8:ec:d2:27:1f:89:f4:c4:97:49:
                    c3:e7:67:c4:fc:e3:c8:38:cf:9b:1f:82:17:58:77:
                    f2:ad:52:c4:93:38:b1:d7:d3:45:b8:5b:2b:6e:70:
                    bb:f6:88:d4:84:c1:37:41:62:95:f4:da:4a:05:62:
                    b4:b3:60:02:94:4f:5d:0f:8b:71:7c:71:fd:81:77:
                    dc:e4:d3:c9:a9:72:ef:dd:94:48:00:21:1a:fc:62:
                    77:1d:10:26:bb:15:ae:dc:49:b3:58:dd:62:4d:80:
                    8a:4b:92:34:0c:7b:9a:7f:40:93:68:0d:10:ae:19:
                    0b:fb:e0:ac:9b:a8:c7:17:7c:02:6d:63:33:f6:5d:
                    82:7f
                Exponent: 65537 (0x10001)
        X509v3 extensions:
            X509v3 Basic Constraints: 
                CA:FALSE
            X509v3 Subject Key Identifier: 
                3A:0A:D8:3B:E9:D8:1E:10:18:9B:29:78:BD:62:7B:7C:A1:68:14:0D
            X509v3 Authority Key Identifier: 
                keyid:F2:E4:89:0C:E0:E3:47:A7:05:8C:6C:DB:ED:1B:CC:49:55:1E:5E:BC
                DirName:/CN=team173-net
                serial:48:2E:F2:E3:9C:73:1A:45:2A:31:0F:81:A1:38:5F:67:DE:02:2F:81

            X509v3 Extended Key Usage: 
                TLS Web Server Authentication
            X509v3 Key Usage: 
                Digital Signature, Key Encipherment
            X509v3 Subject Alternative Name: 
                DNS:team173-server
    Signature Algorithm: sha256WithRSAEncryption
         0b:36:f0:b9:a2:0d:e8:13:ed:65:93:31:45:57:54:14:b4:50:
         b3:a9:ef:58:6b:f1:f7:5d:4c:70:0d:f0:af:6f:49:e9:d5:17:
         a6:98:52:88:07:48:17:be:61:d5:07:ad:c7:45:78:78:b5:87:
         29:d8:26:78:09:41:1c:2f:cf:d2:8a:21:ef:e7:a4:65:5e:cd:
         fa:03:18:6c:b0:ea:0c:5f:9b:80:b6:77:a4:6c:a6:e9:38:1c:
         8e:78:fb:32:1d:f6:99:f9:a3:a1:29:0c:eb:38:78:8e:ef:55:
         a3:e5:83:7d:66:96:2c:8c:47:08:1f:00:2f:fe:d3:3c:ed:2c:
         6f:b4:1b:0a:bd:3d:92:50:39:2e:c4:71:b3:a4:3d:77:30:85:
         d3:4a:0e:cf:f4:26:94:30:31:f9:8b:56:a1:17:2f:f8:ee:c1:
         17:2a:40:cb:93:92:ff:0d:a1:56:38:2a:22:d2:10:45:7e:a0:
         11:ac:93:25:3a:e2:06:e3:23:7c:ba:77:80:4b:d1:17:9a:f6:
         3f:9c:b8:cb:21:e1:04:f3:9e:c2:0c:52:bb:e6:46:0c:64:e3:
         13:b3:44:1f:3c:b7:87:cd:e2:c6:fd:9f:8e:6b:3f:df:f4:76:
         dd:61:9d:2e:37:88:56:b1:02:65:25:2a:dc:64:6b:4e:5c:c7:
         ff:18:df:62
-----BEGIN CERTIFICATE-----
MIIDeDCCAmCgAwIBAgIRAKAoxNiYZUcFbfQ+SqghtBowDQYJKoZIhvcNAQELBQAw
FjEUMBIGA1UEAwwLdGVhbTE3My1uZXQwHhcNMjMwODE0MTQyNTUwWhcNMjYwNzI5
MTQyNTUwWjAZMRcwFQYDVQQDDA50ZWFtMTczLXNlcnZlcjCCASIwDQYJKoZIhvcN
AQEBBQADggEPADCCAQoCggEBAOxFt3QuWN/NqU5xqc38tVt587iZYD9sTbl/1omb
OX2slsUzW14665EUWjEh4n1JZpXj5cYCrMKU2Ox6jrg23niIv8zVjxgWXVzeH3dK
usUex0B6dEVfnmcnq9ibpGqQM8+v0JfIw/hXaZoe1A+hAxHXn8NFEl+oJy7mM0LI
7NInH4n0xJdJw+dnxPzjyDjPmx+CF1h38q1SxJM4sdfTRbhbK25wu/aI1ITBN0Fi
lfTaSgVitLNgApRPXQ+LcXxx/YF33OTTyaly792USAAhGvxidx0QJrsVrtxJs1jd
Yk2AikuSNAx7mn9Ak2gNEK4ZC/vgrJuoxxd8Am1jM/Zdgn8CAwEAAaOBvTCBujAJ
BgNVHRMEAjAAMB0GA1UdDgQWBBQ6Ctg76dgeEBibKXi9Ynt8oWgUDTBRBgNVHSME
SjBIgBTy5IkM4ONHpwWMbNvtG8xJVR5evKEapBgwFjEUMBIGA1UEAwwLdGVhbTE3
My1uZXSCFEgu8uOccxpFKjEPgaE4X2feAi+BMBMGA1UdJQQMMAoGCCsGAQUFBwMB
MAsGA1UdDwQEAwIFoDAZBgNVHREEEjAQgg50ZWFtMTczLXNlcnZlcjANBgkqhkiG
9w0BAQsFAAOCAQEACzbwuaIN6BPtZZMxRVdUFLRQs6nvWGvx911McA3wr29J6dUX
pphSiAdIF75h1Qetx0V4eLWHKdgmeAlBHC/P0ooh7+ekZV7N+gMYbLDqDF+bgLZ3
pGym6Tgcjnj7Mh32mfmjoSkM6zh4ju9Vo+WDfWaWLIxHCB8AL/7TPO0sb7QbCr09
klA5LsRxs6Q9dzCF00oOz/QmlDAx+YtWoRcv+O7BFypAy5OS/w2hVjgqItIQRX6g
EayTJTriBuMjfLp3gEvRF5r2P5y4yyHhBPOewgxSu+ZGDGTjE7NEHzy3h83ixv2f
jms/3/R23WGdLjeIVrECZSUq3GRrTlzH/xjfYg==
-----END CERTIFICATE-----
