Certificate:
    Data:
        Version: 3 (0x2)
        Serial Number:
            47:df:d2:ef:73:37:75:cb:6b:dd:59:ed:6b:de:f7:9a
        Signature Algorithm: sha256WithRSAEncryption
        Issuer: CN=team238-net
        Validity
            Not Before: Aug 14 14:27:06 2023 GMT
            Not After : Jul 29 14:27:06 2026 GMT
        Subject: CN=team238-server
        Subject Public Key Info:
            Public Key Algorithm: rsaEncryption
                RSA Public-Key: (2048 bit)
                Modulus:
                    00:91:2f:4d:54:f2:09:dd:3d:5a:2d:30:94:0c:0d:
                    21:92:46:b0:7b:a6:ec:5b:bb:c5:8f:e3:62:6a:a2:
                    e1:90:45:d3:fc:09:e6:6c:19:73:91:42:f4:b0:d0:
                    26:96:f0:a1:bd:a6:b2:8a:4c:00:ae:8d:fe:ed:5c:
                    82:90:35:c5:7c:de:af:5b:86:5e:53:6f:3a:f4:83:
                    0f:51:0c:90:dd:02:e4:57:57:a3:2c:4d:0b:3c:c5:
                    f6:2b:02:cf:76:38:c5:3a:63:c2:89:72:81:b1:e4:
                    28:fb:59:b9:1f:09:ce:95:bf:27:be:f6:1f:f6:6c:
                    6e:b0:73:0d:5f:50:bb:cd:f3:2a:2b:14:3f:74:ea:
                    2e:a8:4f:e4:74:62:63:75:1d:12:1a:a9:92:fe:0b:
                    a5:9f:db:75:fb:83:3f:b9:59:71:5b:a8:50:07:57:
                    86:eb:ad:95:ce:e0:24:8e:2a:b9:a8:93:c6:f7:49:
                    3f:3e:83:2a:4e:02:5c:31:73:17:4f:e9:17:7d:11:
                    5f:ce:47:44:e2:9f:1b:ed:e5:cb:8b:42:fe:e9:f1:
                    02:e0:6f:64:11:94:45:54:2f:06:d7:12:30:be:2b:
                    86:c8:2c:49:08:f4:22:e3:b3:76:09:40:cf:0d:fd:
                    48:2f:f1:06:fc:d1:e9:b1:b6:40:9b:62:f1:73:0f:
                    cc:05
                Exponent: 65537 (0x10001)
        X509v3 extensions:
            X509v3 Basic Constraints: 
                CA:FALSE
            X509v3 Subject Key Identifier: 
                D2:6F:A5:7F:74:F7:71:63:61:36:AD:9E:25:3F:DE:53:E8:1E:D6:DC
            X509v3 Authority Key Identifier: 
                keyid:4D:B1:13:50:12:12:65:5A:3F:CB:21:C6:6D:35:5A:23:12:B2:82:A6
                DirName:/CN=team238-net
                serial:24:5B:B0:80:42:AD:AE:FC:DA:B8:D6:8D:9F:AE:77:90:DD:E8:16:78

            X509v3 Extended Key Usage: 
                TLS Web Server Authentication
            X509v3 Key Usage: 
                Digital Signature, Key Encipherment
            X509v3 Subject Alternative Name: 
                DNS:team238-server
    Signature Algorithm: sha256WithRSAEncryption
         12:3f:7f:65:b4:24:86:17:23:0b:a8:3a:37:0f:f6:14:72:d1:
         2d:75:2f:2f:82:53:d2:79:76:76:a4:cd:2a:be:27:ba:00:89:
         9e:3e:26:45:61:93:a1:f1:33:5c:87:41:77:85:00:93:cf:1a:
         fa:a7:96:21:58:e7:86:9f:f2:11:18:a0:27:c3:d7:bf:1d:68:
         b9:27:b9:19:a2:e2:01:f4:33:71:65:8e:34:1b:eb:40:bc:9b:
         21:73:59:63:c8:5a:95:61:4e:6a:9d:d8:41:6e:57:24:1d:0c:
         60:be:d2:e2:0d:3b:a2:08:44:ec:30:72:a9:c8:30:22:66:a3:
         a9:cf:a4:ef:a8:de:52:84:15:92:dd:5d:e1:67:30:7a:b9:0d:
         89:0e:cc:25:b5:5a:fc:55:7f:50:f5:3b:7a:fd:0b:19:f0:4d:
         f8:f1:a6:8a:a2:a5:7e:53:9e:41:ae:fe:bd:8a:c0:75:b0:e6:
         72:26:af:cd:c7:fe:11:a6:1e:29:7b:af:c5:6c:b7:69:d3:0b:
         51:ae:16:3d:38:8a:db:9c:7c:28:c0:ca:5e:be:d1:81:35:7d:
         bf:24:91:f3:4d:fe:47:df:9e:d1:85:18:73:39:5f:49:df:4b:
         2a:04:4f:e3:d5:32:64:e0:a0:f4:cb:05:34:88:05:c0:ef:44:
         c4:a6:de:f9
-----BEGIN CERTIFICATE-----
MIIDdzCCAl+gAwIBAgIQR9/S73M3dctr3Vnta973mjANBgkqhkiG9w0BAQsFADAW
MRQwEgYDVQQDDAt0ZWFtMjM4LW5ldDAeFw0yMzA4MTQxNDI3MDZaFw0yNjA3Mjkx
NDI3MDZaMBkxFzAVBgNVBAMMDnRlYW0yMzgtc2VydmVyMIIBIjANBgkqhkiG9w0B
AQEFAAOCAQ8AMIIBCgKCAQEAkS9NVPIJ3T1aLTCUDA0hkkawe6bsW7vFj+NiaqLh
kEXT/AnmbBlzkUL0sNAmlvChvaayikwAro3+7VyCkDXFfN6vW4ZeU2869IMPUQyQ
3QLkV1ejLE0LPMX2KwLPdjjFOmPCiXKBseQo+1m5HwnOlb8nvvYf9mxusHMNX1C7
zfMqKxQ/dOouqE/kdGJjdR0SGqmS/guln9t1+4M/uVlxW6hQB1eG662VzuAkjiq5
qJPG90k/PoMqTgJcMXMXT+kXfRFfzkdE4p8b7eXLi0L+6fEC4G9kEZRFVC8G1xIw
viuGyCxJCPQi47N2CUDPDf1IL/EG/NHpsbZAm2Lxcw/MBQIDAQABo4G9MIG6MAkG
A1UdEwQCMAAwHQYDVR0OBBYEFNJvpX9093FjYTatniU/3lPoHtbcMFEGA1UdIwRK
MEiAFE2xE1ASEmVaP8shxm01WiMSsoKmoRqkGDAWMRQwEgYDVQQDDAt0ZWFtMjM4
LW5ldIIUJFuwgEKtrvzauNaNn653kN3oFngwEwYDVR0lBAwwCgYIKwYBBQUHAwEw
CwYDVR0PBAQDAgWgMBkGA1UdEQQSMBCCDnRlYW0yMzgtc2VydmVyMA0GCSqGSIb3
DQEBCwUAA4IBAQASP39ltCSGFyMLqDo3D/YUctEtdS8vglPSeXZ2pM0qvie6AIme
PiZFYZOh8TNch0F3hQCTzxr6p5YhWOeGn/IRGKAnw9e/HWi5J7kZouIB9DNxZY40
G+tAvJshc1ljyFqVYU5qndhBblckHQxgvtLiDTuiCETsMHKpyDAiZqOpz6TvqN5S
hBWS3V3hZzB6uQ2JDswltVr8VX9Q9Tt6/QsZ8E348aaKoqV+U55Brv69isB1sOZy
Jq/Nx/4Rph4pe6/FbLdp0wtRrhY9OIrbnHwowMpevtGBNX2/JJHzTf5H357RhRhz
OV9J30sqBE/j1TJk4KD0ywU0iAXA70TEpt75
-----END CERTIFICATE-----
