Certificate:
    Data:
        Version: 3 (0x2)
        Serial Number:
            44:a7:71:46:da:89:29:3c:dc:94:4a:73:a4:d4:91:0b
        Signature Algorithm: sha256WithRSAEncryption
        Issuer: CN=team179-net
        Validity
            Not Before: Aug 14 14:25:57 2023 GMT
            Not After : Jul 29 14:25:57 2026 GMT
        Subject: CN=team179-client
        Subject Public Key Info:
            Public Key Algorithm: rsaEncryption
                RSA Public-Key: (2048 bit)
                Modulus:
                    00:b9:25:31:c0:43:49:8d:61:3e:ee:b8:1f:84:95:
                    ca:83:f6:e8:7e:e6:8b:a8:46:d7:78:71:05:ad:f4:
                    f3:4f:9c:6f:39:cb:48:fb:67:62:1a:04:5e:12:80:
                    b2:37:f5:1d:9b:0b:d4:3f:7d:ef:59:ff:65:04:01:
                    5d:9e:69:51:33:fd:a7:35:92:8b:02:1a:2f:24:52:
                    fe:75:a0:3f:48:75:27:8c:6a:41:fc:e8:85:ff:88:
                    5d:24:8f:1a:ea:81:0e:6c:d7:a2:23:46:3f:cb:bc:
                    93:8e:f4:f6:96:d5:55:4d:6d:12:32:20:e1:d8:56:
                    22:3f:7f:8b:47:1c:37:cb:dc:d4:8c:21:d7:c7:f6:
                    5b:41:1e:0b:a7:36:4f:79:2b:e3:98:8e:a9:e5:b4:
                    56:9a:39:17:d2:31:76:5d:72:65:85:28:19:a2:9b:
                    57:b6:44:7e:d9:d9:2b:dc:49:00:bb:25:13:c3:96:
                    46:3d:b2:46:a7:c2:bd:97:e3:36:ef:3b:d3:5c:48:
                    c6:f7:1d:b6:18:b9:ac:94:5b:8f:e5:2d:71:1c:43:
                    8c:2c:3c:9d:0e:96:c9:b2:d0:c1:ab:50:bd:ad:34:
                    3b:65:53:e7:94:0b:23:18:aa:a8:39:0a:35:9a:b3:
                    78:1a:b3:35:be:bd:f0:d0:fc:b3:a7:18:69:a9:da:
                    1d:6d
                Exponent: 65537 (0x10001)
        X509v3 extensions:
            X509v3 Basic Constraints: 
                CA:FALSE
            X509v3 Subject Key Identifier: 
                5F:89:19:65:A1:41:3C:16:C7:B2:E8:F7:83:81:8F:7C:8B:72:1E:09
            X509v3 Authority Key Identifier: 
                keyid:0B:3C:BC:10:F0:37:DB:A9:D4:F4:9D:A9:10:89:83:F7:B2:39:63:8F
                DirName:/CN=team179-net
                serial:2C:0E:20:BB:D8:EB:0F:D2:EA:AB:BD:98:9F:4B:55:F0:BD:B1:4D:B1

            X509v3 Extended Key Usage: 
                TLS Web Client Authentication
            X509v3 Key Usage: 
                Digital Signature
    Signature Algorithm: sha256WithRSAEncryption
         d1:52:5a:3e:fa:ae:87:39:8d:d5:ef:4d:66:15:af:18:e6:47:
         1c:38:57:fb:74:5f:32:0e:31:14:48:67:8b:1c:0a:2d:f9:ad:
         f7:11:38:21:93:1c:3a:7d:02:9f:63:65:26:2a:7e:2a:57:bc:
         54:5c:e4:36:22:c0:f3:18:32:55:e7:53:e0:20:41:88:9e:44:
         19:11:f9:c2:38:a6:22:b9:c4:d7:b3:3a:5e:17:ae:58:bb:16:
         8c:2b:d5:78:a9:d2:df:60:05:a4:fa:92:59:02:0d:4e:f0:11:
         bd:b4:09:01:70:83:5a:85:a3:35:6d:ae:75:3d:78:1c:f4:8c:
         b2:9e:96:41:38:88:3d:61:cf:28:ff:94:7f:0f:b4:f8:be:8a:
         e6:27:55:87:13:f5:1b:de:15:c1:07:fe:3d:84:4c:90:19:d5:
         7e:68:44:a7:03:53:5f:fa:ae:98:f4:8a:bb:0e:e1:bd:fd:b4:
         10:76:5a:4a:6e:44:ef:19:12:22:a4:5e:dd:06:61:81:0e:4b:
         5c:60:0b:06:4b:9a:b3:ad:37:02:64:f4:ae:12:d4:05:7e:30:
         e1:b8:6f:7b:84:e5:80:2e:61:47:e4:63:1c:cd:2b:52:e9:57:
         47:a7:5e:d2:b7:3d:ea:99:7a:10:4d:19:02:9f:e9:84:3c:3c:
         0b:7a:ba:1b
-----BEGIN CERTIFICATE-----
MIIDXDCCAkSgAwIBAgIQRKdxRtqJKTzclEpzpNSRCzANBgkqhkiG9w0BAQsFADAW
MRQwEgYDVQQDDAt0ZWFtMTc5LW5ldDAeFw0yMzA4MTQxNDI1NTdaFw0yNjA3Mjkx
NDI1NTdaMBkxFzAVBgNVBAMMDnRlYW0xNzktY2xpZW50MIIBIjANBgkqhkiG9w0B
AQEFAAOCAQ8AMIIBCgKCAQEAuSUxwENJjWE+7rgfhJXKg/bofuaLqEbXeHEFrfTz
T5xvOctI+2diGgReEoCyN/UdmwvUP33vWf9lBAFdnmlRM/2nNZKLAhovJFL+daA/
SHUnjGpB/OiF/4hdJI8a6oEObNeiI0Y/y7yTjvT2ltVVTW0SMiDh2FYiP3+LRxw3
y9zUjCHXx/ZbQR4LpzZPeSvjmI6p5bRWmjkX0jF2XXJlhSgZoptXtkR+2dkr3EkA
uyUTw5ZGPbJGp8K9l+M27zvTXEjG9x22GLmslFuP5S1xHEOMLDydDpbJstDBq1C9
rTQ7ZVPnlAsjGKqoOQo1mrN4GrM1vr3w0PyzpxhpqdodbQIDAQABo4GiMIGfMAkG
A1UdEwQCMAAwHQYDVR0OBBYEFF+JGWWhQTwWx7Lo94OBj3yLch4JMFEGA1UdIwRK
MEiAFAs8vBDwN9up1PSdqRCJg/eyOWOPoRqkGDAWMRQwEgYDVQQDDAt0ZWFtMTc5
LW5ldIIULA4gu9jrD9Lqq72Yn0tV8L2xTbEwEwYDVR0lBAwwCgYIKwYBBQUHAwIw
CwYDVR0PBAQDAgeAMA0GCSqGSIb3DQEBCwUAA4IBAQDRUlo++q6HOY3V701mFa8Y
5kccOFf7dF8yDjEUSGeLHAot+a33ETghkxw6fQKfY2UmKn4qV7xUXOQ2IsDzGDJV
51PgIEGInkQZEfnCOKYiucTXszpeF65YuxaMK9V4qdLfYAWk+pJZAg1O8BG9tAkB
cINahaM1ba51PXgc9IyynpZBOIg9Yc8o/5R/D7T4vormJ1WHE/Ub3hXBB/49hEyQ
GdV+aESnA1Nf+q6Y9Iq7DuG9/bQQdlpKbkTvGRIipF7dBmGBDktcYAsGS5qzrTcC
ZPSuEtQFfjDhuG97hOWALmFH5GMczStS6VdHp17Stz3qmXoQTRkCn+mEPDwLerob
-----END CERTIFICATE-----
