Certificate:
    Data:
        Version: 3 (0x2)
        Serial Number:
            39:35:a8:4b:4e:74:3f:3c:71:0b:94:15:f3:32:03:9c
        Signature Algorithm: sha256WithRSAEncryption
        Issuer: CN=team146-net
        Validity
            Not Before: Aug 14 14:25:17 2023 GMT
            Not After : Jul 29 14:25:17 2026 GMT
        Subject: CN=team146-server
        Subject Public Key Info:
            Public Key Algorithm: rsaEncryption
                RSA Public-Key: (2048 bit)
                Modulus:
                    00:b6:de:59:fc:9c:88:65:e4:3f:58:b4:63:b5:f1:
                    1b:9c:76:9f:e9:75:e4:33:7b:4e:a5:c7:87:db:b0:
                    ef:b5:ce:6d:76:22:a9:ac:15:79:af:b1:69:20:5b:
                    ae:76:93:50:73:47:32:d2:4a:fb:34:05:6e:9d:81:
                    9e:14:d2:44:31:e5:cd:b3:4e:63:9b:b1:c8:f6:4f:
                    d8:cc:6e:f2:18:2f:75:2f:ed:a1:a4:c5:3f:aa:30:
                    c6:29:55:e7:e1:71:07:21:1a:c8:6a:a0:f7:a7:2e:
                    cb:c8:9f:c1:83:fc:30:cb:c3:e5:79:9b:98:29:d3:
                    53:d5:e4:81:2f:73:be:87:80:7e:52:63:21:92:f8:
                    15:10:28:4f:67:c0:2d:da:9f:f9:68:a8:ae:23:02:
                    1a:76:89:8a:ce:49:b9:7f:ab:53:48:ae:48:7e:9b:
                    cf:d0:bf:32:62:8a:1e:f9:b2:3f:3c:ad:1b:df:22:
                    34:a3:11:c6:ab:5a:a2:16:ba:26:db:d2:66:2c:a2:
                    eb:df:98:ad:65:23:4d:39:f9:02:4d:5e:33:3b:15:
                    0f:67:4a:74:b5:e6:52:ce:c4:f2:bc:6f:d2:70:82:
                    ea:99:c1:df:0b:f4:4f:ed:c9:70:1a:e6:52:ac:ad:
                    75:17:f7:78:80:e3:ff:b8:ad:11:39:75:16:60:c0:
                    e7:81
                Exponent: 65537 (0x10001)
        X509v3 extensions:
            X509v3 Basic Constraints: 
                CA:FALSE
            X509v3 Subject Key Identifier: 
                3B:02:D3:FE:42:E2:53:E8:77:17:32:46:32:4D:17:53:1D:93:55:97
            X509v3 Authority Key Identifier: 
                keyid:06:2A:81:FD:83:03:48:27:61:2F:EF:CE:2D:30:32:95:60:D0:92:46
                DirName:/CN=team146-net
                serial:13:72:A5:61:CA:D5:6D:B8:D3:8C:F8:17:C2:39:2F:DD:DB:F2:0F:60

            X509v3 Extended Key Usage: 
                TLS Web Server Authentication
            X509v3 Key Usage: 
                Digital Signature, Key Encipherment
            X509v3 Subject Alternative Name: 
                DNS:team146-server
    Signature Algorithm: sha256WithRSAEncryption
         25:61:03:ec:5a:e4:c0:2c:bc:1d:66:65:8e:75:a9:75:17:92:
         06:2d:a3:61:e6:ba:e2:32:b2:6d:b4:a8:98:d9:1f:33:19:e1:
         00:78:1c:cb:78:d3:e8:a1:bf:ba:f0:ce:03:bc:75:8f:13:3b:
         d0:b1:e1:b9:95:cc:6b:46:9a:15:80:9f:cf:35:50:54:b9:f5:
         89:6c:82:3b:b1:55:6e:23:31:2e:52:de:64:c9:76:95:5a:b7:
         67:e5:80:1d:3c:be:aa:7b:25:83:30:24:b0:6a:31:05:53:06:
         91:9f:b1:d8:02:86:e7:93:d4:8c:e2:2d:ad:c5:41:fa:9e:c6:
         a3:f4:ed:ef:f2:61:0c:6e:36:32:38:68:22:4c:7d:c9:ec:cc:
         8b:15:5e:8c:55:30:20:0a:18:e8:9c:05:8b:da:c3:2e:a6:e6:
         06:50:fa:25:c2:a7:87:c7:c8:dd:0e:f0:f7:ba:52:93:b2:84:
         52:c8:81:65:cf:67:93:5e:0f:cf:61:b9:57:05:d0:63:fe:31:
         ef:dc:5e:9e:74:2b:c4:22:d8:1e:d6:54:7d:42:14:02:63:6b:
         43:c5:6e:e2:96:83:44:07:62:60:14:95:cd:eb:b0:46:77:a4:
         6a:9f:55:6e:5a:f9:e4:5c:22:39:27:76:b2:08:72:84:6c:41:
         0a:b0:bb:5a
-----BEGIN CERTIFICATE-----
MIIDdzCCAl+gAwIBAgIQOTWoS050PzxxC5QV8zIDnDANBgkqhkiG9w0BAQsFADAW
MRQwEgYDVQQDDAt0ZWFtMTQ2LW5ldDAeFw0yMzA4MTQxNDI1MTdaFw0yNjA3Mjkx
NDI1MTdaMBkxFzAVBgNVBAMMDnRlYW0xNDYtc2VydmVyMIIBIjANBgkqhkiG9w0B
AQEFAAOCAQ8AMIIBCgKCAQEAtt5Z/JyIZeQ/WLRjtfEbnHaf6XXkM3tOpceH27Dv
tc5tdiKprBV5r7FpIFuudpNQc0cy0kr7NAVunYGeFNJEMeXNs05jm7HI9k/YzG7y
GC91L+2hpMU/qjDGKVXn4XEHIRrIaqD3py7LyJ/Bg/wwy8PleZuYKdNT1eSBL3O+
h4B+UmMhkvgVEChPZ8At2p/5aKiuIwIadomKzkm5f6tTSK5IfpvP0L8yYooe+bI/
PK0b3yI0oxHGq1qiFrom29JmLKLr35itZSNNOfkCTV4zOxUPZ0p0teZSzsTyvG/S
cILqmcHfC/RP7clwGuZSrK11F/d4gOP/uK0ROXUWYMDngQIDAQABo4G9MIG6MAkG
A1UdEwQCMAAwHQYDVR0OBBYEFDsC0/5C4lPodxcyRjJNF1Mdk1WXMFEGA1UdIwRK
MEiAFAYqgf2DA0gnYS/vzi0wMpVg0JJGoRqkGDAWMRQwEgYDVQQDDAt0ZWFtMTQ2
LW5ldIIUE3KlYcrVbbjTjPgXwjkv3dvyD2AwEwYDVR0lBAwwCgYIKwYBBQUHAwEw
CwYDVR0PBAQDAgWgMBkGA1UdEQQSMBCCDnRlYW0xNDYtc2VydmVyMA0GCSqGSIb3
DQEBCwUAA4IBAQAlYQPsWuTALLwdZmWOdal1F5IGLaNh5rriMrJttKiY2R8zGeEA
eBzLeNPoob+68M4DvHWPEzvQseG5lcxrRpoVgJ/PNVBUufWJbII7sVVuIzEuUt5k
yXaVWrdn5YAdPL6qeyWDMCSwajEFUwaRn7HYAobnk9SM4i2txUH6nsaj9O3v8mEM
bjYyOGgiTH3J7MyLFV6MVTAgChjonAWL2sMupuYGUPolwqeHx8jdDvD3ulKTsoRS
yIFlz2eTXg/PYblXBdBj/jHv3F6edCvEItge1lR9QhQCY2tDxW7iloNEB2JgFJXN
67BGd6Rqn1VuWvnkXCI5J3ayCHKEbEEKsLta
-----END CERTIFICATE-----
