Certificate:
    Data:
        Version: 3 (0x2)
        Serial Number:
            48:6a:76:8d:3b:5d:a6:89:77:c8:c6:ff:55:1b:44:8d
        Signature Algorithm: sha256WithRSAEncryption
        Issuer: CN=team239-net
        Validity
            Not Before: Aug 14 14:27:07 2023 GMT
            Not After : Jul 29 14:27:07 2026 GMT
        Subject: CN=team239-server
        Subject Public Key Info:
            Public Key Algorithm: rsaEncryption
                RSA Public-Key: (2048 bit)
                Modulus:
                    00:c2:2a:31:81:f4:98:33:f1:f9:a6:65:e6:3b:da:
                    c9:7d:0c:ee:80:c6:54:4e:26:fc:f2:fa:96:b9:15:
                    04:54:c0:69:a5:f6:62:5b:1f:c2:69:7b:43:11:31:
                    23:cb:85:61:3a:8f:95:f7:e8:e2:48:3c:0f:69:fb:
                    62:de:8b:cb:6b:45:39:e9:4c:e2:f6:2c:06:a0:c9:
                    1b:fb:00:00:56:17:30:d1:76:31:fb:f1:19:70:0f:
                    16:32:1d:41:61:7d:e5:06:ad:db:62:f6:66:c6:7a:
                    6a:55:7d:b1:34:49:d0:88:44:5e:b9:f5:32:01:fc:
                    85:ef:2b:a2:ae:eb:26:15:e1:72:c0:90:09:82:2c:
                    55:f9:c3:06:f6:0d:c8:2e:a3:cf:c8:1c:6d:f7:ef:
                    97:6e:96:df:16:a9:0c:77:5b:bd:1f:73:6f:34:2e:
                    23:cb:ba:2c:c6:7b:31:65:d9:c0:de:dd:6b:86:3a:
                    d1:f6:9f:88:7e:3f:ac:9c:47:1d:5c:aa:cb:61:85:
                    c7:2a:ed:bf:22:99:0f:65:a4:55:b4:0a:b8:d8:85:
                    22:c3:67:2b:8d:f3:3a:9f:7a:9c:f4:05:a2:b9:29:
                    72:3d:87:74:36:7d:40:31:12:38:93:52:01:58:1e:
                    68:c2:cd:b1:89:d1:bf:c7:9d:be:01:4d:d4:d8:95:
                    b5:79
                Exponent: 65537 (0x10001)
        X509v3 extensions:
            X509v3 Basic Constraints: 
                CA:FALSE
            X509v3 Subject Key Identifier: 
                34:DC:2C:79:AF:20:C9:3E:53:CF:D2:84:2E:E3:86:E7:3F:0F:1D:8C
            X509v3 Authority Key Identifier: 
                keyid:9A:06:EE:F4:E3:9F:68:65:9A:2E:CB:57:15:DD:45:74:1B:72:FB:4E
                DirName:/CN=team239-net
                serial:15:C6:85:FE:E8:3E:6C:9F:69:AC:26:53:5F:51:69:39:C5:F7:CE:88

            X509v3 Extended Key Usage: 
                TLS Web Server Authentication
            X509v3 Key Usage: 
                Digital Signature, Key Encipherment
            X509v3 Subject Alternative Name: 
                DNS:team239-server
    Signature Algorithm: sha256WithRSAEncryption
         3f:4e:08:16:04:89:c3:e5:d6:34:d9:44:e5:99:58:d7:ad:af:
         8c:f5:bf:19:dd:de:28:8b:6d:78:bc:88:21:4f:ef:ed:7f:74:
         56:cd:0c:a1:13:eb:14:ea:78:31:b2:66:40:e6:99:76:95:bd:
         7b:91:c2:d3:af:5c:68:18:7f:58:f4:b4:d8:a2:2e:a7:e4:62:
         57:9e:0b:0c:57:9a:ee:6a:73:0e:b5:d7:0a:3f:c0:25:b9:76:
         0d:9a:ca:c6:9c:c0:cf:3b:78:0b:cb:12:5e:b2:4e:7f:0d:d9:
         80:fc:07:6e:a1:93:64:f9:e8:ca:79:f5:14:b0:99:d9:05:29:
         5b:0a:47:24:d4:a6:da:c2:44:71:ba:9e:ab:a1:7f:55:f8:bf:
         66:7b:7e:a4:bd:c8:7c:9e:8f:de:93:88:31:9a:69:5a:31:0b:
         bc:d1:a8:4a:1f:f4:40:c9:e3:7a:98:fd:52:72:73:77:06:01:
         cd:6f:fc:76:df:71:a5:e0:88:c8:17:eb:da:e8:bc:46:59:e9:
         2b:f4:c3:fd:17:16:e7:c0:c3:13:5f:b5:3e:34:5d:7a:ae:de:
         42:10:9e:34:f5:14:b4:d7:fc:fc:5d:a7:eb:b5:1a:72:29:71:
         2f:2e:47:da:ee:3d:c3:f4:b9:c2:a6:c7:21:15:b6:e8:79:b6:
         18:a2:12:dc
-----BEGIN CERTIFICATE-----
MIIDdzCCAl+gAwIBAgIQSGp2jTtdpol3yMb/VRtEjTANBgkqhkiG9w0BAQsFADAW
MRQwEgYDVQQDDAt0ZWFtMjM5LW5ldDAeFw0yMzA4MTQxNDI3MDdaFw0yNjA3Mjkx
NDI3MDdaMBkxFzAVBgNVBAMMDnRlYW0yMzktc2VydmVyMIIBIjANBgkqhkiG9w0B
AQEFAAOCAQ8AMIIBCgKCAQEAwioxgfSYM/H5pmXmO9rJfQzugMZUTib88vqWuRUE
VMBppfZiWx/CaXtDETEjy4VhOo+V9+jiSDwPafti3ovLa0U56Uzi9iwGoMkb+wAA
Vhcw0XYx+/EZcA8WMh1BYX3lBq3bYvZmxnpqVX2xNEnQiEReufUyAfyF7yuirusm
FeFywJAJgixV+cMG9g3ILqPPyBxt9++XbpbfFqkMd1u9H3NvNC4jy7osxnsxZdnA
3t1rhjrR9p+Ifj+snEcdXKrLYYXHKu2/IpkPZaRVtAq42IUiw2crjfM6n3qc9AWi
uSlyPYd0Nn1AMRI4k1IBWB5ows2xidG/x52+AU3U2JW1eQIDAQABo4G9MIG6MAkG
A1UdEwQCMAAwHQYDVR0OBBYEFDTcLHmvIMk+U8/ShC7jhuc/Dx2MMFEGA1UdIwRK
MEiAFJoG7vTjn2hlmi7LVxXdRXQbcvtOoRqkGDAWMRQwEgYDVQQDDAt0ZWFtMjM5
LW5ldIIUFcaF/ug+bJ9prCZTX1FpOcX3zogwEwYDVR0lBAwwCgYIKwYBBQUHAwEw
CwYDVR0PBAQDAgWgMBkGA1UdEQQSMBCCDnRlYW0yMzktc2VydmVyMA0GCSqGSIb3
DQEBCwUAA4IBAQA/TggWBInD5dY02UTlmVjXra+M9b8Z3d4oi214vIghT+/tf3RW
zQyhE+sU6ngxsmZA5pl2lb17kcLTr1xoGH9Y9LTYoi6n5GJXngsMV5ruanMOtdcK
P8AluXYNmsrGnMDPO3gLyxJesk5/DdmA/AduoZNk+ejKefUUsJnZBSlbCkck1Kba
wkRxup6roX9V+L9me36kvch8no/ek4gxmmlaMQu80ahKH/RAyeN6mP1ScnN3BgHN
b/x233Gl4IjIF+va6LxGWekr9MP9FxbnwMMTX7U+NF16rt5CEJ409RS01/z8Xafr
tRpyKXEvLkfa7j3D9LnCpschFbboebYYohLc
-----END CERTIFICATE-----
