Certificate:
    Data:
        Version: 3 (0x2)
        Serial Number:
            ef:60:73:b0:74:31:e0:68:ae:5b:9e:63:1f:6d:53:cf
        Signature Algorithm: sha256WithRSAEncryption
        Issuer: CN=team239-net
        Validity
            Not Before: Aug 14 14:27:07 2023 GMT
            Not After : Jul 29 14:27:07 2026 GMT
        Subject: CN=team239-client
        Subject Public Key Info:
            Public Key Algorithm: rsaEncryption
                RSA Public-Key: (2048 bit)
                Modulus:
                    00:95:c6:24:64:e7:0d:fb:7b:24:ea:4e:7f:08:39:
                    1e:79:c4:a4:52:71:23:34:05:cb:ae:eb:0a:f2:79:
                    30:28:da:22:1f:27:0a:b0:22:81:fd:9f:39:ac:d5:
                    0c:30:8a:98:de:ea:50:2b:51:7b:74:5e:d8:6f:e3:
                    d0:af:7a:57:7a:d1:48:a1:a7:e9:9c:89:aa:aa:aa:
                    42:8c:33:fd:e9:4d:e2:e8:1b:84:b8:b4:69:61:01:
                    bb:9c:32:40:c4:4b:dd:e1:d6:74:94:8e:1a:6c:c2:
                    38:c2:4c:c4:2f:dd:c7:50:84:ad:8c:45:cf:72:5a:
                    0f:71:f4:0d:56:43:97:d5:6c:d3:b6:3e:f1:b4:05:
                    b3:85:b3:d0:59:4f:be:38:89:81:4e:da:49:9f:cf:
                    ed:9c:fd:1d:6b:04:1a:77:f0:b0:2e:7e:21:37:9f:
                    d1:8a:d8:d5:dc:0a:26:fd:1a:5e:ee:d1:dc:5d:54:
                    28:b5:0f:f8:5f:62:a3:8b:55:5f:78:1a:4c:e4:c8:
                    75:28:4b:21:4e:51:20:26:8a:82:14:38:c6:c1:9c:
                    9e:81:cb:fc:2a:a4:f2:9e:34:0e:eb:36:9e:fd:ad:
                    bb:a0:ac:43:9d:8f:4f:78:9f:b0:c6:19:c3:ee:f3:
                    9a:b4:f8:b2:2d:ed:7f:30:43:70:22:7d:c9:00:9d:
                    f8:0d
                Exponent: 65537 (0x10001)
        X509v3 extensions:
            X509v3 Basic Constraints: 
                CA:FALSE
            X509v3 Subject Key Identifier: 
                99:54:D3:4C:3D:BE:88:7B:05:87:50:8C:51:E4:2A:D6:A6:69:F0:4B
            X509v3 Authority Key Identifier: 
                keyid:9A:06:EE:F4:E3:9F:68:65:9A:2E:CB:57:15:DD:45:74:1B:72:FB:4E
                DirName:/CN=team239-net
                serial:15:C6:85:FE:E8:3E:6C:9F:69:AC:26:53:5F:51:69:39:C5:F7:CE:88

            X509v3 Extended Key Usage: 
                TLS Web Client Authentication
            X509v3 Key Usage: 
                Digital Signature
    Signature Algorithm: sha256WithRSAEncryption
         61:e0:40:14:3b:4e:45:ec:e9:b1:73:79:8c:68:f5:c6:a6:89:
         95:00:cf:42:3b:9d:66:fd:48:7f:ff:b1:83:fb:75:e6:4b:8e:
         82:3d:53:44:93:c3:94:e6:07:bb:b6:98:f7:e3:ae:b4:f4:5c:
         42:f4:d5:69:57:53:30:f3:fa:85:c1:3f:0c:79:99:5d:c9:49:
         32:55:9e:a3:8d:a9:d4:ab:96:78:27:dd:fa:b4:dd:8f:e3:65:
         d8:77:c9:8f:b8:d4:e6:49:d7:85:10:20:0c:09:2a:fe:5e:8e:
         a3:ae:a2:fd:c1:00:6b:36:ed:5b:2a:64:21:b9:34:d1:b3:85:
         41:fd:48:ad:fe:3f:de:48:58:ab:e2:c1:36:fb:23:dd:df:91:
         38:27:94:2f:a6:6a:56:c4:1c:e7:30:f6:52:23:4a:d0:d5:30:
         25:5f:68:c7:62:e1:ef:c4:1f:96:23:2f:93:aa:ce:75:3b:13:
         5b:25:56:f2:b7:03:13:42:b7:dd:44:94:46:f7:66:dc:f3:03:
         1b:81:3f:23:59:9d:fc:c2:8b:0d:2b:95:86:34:85:de:20:bf:
         06:49:c1:7f:db:c3:65:08:c7:20:00:a8:f8:c9:7c:c1:73:db:
         1f:ea:41:59:3e:0d:c6:27:67:ee:06:35:0d:f9:f8:2a:a5:1c:
         8a:9b:cc:77
-----BEGIN CERTIFICATE-----
MIIDXTCCAkWgAwIBAgIRAO9gc7B0MeBorlueYx9tU88wDQYJKoZIhvcNAQELBQAw
FjEUMBIGA1UEAwwLdGVhbTIzOS1uZXQwHhcNMjMwODE0MTQyNzA3WhcNMjYwNzI5
MTQyNzA3WjAZMRcwFQYDVQQDDA50ZWFtMjM5LWNsaWVudDCCASIwDQYJKoZIhvcN
AQEBBQADggEPADCCAQoCggEBAJXGJGTnDft7JOpOfwg5HnnEpFJxIzQFy67rCvJ5
MCjaIh8nCrAigf2fOazVDDCKmN7qUCtRe3Re2G/j0K96V3rRSKGn6ZyJqqqqQowz
/elN4ugbhLi0aWEBu5wyQMRL3eHWdJSOGmzCOMJMxC/dx1CErYxFz3JaD3H0DVZD
l9Vs07Y+8bQFs4Wz0FlPvjiJgU7aSZ/P7Zz9HWsEGnfwsC5+ITef0YrY1dwKJv0a
Xu7R3F1UKLUP+F9io4tVX3gaTOTIdShLIU5RICaKghQ4xsGcnoHL/Cqk8p40Dus2
nv2tu6CsQ52PT3ifsMYZw+7zmrT4si3tfzBDcCJ9yQCd+A0CAwEAAaOBojCBnzAJ
BgNVHRMEAjAAMB0GA1UdDgQWBBSZVNNMPb6IewWHUIxR5CrWpmnwSzBRBgNVHSME
SjBIgBSaBu70459oZZouy1cV3UV0G3L7TqEapBgwFjEUMBIGA1UEAwwLdGVhbTIz
OS1uZXSCFBXGhf7oPmyfaawmU19RaTnF986IMBMGA1UdJQQMMAoGCCsGAQUFBwMC
MAsGA1UdDwQEAwIHgDANBgkqhkiG9w0BAQsFAAOCAQEAYeBAFDtORezpsXN5jGj1
xqaJlQDPQjudZv1If/+xg/t15kuOgj1TRJPDlOYHu7aY9+OutPRcQvTVaVdTMPP6
hcE/DHmZXclJMlWeo42p1KuWeCfd+rTdj+Nl2HfJj7jU5knXhRAgDAkq/l6Oo66i
/cEAazbtWypkIbk00bOFQf1Irf4/3khYq+LBNvsj3d+ROCeUL6ZqVsQc5zD2UiNK
0NUwJV9ox2Lh78QfliMvk6rOdTsTWyVW8rcDE0K33USURvdm3PMDG4E/I1md/MKL
DSuVhjSF3iC/BknBf9vDZQjHIACo+Ml8wXPbH+pBWT4Nxidn7gY1Dfn4KqUcipvM
dw==
-----END CERTIFICATE-----
