Certificate:
    Data:
        Version: 3 (0x2)
        Serial Number:
            02:02:d6:d7:f0:ec:82:66:c0:6d:9e:92:3c:01:09:42
        Signature Algorithm: sha256WithRSAEncryption
        Issuer: CN=team48-net
        Validity
            Not Before: Aug 14 14:23:09 2023 GMT
            Not After : Jul 29 14:23:09 2026 GMT
        Subject: CN=team48-client
        Subject Public Key Info:
            Public Key Algorithm: rsaEncryption
                RSA Public-Key: (2048 bit)
                Modulus:
                    00:d2:05:5d:61:84:ae:88:3c:16:bc:92:41:f7:18:
                    d3:4e:91:33:fd:07:9a:78:2c:a7:dd:68:fc:58:73:
                    e7:72:45:ed:b5:9a:e2:85:fc:bf:be:9d:d6:96:01:
                    42:35:46:71:86:38:d4:08:a1:40:3e:06:61:4d:56:
                    b4:0b:19:3c:85:50:77:8d:46:f5:65:6b:b0:3f:90:
                    71:01:ba:e6:4b:d8:88:b3:b4:c5:29:33:34:0e:49:
                    e6:13:49:aa:7b:04:00:02:cc:30:59:7a:da:07:6c:
                    39:a4:67:f1:6b:ce:a9:22:43:51:73:b7:26:4b:a2:
                    a1:44:5b:97:db:23:90:2b:3c:0f:bc:55:72:9c:d1:
                    75:cf:f2:18:4c:df:0b:06:5f:26:a9:da:c2:bf:03:
                    30:4d:68:0c:37:af:e2:40:52:a8:43:cf:b7:42:27:
                    04:c4:f4:76:68:6c:31:ff:ea:77:b8:a2:9a:cb:82:
                    ff:b5:00:a9:52:82:70:61:61:78:32:42:ad:ea:ca:
                    f5:02:a3:19:31:1d:37:04:64:75:d0:90:09:78:c0:
                    87:ab:4a:eb:e8:10:83:e6:52:80:2c:fb:1b:74:f0:
                    87:82:21:89:6f:6a:af:f8:bc:4c:7e:05:be:76:17:
                    ff:cf:a4:57:00:7e:42:3d:15:d2:50:f3:1a:ba:cc:
                    a2:51
                Exponent: 65537 (0x10001)
        X509v3 extensions:
            X509v3 Basic Constraints: 
                CA:FALSE
            X509v3 Subject Key Identifier: 
                CF:99:B6:0A:F3:2C:43:3B:AE:5D:33:E2:AE:FE:DC:F6:23:C8:59:BA
            X509v3 Authority Key Identifier: 
                keyid:3F:09:84:1F:1F:68:61:62:DA:FD:66:81:EF:AC:12:08:B4:EB:72:40
                DirName:/CN=team48-net
                serial:5E:70:B3:B9:24:F7:00:9C:66:40:50:60:FA:59:81:78:6D:36:78:41

            X509v3 Extended Key Usage: 
                TLS Web Client Authentication
            X509v3 Key Usage: 
                Digital Signature
    Signature Algorithm: sha256WithRSAEncryption
         22:bc:1b:fd:a7:a6:ba:b8:a0:a2:d3:c2:56:3c:44:fb:ca:ec:
         c5:3f:0c:41:15:af:73:ae:4b:10:16:95:1f:9d:36:db:ce:26:
         67:4a:1d:bb:db:b8:30:a7:e8:c1:ce:00:0a:83:d4:bb:8b:bc:
         54:28:7b:33:16:29:b5:63:9b:4c:95:7f:19:cb:db:29:7e:c6:
         bd:54:0d:b6:7e:41:61:af:d4:49:7a:ab:4a:3c:46:03:20:d6:
         5a:de:ee:5e:9f:66:d5:79:b8:5e:c0:d5:d2:22:7b:53:a0:81:
         8c:2b:cf:6e:5c:93:9b:2e:ab:d5:50:88:31:1b:ff:6c:51:de:
         23:78:b3:c0:b2:93:73:f6:8a:6d:81:fd:bb:b6:b8:4f:a1:a4:
         72:dd:71:eb:1f:5c:3e:d0:6d:75:d5:54:c9:c7:a3:ff:46:f7:
         61:fd:95:c6:0b:ad:2b:0c:7d:55:e8:bd:51:25:a8:c9:ba:87:
         88:c5:96:85:b6:d8:39:81:3c:1b:35:54:c5:b6:36:79:91:13:
         9c:ba:a9:1f:43:d6:d7:ac:be:cf:2b:b5:fe:21:9b:f5:cc:ed:
         1a:b4:04:c8:42:cc:9b:b7:98:e3:b2:71:47:1e:ae:0f:ae:7b:
         ff:b4:9c:10:cc:bc:ff:9e:78:2f:30:8c:50:f1:de:6f:37:9f:
         03:1d:bc:f1
-----BEGIN CERTIFICATE-----
MIIDWTCCAkGgAwIBAgIQAgLW1/DsgmbAbZ6SPAEJQjANBgkqhkiG9w0BAQsFADAV
MRMwEQYDVQQDDAp0ZWFtNDgtbmV0MB4XDTIzMDgxNDE0MjMwOVoXDTI2MDcyOTE0
MjMwOVowGDEWMBQGA1UEAwwNdGVhbTQ4LWNsaWVudDCCASIwDQYJKoZIhvcNAQEB
BQADggEPADCCAQoCggEBANIFXWGErog8FrySQfcY006RM/0Hmngsp91o/Fhz53JF
7bWa4oX8v76d1pYBQjVGcYY41AihQD4GYU1WtAsZPIVQd41G9WVrsD+QcQG65kvY
iLO0xSkzNA5J5hNJqnsEAALMMFl62gdsOaRn8WvOqSJDUXO3JkuioURbl9sjkCs8
D7xVcpzRdc/yGEzfCwZfJqnawr8DME1oDDev4kBSqEPPt0InBMT0dmhsMf/qd7ii
msuC/7UAqVKCcGFheDJCrerK9QKjGTEdNwRkddCQCXjAh6tK6+gQg+ZSgCz7G3Tw
h4IhiW9qr/i8TH4FvnYX/8+kVwB+Qj0V0lDzGrrMolECAwEAAaOBoTCBnjAJBgNV
HRMEAjAAMB0GA1UdDgQWBBTPmbYK8yxDO65dM+Ku/tz2I8hZujBQBgNVHSMESTBH
gBQ/CYQfH2hhYtr9ZoHvrBIItOtyQKEZpBcwFTETMBEGA1UEAwwKdGVhbTQ4LW5l
dIIUXnCzuST3AJxmQFBg+lmBeG02eEEwEwYDVR0lBAwwCgYIKwYBBQUHAwIwCwYD
VR0PBAQDAgeAMA0GCSqGSIb3DQEBCwUAA4IBAQAivBv9p6a6uKCi08JWPET7yuzF
PwxBFa9zrksQFpUfnTbbziZnSh2727gwp+jBzgAKg9S7i7xUKHszFim1Y5tMlX8Z
y9spfsa9VA22fkFhr9RJeqtKPEYDINZa3u5en2bVebhewNXSIntToIGMK89uXJOb
LqvVUIgxG/9sUd4jeLPAspNz9optgf27trhPoaRy3XHrH1w+0G111VTJx6P/Rvdh
/ZXGC60rDH1V6L1RJajJuoeIxZaFttg5gTwbNVTFtjZ5kROcuqkfQ9bXrL7PK7X+
IZv1zO0atATIQsybt5jjsnFHHq4Prnv/tJwQzLz/nngvMIxQ8d5vN58DHbzx
-----END CERTIFICATE-----
