Certificate:
    Data:
        Version: 3 (0x2)
        Serial Number:
            58:21:bf:7e:58:69:5f:ba:c3:b1:17:f6:3e:e4:12:90
        Signature Algorithm: sha256WithRSAEncryption
        Issuer: CN=team51-net
        Validity
            Not Before: Aug 14 14:23:15 2023 GMT
            Not After : Jul 29 14:23:15 2026 GMT
        Subject: CN=team51-server
        Subject Public Key Info:
            Public Key Algorithm: rsaEncryption
                RSA Public-Key: (2048 bit)
                Modulus:
                    00:ba:f9:07:88:dc:e3:58:44:fb:d2:0d:b9:fc:48:
                    9c:23:62:42:44:15:2f:da:14:56:b8:ae:74:7f:aa:
                    e0:94:95:db:a0:0c:d4:d0:88:b4:b3:0b:07:68:d1:
                    40:af:c8:c3:0f:d3:4d:0d:86:92:f4:74:48:0e:b9:
                    6a:06:3e:4a:80:2a:50:19:97:90:78:f3:df:5e:32:
                    47:86:15:5b:c7:64:1b:eb:0d:57:4c:ca:1b:6b:10:
                    22:c3:b1:7e:af:20:d2:bc:f0:41:08:17:67:12:77:
                    8e:7f:3c:4b:1b:49:8a:db:0c:df:18:68:28:d5:e6:
                    61:7d:0e:ef:0e:04:3a:84:d9:1a:2b:72:62:fe:57:
                    77:b9:b6:28:5f:90:a4:84:5a:72:87:3a:a1:cd:69:
                    2a:41:f3:21:24:c4:68:4e:54:ee:64:3c:7d:bb:04:
                    8d:49:da:8b:cc:14:25:36:b2:0e:0d:04:93:c4:82:
                    82:dd:31:31:05:88:48:e3:af:6d:8c:f6:60:aa:4b:
                    fe:9a:c6:7d:3f:fc:6d:a5:5a:b8:5f:97:48:2b:b8:
                    e3:3f:61:0e:19:24:eb:5b:29:81:f4:3a:c4:a4:06:
                    b6:b0:3f:a5:85:05:45:bf:72:8f:9d:20:c3:ed:a8:
                    c8:cf:4d:84:31:32:48:12:cc:53:24:05:a3:04:70:
                    1f:cb
                Exponent: 65537 (0x10001)
        X509v3 extensions:
            X509v3 Basic Constraints: 
                CA:FALSE
            X509v3 Subject Key Identifier: 
                D6:14:BE:2C:E2:63:C2:77:20:F5:48:9A:FA:AF:84:DC:CC:5E:01:26
            X509v3 Authority Key Identifier: 
                keyid:C4:49:0C:04:97:89:2E:6E:76:07:5A:04:E8:5E:18:62:2F:E5:0D:3A
                DirName:/CN=team51-net
                serial:1D:2B:29:02:23:CC:3A:49:AB:E9:B3:8F:36:0D:1B:9B:5A:58:F6:03

            X509v3 Extended Key Usage: 
                TLS Web Server Authentication
            X509v3 Key Usage: 
                Digital Signature, Key Encipherment
            X509v3 Subject Alternative Name: 
                DNS:team51-server
    Signature Algorithm: sha256WithRSAEncryption
         69:5d:f2:e8:f1:ed:68:cd:a0:b3:22:9b:7c:5c:f3:de:24:da:
         b3:fd:a8:db:6d:73:ac:3e:42:70:ca:89:ee:d8:e7:c9:43:d1:
         b1:f2:8b:ce:32:ac:d4:1b:54:36:c8:7d:e5:c2:54:b3:b1:11:
         7a:95:c2:6a:0d:2f:7c:2d:77:3e:7c:8a:71:f0:66:3f:ad:0d:
         69:91:b7:79:7c:44:e8:ea:63:f8:db:c5:f8:61:7f:86:6c:64:
         c0:9c:68:26:22:f6:a6:d4:1f:ce:e5:55:b0:63:34:df:15:5c:
         da:1e:0c:a6:d9:cd:2d:f3:ba:2d:8a:ce:f7:92:d0:30:17:0a:
         0c:6e:ae:41:f0:a5:c2:27:3b:f6:41:fb:7d:7c:9b:87:04:69:
         27:a5:79:0e:f7:bf:76:7e:73:57:00:03:6d:b0:5d:3b:57:8a:
         8a:eb:4c:2d:3b:d3:32:4a:f1:50:28:fe:17:ec:2c:15:85:4a:
         f5:6e:dc:8a:eb:13:1e:da:df:97:b7:7f:a5:c3:f6:05:d0:e4:
         70:32:17:3c:56:d3:bf:52:3c:06:32:b5:7b:2e:b5:44:6e:b5:
         5a:70:20:f5:df:3a:89:33:e4:62:80:9f:83:4b:68:94:10:2b:
         4c:de:f8:6d:e8:4f:ad:28:4a:ef:ef:06:ba:11:57:54:f9:57:
         86:d3:0e:f5
-----BEGIN CERTIFICATE-----
MIIDczCCAlugAwIBAgIQWCG/flhpX7rDsRf2PuQSkDANBgkqhkiG9w0BAQsFADAV
MRMwEQYDVQQDDAp0ZWFtNTEtbmV0MB4XDTIzMDgxNDE0MjMxNVoXDTI2MDcyOTE0
MjMxNVowGDEWMBQGA1UEAwwNdGVhbTUxLXNlcnZlcjCCASIwDQYJKoZIhvcNAQEB
BQADggEPADCCAQoCggEBALr5B4jc41hE+9INufxInCNiQkQVL9oUVriudH+q4JSV
26AM1NCItLMLB2jRQK/Iww/TTQ2GkvR0SA65agY+SoAqUBmXkHjz314yR4YVW8dk
G+sNV0zKG2sQIsOxfq8g0rzwQQgXZxJ3jn88SxtJitsM3xhoKNXmYX0O7w4EOoTZ
GityYv5Xd7m2KF+QpIRacoc6oc1pKkHzISTEaE5U7mQ8fbsEjUnai8wUJTayDg0E
k8SCgt0xMQWISOOvbYz2YKpL/prGfT/8baVauF+XSCu44z9hDhkk61spgfQ6xKQG
trA/pYUFRb9yj50gw+2oyM9NhDEySBLMUyQFowRwH8sCAwEAAaOBuzCBuDAJBgNV
HRMEAjAAMB0GA1UdDgQWBBTWFL4s4mPCdyD1SJr6r4TczF4BJjBQBgNVHSMESTBH
gBTESQwEl4kubnYHWgToXhhiL+UNOqEZpBcwFTETMBEGA1UEAwwKdGVhbTUxLW5l
dIIUHSspAiPMOkmr6bOPNg0bm1pY9gMwEwYDVR0lBAwwCgYIKwYBBQUHAwEwCwYD
VR0PBAQDAgWgMBgGA1UdEQQRMA+CDXRlYW01MS1zZXJ2ZXIwDQYJKoZIhvcNAQEL
BQADggEBAGld8ujx7WjNoLMim3xc894k2rP9qNttc6w+QnDKie7Y58lD0bHyi84y
rNQbVDbIfeXCVLOxEXqVwmoNL3wtdz58inHwZj+tDWmRt3l8ROjqY/jbxfhhf4Zs
ZMCcaCYi9qbUH87lVbBjNN8VXNoeDKbZzS3zui2KzveS0DAXCgxurkHwpcInO/ZB
+318m4cEaSeleQ73v3Z+c1cAA22wXTtXiorrTC070zJK8VAo/hfsLBWFSvVu3Irr
Ex7a35e3f6XD9gXQ5HAyFzxW079SPAYytXsutURutVpwIPXfOokz5GKAn4NLaJQQ
K0ze+G3oT60oSu/vBroRV1T5V4bTDvU=
-----END CERTIFICATE-----
