Certificate:
    Data:
        Version: 3 (0x2)
        Serial Number:
            8e:7e:8b:c1:f2:67:78:54:3e:26:d3:36:b1:fa:08:b3
        Signature Algorithm: sha256WithRSAEncryption
        Issuer: CN=team51-net
        Validity
            Not Before: Aug 14 14:23:15 2023 GMT
            Not After : Jul 29 14:23:15 2026 GMT
        Subject: CN=team51-client
        Subject Public Key Info:
            Public Key Algorithm: rsaEncryption
                RSA Public-Key: (2048 bit)
                Modulus:
                    00:bb:e9:61:72:6b:69:dc:ea:95:60:f1:15:53:76:
                    8b:ae:96:c3:51:c8:07:38:6a:25:ec:ef:90:f8:15:
                    e9:9d:60:b6:96:f2:ba:0b:b4:4f:6e:d9:69:bc:10:
                    ed:34:c1:c7:d0:93:ef:45:fc:e2:91:c1:39:cf:b7:
                    59:d8:c4:f2:c5:bf:03:77:2e:8c:6f:6b:cb:8b:3d:
                    97:d2:c6:2f:57:ef:64:b7:2b:81:e9:a3:1e:29:35:
                    5d:4e:7e:7d:be:ff:24:dc:f5:c5:f0:59:9f:2b:d9:
                    69:1e:52:0b:9e:6e:29:1a:12:34:7d:88:84:d7:de:
                    b1:4d:52:44:b0:a2:bc:ff:7e:ad:96:20:96:1b:67:
                    21:bd:cf:c9:d1:78:d4:2b:36:02:4b:7c:0d:12:d2:
                    ea:1d:fd:76:f9:21:5b:68:2e:66:5e:65:de:e1:44:
                    32:d9:fa:0b:23:64:e1:9b:52:b7:78:b7:68:e5:3f:
                    d3:9f:be:ea:ee:da:86:f5:68:4f:9c:47:76:58:06:
                    01:ff:2c:fe:0e:ea:ad:31:36:64:bc:cb:e1:c4:15:
                    9c:2c:b5:52:33:f6:c9:05:f6:92:9d:00:0c:9c:93:
                    47:b6:e3:94:1f:3a:e2:f5:c7:ef:c7:c2:4b:58:24:
                    64:2e:13:55:1b:82:2e:10:17:29:ec:a1:a8:63:99:
                    17:71
                Exponent: 65537 (0x10001)
        X509v3 extensions:
            X509v3 Basic Constraints: 
                CA:FALSE
            X509v3 Subject Key Identifier: 
                87:47:00:67:EA:1A:5A:77:BC:68:47:BB:E6:0E:47:52:17:36:F2:BD
            X509v3 Authority Key Identifier: 
                keyid:C4:49:0C:04:97:89:2E:6E:76:07:5A:04:E8:5E:18:62:2F:E5:0D:3A
                DirName:/CN=team51-net
                serial:1D:2B:29:02:23:CC:3A:49:AB:E9:B3:8F:36:0D:1B:9B:5A:58:F6:03

            X509v3 Extended Key Usage: 
                TLS Web Client Authentication
            X509v3 Key Usage: 
                Digital Signature
    Signature Algorithm: sha256WithRSAEncryption
         17:1f:c5:10:24:8a:f1:2b:d0:9d:de:f3:2e:d2:94:8b:f2:07:
         91:31:93:60:b5:fa:09:fc:7e:09:c7:1b:b0:ea:bf:90:4d:b0:
         c7:41:a7:af:01:85:29:02:0a:93:ac:ce:ea:7a:cf:63:86:48:
         76:20:49:f7:02:f8:55:95:14:3e:86:49:0b:ba:4a:a6:48:82:
         4c:34:31:3b:ec:5e:98:2b:12:5c:ba:94:bd:38:0f:75:8f:e7:
         5d:fb:98:95:45:9c:cc:9b:7f:a1:b3:d7:71:0a:b6:0c:c6:63:
         8f:f8:8e:70:cd:1f:19:3e:4d:9a:81:8b:34:b1:75:69:a1:e5:
         56:00:1d:25:23:80:e3:85:37:bf:85:aa:91:ec:88:80:7b:e9:
         ae:7b:b7:ca:97:d4:53:7e:75:1a:1a:c7:80:48:eb:53:28:26:
         0f:a4:c5:b4:a7:0e:89:44:47:91:a6:ee:5a:6e:65:cf:f6:13:
         70:ba:95:73:75:0c:cc:fb:3a:1d:55:ee:9a:63:2b:f0:55:9d:
         e8:db:d6:fe:13:07:15:57:06:92:b5:fe:dc:3b:17:51:85:55:
         0b:b9:79:aa:44:1c:89:6a:ad:d9:e6:b2:49:5e:e0:9b:a8:3a:
         78:a9:2d:32:b0:dd:41:f6:a6:62:3e:e2:86:d6:51:17:f7:05:
         40:09:61:1f
-----BEGIN CERTIFICATE-----
MIIDWjCCAkKgAwIBAgIRAI5+i8HyZ3hUPibTNrH6CLMwDQYJKoZIhvcNAQELBQAw
FTETMBEGA1UEAwwKdGVhbTUxLW5ldDAeFw0yMzA4MTQxNDIzMTVaFw0yNjA3Mjkx
NDIzMTVaMBgxFjAUBgNVBAMMDXRlYW01MS1jbGllbnQwggEiMA0GCSqGSIb3DQEB
AQUAA4IBDwAwggEKAoIBAQC76WFya2nc6pVg8RVTdouulsNRyAc4aiXs75D4Femd
YLaW8roLtE9u2Wm8EO00wcfQk+9F/OKRwTnPt1nYxPLFvwN3Loxva8uLPZfSxi9X
72S3K4Hpox4pNV1Ofn2+/yTc9cXwWZ8r2WkeUguebikaEjR9iITX3rFNUkSworz/
fq2WIJYbZyG9z8nReNQrNgJLfA0S0uod/Xb5IVtoLmZeZd7hRDLZ+gsjZOGbUrd4
t2jlP9Ofvuru2ob1aE+cR3ZYBgH/LP4O6q0xNmS8y+HEFZwstVIz9skF9pKdAAyc
k0e245QfOuL1x+/HwktYJGQuE1Ubgi4QFynsoahjmRdxAgMBAAGjgaEwgZ4wCQYD
VR0TBAIwADAdBgNVHQ4EFgQUh0cAZ+oaWne8aEe75g5HUhc28r0wUAYDVR0jBEkw
R4AUxEkMBJeJLm52B1oE6F4YYi/lDTqhGaQXMBUxEzARBgNVBAMMCnRlYW01MS1u
ZXSCFB0rKQIjzDpJq+mzjzYNG5taWPYDMBMGA1UdJQQMMAoGCCsGAQUFBwMCMAsG
A1UdDwQEAwIHgDANBgkqhkiG9w0BAQsFAAOCAQEAFx/FECSK8SvQnd7zLtKUi/IH
kTGTYLX6Cfx+CccbsOq/kE2wx0GnrwGFKQIKk6zO6nrPY4ZIdiBJ9wL4VZUUPoZJ
C7pKpkiCTDQxO+xemCsSXLqUvTgPdY/nXfuYlUWczJt/obPXcQq2DMZjj/iOcM0f
GT5NmoGLNLF1aaHlVgAdJSOA44U3v4WqkeyIgHvprnu3ypfUU351GhrHgEjrUygm
D6TFtKcOiURHkabuWm5lz/YTcLqVc3UMzPs6HVXummMr8FWd6NvW/hMHFVcGkrX+
3DsXUYVVC7l5qkQciWqt2eaySV7gm6g6eKktMrDdQfamYj7ihtZRF/cFQAlhHw==
-----END CERTIFICATE-----
