Certificate:
    Data:
        Version: 3 (0x2)
        Serial Number:
            87:2d:29:b0:14:05:ce:61:fd:e7:e6:f1:89:31:12:0b
        Signature Algorithm: sha256WithRSAEncryption
        Issuer: CN=team191-net
        Validity
            Not Before: Aug 14 14:26:10 2023 GMT
            Not After : Jul 29 14:26:10 2026 GMT
        Subject: CN=team191-client
        Subject Public Key Info:
            Public Key Algorithm: rsaEncryption
                RSA Public-Key: (2048 bit)
                Modulus:
                    00:c0:31:c2:ab:bd:1c:a0:d3:79:77:60:84:13:21:
                    f0:33:43:b2:05:30:be:f4:f8:10:92:3b:0c:b6:64:
                    74:6a:fe:e7:c7:88:6c:c9:ba:bf:cc:eb:bd:30:85:
                    41:9a:cc:85:14:4b:21:14:a3:f9:d1:05:e5:7b:ac:
                    f1:b3:ca:86:7d:6b:f9:4d:7a:97:c0:33:fb:d2:92:
                    4a:07:82:d5:66:be:13:7b:85:45:7c:63:6a:d1:f2:
                    9f:6a:07:0f:34:fc:53:25:5d:2e:13:5b:43:57:35:
                    8c:50:ba:bd:e4:6b:5a:a1:7e:68:6a:92:d2:64:fa:
                    7d:fd:37:b0:62:01:a2:30:36:b7:4b:ce:90:28:ef:
                    ac:bf:02:0b:1d:ff:12:af:35:5a:19:c6:64:6a:e1:
                    90:8d:46:7c:9b:73:97:6c:95:cf:61:ce:41:db:dc:
                    21:96:cf:10:ff:cf:91:20:b2:bb:16:44:4c:b9:71:
                    c8:e7:40:87:e6:14:48:13:15:ee:52:79:de:35:9f:
                    0c:a9:9e:47:1e:59:e3:a6:ce:38:ae:65:30:5c:07:
                    05:f5:82:14:da:76:8f:c2:c2:d8:4b:4a:84:af:d1:
                    92:f2:58:0c:8c:6a:17:f6:f6:b7:56:f6:c2:3e:44:
                    92:3f:b5:e1:cb:00:90:1e:a3:8b:b9:9f:ed:8d:49:
                    79:43
                Exponent: 65537 (0x10001)
        X509v3 extensions:
            X509v3 Basic Constraints: 
                CA:FALSE
            X509v3 Subject Key Identifier: 
                AC:45:43:8B:0A:4D:AD:19:B3:56:69:38:8B:ED:C9:44:2A:1B:59:EA
            X509v3 Authority Key Identifier: 
                keyid:DE:75:4C:07:72:B0:95:B1:12:71:AA:87:83:17:4D:C9:9D:01:EF:20
                DirName:/CN=team191-net
                serial:32:3F:A1:FC:0E:2F:60:F8:41:F6:78:7A:5C:D0:2D:8D:63:1F:BD:6C

            X509v3 Extended Key Usage: 
                TLS Web Client Authentication
            X509v3 Key Usage: 
                Digital Signature
    Signature Algorithm: sha256WithRSAEncryption
         40:30:93:ce:0c:a8:14:46:05:58:56:ab:4c:ed:4b:20:d6:c6:
         8c:2d:69:99:58:b2:c3:6c:b2:11:cc:7e:34:b0:96:91:70:71:
         a2:0d:87:1f:17:58:cb:67:35:40:0d:8d:99:88:c1:4e:f9:51:
         48:2c:e0:48:bc:57:36:73:80:0e:4e:05:00:c0:7a:1f:68:ec:
         eb:4d:40:90:38:80:95:4b:42:0d:58:98:5c:cc:d1:6d:39:83:
         cb:d8:08:bf:b7:7d:59:6a:28:9a:e1:b1:e7:3f:c5:3f:25:13:
         21:41:5b:fa:0f:3d:d4:6d:ee:cc:2c:6c:48:e9:5b:33:cf:1a:
         2a:6e:1c:c4:2c:b5:34:a6:06:e8:24:c8:32:5c:ab:47:61:42:
         9d:43:4c:28:56:f7:e1:40:ec:10:2b:44:19:22:c2:67:ae:7a:
         17:d9:33:c1:2c:2a:4c:fe:2a:3a:5b:91:9e:7c:08:ea:f8:23:
         fe:97:f5:50:e6:4f:83:69:4d:c8:5e:b4:08:e7:66:ee:46:ac:
         c6:82:b0:ce:dc:8c:02:47:17:2b:f7:03:07:f0:cf:4c:7f:05:
         50:4e:0e:e3:dc:7d:22:59:02:9d:43:62:e2:0b:81:e2:80:70:
         45:f9:7a:9b:e2:bc:cc:9a:e9:a0:37:bc:f2:11:8c:6c:46:5e:
         b0:5d:12:14
-----BEGIN CERTIFICATE-----
MIIDXTCCAkWgAwIBAgIRAIctKbAUBc5h/efm8YkxEgswDQYJKoZIhvcNAQELBQAw
FjEUMBIGA1UEAwwLdGVhbTE5MS1uZXQwHhcNMjMwODE0MTQyNjEwWhcNMjYwNzI5
MTQyNjEwWjAZMRcwFQYDVQQDDA50ZWFtMTkxLWNsaWVudDCCASIwDQYJKoZIhvcN
AQEBBQADggEPADCCAQoCggEBAMAxwqu9HKDTeXdghBMh8DNDsgUwvvT4EJI7DLZk
dGr+58eIbMm6v8zrvTCFQZrMhRRLIRSj+dEF5Xus8bPKhn1r+U16l8Az+9KSSgeC
1Wa+E3uFRXxjatHyn2oHDzT8UyVdLhNbQ1c1jFC6veRrWqF+aGqS0mT6ff03sGIB
ojA2t0vOkCjvrL8CCx3/Eq81WhnGZGrhkI1GfJtzl2yVz2HOQdvcIZbPEP/PkSCy
uxZETLlxyOdAh+YUSBMV7lJ53jWfDKmeRx5Z46bOOK5lMFwHBfWCFNp2j8LC2EtK
hK/RkvJYDIxqF/b2t1b2wj5Ekj+14csAkB6ji7mf7Y1JeUMCAwEAAaOBojCBnzAJ
BgNVHRMEAjAAMB0GA1UdDgQWBBSsRUOLCk2tGbNWaTiL7clEKhtZ6jBRBgNVHSME
SjBIgBTedUwHcrCVsRJxqoeDF03JnQHvIKEapBgwFjEUMBIGA1UEAwwLdGVhbTE5
MS1uZXSCFDI/ofwOL2D4QfZ4elzQLY1jH71sMBMGA1UdJQQMMAoGCCsGAQUFBwMC
MAsGA1UdDwQEAwIHgDANBgkqhkiG9w0BAQsFAAOCAQEAQDCTzgyoFEYFWFarTO1L
INbGjC1pmViyw2yyEcx+NLCWkXBxog2HHxdYy2c1QA2NmYjBTvlRSCzgSLxXNnOA
Dk4FAMB6H2js601AkDiAlUtCDViYXMzRbTmDy9gIv7d9WWoomuGx5z/FPyUTIUFb
+g891G3uzCxsSOlbM88aKm4cxCy1NKYG6CTIMlyrR2FCnUNMKFb34UDsECtEGSLC
Z656F9kzwSwqTP4qOluRnnwI6vgj/pf1UOZPg2lNyF60COdm7kasxoKwztyMAkcX
K/cDB/DPTH8FUE4O49x9IlkCnUNi4guB4oBwRfl6m+K8zJrpoDe88hGMbEZesF0S
FA==
-----END CERTIFICATE-----
