Certificate:
    Data:
        Version: 3 (0x2)
        Serial Number:
            be:f3:b3:3e:8a:04:25:f9:f6:9d:b8:96:7d:04:4d:04
        Signature Algorithm: sha256WithRSAEncryption
        Issuer: CN=team241-net
        Validity
            Not Before: Aug 14 14:27:09 2023 GMT
            Not After : Jul 29 14:27:09 2026 GMT
        Subject: CN=team241-server
        Subject Public Key Info:
            Public Key Algorithm: rsaEncryption
                RSA Public-Key: (2048 bit)
                Modulus:
                    00:ca:85:71:c2:b6:22:f0:a2:64:33:84:39:57:1e:
                    0d:0b:e1:8f:db:f5:d3:c9:ef:dd:71:24:ce:37:36:
                    00:5c:fd:fa:af:a7:cc:86:37:be:5e:b4:fb:19:17:
                    26:0d:02:eb:81:a5:44:91:92:5a:c2:ab:27:0b:e1:
                    ce:11:20:7f:8d:11:89:fa:b6:3f:7f:d4:7f:b8:7f:
                    23:dd:6f:f5:20:a5:42:12:01:ec:35:a2:43:34:81:
                    97:2e:22:5c:d8:c2:61:09:d5:f7:0c:7d:c5:97:11:
                    72:64:17:ab:7f:15:58:56:df:e0:17:41:0b:cd:b3:
                    a6:89:f9:ca:6b:34:68:c1:ce:16:16:6f:15:08:e7:
                    64:63:93:36:53:b1:7a:3e:1f:46:cb:8d:cd:86:58:
                    6f:a6:92:84:32:e6:96:01:37:92:90:6e:65:5a:c1:
                    a3:b9:c0:50:3b:3a:ef:8d:93:2a:be:86:6b:ff:3e:
                    31:2b:60:8f:c1:f0:0a:3b:b3:f4:69:e8:a2:22:dc:
                    a4:d8:5f:f3:37:47:d8:c5:d9:de:e1:23:b1:49:6b:
                    ba:38:56:19:0c:f2:9e:4c:7d:c7:ea:e1:08:a6:64:
                    4e:c3:6a:f2:83:cf:48:4e:1f:1f:1f:c7:3b:cd:7a:
                    41:7f:40:e3:48:a5:cf:67:34:4a:e8:02:8e:21:92:
                    52:97
                Exponent: 65537 (0x10001)
        X509v3 extensions:
            X509v3 Basic Constraints: 
                CA:FALSE
            X509v3 Subject Key Identifier: 
                73:DB:B0:4E:37:7D:F8:0A:0D:92:8B:EA:C4:59:D0:21:4E:92:73:32
            X509v3 Authority Key Identifier: 
                keyid:F3:BC:AD:AA:97:F6:58:79:0E:40:9E:89:BB:CF:59:AD:D4:A6:43:F6
                DirName:/CN=team241-net
                serial:01:91:8A:B1:C5:69:E5:99:E7:CF:30:B8:F5:53:6E:93:28:A6:22:44

            X509v3 Extended Key Usage: 
                TLS Web Server Authentication
            X509v3 Key Usage: 
                Digital Signature, Key Encipherment
            X509v3 Subject Alternative Name: 
                DNS:team241-server
    Signature Algorithm: sha256WithRSAEncryption
         2c:b4:91:03:c1:de:79:2e:63:eb:f0:ef:20:b3:6a:a6:e1:3c:
         1a:d0:98:16:ca:c5:1f:d8:c6:bf:d0:9e:3e:67:61:c9:d3:8f:
         4c:8e:bf:01:79:aa:33:45:12:00:73:36:c2:76:5b:a5:24:51:
         83:67:f2:1f:69:7d:d4:41:5d:e3:4a:8b:b8:7d:66:d0:5a:5c:
         8f:da:8a:47:76:78:cd:14:51:47:2d:e1:cb:a1:b9:9d:e7:2f:
         91:75:f6:ac:64:1b:59:30:b3:45:0a:69:30:b2:f8:a7:30:91:
         47:a9:73:59:b3:65:88:56:c3:a3:22:39:c2:36:1c:46:e3:e7:
         24:94:18:71:b9:5f:17:4c:0c:4b:32:39:d7:4d:04:35:a6:2e:
         99:0c:24:da:96:46:ff:13:37:f3:6b:98:e5:59:87:c4:a6:82:
         58:5b:c7:ae:7f:50:31:aa:55:47:6f:2b:0f:20:4a:5f:2b:f0:
         2e:3d:f2:de:49:f1:04:9f:fe:8a:1a:d4:3b:f9:21:6c:02:54:
         c2:d8:ad:70:d4:e7:32:13:de:6d:e6:2b:bb:18:ab:fd:78:d3:
         84:e7:89:3b:41:1e:28:03:4e:50:b0:ba:d6:76:7e:b2:52:45:
         bf:a0:1f:a4:e6:ca:82:60:c8:59:69:a1:10:6f:c9:68:38:73:
         f9:49:3f:ee
-----BEGIN CERTIFICATE-----
MIIDeDCCAmCgAwIBAgIRAL7zsz6KBCX59p24ln0ETQQwDQYJKoZIhvcNAQELBQAw
FjEUMBIGA1UEAwwLdGVhbTI0MS1uZXQwHhcNMjMwODE0MTQyNzA5WhcNMjYwNzI5
MTQyNzA5WjAZMRcwFQYDVQQDDA50ZWFtMjQxLXNlcnZlcjCCASIwDQYJKoZIhvcN
AQEBBQADggEPADCCAQoCggEBAMqFccK2IvCiZDOEOVceDQvhj9v108nv3XEkzjc2
AFz9+q+nzIY3vl60+xkXJg0C64GlRJGSWsKrJwvhzhEgf40Rifq2P3/Uf7h/I91v
9SClQhIB7DWiQzSBly4iXNjCYQnV9wx9xZcRcmQXq38VWFbf4BdBC82zpon5yms0
aMHOFhZvFQjnZGOTNlOxej4fRsuNzYZYb6aShDLmlgE3kpBuZVrBo7nAUDs6742T
Kr6Ga/8+MStgj8HwCjuz9GnooiLcpNhf8zdH2MXZ3uEjsUlrujhWGQzynkx9x+rh
CKZkTsNq8oPPSE4fHx/HO816QX9A40ilz2c0SugCjiGSUpcCAwEAAaOBvTCBujAJ
BgNVHRMEAjAAMB0GA1UdDgQWBBRz27BON334Cg2Si+rEWdAhTpJzMjBRBgNVHSME
SjBIgBTzvK2ql/ZYeQ5Anom7z1mt1KZD9qEapBgwFjEUMBIGA1UEAwwLdGVhbTI0
MS1uZXSCFAGRirHFaeWZ588wuPVTbpMopiJEMBMGA1UdJQQMMAoGCCsGAQUFBwMB
MAsGA1UdDwQEAwIFoDAZBgNVHREEEjAQgg50ZWFtMjQxLXNlcnZlcjANBgkqhkiG
9w0BAQsFAAOCAQEALLSRA8HeeS5j6/DvILNqpuE8GtCYFsrFH9jGv9CePmdhydOP
TI6/AXmqM0USAHM2wnZbpSRRg2fyH2l91EFd40qLuH1m0Fpcj9qKR3Z4zRRRRy3h
y6G5necvkXX2rGQbWTCzRQppMLL4pzCRR6lzWbNliFbDoyI5wjYcRuPnJJQYcblf
F0wMSzI5100ENaYumQwk2pZG/xM382uY5VmHxKaCWFvHrn9QMapVR28rDyBKXyvw
Lj3y3knxBJ/+ihrUO/khbAJUwtitcNTnMhPebeYruxir/XjThOeJO0EeKANOULC6
1nZ+slJFv6AfpObKgmDIWWmhEG/JaDhz+Uk/7g==
-----END CERTIFICATE-----
