Certificate:
    Data:
        Version: 3 (0x2)
        Serial Number:
            d8:8a:49:0a:70:ea:3b:31:a2:8e:d2:e7:c3:8d:1f:bf
        Signature Algorithm: sha256WithRSAEncryption
        Issuer: CN=team37-net
        Validity
            Not Before: Aug 14 14:22:52 2023 GMT
            Not After : Jul 29 14:22:52 2026 GMT
        Subject: CN=team37-server
        Subject Public Key Info:
            Public Key Algorithm: rsaEncryption
                RSA Public-Key: (2048 bit)
                Modulus:
                    00:cc:61:d9:75:cb:7a:f5:d7:67:5d:bf:3c:31:a8:
                    45:e9:6e:43:5f:14:c3:8d:c1:05:28:1d:a1:25:b2:
                    7a:05:21:87:41:12:45:6e:e8:3b:f7:34:c1:35:c1:
                    67:39:a6:4c:8e:23:01:a8:db:23:4c:ba:2a:8d:f5:
                    9e:b9:93:af:cc:8c:7f:3d:8d:cd:81:8e:48:fa:f4:
                    c9:43:44:7a:e5:f9:b9:2d:18:fc:bf:e4:fc:08:c3:
                    73:e3:bb:dd:fd:38:53:19:68:06:23:76:94:fd:30:
                    ef:5c:9b:62:98:0d:34:1c:d5:d9:08:1c:ad:2e:bf:
                    71:1d:00:4e:04:30:53:fe:d3:ef:5a:88:ff:77:53:
                    55:93:db:49:0a:dc:98:ef:06:fe:f7:fc:af:06:df:
                    95:cb:a9:de:02:49:13:00:ef:9e:1a:59:70:05:4a:
                    87:05:3c:50:18:b8:f4:e7:39:7a:63:54:c7:48:57:
                    1f:5e:cf:d2:e7:92:18:55:ae:55:10:f4:d0:36:70:
                    87:3c:a1:a1:81:b5:31:9f:d1:94:1f:7e:73:9f:9f:
                    0f:19:4c:19:28:7c:66:5e:89:df:44:b6:8d:1c:03:
                    02:9f:c2:f1:86:23:bf:ec:e1:71:7f:36:5a:e5:c9:
                    c8:61:5e:78:27:71:fa:51:28:98:2a:c2:c0:97:87:
                    18:b9
                Exponent: 65537 (0x10001)
        X509v3 extensions:
            X509v3 Basic Constraints: 
                CA:FALSE
            X509v3 Subject Key Identifier: 
                C4:25:59:3F:5F:5E:2C:0F:E3:28:99:C7:FB:63:1E:69:27:88:C4:CA
            X509v3 Authority Key Identifier: 
                keyid:FE:CE:A7:CE:73:42:AC:46:C3:C7:4F:FC:60:0B:B8:57:27:5E:85:B1
                DirName:/CN=team37-net
                serial:74:60:BA:85:B4:DC:87:0D:9A:B4:91:2A:19:97:35:24:6A:19:6E:AE

            X509v3 Extended Key Usage: 
                TLS Web Server Authentication
            X509v3 Key Usage: 
                Digital Signature, Key Encipherment
            X509v3 Subject Alternative Name: 
                DNS:team37-server
    Signature Algorithm: sha256WithRSAEncryption
         81:ae:bc:d3:f0:c9:d4:ac:36:52:87:fb:1e:18:2d:f0:33:92:
         0f:2a:98:b2:2b:02:d4:61:e4:8c:e3:a8:c3:37:7b:4d:72:34:
         31:bc:aa:b1:2a:04:6c:d6:e0:90:83:b9:d3:a8:97:78:be:ce:
         22:ca:42:20:12:47:5f:ee:21:20:43:f0:9e:69:07:8c:20:17:
         fe:9e:62:19:94:f2:ef:b4:ba:8d:45:5d:bb:c3:3f:f3:c5:01:
         3c:c4:2b:2c:28:8b:6e:4a:6e:ec:87:0d:14:23:2f:19:3f:af:
         2a:de:bc:15:d1:53:a3:53:50:b5:6b:57:0e:44:43:44:6e:58:
         87:95:45:94:23:98:87:34:8f:dc:47:83:57:50:87:ae:2e:de:
         73:bc:8d:13:c4:06:25:5a:fb:62:a4:d5:2c:72:08:73:b2:b3:
         bd:27:00:11:5a:1f:4d:d7:98:69:5c:e7:9f:e4:8a:5b:6b:44:
         e3:f6:49:94:ac:5b:58:02:c3:be:f3:cb:65:2a:03:79:d3:e6:
         b0:c9:50:f7:dd:ef:81:95:92:82:2d:a5:d4:c1:e5:41:bc:bd:
         5e:c0:e6:26:0c:22:e5:c6:35:02:00:97:f4:ec:65:3a:c0:0d:
         fa:ae:75:aa:59:e4:23:91:a1:ee:e1:d0:09:28:3b:4b:17:08:
         e4:05:75:6d
-----BEGIN CERTIFICATE-----
MIIDdDCCAlygAwIBAgIRANiKSQpw6jsxoo7S58ONH78wDQYJKoZIhvcNAQELBQAw
FTETMBEGA1UEAwwKdGVhbTM3LW5ldDAeFw0yMzA4MTQxNDIyNTJaFw0yNjA3Mjkx
NDIyNTJaMBgxFjAUBgNVBAMMDXRlYW0zNy1zZXJ2ZXIwggEiMA0GCSqGSIb3DQEB
AQUAA4IBDwAwggEKAoIBAQDMYdl1y3r112ddvzwxqEXpbkNfFMONwQUoHaElsnoF
IYdBEkVu6Dv3NME1wWc5pkyOIwGo2yNMuiqN9Z65k6/MjH89jc2Bjkj69MlDRHrl
+bktGPy/5PwIw3Pju939OFMZaAYjdpT9MO9cm2KYDTQc1dkIHK0uv3EdAE4EMFP+
0+9aiP93U1WT20kK3JjvBv73/K8G35XLqd4CSRMA754aWXAFSocFPFAYuPTnOXpj
VMdIVx9ez9LnkhhVrlUQ9NA2cIc8oaGBtTGf0ZQffnOfnw8ZTBkofGZeid9Eto0c
AwKfwvGGI7/s4XF/NlrlychhXngncfpRKJgqwsCXhxi5AgMBAAGjgbswgbgwCQYD
VR0TBAIwADAdBgNVHQ4EFgQUxCVZP19eLA/jKJnH+2MeaSeIxMowUAYDVR0jBEkw
R4AU/s6nznNCrEbDx0/8YAu4VydehbGhGaQXMBUxEzARBgNVBAMMCnRlYW0zNy1u
ZXSCFHRguoW03IcNmrSRKhmXNSRqGW6uMBMGA1UdJQQMMAoGCCsGAQUFBwMBMAsG
A1UdDwQEAwIFoDAYBgNVHREEETAPgg10ZWFtMzctc2VydmVyMA0GCSqGSIb3DQEB
CwUAA4IBAQCBrrzT8MnUrDZSh/seGC3wM5IPKpiyKwLUYeSM46jDN3tNcjQxvKqx
KgRs1uCQg7nTqJd4vs4iykIgEkdf7iEgQ/CeaQeMIBf+nmIZlPLvtLqNRV27wz/z
xQE8xCssKItuSm7shw0UIy8ZP68q3rwV0VOjU1C1a1cORENEbliHlUWUI5iHNI/c
R4NXUIeuLt5zvI0TxAYlWvtipNUscghzsrO9JwARWh9N15hpXOef5Ipba0Tj9kmU
rFtYAsO+88tlKgN50+awyVD33e+BlZKCLaXUweVBvL1ewOYmDCLlxjUCAJf07GU6
wA36rnWqWeQjkaHu4dAJKDtLFwjkBXVt
-----END CERTIFICATE-----
