Certificate:
    Data:
        Version: 3 (0x2)
        Serial Number:
            0a:2d:e6:12:cb:82:fa:dc:7b:05:c8:d0:b0:ed:4d:d0
        Signature Algorithm: sha256WithRSAEncryption
        Issuer: CN=team294-net
        Validity
            Not Before: Aug 14 14:28:17 2023 GMT
            Not After : Jul 29 14:28:17 2026 GMT
        Subject: CN=team294-server
        Subject Public Key Info:
            Public Key Algorithm: rsaEncryption
                RSA Public-Key: (2048 bit)
                Modulus:
                    00:d3:de:d6:20:f6:e1:9b:ab:85:3d:7d:6d:07:c5:
                    3a:05:41:58:a0:25:94:94:9c:e6:46:80:d2:a2:32:
                    5d:ad:54:e1:b4:ef:78:be:a4:2a:6c:4b:fd:55:bc:
                    99:bb:1d:ce:a3:b4:40:16:d3:4e:8b:44:01:bf:1c:
                    a3:6d:07:24:da:29:87:8d:84:bd:59:4c:be:02:3f:
                    21:8e:72:d1:e4:bb:a8:ce:b0:4d:99:db:2d:55:69:
                    24:d6:bc:ac:97:98:cd:67:0d:f0:89:51:d0:8d:e2:
                    8d:b5:b4:61:5f:0c:c4:d9:c2:49:f7:09:15:4c:f0:
                    f6:ae:92:a6:6c:39:47:2f:05:71:d2:46:80:1a:7b:
                    5f:2e:42:f8:11:d2:5c:3b:cf:97:a1:25:36:f3:e3:
                    29:02:67:f2:68:cf:5a:2f:b5:1e:35:eb:10:a9:41:
                    bd:0b:44:89:57:e1:8d:f3:38:6a:1c:d3:e1:aa:70:
                    fa:7c:af:c6:ea:b4:52:67:38:55:4c:eb:08:8f:eb:
                    29:75:ad:85:63:02:40:4d:01:fc:91:25:36:ac:17:
                    df:3f:47:22:91:4d:e9:a1:d9:75:41:46:59:97:1a:
                    0f:ea:69:7e:b9:8e:25:51:99:e6:81:90:6f:06:d9:
                    9a:10:c3:c9:b9:8f:c2:01:d6:00:e2:a3:6d:ce:13:
                    01:3f
                Exponent: 65537 (0x10001)
        X509v3 extensions:
            X509v3 Basic Constraints: 
                CA:FALSE
            X509v3 Subject Key Identifier: 
                30:A4:F9:09:84:F7:8D:DD:59:D8:FD:01:C6:10:94:88:58:D3:00:D4
            X509v3 Authority Key Identifier: 
                keyid:EB:47:12:39:EB:1A:22:E0:C0:7A:90:44:02:E7:2B:9F:21:0A:94:0C
                DirName:/CN=team294-net
                serial:62:46:F7:CB:4D:E2:C7:9B:1C:3C:A1:47:1F:92:11:72:80:E2:D7:6C

            X509v3 Extended Key Usage: 
                TLS Web Server Authentication
            X509v3 Key Usage: 
                Digital Signature, Key Encipherment
            X509v3 Subject Alternative Name: 
                DNS:team294-server
    Signature Algorithm: sha256WithRSAEncryption
         59:7c:a7:00:18:4a:12:f6:e7:63:fc:d7:81:a8:b4:60:10:48:
         90:63:69:44:2f:13:30:88:33:1c:78:33:df:30:48:71:b2:2f:
         7e:36:e9:81:06:44:1b:9c:3c:c5:be:09:2e:94:1d:3e:8f:5e:
         c5:1c:f3:2a:73:07:4a:23:a8:ec:ac:e3:0c:89:e1:9b:28:f7:
         3f:b2:9a:6c:95:90:40:fd:ef:38:7e:84:57:04:2a:a9:ca:05:
         de:79:a4:4f:4d:90:d9:41:3f:91:a7:69:cd:96:06:3e:6a:d1:
         32:a9:db:f3:a7:60:02:ab:0c:e0:56:c1:5e:e7:86:7a:2a:77:
         d4:a7:b3:1e:a8:cd:87:82:f5:ef:dc:d2:0b:24:a5:a0:3d:f6:
         dd:c3:f8:35:d0:30:b2:39:3c:56:c1:47:e9:f7:ca:25:29:48:
         43:1a:e8:7e:23:25:8d:9a:04:82:1e:20:87:e7:24:da:fb:27:
         ea:a3:1c:39:f2:98:ac:04:3c:0f:9e:35:48:8c:d1:71:bc:1a:
         c6:d7:7b:ae:25:93:ed:37:5f:75:a1:d1:18:53:43:aa:db:86:
         f0:65:a8:ad:f3:c7:15:43:ab:43:92:87:9b:b9:14:44:63:4c:
         15:41:3d:54:e2:f3:33:fa:02:3b:bc:8e:b8:2e:67:eb:f1:a4:
         ee:06:60:10
-----BEGIN CERTIFICATE-----
MIIDdzCCAl+gAwIBAgIQCi3mEsuC+tx7BcjQsO1N0DANBgkqhkiG9w0BAQsFADAW
MRQwEgYDVQQDDAt0ZWFtMjk0LW5ldDAeFw0yMzA4MTQxNDI4MTdaFw0yNjA3Mjkx
NDI4MTdaMBkxFzAVBgNVBAMMDnRlYW0yOTQtc2VydmVyMIIBIjANBgkqhkiG9w0B
AQEFAAOCAQ8AMIIBCgKCAQEA097WIPbhm6uFPX1tB8U6BUFYoCWUlJzmRoDSojJd
rVThtO94vqQqbEv9VbyZux3Oo7RAFtNOi0QBvxyjbQck2imHjYS9WUy+Aj8hjnLR
5LuozrBNmdstVWkk1rysl5jNZw3wiVHQjeKNtbRhXwzE2cJJ9wkVTPD2rpKmbDlH
LwVx0kaAGntfLkL4EdJcO8+XoSU28+MpAmfyaM9aL7UeNesQqUG9C0SJV+GN8zhq
HNPhqnD6fK/G6rRSZzhVTOsIj+spda2FYwJATQH8kSU2rBffP0cikU3podl1QUZZ
lxoP6ml+uY4lUZnmgZBvBtmaEMPJuY/CAdYA4qNtzhMBPwIDAQABo4G9MIG6MAkG
A1UdEwQCMAAwHQYDVR0OBBYEFDCk+QmE943dWdj9AcYQlIhY0wDUMFEGA1UdIwRK
MEiAFOtHEjnrGiLgwHqQRALnK58hCpQMoRqkGDAWMRQwEgYDVQQDDAt0ZWFtMjk0
LW5ldIIUYkb3y03ix5scPKFHH5IRcoDi12wwEwYDVR0lBAwwCgYIKwYBBQUHAwEw
CwYDVR0PBAQDAgWgMBkGA1UdEQQSMBCCDnRlYW0yOTQtc2VydmVyMA0GCSqGSIb3
DQEBCwUAA4IBAQBZfKcAGEoS9udj/NeBqLRgEEiQY2lELxMwiDMceDPfMEhxsi9+
NumBBkQbnDzFvgkulB0+j17FHPMqcwdKI6jsrOMMieGbKPc/sppslZBA/e84foRX
BCqpygXeeaRPTZDZQT+Rp2nNlgY+atEyqdvzp2ACqwzgVsFe54Z6KnfUp7MeqM2H
gvXv3NILJKWgPfbdw/g10DCyOTxWwUfp98olKUhDGuh+IyWNmgSCHiCH5yTa+yfq
oxw58pisBDwPnjVIjNFxvBrG13uuJZPtN191odEYU0Oq24bwZait88cVQ6tDkoeb
uRREY0wVQT1U4vMz+gI7vI64Lmfr8aTuBmAQ
-----END CERTIFICATE-----
