Certificate:
    Data:
        Version: 3 (0x2)
        Serial Number:
            01:0b:c0:07:c0:4f:cd:4b:aa:d7:44:80:51:12:38:5f
        Signature Algorithm: sha256WithRSAEncryption
        Issuer: CN=team39-net
        Validity
            Not Before: Aug 14 14:22:54 2023 GMT
            Not After : Jul 29 14:22:54 2026 GMT
        Subject: CN=team39-server
        Subject Public Key Info:
            Public Key Algorithm: rsaEncryption
                RSA Public-Key: (2048 bit)
                Modulus:
                    00:c9:d8:22:6b:cb:3d:0b:8e:f3:29:5d:c6:0a:5d:
                    ab:69:66:a5:68:47:94:c4:db:ec:07:e6:95:86:1d:
                    e7:8b:d7:dd:98:66:dc:a1:16:1c:c4:43:98:3a:e2:
                    d7:d6:60:df:1b:a5:a6:e8:4c:a5:76:a6:01:d3:a7:
                    d8:d8:f0:c1:17:cc:df:63:e0:50:ab:65:40:74:08:
                    3f:91:e9:7e:a1:16:5c:fa:9e:52:9d:18:59:bb:e7:
                    3a:f9:a1:bf:af:3e:69:1f:f4:8f:4f:cd:b4:3b:a5:
                    71:87:47:d6:0a:95:24:85:03:1a:d6:28:ca:3e:be:
                    a1:63:ac:9f:89:02:69:e7:30:eb:79:d7:d1:85:e2:
                    de:6f:ae:34:74:c0:ea:de:38:18:ad:b3:c9:43:1c:
                    53:c1:e9:20:06:54:75:a8:6f:ff:e1:70:08:41:1e:
                    6d:d3:11:ad:45:c7:3f:72:10:53:94:80:cf:ac:d7:
                    57:2e:c8:b7:d5:3d:42:80:de:9c:40:4c:67:15:2e:
                    ec:8d:7f:14:37:2d:b7:69:a1:73:7d:3d:84:97:6c:
                    57:13:a7:ea:fd:1d:cd:7b:0b:73:1b:b4:50:36:37:
                    a0:5d:93:9d:34:67:16:f9:67:15:d9:4c:16:a5:b3:
                    81:7d:ab:b2:2e:6d:48:42:3d:3c:3c:1c:85:84:fb:
                    c4:05
                Exponent: 65537 (0x10001)
        X509v3 extensions:
            X509v3 Basic Constraints: 
                CA:FALSE
            X509v3 Subject Key Identifier: 
                03:0B:C5:C3:7E:93:93:3F:FB:6B:E4:C9:64:7F:78:CA:A7:37:3C:89
            X509v3 Authority Key Identifier: 
                keyid:E4:47:73:D3:C5:61:B6:AA:4D:85:9A:16:5E:34:5A:1E:9D:FD:AA:58
                DirName:/CN=team39-net
                serial:31:88:8E:38:07:5D:A7:C9:06:48:DD:EF:4C:D9:4B:D7:8F:1B:5D:45

            X509v3 Extended Key Usage: 
                TLS Web Server Authentication
            X509v3 Key Usage: 
                Digital Signature, Key Encipherment
            X509v3 Subject Alternative Name: 
                DNS:team39-server
    Signature Algorithm: sha256WithRSAEncryption
         98:fa:51:d5:8f:78:f4:65:cc:f0:f2:98:c7:09:9f:07:6a:65:
         29:a8:94:bd:ee:48:d1:c0:5e:02:dd:ad:8f:b1:0d:c7:4b:7a:
         b2:27:b6:d8:ec:c3:f0:a3:1a:a6:1f:30:62:7c:d4:ad:58:80:
         1d:ae:1f:02:b9:03:6f:f2:28:ce:1b:73:6e:5a:b3:4a:10:e8:
         5b:5f:f2:0a:ca:11:ba:4b:c9:ef:7b:45:51:eb:0b:f9:8b:12:
         58:f4:dd:d4:76:c1:7a:03:14:32:5c:31:b6:18:0f:d8:2e:66:
         80:66:22:28:10:1a:dc:c6:85:9e:7c:9b:55:4a:bb:3f:a2:80:
         9a:1c:50:32:f8:29:19:5d:a0:7a:99:a5:93:c5:1e:2c:cc:76:
         7a:e9:82:8e:27:c8:98:05:2a:f8:90:e8:68:83:23:2a:bf:3d:
         21:3b:c3:ed:12:0f:40:80:7c:c7:9c:4d:ed:f8:b5:7d:f1:e5:
         47:8d:0c:fb:ef:3b:e9:f3:e0:a7:e3:54:06:5a:a0:62:c4:78:
         4d:e9:21:84:af:6a:26:d2:d4:84:aa:c2:a1:55:bc:e8:c9:62:
         a5:4f:d2:f3:31:21:c2:73:f0:26:a6:0a:cb:15:e0:45:9e:eb:
         ba:3a:59:d4:75:cf:c4:86:73:82:09:11:82:14:44:3c:0c:b4:
         ac:ce:71:fd
-----BEGIN CERTIFICATE-----
MIIDczCCAlugAwIBAgIQAQvAB8BPzUuq10SAURI4XzANBgkqhkiG9w0BAQsFADAV
MRMwEQYDVQQDDAp0ZWFtMzktbmV0MB4XDTIzMDgxNDE0MjI1NFoXDTI2MDcyOTE0
MjI1NFowGDEWMBQGA1UEAwwNdGVhbTM5LXNlcnZlcjCCASIwDQYJKoZIhvcNAQEB
BQADggEPADCCAQoCggEBAMnYImvLPQuO8yldxgpdq2lmpWhHlMTb7AfmlYYd54vX
3Zhm3KEWHMRDmDri19Zg3xulpuhMpXamAdOn2NjwwRfM32PgUKtlQHQIP5HpfqEW
XPqeUp0YWbvnOvmhv68+aR/0j0/NtDulcYdH1gqVJIUDGtYoyj6+oWOsn4kCaecw
63nX0YXi3m+uNHTA6t44GK2zyUMcU8HpIAZUdahv/+FwCEEebdMRrUXHP3IQU5SA
z6zXVy7It9U9QoDenEBMZxUu7I1/FDctt2mhc309hJdsVxOn6v0dzXsLcxu0UDY3
oF2TnTRnFvlnFdlMFqWzgX2rsi5tSEI9PDwchYT7xAUCAwEAAaOBuzCBuDAJBgNV
HRMEAjAAMB0GA1UdDgQWBBQDC8XDfpOTP/tr5Mlkf3jKpzc8iTBQBgNVHSMESTBH
gBTkR3PTxWG2qk2FmhZeNFoenf2qWKEZpBcwFTETMBEGA1UEAwwKdGVhbTM5LW5l
dIIUMYiOOAddp8kGSN3vTNlL148bXUUwEwYDVR0lBAwwCgYIKwYBBQUHAwEwCwYD
VR0PBAQDAgWgMBgGA1UdEQQRMA+CDXRlYW0zOS1zZXJ2ZXIwDQYJKoZIhvcNAQEL
BQADggEBAJj6UdWPePRlzPDymMcJnwdqZSmolL3uSNHAXgLdrY+xDcdLerInttjs
w/CjGqYfMGJ81K1YgB2uHwK5A2/yKM4bc25as0oQ6Ftf8grKEbpLye97RVHrC/mL
Elj03dR2wXoDFDJcMbYYD9guZoBmIigQGtzGhZ58m1VKuz+igJocUDL4KRldoHqZ
pZPFHizMdnrpgo4nyJgFKviQ6GiDIyq/PSE7w+0SD0CAfMecTe34tX3x5UeNDPvv
O+nz4KfjVAZaoGLEeE3pIYSvaibS1ISqwqFVvOjJYqVP0vMxIcJz8CamCssV4EWe
67o6WdR1z8SGc4IJEYIURDwMtKzOcf0=
-----END CERTIFICATE-----
