Certificate:
    Data:
        Version: 3 (0x2)
        Serial Number:
            d3:48:f2:97:82:94:5a:1c:c0:df:8c:24:e2:d2:e5:1d
        Signature Algorithm: sha256WithRSAEncryption
        Issuer: CN=team39-net
        Validity
            Not Before: Aug 14 14:22:54 2023 GMT
            Not After : Jul 29 14:22:54 2026 GMT
        Subject: CN=team39-client
        Subject Public Key Info:
            Public Key Algorithm: rsaEncryption
                RSA Public-Key: (2048 bit)
                Modulus:
                    00:e0:c9:08:c2:8d:0b:f4:f3:b5:46:c6:4f:de:b4:
                    88:81:bf:96:df:1b:ff:50:bb:aa:94:0d:22:6b:94:
                    c3:32:2b:0f:41:47:c5:62:d0:a3:20:34:52:e6:44:
                    49:c4:df:ff:8f:e2:72:f3:b4:17:6b:ab:a7:89:cc:
                    8a:16:89:66:c1:65:26:1d:1e:85:cf:a9:5a:83:1f:
                    55:0f:ea:79:87:7d:1c:44:5f:5b:d8:74:3d:47:18:
                    b6:28:f8:7a:04:3a:30:2a:34:1e:51:88:6a:4d:d0:
                    ac:33:3d:dd:48:cf:2d:47:35:d5:7c:2c:98:a5:e9:
                    9b:0b:76:e0:72:67:05:02:23:2b:b4:62:7d:8f:65:
                    a4:cb:c6:60:aa:95:2a:1e:b3:26:63:24:fc:d3:7a:
                    4a:0c:b8:83:34:1e:0b:ea:4d:19:c8:42:57:4d:4a:
                    52:0b:89:e3:c4:22:9a:ce:f3:2a:7c:fe:d7:a7:eb:
                    5b:06:fa:75:05:f7:5d:7b:a8:cb:de:fc:98:8f:b3:
                    3d:81:bd:3f:13:63:cd:17:ce:77:fe:56:0c:04:e9:
                    e4:46:60:72:59:6f:61:78:7d:c3:1a:5d:6f:9f:64:
                    0a:82:9f:83:4a:cd:1b:62:c2:36:53:4a:90:39:41:
                    62:9e:05:dd:19:4b:2c:04:f7:30:12:e5:67:7f:99:
                    d7:2b
                Exponent: 65537 (0x10001)
        X509v3 extensions:
            X509v3 Basic Constraints: 
                CA:FALSE
            X509v3 Subject Key Identifier: 
                EF:F4:DE:ED:88:2C:0F:B0:74:81:F4:8A:7C:0B:62:5A:B7:3B:D1:36
            X509v3 Authority Key Identifier: 
                keyid:E4:47:73:D3:C5:61:B6:AA:4D:85:9A:16:5E:34:5A:1E:9D:FD:AA:58
                DirName:/CN=team39-net
                serial:31:88:8E:38:07:5D:A7:C9:06:48:DD:EF:4C:D9:4B:D7:8F:1B:5D:45

            X509v3 Extended Key Usage: 
                TLS Web Client Authentication
            X509v3 Key Usage: 
                Digital Signature
    Signature Algorithm: sha256WithRSAEncryption
         11:6a:b5:08:aa:8c:9a:4c:45:05:10:b2:bc:5f:e7:eb:d2:38:
         3b:bf:84:4d:fb:b5:b0:ae:ae:bb:be:0e:99:65:82:4b:5d:5b:
         4f:c2:81:ca:e9:9a:34:04:48:cd:6a:ba:a3:77:17:45:2a:fe:
         4f:45:1f:1c:0f:e9:46:bb:2e:d1:24:d8:52:ca:3f:1c:f0:2f:
         06:3b:92:41:76:06:63:bd:09:46:50:df:62:7c:30:14:28:db:
         36:ff:19:00:fa:e7:eb:e8:3d:f9:e7:1c:9f:9e:93:53:22:e1:
         88:3e:92:e2:5c:1a:70:91:52:f9:cd:f3:b1:1a:0a:dc:80:f1:
         d9:7b:04:ef:f8:24:22:d3:0f:13:22:a3:45:42:be:3a:3e:c4:
         b5:1c:26:49:53:c1:67:6a:5a:74:0b:8d:83:46:ae:eb:bc:a5:
         51:73:c7:23:3e:45:48:93:a4:f3:3e:35:9c:01:9b:cc:41:11:
         98:85:06:99:54:dd:ef:e1:a1:b5:a6:39:29:8b:8f:a3:72:ef:
         69:f9:3e:00:ee:25:ec:e0:ee:01:f4:b8:f5:e7:78:39:5b:9e:
         30:94:c5:73:f4:7e:d8:54:16:d2:6f:9d:85:31:72:30:4a:13:
         35:84:3a:ed:1d:a9:e4:3a:24:7f:1e:dc:08:a2:53:22:bb:eb:
         31:a3:94:5c
-----BEGIN CERTIFICATE-----
MIIDWjCCAkKgAwIBAgIRANNI8peClFocwN+MJOLS5R0wDQYJKoZIhvcNAQELBQAw
FTETMBEGA1UEAwwKdGVhbTM5LW5ldDAeFw0yMzA4MTQxNDIyNTRaFw0yNjA3Mjkx
NDIyNTRaMBgxFjAUBgNVBAMMDXRlYW0zOS1jbGllbnQwggEiMA0GCSqGSIb3DQEB
AQUAA4IBDwAwggEKAoIBAQDgyQjCjQv087VGxk/etIiBv5bfG/9Qu6qUDSJrlMMy
Kw9BR8Vi0KMgNFLmREnE3/+P4nLztBdrq6eJzIoWiWbBZSYdHoXPqVqDH1UP6nmH
fRxEX1vYdD1HGLYo+HoEOjAqNB5RiGpN0KwzPd1Izy1HNdV8LJil6ZsLduByZwUC
Iyu0Yn2PZaTLxmCqlSoesyZjJPzTekoMuIM0HgvqTRnIQldNSlILiePEIprO8yp8
/ten61sG+nUF9117qMve/JiPsz2BvT8TY80Xznf+VgwE6eRGYHJZb2F4fcMaXW+f
ZAqCn4NKzRtiwjZTSpA5QWKeBd0ZSywE9zAS5Wd/mdcrAgMBAAGjgaEwgZ4wCQYD
VR0TBAIwADAdBgNVHQ4EFgQU7/Te7YgsD7B0gfSKfAtiWrc70TYwUAYDVR0jBEkw
R4AU5Edz08VhtqpNhZoWXjRaHp39qlihGaQXMBUxEzARBgNVBAMMCnRlYW0zOS1u
ZXSCFDGIjjgHXafJBkjd70zZS9ePG11FMBMGA1UdJQQMMAoGCCsGAQUFBwMCMAsG
A1UdDwQEAwIHgDANBgkqhkiG9w0BAQsFAAOCAQEAEWq1CKqMmkxFBRCyvF/n69I4
O7+ETfu1sK6uu74OmWWCS11bT8KByumaNARIzWq6o3cXRSr+T0UfHA/pRrsu0STY
Uso/HPAvBjuSQXYGY70JRlDfYnwwFCjbNv8ZAPrn6+g9+eccn56TUyLhiD6S4lwa
cJFS+c3zsRoK3IDx2XsE7/gkItMPEyKjRUK+Oj7EtRwmSVPBZ2padAuNg0au67yl
UXPHIz5FSJOk8z41nAGbzEERmIUGmVTd7+GhtaY5KYuPo3Lvafk+AO4l7ODuAfS4
9ed4OVueMJTFc/R+2FQW0m+dhTFyMEoTNYQ67R2p5Dokfx7cCKJTIrvrMaOUXA==
-----END CERTIFICATE-----
