Certificate:
    Data:
        Version: 3 (0x2)
        Serial Number:
            63:0b:ea:05:99:0a:1f:34:81:e1:4e:a7:18:82:d7:e0
        Signature Algorithm: sha256WithRSAEncryption
        Issuer: CN=team6-net
        Validity
            Not Before: Aug 14 14:22:11 2023 GMT
            Not After : Jul 29 14:22:11 2026 GMT
        Subject: CN=team6-server
        Subject Public Key Info:
            Public Key Algorithm: rsaEncryption
                RSA Public-Key: (2048 bit)
                Modulus:
                    00:b5:cb:1e:ed:ec:01:c5:30:17:61:df:8c:59:56:
                    ae:26:87:7d:a4:40:7e:2a:2d:80:dd:fe:53:46:f2:
                    bb:e6:51:bb:06:cc:ff:6e:59:86:56:1a:d2:30:ff:
                    16:1d:68:9d:1f:50:3a:fd:ba:84:53:b1:62:dd:25:
                    40:81:16:1a:db:72:ea:fa:5f:f7:b9:87:2e:9c:0a:
                    0b:0a:3c:ec:12:20:11:d6:9e:76:3b:15:e1:e9:bb:
                    85:b6:44:26:72:26:ad:43:6a:0a:cc:36:7d:05:be:
                    5f:d0:33:3f:e7:11:89:1e:99:0a:0c:db:1b:58:ca:
                    98:54:28:10:a4:af:3d:17:7d:6e:e6:56:d9:1d:71:
                    17:77:1b:9c:d7:c5:30:23:62:1a:93:67:27:f1:0f:
                    67:76:05:10:36:b7:07:6c:d6:21:94:30:8d:8c:48:
                    90:e3:e9:ad:ed:ba:d0:91:86:5d:fd:69:90:c3:af:
                    0c:d2:1c:79:f7:a8:80:d5:ab:23:78:6a:44:a4:de:
                    c6:1c:2a:35:2a:f7:f0:d4:f2:d2:1f:b5:67:6b:c9:
                    a8:25:f3:3a:14:36:88:1d:fd:89:4a:9d:fa:9c:84:
                    b6:72:ab:47:94:d7:9f:1a:53:0d:a1:75:a7:62:93:
                    f7:bb:d5:65:2a:b5:19:2d:d2:7d:22:6d:f3:0c:eb:
                    c6:b7
                Exponent: 65537 (0x10001)
        X509v3 extensions:
            X509v3 Basic Constraints: 
                CA:FALSE
            X509v3 Subject Key Identifier: 
                35:25:86:00:10:20:D7:07:3C:0E:B9:8C:6D:BE:86:4B:04:95:E3:C6
            X509v3 Authority Key Identifier: 
                keyid:91:8F:A5:F3:C0:51:25:3F:82:11:4C:46:CA:02:B1:93:1E:B5:A6:80
                DirName:/CN=team6-net
                serial:37:C4:8A:21:72:A0:64:30:A4:41:47:04:62:F1:02:62:6A:23:2E:1E

            X509v3 Extended Key Usage: 
                TLS Web Server Authentication
            X509v3 Key Usage: 
                Digital Signature, Key Encipherment
            X509v3 Subject Alternative Name: 
                DNS:team6-server
    Signature Algorithm: sha256WithRSAEncryption
         32:58:9a:47:96:a5:de:94:b2:23:6d:53:f0:cf:ed:62:b6:3f:
         35:24:e8:f7:2f:76:2a:59:3c:85:94:4e:94:12:ad:b5:a6:92:
         9d:ae:2c:95:32:1e:86:2b:c1:ab:f0:f8:e5:7d:fa:8a:33:94:
         a7:61:fa:dd:87:5c:0e:a0:fa:54:6a:d8:85:82:b9:96:1d:e2:
         2a:a3:6e:4e:bf:af:61:bb:8b:d8:1f:6f:e0:95:4c:bf:cf:3c:
         7f:09:20:9b:e4:b3:b4:a0:f5:64:77:1b:24:7f:9b:90:91:3e:
         7e:1d:1c:04:a4:6f:84:cf:5e:d7:77:38:d1:7f:a6:ef:1f:f4:
         20:fc:8b:52:87:4a:d4:f0:8b:7e:53:c9:70:7e:b3:e3:36:d4:
         f1:9c:61:c0:40:b9:b2:a3:96:f0:fc:98:f1:e6:89:80:95:87:
         6f:12:fc:b9:bd:52:af:65:7c:f8:4d:46:4c:ba:38:d9:95:64:
         24:87:e9:d3:ed:97:fe:51:c7:7a:72:b2:0e:67:5f:b4:8f:e2:
         b1:a9:af:89:dd:19:44:76:80:81:1c:01:8b:15:78:d3:b1:d5:
         4c:72:2c:c3:af:07:81:df:93:ba:c3:c6:3e:26:bd:87:3a:b9:
         14:58:02:0f:ce:56:a1:4f:72:96:b6:ac:f9:9d:2c:f2:a1:0c:
         98:da:8d:0a
-----BEGIN CERTIFICATE-----
MIIDbzCCAlegAwIBAgIQYwvqBZkKHzSB4U6nGILX4DANBgkqhkiG9w0BAQsFADAU
MRIwEAYDVQQDDAl0ZWFtNi1uZXQwHhcNMjMwODE0MTQyMjExWhcNMjYwNzI5MTQy
MjExWjAXMRUwEwYDVQQDDAx0ZWFtNi1zZXJ2ZXIwggEiMA0GCSqGSIb3DQEBAQUA
A4IBDwAwggEKAoIBAQC1yx7t7AHFMBdh34xZVq4mh32kQH4qLYDd/lNG8rvmUbsG
zP9uWYZWGtIw/xYdaJ0fUDr9uoRTsWLdJUCBFhrbcur6X/e5hy6cCgsKPOwSIBHW
nnY7FeHpu4W2RCZyJq1DagrMNn0Fvl/QMz/nEYkemQoM2xtYyphUKBCkrz0XfW7m
VtkdcRd3G5zXxTAjYhqTZyfxD2d2BRA2twds1iGUMI2MSJDj6a3tutCRhl39aZDD
rwzSHHn3qIDVqyN4akSk3sYcKjUq9/DU8tIftWdryagl8zoUNogd/YlKnfqchLZy
q0eU158aUw2hdadik/e71WUqtRkt0n0ibfMM68a3AgMBAAGjgbkwgbYwCQYDVR0T
BAIwADAdBgNVHQ4EFgQUNSWGABAg1wc8DrmMbb6GSwSV48YwTwYDVR0jBEgwRoAU
kY+l88BRJT+CEUxGygKxkx61poChGKQWMBQxEjAQBgNVBAMMCXRlYW02LW5ldIIU
N8SKIXKgZDCkQUcEYvECYmojLh4wEwYDVR0lBAwwCgYIKwYBBQUHAwEwCwYDVR0P
BAQDAgWgMBcGA1UdEQQQMA6CDHRlYW02LXNlcnZlcjANBgkqhkiG9w0BAQsFAAOC
AQEAMliaR5al3pSyI21T8M/tYrY/NSTo9y92Klk8hZROlBKttaaSna4slTIehivB
q/D45X36ijOUp2H63YdcDqD6VGrYhYK5lh3iKqNuTr+vYbuL2B9v4JVMv888fwkg
m+SztKD1ZHcbJH+bkJE+fh0cBKRvhM9e13c40X+m7x/0IPyLUodK1PCLflPJcH6z
4zbU8ZxhwEC5sqOW8PyY8eaJgJWHbxL8ub1Sr2V8+E1GTLo42ZVkJIfp0+2X/lHH
enKyDmdftI/isamvid0ZRHaAgRwBixV407HVTHIsw68Hgd+TusPGPia9hzq5FFgC
D85WoU9ylras+Z0s8qEMmNqNCg==
-----END CERTIFICATE-----
