Certificate:
    Data:
        Version: 3 (0x2)
        Serial Number:
            b9:2b:1d:4c:0c:eb:dc:cf:bb:3b:ce:64:35:3b:85:3f
        Signature Algorithm: sha256WithRSAEncryption
        Issuer: CN=team6-net
        Validity
            Not Before: Aug 14 14:22:11 2023 GMT
            Not After : Jul 29 14:22:11 2026 GMT
        Subject: CN=team6-client
        Subject Public Key Info:
            Public Key Algorithm: rsaEncryption
                RSA Public-Key: (2048 bit)
                Modulus:
                    00:c8:8e:2d:02:e8:45:a1:26:c1:18:0b:ea:b3:4f:
                    1d:b6:8c:c1:43:30:9c:1c:05:8b:c9:4c:29:e5:dd:
                    3c:e2:89:79:f7:51:c4:67:02:da:a8:ca:9c:82:6b:
                    b2:45:9b:6d:70:c8:43:f7:eb:84:07:69:75:9a:6f:
                    2e:97:e8:70:01:29:43:c1:86:5c:9b:8c:d3:ba:f9:
                    c0:61:82:8d:33:c2:eb:35:af:9a:35:85:0d:39:73:
                    6a:3f:0d:a4:a6:67:3b:d6:9f:54:08:c2:10:f4:aa:
                    4a:b2:8a:c9:89:f3:eb:ba:ca:ad:de:05:7a:08:b1:
                    15:bc:0d:9d:02:a7:95:c8:2b:cc:57:54:d5:92:c5:
                    e2:c2:f0:e2:ea:81:6c:1e:6a:fd:1c:09:ff:37:15:
                    b0:6d:3e:63:81:83:49:cb:f4:5b:9f:f4:b8:fc:56:
                    7a:8b:83:1b:65:11:cc:ba:d7:de:a0:f5:89:4b:f2:
                    f6:9b:d3:88:b2:16:39:42:ea:ac:a8:c4:23:ca:0c:
                    cf:a3:c1:2a:f2:ff:ad:6c:24:e9:f0:2b:c2:39:97:
                    bc:dc:9a:4e:76:90:c1:d1:51:c9:7e:5e:13:83:45:
                    64:a7:8f:55:3e:45:8f:b6:ff:70:2e:49:6b:a6:7d:
                    20:ef:71:82:cc:54:74:a5:53:62:19:46:3a:2c:1e:
                    23:8d
                Exponent: 65537 (0x10001)
        X509v3 extensions:
            X509v3 Basic Constraints: 
                CA:FALSE
            X509v3 Subject Key Identifier: 
                8F:63:CD:03:77:E9:C2:04:18:4E:90:79:D4:B3:7A:8C:91:72:43:F8
            X509v3 Authority Key Identifier: 
                keyid:91:8F:A5:F3:C0:51:25:3F:82:11:4C:46:CA:02:B1:93:1E:B5:A6:80
                DirName:/CN=team6-net
                serial:37:C4:8A:21:72:A0:64:30:A4:41:47:04:62:F1:02:62:6A:23:2E:1E

            X509v3 Extended Key Usage: 
                TLS Web Client Authentication
            X509v3 Key Usage: 
                Digital Signature
    Signature Algorithm: sha256WithRSAEncryption
         4a:51:75:c3:cd:f6:be:48:a4:4a:5c:8d:b6:fb:69:9d:12:34:
         0f:b8:0f:b5:bb:5a:e5:2c:a5:55:9c:8a:c9:79:87:e8:46:dd:
         6c:c5:bf:f1:ea:99:8b:f1:b3:3a:5f:9b:69:94:03:48:25:5d:
         2a:00:d9:8f:6a:56:d7:94:6b:d1:14:2e:e1:82:2b:52:d3:8d:
         83:ab:47:60:1b:c2:46:58:b6:24:45:91:c7:9c:e3:2c:23:ad:
         21:27:36:be:82:c2:a0:fe:91:e1:5d:8f:e8:5b:2d:00:13:93:
         5e:d9:f3:14:d7:e5:31:63:25:04:c4:48:ed:f1:2e:a3:29:40:
         ed:bd:a8:1a:9b:3b:30:ea:ec:0e:85:71:83:17:67:47:4c:4e:
         48:cc:00:e2:a3:49:6a:63:cf:1b:69:89:39:9d:e1:9e:e2:82:
         66:de:e9:4a:5d:c3:ce:b9:40:f1:86:0f:e0:3f:92:89:3b:62:
         f9:52:05:29:c4:9d:bb:f3:b4:92:66:aa:0b:1e:c5:0e:33:cb:
         fc:03:ed:6b:02:d8:46:cc:bf:4c:a5:a4:30:c8:c2:99:01:c3:
         2a:cb:35:b9:fd:90:39:aa:d1:f3:1c:08:57:ca:e4:c4:29:bb:
         6e:b4:0a:2f:e3:51:47:ee:89:d6:60:32:54:da:ce:a0:45:b8:
         ed:91:59:b9
-----BEGIN CERTIFICATE-----
MIIDVzCCAj+gAwIBAgIRALkrHUwM69zPuzvOZDU7hT8wDQYJKoZIhvcNAQELBQAw
FDESMBAGA1UEAwwJdGVhbTYtbmV0MB4XDTIzMDgxNDE0MjIxMVoXDTI2MDcyOTE0
MjIxMVowFzEVMBMGA1UEAwwMdGVhbTYtY2xpZW50MIIBIjANBgkqhkiG9w0BAQEF
AAOCAQ8AMIIBCgKCAQEAyI4tAuhFoSbBGAvqs08dtozBQzCcHAWLyUwp5d084ol5
91HEZwLaqMqcgmuyRZttcMhD9+uEB2l1mm8ul+hwASlDwYZcm4zTuvnAYYKNM8Lr
Na+aNYUNOXNqPw2kpmc71p9UCMIQ9KpKsorJifPrusqt3gV6CLEVvA2dAqeVyCvM
V1TVksXiwvDi6oFsHmr9HAn/NxWwbT5jgYNJy/Rbn/S4/FZ6i4MbZRHMutfeoPWJ
S/L2m9OIshY5QuqsqMQjygzPo8Eq8v+tbCTp8CvCOZe83JpOdpDB0VHJfl4Tg0Vk
p49VPkWPtv9wLklrpn0g73GCzFR0pVNiGUY6LB4jjQIDAQABo4GgMIGdMAkGA1Ud
EwQCMAAwHQYDVR0OBBYEFI9jzQN36cIEGE6QedSzeoyRckP4ME8GA1UdIwRIMEaA
FJGPpfPAUSU/ghFMRsoCsZMetaaAoRikFjAUMRIwEAYDVQQDDAl0ZWFtNi1uZXSC
FDfEiiFyoGQwpEFHBGLxAmJqIy4eMBMGA1UdJQQMMAoGCCsGAQUFBwMCMAsGA1Ud
DwQEAwIHgDANBgkqhkiG9w0BAQsFAAOCAQEASlF1w832vkikSlyNtvtpnRI0D7gP
tbta5SylVZyKyXmH6EbdbMW/8eqZi/GzOl+baZQDSCVdKgDZj2pW15Rr0RQu4YIr
UtONg6tHYBvCRli2JEWRx5zjLCOtISc2voLCoP6R4V2P6FstABOTXtnzFNflMWMl
BMRI7fEuoylA7b2oGps7MOrsDoVxgxdnR0xOSMwA4qNJamPPG2mJOZ3hnuKCZt7p
Sl3DzrlA8YYP4D+SiTti+VIFKcSdu/O0kmaqCx7FDjPL/APtawLYRsy/TKWkMMjC
mQHDKss1uf2QOarR8xwIV8rkxCm7brQKL+NRR+6J1mAyVNrOoEW47ZFZuQ==
-----END CERTIFICATE-----
