Certificate:
    Data:
        Version: 3 (0x2)
        Serial Number:
            e6:b8:28:c7:17:cc:86:60:3b:4f:af:35:0e:41:41:c2
        Signature Algorithm: sha256WithRSAEncryption
        Issuer: CN=team198-net
        Validity
            Not Before: Aug 14 14:26:17 2023 GMT
            Not After : Jul 29 14:26:17 2026 GMT
        Subject: CN=team198-client
        Subject Public Key Info:
            Public Key Algorithm: rsaEncryption
                RSA Public-Key: (2048 bit)
                Modulus:
                    00:c0:4f:ee:0a:7e:a6:17:73:6d:e2:10:45:96:cf:
                    61:50:4a:9e:4d:5c:e6:8e:c5:35:2a:43:b7:03:6b:
                    f4:95:d4:03:ba:72:04:32:b6:f0:5e:ad:b5:03:65:
                    04:98:93:e0:67:d8:e4:59:87:85:02:63:26:5d:06:
                    00:79:89:d5:d2:b0:a6:f4:20:b2:a5:48:a1:20:f2:
                    bf:49:c8:63:cb:05:a7:8e:31:d9:42:af:c9:f7:d1:
                    41:84:fa:5d:c0:fc:99:79:48:fd:4a:05:2e:ad:c1:
                    33:4c:0e:90:d8:aa:7e:13:e7:da:57:79:b5:0a:30:
                    c5:02:74:d9:f8:39:73:27:ad:e3:0b:9f:c8:7c:99:
                    bf:fa:17:8a:8c:4e:44:7e:d7:72:b8:0c:e9:a3:5a:
                    9d:25:7e:2b:88:5e:eb:36:19:17:88:98:39:e9:4b:
                    9b:74:c0:a4:16:38:c3:16:f9:69:d7:37:50:3d:a8:
                    2a:74:e0:d2:40:69:e9:7d:28:b6:36:10:f1:72:8c:
                    2a:e5:a4:7b:df:7d:cc:c9:3b:a0:4c:d2:94:67:0b:
                    9d:ba:0c:32:dd:74:bc:bb:c3:1c:c1:10:0c:4c:53:
                    bc:1a:b2:01:dc:59:c8:24:1b:06:ce:d1:bb:18:a2:
                    d8:ae:4a:c6:ad:c5:ba:82:63:b4:ae:ec:ab:5b:dc:
                    90:c7
                Exponent: 65537 (0x10001)
        X509v3 extensions:
            X509v3 Basic Constraints: 
                CA:FALSE
            X509v3 Subject Key Identifier: 
                E8:FC:02:9D:6F:03:A6:B7:FE:CA:08:5F:73:9E:20:39:E3:FC:BF:B7
            X509v3 Authority Key Identifier: 
                keyid:6E:1A:03:91:6E:67:EB:7B:8C:90:D4:B9:54:31:0A:CC:51:FC:FA:26
                DirName:/CN=team198-net
                serial:3C:03:2C:EF:DE:CD:A6:AE:67:BD:1B:CB:2C:3D:D7:AF:68:98:00:84

            X509v3 Extended Key Usage: 
                TLS Web Client Authentication
            X509v3 Key Usage: 
                Digital Signature
    Signature Algorithm: sha256WithRSAEncryption
         8c:8e:0e:d0:14:d4:0b:3a:94:55:6a:fb:4a:c5:5f:d3:5f:39:
         7b:38:bd:9f:2e:1d:a3:34:76:bb:bd:39:53:97:f4:f5:b9:6b:
         ff:c5:01:48:86:56:da:9d:d3:85:02:e2:15:4f:21:2e:d3:c5:
         94:11:22:9b:dc:c1:e3:7e:e2:6d:b8:79:34:0b:c7:34:f5:3c:
         68:64:f5:7b:5f:a0:00:5a:cb:26:72:41:63:8e:af:5d:58:1f:
         86:2f:c4:d3:5e:78:14:b6:69:92:1b:ea:d1:b8:fb:36:d4:63:
         1e:26:bd:9a:e4:43:92:23:13:73:c0:c0:8e:70:3b:17:c4:1b:
         83:a5:b3:cd:7f:7d:a1:c6:92:e3:d0:93:92:dc:89:22:2e:b0:
         80:83:da:13:56:7b:5a:b4:60:f8:69:0d:2d:55:bd:ad:79:c2:
         ff:c5:d4:19:e4:ae:33:03:14:92:63:0c:d8:2e:a6:c5:53:ea:
         7d:cb:e6:20:fc:92:1a:cf:1c:90:84:46:8e:75:41:1e:28:e2:
         af:12:81:86:35:9f:26:6d:15:5f:f3:95:9a:04:98:d6:ba:42:
         30:81:d7:70:b7:b8:97:20:2c:df:20:6a:06:78:cf:97:8f:78:
         77:65:99:22:52:35:a1:ef:8d:7e:a8:8e:70:d3:b4:58:71:e6:
         96:2e:b0:b8
-----BEGIN CERTIFICATE-----
MIIDXTCCAkWgAwIBAgIRAOa4KMcXzIZgO0+vNQ5BQcIwDQYJKoZIhvcNAQELBQAw
FjEUMBIGA1UEAwwLdGVhbTE5OC1uZXQwHhcNMjMwODE0MTQyNjE3WhcNMjYwNzI5
MTQyNjE3WjAZMRcwFQYDVQQDDA50ZWFtMTk4LWNsaWVudDCCASIwDQYJKoZIhvcN
AQEBBQADggEPADCCAQoCggEBAMBP7gp+phdzbeIQRZbPYVBKnk1c5o7FNSpDtwNr
9JXUA7pyBDK28F6ttQNlBJiT4GfY5FmHhQJjJl0GAHmJ1dKwpvQgsqVIoSDyv0nI
Y8sFp44x2UKvyffRQYT6XcD8mXlI/UoFLq3BM0wOkNiqfhPn2ld5tQowxQJ02fg5
cyet4wufyHyZv/oXioxORH7XcrgM6aNanSV+K4he6zYZF4iYOelLm3TApBY4wxb5
adc3UD2oKnTg0kBp6X0otjYQ8XKMKuWke999zMk7oEzSlGcLnboMMt10vLvDHMEQ
DExTvBqyAdxZyCQbBs7Ruxii2K5Kxq3FuoJjtK7sq1vckMcCAwEAAaOBojCBnzAJ
BgNVHRMEAjAAMB0GA1UdDgQWBBTo/AKdbwOmt/7KCF9zniA54/y/tzBRBgNVHSME
SjBIgBRuGgORbmfre4yQ1LlUMQrMUfz6JqEapBgwFjEUMBIGA1UEAwwLdGVhbTE5
OC1uZXSCFDwDLO/ezaauZ70byyw9169omACEMBMGA1UdJQQMMAoGCCsGAQUFBwMC
MAsGA1UdDwQEAwIHgDANBgkqhkiG9w0BAQsFAAOCAQEAjI4O0BTUCzqUVWr7SsVf
0185ezi9ny4dozR2u705U5f09blr/8UBSIZW2p3ThQLiFU8hLtPFlBEim9zB437i
bbh5NAvHNPU8aGT1e1+gAFrLJnJBY46vXVgfhi/E0154FLZpkhvq0bj7NtRjHia9
muRDkiMTc8DAjnA7F8Qbg6WzzX99ocaS49CTktyJIi6wgIPaE1Z7WrRg+GkNLVW9
rXnC/8XUGeSuMwMUkmMM2C6mxVPqfcvmIPySGs8ckIRGjnVBHijirxKBhjWfJm0V
X/OVmgSY1rpCMIHXcLe4lyAs3yBqBnjPl494d2WZIlI1oe+NfqiOcNO0WHHmli6w
uA==
-----END CERTIFICATE-----
