Certificate:
    Data:
        Version: 3 (0x2)
        Serial Number:
            f6:c3:5c:88:2e:12:90:a8:37:83:b8:d7:36:6c:ae:03
        Signature Algorithm: sha256WithRSAEncryption
        Issuer: CN=team200-net
        Validity
            Not Before: Aug 14 14:26:20 2023 GMT
            Not After : Jul 29 14:26:20 2026 GMT
        Subject: CN=team200-server
        Subject Public Key Info:
            Public Key Algorithm: rsaEncryption
                RSA Public-Key: (2048 bit)
                Modulus:
                    00:de:97:75:1d:7c:00:9a:f7:d1:3b:1a:66:b6:6b:
                    f7:2e:0b:f5:17:50:a5:f3:15:44:29:f5:ac:ca:a8:
                    2f:fb:a2:c9:27:5b:ac:4e:48:07:bd:63:b8:03:cf:
                    76:cd:12:b2:7b:ee:04:1f:d2:50:e4:30:66:46:bc:
                    f3:03:8e:b3:97:fb:48:49:ab:5b:bc:09:65:4c:48:
                    b1:c7:7a:63:a6:1b:ff:02:19:b7:a8:05:a3:c4:00:
                    22:a2:d2:39:ac:1c:a3:47:60:86:88:fe:21:63:a8:
                    41:07:60:ef:e9:94:7a:28:6f:b3:f7:46:17:eb:91:
                    09:ad:dd:80:59:9d:62:a4:f9:d5:43:85:7b:d8:0f:
                    ca:65:ed:91:a0:b1:d4:d3:bf:7a:dc:f7:be:6e:fa:
                    c7:8a:91:58:0d:da:3c:8e:22:49:4d:be:33:85:64:
                    9d:00:4f:f3:f5:58:21:5d:4c:55:ca:39:ed:6f:34:
                    1b:49:cb:52:ea:cb:b1:7b:19:d7:4a:35:f7:14:9a:
                    f3:99:5a:87:1e:ab:65:3a:32:a1:6e:fa:cf:27:29:
                    ad:79:8f:38:56:f4:92:dc:a3:96:e1:4b:c4:63:43:
                    a5:dd:33:e3:f0:79:2a:36:97:4d:02:0a:db:8b:24:
                    73:b1:75:ce:56:95:4a:f5:de:52:92:53:76:fb:cb:
                    66:51
                Exponent: 65537 (0x10001)
        X509v3 extensions:
            X509v3 Basic Constraints: 
                CA:FALSE
            X509v3 Subject Key Identifier: 
                96:5B:10:B5:25:20:82:B5:0C:FC:E9:98:63:41:B2:D8:07:4A:15:B9
            X509v3 Authority Key Identifier: 
                keyid:E2:67:F1:4F:DE:38:D8:AC:52:13:A0:5A:E1:76:D9:78:7B:6D:BF:66
                DirName:/CN=team200-net
                serial:0C:D3:CA:1D:2D:7E:78:6F:3D:45:E8:87:C7:B5:68:94:37:6F:AE:77

            X509v3 Extended Key Usage: 
                TLS Web Server Authentication
            X509v3 Key Usage: 
                Digital Signature, Key Encipherment
            X509v3 Subject Alternative Name: 
                DNS:team200-server
    Signature Algorithm: sha256WithRSAEncryption
         7c:0f:b2:c9:e2:34:a5:79:0d:fa:fc:5a:20:aa:da:9e:73:16:
         d8:59:cd:ab:b7:a5:b5:9b:e2:cd:5c:b0:48:63:5b:98:1c:78:
         4e:00:d8:ab:05:87:54:24:51:41:69:8d:5b:d1:c2:fa:4a:c6:
         dc:06:ac:78:74:76:43:52:49:8e:6d:0c:ed:18:c1:93:a4:eb:
         ed:f6:2a:dc:f2:46:2d:75:31:a7:b3:21:09:6d:dc:48:fa:85:
         a6:c2:46:f3:e7:8a:0a:e7:a2:69:a2:af:73:49:fd:7e:98:b1:
         1c:a2:58:0d:61:84:0f:45:b4:5e:4a:d3:02:83:35:e5:61:38:
         8d:56:2b:a1:ec:f3:a0:0f:5c:00:98:2f:f0:32:f8:d1:a9:58:
         68:90:53:40:83:71:50:4a:5b:c8:0e:a9:31:f9:b9:a1:2a:f1:
         aa:e1:ee:4b:8c:af:70:bf:9f:f6:60:76:bd:f1:ee:a2:ac:a5:
         58:aa:8a:4c:27:0b:36:2b:ff:a0:af:e6:a8:40:85:e4:f9:07:
         44:af:ca:1e:3c:47:ad:56:98:d9:3a:b5:25:98:04:8f:72:90:
         87:90:c6:2d:ff:44:0f:69:bf:ea:47:60:9a:64:a7:27:92:3c:
         b2:9f:19:5d:26:a3:0f:e1:b6:98:a9:b6:e4:54:fc:78:33:5d:
         18:6c:56:76
-----BEGIN CERTIFICATE-----
MIIDeDCCAmCgAwIBAgIRAPbDXIguEpCoN4O41zZsrgMwDQYJKoZIhvcNAQELBQAw
FjEUMBIGA1UEAwwLdGVhbTIwMC1uZXQwHhcNMjMwODE0MTQyNjIwWhcNMjYwNzI5
MTQyNjIwWjAZMRcwFQYDVQQDDA50ZWFtMjAwLXNlcnZlcjCCASIwDQYJKoZIhvcN
AQEBBQADggEPADCCAQoCggEBAN6XdR18AJr30TsaZrZr9y4L9RdQpfMVRCn1rMqo
L/uiySdbrE5IB71juAPPds0SsnvuBB/SUOQwZka88wOOs5f7SEmrW7wJZUxIscd6
Y6Yb/wIZt6gFo8QAIqLSOawco0dghoj+IWOoQQdg7+mUeihvs/dGF+uRCa3dgFmd
YqT51UOFe9gPymXtkaCx1NO/etz3vm76x4qRWA3aPI4iSU2+M4VknQBP8/VYIV1M
Vco57W80G0nLUurLsXsZ10o19xSa85lahx6rZToyoW76zycprXmPOFb0ktyjluFL
xGNDpd0z4/B5KjaXTQIK24skc7F1zlaVSvXeUpJTdvvLZlECAwEAAaOBvTCBujAJ
BgNVHRMEAjAAMB0GA1UdDgQWBBSWWxC1JSCCtQz86ZhjQbLYB0oVuTBRBgNVHSME
SjBIgBTiZ/FP3jjYrFIToFrhdtl4e22/ZqEapBgwFjEUMBIGA1UEAwwLdGVhbTIw
MC1uZXSCFAzTyh0tfnhvPUXoh8e1aJQ3b653MBMGA1UdJQQMMAoGCCsGAQUFBwMB
MAsGA1UdDwQEAwIFoDAZBgNVHREEEjAQgg50ZWFtMjAwLXNlcnZlcjANBgkqhkiG
9w0BAQsFAAOCAQEAfA+yyeI0pXkN+vxaIKrannMW2FnNq7eltZvizVywSGNbmBx4
TgDYqwWHVCRRQWmNW9HC+krG3AaseHR2Q1JJjm0M7RjBk6Tr7fYq3PJGLXUxp7Mh
CW3cSPqFpsJG8+eKCueiaaKvc0n9fpixHKJYDWGED0W0XkrTAoM15WE4jVYroezz
oA9cAJgv8DL40alYaJBTQINxUEpbyA6pMfm5oSrxquHuS4yvcL+f9mB2vfHuoqyl
WKqKTCcLNiv/oK/mqECF5PkHRK/KHjxHrVaY2Tq1JZgEj3KQh5DGLf9ED2m/6kdg
mmSnJ5I8sp8ZXSajD+G2mKm25FT8eDNdGGxWdg==
-----END CERTIFICATE-----
