Certificate:
    Data:
        Version: 3 (0x2)
        Serial Number:
            b5:cd:14:30:79:17:71:74:51:f0:e5:24:36:b5:de:4e
        Signature Algorithm: sha256WithRSAEncryption
        Issuer: CN=team33-net
        Validity
            Not Before: Aug 14 14:22:45 2023 GMT
            Not After : Jul 29 14:22:45 2026 GMT
        Subject: CN=team33-server
        Subject Public Key Info:
            Public Key Algorithm: rsaEncryption
                RSA Public-Key: (2048 bit)
                Modulus:
                    00:c7:85:38:44:cd:7a:81:7b:dd:5d:4f:d1:66:6e:
                    71:7d:37:89:80:d9:19:66:0b:88:0a:72:67:55:2a:
                    3b:c9:87:b6:42:fc:ba:b6:31:b0:57:86:4f:a4:98:
                    34:ee:5c:4f:8b:b7:d5:12:1e:4e:d1:c3:5f:22:a9:
                    69:e0:45:b3:39:5c:ad:fe:2d:bc:36:0a:e1:ba:e3:
                    c6:d4:3c:61:b6:f9:aa:5b:2d:be:eb:f0:f8:96:89:
                    fc:af:6f:5d:f3:e1:b6:11:38:60:45:3a:10:60:52:
                    ff:b5:f6:92:e0:dc:72:df:9b:d8:79:d6:20:49:82:
                    ef:ef:d0:62:79:0f:04:f1:1b:dc:9b:4e:f6:54:ae:
                    6a:e8:ed:0c:dc:e9:09:f3:07:80:d0:0e:bb:8c:02:
                    a0:85:bd:a7:fd:1d:eb:10:6c:24:14:3b:38:b6:27:
                    fa:9c:5c:cc:9e:69:25:ad:42:d9:62:34:b0:1b:f5:
                    76:58:27:b4:61:bb:a3:70:79:a1:e4:2f:57:97:06:
                    cd:b9:2d:ba:5f:7e:6a:3e:d9:d1:22:bc:d4:84:12:
                    37:51:66:c9:1f:e8:74:dd:db:e8:51:22:f8:90:bf:
                    09:c9:56:0c:de:ae:fc:68:a7:61:50:23:29:5d:b9:
                    11:f4:be:41:4d:69:88:81:fb:05:c2:65:66:c8:1b:
                    9e:71
                Exponent: 65537 (0x10001)
        X509v3 extensions:
            X509v3 Basic Constraints: 
                CA:FALSE
            X509v3 Subject Key Identifier: 
                6A:EA:3D:1F:CD:D0:25:7D:01:B3:70:7B:22:05:2A:60:63:6A:25:42
            X509v3 Authority Key Identifier: 
                keyid:36:31:DB:E2:89:EE:22:B2:70:9F:49:34:2F:9D:A5:9A:75:9C:DD:7D
                DirName:/CN=team33-net
                serial:0C:A7:A2:3B:E5:DC:BA:88:55:BB:2C:AC:10:B3:CD:A1:D0:5D:F9:01

            X509v3 Extended Key Usage: 
                TLS Web Server Authentication
            X509v3 Key Usage: 
                Digital Signature, Key Encipherment
            X509v3 Subject Alternative Name: 
                DNS:team33-server
    Signature Algorithm: sha256WithRSAEncryption
         7b:0a:03:99:03:15:20:3b:3b:7a:59:f3:05:d5:06:93:59:85:
         bb:f5:6e:eb:27:e8:77:0e:78:a4:22:00:8b:05:09:6c:60:1a:
         99:e8:76:0f:84:dd:a8:03:a6:72:ef:32:dd:b1:bd:1c:81:47:
         48:3e:09:24:f3:ec:85:1b:f3:b9:12:ba:2a:22:c2:55:97:32:
         eb:f2:45:9e:a3:1b:9f:72:cb:80:c8:88:fb:9b:44:99:e5:f6:
         b3:d5:c5:ca:f0:d3:c1:19:b0:c5:ff:55:00:80:67:2c:fa:3b:
         15:f0:43:d2:ec:d3:27:11:72:32:6f:54:c8:d8:42:be:5b:2d:
         55:6d:f0:52:66:92:59:17:0b:52:c6:e1:88:28:f1:33:dc:52:
         0f:01:b3:04:6e:cb:a1:65:1f:40:01:4a:b5:b4:f8:60:a3:fb:
         48:e8:f6:e8:e2:c8:fe:b2:e7:c4:29:e8:c5:4e:84:dc:87:f6:
         1b:2a:5d:84:54:3d:2c:08:87:2b:3b:f1:e1:df:4f:f2:b1:22:
         98:59:ae:ef:e7:7a:bc:8c:d6:3e:e4:07:11:f6:56:ec:b3:ce:
         83:ea:1b:d1:e9:27:dd:fe:c2:2b:d4:83:7d:5d:67:b8:69:5a:
         ab:38:6d:45:c8:ac:04:e6:9d:0f:5b:d2:36:19:4d:59:ec:c2:
         b3:6e:3d:01
-----BEGIN CERTIFICATE-----
MIIDdDCCAlygAwIBAgIRALXNFDB5F3F0UfDlJDa13k4wDQYJKoZIhvcNAQELBQAw
FTETMBEGA1UEAwwKdGVhbTMzLW5ldDAeFw0yMzA4MTQxNDIyNDVaFw0yNjA3Mjkx
NDIyNDVaMBgxFjAUBgNVBAMMDXRlYW0zMy1zZXJ2ZXIwggEiMA0GCSqGSIb3DQEB
AQUAA4IBDwAwggEKAoIBAQDHhThEzXqBe91dT9FmbnF9N4mA2RlmC4gKcmdVKjvJ
h7ZC/Lq2MbBXhk+kmDTuXE+Lt9USHk7Rw18iqWngRbM5XK3+Lbw2CuG648bUPGG2
+apbLb7r8PiWifyvb13z4bYROGBFOhBgUv+19pLg3HLfm9h51iBJgu/v0GJ5DwTx
G9ybTvZUrmro7Qzc6QnzB4DQDruMAqCFvaf9HesQbCQUOzi2J/qcXMyeaSWtQtli
NLAb9XZYJ7Rhu6NweaHkL1eXBs25Lbpffmo+2dEivNSEEjdRZskf6HTd2+hRIviQ
vwnJVgzervxop2FQIylduRH0vkFNaYiB+wXCZWbIG55xAgMBAAGjgbswgbgwCQYD
VR0TBAIwADAdBgNVHQ4EFgQUauo9H83QJX0Bs3B7IgUqYGNqJUIwUAYDVR0jBEkw
R4AUNjHb4onuIrJwn0k0L52lmnWc3X2hGaQXMBUxEzARBgNVBAMMCnRlYW0zMy1u
ZXSCFAynojvl3LqIVbssrBCzzaHQXfkBMBMGA1UdJQQMMAoGCCsGAQUFBwMBMAsG
A1UdDwQEAwIFoDAYBgNVHREEETAPgg10ZWFtMzMtc2VydmVyMA0GCSqGSIb3DQEB
CwUAA4IBAQB7CgOZAxUgOzt6WfMF1QaTWYW79W7rJ+h3DnikIgCLBQlsYBqZ6HYP
hN2oA6Zy7zLdsb0cgUdIPgkk8+yFG/O5EroqIsJVlzLr8kWeoxufcsuAyIj7m0SZ
5faz1cXK8NPBGbDF/1UAgGcs+jsV8EPS7NMnEXIyb1TI2EK+Wy1VbfBSZpJZFwtS
xuGIKPEz3FIPAbMEbsuhZR9AAUq1tPhgo/tI6Pbo4sj+sufEKejFToTch/YbKl2E
VD0sCIcrO/Hh30/ysSKYWa7v53q8jNY+5AcR9lbss86D6hvR6Sfd/sIr1IN9XWe4
aVqrOG1FyKwE5p0PW9I2GU1Z7MKzbj0B
-----END CERTIFICATE-----
