Certificate:
    Data:
        Version: 3 (0x2)
        Serial Number:
            35:83:a8:64:51:8c:dd:be:83:d7:80:b4:e8:99:0e:e8
        Signature Algorithm: sha256WithRSAEncryption
        Issuer: CN=team128-net
        Validity
            Not Before: Aug 14 14:24:55 2023 GMT
            Not After : Jul 29 14:24:55 2026 GMT
        Subject: CN=team128-server
        Subject Public Key Info:
            Public Key Algorithm: rsaEncryption
                RSA Public-Key: (2048 bit)
                Modulus:
                    00:d6:01:c0:d9:d1:09:62:63:7c:d2:3a:c0:0c:68:
                    93:8a:9c:f3:78:1b:36:f4:84:98:6f:b5:05:24:11:
                    5e:a0:1d:8d:ea:15:01:60:09:6d:6c:20:71:d6:c8:
                    c4:3e:be:af:13:8f:f3:d2:2a:b7:be:53:06:43:52:
                    45:0e:be:3f:e1:af:b1:c6:78:28:58:c1:81:f4:41:
                    58:54:5f:6d:3c:bc:46:c7:8a:b6:38:d6:87:fa:bb:
                    2c:b2:50:cc:46:94:5e:73:7b:62:f8:7b:fd:c4:4c:
                    38:2b:76:a9:ff:7d:9f:cb:76:a1:71:07:d5:67:62:
                    75:e0:f5:57:aa:a5:0a:5e:c9:14:38:73:48:90:a8:
                    b1:3e:27:b9:dd:46:cf:ae:0a:dc:db:36:87:ae:94:
                    11:b6:61:66:51:22:4a:1d:c4:dc:39:7e:f1:dd:c2:
                    6b:7e:ed:29:e9:d8:a0:bf:7b:38:d2:4b:34:76:a9:
                    4b:53:a6:54:f3:d0:46:66:6c:e4:5f:e2:83:a5:aa:
                    1e:e8:79:72:12:2f:f4:0a:f5:a1:2a:4d:47:ef:08:
                    7c:33:29:54:40:80:e1:8a:85:62:18:c9:42:cb:71:
                    e8:92:a7:de:29:cc:90:27:a5:22:e6:e0:5e:14:e5:
                    cc:f3:14:62:3e:5c:a6:eb:84:1c:5d:70:ed:10:25:
                    5c:3b
                Exponent: 65537 (0x10001)
        X509v3 extensions:
            X509v3 Basic Constraints: 
                CA:FALSE
            X509v3 Subject Key Identifier: 
                4B:AD:3D:7E:8C:7F:98:DF:01:03:B7:30:14:C7:3E:BC:82:9D:01:43
            X509v3 Authority Key Identifier: 
                keyid:D0:8A:9E:DC:9B:9F:7B:93:7C:22:74:AF:0B:B1:7B:E4:4A:DA:56:C8
                DirName:/CN=team128-net
                serial:03:EB:CA:05:17:30:FB:52:9C:C8:82:81:EB:B8:A1:37:27:6C:20:56

            X509v3 Extended Key Usage: 
                TLS Web Server Authentication
            X509v3 Key Usage: 
                Digital Signature, Key Encipherment
            X509v3 Subject Alternative Name: 
                DNS:team128-server
    Signature Algorithm: sha256WithRSAEncryption
         57:f2:72:e2:65:64:69:8f:8b:cd:a2:da:f5:6e:b5:fb:84:1d:
         33:f9:0c:70:d3:29:6b:53:62:8e:cd:b8:91:a6:4a:d6:62:15:
         4e:4a:33:78:66:77:7d:3f:0c:2f:95:ea:65:37:c0:44:3c:98:
         db:b7:4a:51:a3:57:e3:09:f2:e8:e0:f4:27:9b:09:fc:e9:31:
         39:f5:65:8f:40:54:8c:b1:6e:ca:76:ae:e5:c8:1e:04:82:e3:
         ff:89:f4:bc:14:c2:9b:27:e9:d0:86:a1:34:ce:4b:21:56:88:
         38:eb:b6:2d:28:e4:55:28:d0:76:d0:50:10:ed:e6:78:4d:c8:
         ce:3e:8b:85:fa:b3:81:56:81:c0:61:1b:4f:55:1f:ed:8d:d4:
         1b:f9:3b:56:9e:06:6f:f9:b3:00:df:d4:1d:47:d8:2f:2a:57:
         5c:48:2e:f6:c1:05:99:2b:89:8b:4a:91:ed:3d:34:5f:d5:06:
         e6:90:c8:0f:ad:07:06:5f:56:9e:ad:fd:73:41:2c:e1:5c:31:
         a4:56:5f:88:43:46:1a:c1:40:e2:4c:50:33:76:18:95:e4:93:
         25:a6:8d:62:c9:f2:bd:d5:96:a9:8c:80:6e:df:91:fc:46:67:
         aa:08:7b:d4:a4:4b:22:a4:20:8c:6b:a2:63:71:4d:9a:a2:79:
         12:2f:00:a1
-----BEGIN CERTIFICATE-----
MIIDdzCCAl+gAwIBAgIQNYOoZFGM3b6D14C06JkO6DANBgkqhkiG9w0BAQsFADAW
MRQwEgYDVQQDDAt0ZWFtMTI4LW5ldDAeFw0yMzA4MTQxNDI0NTVaFw0yNjA3Mjkx
NDI0NTVaMBkxFzAVBgNVBAMMDnRlYW0xMjgtc2VydmVyMIIBIjANBgkqhkiG9w0B
AQEFAAOCAQ8AMIIBCgKCAQEA1gHA2dEJYmN80jrADGiTipzzeBs29ISYb7UFJBFe
oB2N6hUBYAltbCBx1sjEPr6vE4/z0iq3vlMGQ1JFDr4/4a+xxngoWMGB9EFYVF9t
PLxGx4q2ONaH+rssslDMRpRec3ti+Hv9xEw4K3ap/32fy3ahcQfVZ2J14PVXqqUK
XskUOHNIkKixPie53UbPrgrc2zaHrpQRtmFmUSJKHcTcOX7x3cJrfu0p6digv3s4
0ks0dqlLU6ZU89BGZmzkX+KDpaoe6HlyEi/0CvWhKk1H7wh8MylUQIDhioViGMlC
y3HokqfeKcyQJ6Ui5uBeFOXM8xRiPlym64QcXXDtECVcOwIDAQABo4G9MIG6MAkG
A1UdEwQCMAAwHQYDVR0OBBYEFEutPX6Mf5jfAQO3MBTHPryCnQFDMFEGA1UdIwRK
MEiAFNCKntybn3uTfCJ0rwuxe+RK2lbIoRqkGDAWMRQwEgYDVQQDDAt0ZWFtMTI4
LW5ldIIUA+vKBRcw+1KcyIKB67ihNydsIFYwEwYDVR0lBAwwCgYIKwYBBQUHAwEw
CwYDVR0PBAQDAgWgMBkGA1UdEQQSMBCCDnRlYW0xMjgtc2VydmVyMA0GCSqGSIb3
DQEBCwUAA4IBAQBX8nLiZWRpj4vNotr1brX7hB0z+Qxw0ylrU2KOzbiRpkrWYhVO
SjN4Znd9PwwvleplN8BEPJjbt0pRo1fjCfLo4PQnmwn86TE59WWPQFSMsW7Kdq7l
yB4EguP/ifS8FMKbJ+nQhqE0zkshVog467YtKORVKNB20FAQ7eZ4TcjOPouF+rOB
VoHAYRtPVR/tjdQb+TtWngZv+bMA39QdR9gvKldcSC72wQWZK4mLSpHtPTRf1Qbm
kMgPrQcGX1aerf1zQSzhXDGkVl+IQ0YawUDiTFAzdhiV5JMlpo1iyfK91ZapjIBu
35H8RmeqCHvUpEsipCCMa6JjcU2aonkSLwCh
-----END CERTIFICATE-----
