Certificate:
    Data:
        Version: 3 (0x2)
        Serial Number:
            ec:de:3d:f4:dc:a3:5b:77:5a:dc:67:14:a7:46:4b:21
        Signature Algorithm: sha256WithRSAEncryption
        Issuer: CN=team128-net
        Validity
            Not Before: Aug 14 14:24:55 2023 GMT
            Not After : Jul 29 14:24:55 2026 GMT
        Subject: CN=team128-client
        Subject Public Key Info:
            Public Key Algorithm: rsaEncryption
                RSA Public-Key: (2048 bit)
                Modulus:
                    00:dd:7f:a5:9d:f3:2a:e2:9a:e4:bf:ea:7b:69:f6:
                    2e:39:5c:72:45:74:63:b3:3c:13:31:d7:5a:f7:a7:
                    27:ab:05:bc:34:b1:29:f1:b7:a0:ee:5b:1f:cf:1b:
                    69:94:9b:38:02:38:4f:e0:1f:89:b7:1c:3a:2f:e8:
                    f8:a7:81:24:d6:82:4a:33:f6:f0:85:92:1e:16:e6:
                    9e:93:25:fa:73:c8:6d:95:46:7b:ad:c7:6e:65:b9:
                    69:62:06:e1:72:5d:aa:95:1d:0c:3c:90:99:4b:16:
                    1f:b1:cc:f9:a5:b5:e9:41:ff:b9:63:31:c9:fd:89:
                    61:ba:60:e3:b3:6a:b0:df:7f:52:a3:82:79:11:a1:
                    9a:14:b2:b5:10:df:f1:a0:d5:0a:70:1c:eb:1b:30:
                    e6:ca:63:f4:b1:86:b5:3b:13:68:c0:e8:94:e9:ec:
                    8f:68:62:46:c6:49:7d:9f:ba:7b:59:dc:92:f0:a7:
                    b7:db:87:2c:d7:6f:a6:05:d2:42:ea:94:6e:fd:95:
                    12:e1:0e:df:18:11:8d:3c:57:f9:8e:52:83:41:63:
                    ee:68:f8:26:4e:12:6b:c2:ce:0a:51:71:6c:96:31:
                    d6:f4:12:ac:9f:dc:2f:87:ca:37:29:40:28:fd:ac:
                    35:37:15:fa:ec:b5:1e:1f:70:a5:d0:2d:74:38:2f:
                    98:dd
                Exponent: 65537 (0x10001)
        X509v3 extensions:
            X509v3 Basic Constraints: 
                CA:FALSE
            X509v3 Subject Key Identifier: 
                5A:7B:FB:70:7C:ED:E4:BD:DF:AE:F7:70:09:19:DE:4F:D2:C7:79:4E
            X509v3 Authority Key Identifier: 
                keyid:D0:8A:9E:DC:9B:9F:7B:93:7C:22:74:AF:0B:B1:7B:E4:4A:DA:56:C8
                DirName:/CN=team128-net
                serial:03:EB:CA:05:17:30:FB:52:9C:C8:82:81:EB:B8:A1:37:27:6C:20:56

            X509v3 Extended Key Usage: 
                TLS Web Client Authentication
            X509v3 Key Usage: 
                Digital Signature
    Signature Algorithm: sha256WithRSAEncryption
         25:ae:58:20:79:0f:09:51:21:8f:e8:34:c1:49:88:15:b4:64:
         45:06:ef:9d:d1:1c:75:b1:8e:31:00:b3:7b:3d:48:d5:6c:a4:
         dd:70:ef:27:37:53:15:95:9d:43:7b:db:18:9c:18:02:17:d6:
         67:b2:d1:c1:b3:88:2a:d4:df:c2:3c:2b:b5:60:d1:b3:bd:af:
         c3:c1:98:75:bf:da:f0:71:db:06:22:32:18:7a:3d:b3:47:ef:
         31:14:2f:58:63:68:9c:1d:f6:24:67:9d:61:4f:50:60:13:61:
         48:bb:f1:c3:3f:df:0c:c3:07:5a:43:e6:c1:d4:00:13:54:3e:
         a7:7b:b0:c4:ef:cc:2e:0d:cb:8b:cf:fa:91:66:02:9f:c8:59:
         d8:07:e1:57:e1:33:65:6d:eb:28:8b:40:cc:d6:20:14:a2:80:
         b4:94:09:fb:39:58:26:9f:86:8e:a8:de:5c:4b:6f:54:1b:93:
         84:2d:d3:40:f3:c2:5f:4b:5a:fe:b2:8d:99:20:ee:98:f7:0a:
         14:00:0d:9c:30:43:12:fc:0b:55:1c:06:db:84:81:0d:57:f4:
         6e:e0:f1:47:fd:9a:19:f2:48:d3:66:c4:fe:9f:65:8f:2c:d8:
         ef:9d:cd:5d:4a:d2:59:10:dd:18:be:cd:dc:53:f4:fe:67:03:
         23:95:08:45
-----BEGIN CERTIFICATE-----
MIIDXTCCAkWgAwIBAgIRAOzePfTco1t3WtxnFKdGSyEwDQYJKoZIhvcNAQELBQAw
FjEUMBIGA1UEAwwLdGVhbTEyOC1uZXQwHhcNMjMwODE0MTQyNDU1WhcNMjYwNzI5
MTQyNDU1WjAZMRcwFQYDVQQDDA50ZWFtMTI4LWNsaWVudDCCASIwDQYJKoZIhvcN
AQEBBQADggEPADCCAQoCggEBAN1/pZ3zKuKa5L/qe2n2LjlcckV0Y7M8EzHXWven
J6sFvDSxKfG3oO5bH88baZSbOAI4T+AfibccOi/o+KeBJNaCSjP28IWSHhbmnpMl
+nPIbZVGe63HbmW5aWIG4XJdqpUdDDyQmUsWH7HM+aW16UH/uWMxyf2JYbpg47Nq
sN9/UqOCeRGhmhSytRDf8aDVCnAc6xsw5spj9LGGtTsTaMDolOnsj2hiRsZJfZ+6
e1nckvCnt9uHLNdvpgXSQuqUbv2VEuEO3xgRjTxX+Y5Sg0Fj7mj4Jk4Sa8LOClFx
bJYx1vQSrJ/cL4fKNylAKP2sNTcV+uy1Hh9wpdAtdDgvmN0CAwEAAaOBojCBnzAJ
BgNVHRMEAjAAMB0GA1UdDgQWBBRae/twfO3kvd+u93AJGd5P0sd5TjBRBgNVHSME
SjBIgBTQip7cm597k3widK8LsXvkStpWyKEapBgwFjEUMBIGA1UEAwwLdGVhbTEy
OC1uZXSCFAPrygUXMPtSnMiCgeu4oTcnbCBWMBMGA1UdJQQMMAoGCCsGAQUFBwMC
MAsGA1UdDwQEAwIHgDANBgkqhkiG9w0BAQsFAAOCAQEAJa5YIHkPCVEhj+g0wUmI
FbRkRQbvndEcdbGOMQCzez1I1Wyk3XDvJzdTFZWdQ3vbGJwYAhfWZ7LRwbOIKtTf
wjwrtWDRs72vw8GYdb/a8HHbBiIyGHo9s0fvMRQvWGNonB32JGedYU9QYBNhSLvx
wz/fDMMHWkPmwdQAE1Q+p3uwxO/MLg3Li8/6kWYCn8hZ2AfhV+EzZW3rKItAzNYg
FKKAtJQJ+zlYJp+GjqjeXEtvVBuThC3TQPPCX0ta/rKNmSDumPcKFAANnDBDEvwL
VRwG24SBDVf0buDxR/2aGfJI02bE/p9ljyzY753NXUrSWRDdGL7N3FP0/mcDI5UI
RQ==
-----END CERTIFICATE-----
