Certificate:
    Data:
        Version: 3 (0x2)
        Serial Number:
            66:7c:26:59:8d:e6:20:9b:19:ee:10:7e:99:29:92:a7
        Signature Algorithm: sha256WithRSAEncryption
        Issuer: CN=team170-net
        Validity
            Not Before: Aug 14 14:25:47 2023 GMT
            Not After : Jul 29 14:25:47 2026 GMT
        Subject: CN=team170-client
        Subject Public Key Info:
            Public Key Algorithm: rsaEncryption
                RSA Public-Key: (2048 bit)
                Modulus:
                    00:be:ae:52:53:74:49:8b:71:f9:e8:69:e1:88:b1:
                    58:64:77:02:31:a2:c8:06:ce:2c:0f:99:4f:db:3e:
                    72:a6:de:0a:d7:10:d1:a9:b9:6b:5b:ab:a5:b8:08:
                    e3:a0:7b:89:90:79:54:21:6e:2f:c9:2d:d0:72:95:
                    fa:54:47:d9:39:78:1e:40:93:8c:bd:eb:8e:4c:b4:
                    25:7e:3c:86:69:77:e5:e4:71:1a:c6:9b:68:4a:e5:
                    d3:24:bc:7e:68:fc:a6:53:1f:23:d9:b0:e1:79:c8:
                    f8:10:e7:5f:25:ec:04:53:79:e1:91:f8:7b:47:e4:
                    28:3f:5f:e6:85:7e:d4:de:e8:43:d9:8e:3a:ab:00:
                    22:0f:0d:c9:93:ab:ec:9a:81:8f:cf:55:d3:98:3d:
                    58:45:24:b3:1f:0b:94:dc:87:10:71:21:c0:60:92:
                    93:49:d5:e4:62:f1:1d:bd:f0:1d:4f:b4:07:d3:e5:
                    c9:66:d3:10:4d:08:ae:7f:c8:06:77:b1:91:ec:11:
                    d6:c9:e0:52:e3:ef:81:ec:f4:ff:ac:ec:9b:7c:44:
                    c3:9a:48:50:92:25:0b:66:90:7e:87:15:62:39:8b:
                    b9:c9:a2:53:9e:af:e3:7d:01:4a:68:86:51:52:b1:
                    35:f6:2e:91:6d:4f:a6:d7:70:15:e3:fc:8b:16:db:
                    7d:ad
                Exponent: 65537 (0x10001)
        X509v3 extensions:
            X509v3 Basic Constraints: 
                CA:FALSE
            X509v3 Subject Key Identifier: 
                E7:60:27:FD:48:57:F2:1D:53:2B:3E:DF:B3:87:7F:10:B8:44:E5:07
            X509v3 Authority Key Identifier: 
                keyid:02:13:FC:2C:72:29:EE:41:D8:3E:41:9F:AA:86:2F:00:9F:B9:74:8E
                DirName:/CN=team170-net
                serial:38:C7:6D:C5:3C:CE:BB:06:8E:70:FF:1D:F3:22:E3:4A:3F:E0:69:28

            X509v3 Extended Key Usage: 
                TLS Web Client Authentication
            X509v3 Key Usage: 
                Digital Signature
    Signature Algorithm: sha256WithRSAEncryption
         02:d2:4e:01:4b:db:49:b6:c8:0b:fe:a9:29:4d:bb:b0:6e:19:
         f6:11:c6:32:a6:74:51:7a:69:26:24:25:b0:19:51:23:1e:b3:
         b0:d7:0e:e9:97:5a:f4:0e:04:fd:29:70:b1:e0:1e:ab:01:78:
         e9:45:dc:27:d4:89:d1:0a:c6:11:a8:c4:10:a6:1f:74:81:16:
         00:f6:3c:2c:bc:1d:3f:35:a6:dc:89:24:b8:47:3f:44:95:5b:
         32:7a:77:18:72:c9:c2:e1:15:71:76:d3:0f:03:62:8f:0a:a1:
         9f:60:0b:e1:30:31:92:0f:c6:69:06:29:1f:01:5a:f3:76:9b:
         a5:45:f8:da:69:30:0f:e5:d5:d3:70:bd:90:1b:5d:89:ad:07:
         9e:a3:2f:aa:61:83:57:d0:2a:ea:14:bf:36:bc:d1:c5:f4:43:
         90:58:46:8f:a8:90:fd:74:ba:fb:29:ab:19:a8:30:82:93:86:
         12:aa:cb:8a:7a:b7:d7:4a:b0:94:c6:f5:8e:cc:6d:a2:94:1d:
         2d:f3:6f:84:af:b2:49:ce:c9:aa:24:06:28:3f:cd:03:3a:1c:
         33:57:59:56:98:ed:3c:5e:23:af:34:1a:46:29:3a:28:67:03:
         23:3f:c2:2b:93:b6:d4:f3:fc:d3:11:35:5d:dd:86:35:67:3e:
         1f:43:ac:3b
-----BEGIN CERTIFICATE-----
MIIDXDCCAkSgAwIBAgIQZnwmWY3mIJsZ7hB+mSmSpzANBgkqhkiG9w0BAQsFADAW
MRQwEgYDVQQDDAt0ZWFtMTcwLW5ldDAeFw0yMzA4MTQxNDI1NDdaFw0yNjA3Mjkx
NDI1NDdaMBkxFzAVBgNVBAMMDnRlYW0xNzAtY2xpZW50MIIBIjANBgkqhkiG9w0B
AQEFAAOCAQ8AMIIBCgKCAQEAvq5SU3RJi3H56GnhiLFYZHcCMaLIBs4sD5lP2z5y
pt4K1xDRqblrW6uluAjjoHuJkHlUIW4vyS3QcpX6VEfZOXgeQJOMveuOTLQlfjyG
aXfl5HEaxptoSuXTJLx+aPymUx8j2bDhecj4EOdfJewEU3nhkfh7R+QoP1/mhX7U
3uhD2Y46qwAiDw3Jk6vsmoGPz1XTmD1YRSSzHwuU3IcQcSHAYJKTSdXkYvEdvfAd
T7QH0+XJZtMQTQiuf8gGd7GR7BHWyeBS4++B7PT/rOybfETDmkhQkiULZpB+hxVi
OYu5yaJTnq/jfQFKaIZRUrE19i6RbU+m13AV4/yLFtt9rQIDAQABo4GiMIGfMAkG
A1UdEwQCMAAwHQYDVR0OBBYEFOdgJ/1IV/IdUys+37OHfxC4ROUHMFEGA1UdIwRK
MEiAFAIT/CxyKe5B2D5Bn6qGLwCfuXSOoRqkGDAWMRQwEgYDVQQDDAt0ZWFtMTcw
LW5ldIIUOMdtxTzOuwaOcP8d8yLjSj/gaSgwEwYDVR0lBAwwCgYIKwYBBQUHAwIw
CwYDVR0PBAQDAgeAMA0GCSqGSIb3DQEBCwUAA4IBAQAC0k4BS9tJtsgL/qkpTbuw
bhn2EcYypnRRemkmJCWwGVEjHrOw1w7pl1r0DgT9KXCx4B6rAXjpRdwn1InRCsYR
qMQQph90gRYA9jwsvB0/NabciSS4Rz9ElVsyencYcsnC4RVxdtMPA2KPCqGfYAvh
MDGSD8ZpBikfAVrzdpulRfjaaTAP5dXTcL2QG12JrQeeoy+qYYNX0CrqFL82vNHF
9EOQWEaPqJD9dLr7KasZqDCCk4YSqsuKerfXSrCUxvWOzG2ilB0t82+Er7JJzsmq
JAYoP80DOhwzV1lWmO08XiOvNBpGKTooZwMjP8Irk7bU8/zTETVd3YY1Zz4fQ6w7
-----END CERTIFICATE-----
