Certificate:
    Data:
        Version: 3 (0x2)
        Serial Number:
            ea:fd:6c:e7:75:14:1c:3d:c0:65:68:00:fb:64:dc:50
        Signature Algorithm: sha256WithRSAEncryption
        Issuer: CN=team158-net
        Validity
            Not Before: Aug 14 14:25:33 2023 GMT
            Not After : Jul 29 14:25:33 2026 GMT
        Subject: CN=team158-server
        Subject Public Key Info:
            Public Key Algorithm: rsaEncryption
                RSA Public-Key: (2048 bit)
                Modulus:
                    00:cf:60:6c:c4:25:84:a4:6b:1f:39:b4:d1:41:38:
                    0d:ef:c4:a6:9d:bd:e1:84:7d:44:d9:85:e7:4a:1a:
                    77:53:09:f3:ac:82:8c:13:4c:30:ae:17:9b:ec:c7:
                    c6:18:2d:eb:3b:7e:66:c2:e5:14:d8:79:d9:3f:ec:
                    f3:74:14:9b:9d:71:9b:7e:38:3f:f8:15:11:83:18:
                    29:88:4f:05:5e:6a:99:4b:e7:46:a5:06:05:7b:8d:
                    6d:ff:65:17:5d:5a:89:09:8b:48:73:b0:33:5f:44:
                    bd:13:6f:5f:5f:15:97:25:d8:2a:fa:87:7e:51:c2:
                    4b:20:d7:df:ac:7a:23:b6:c4:78:da:e9:cb:dc:96:
                    42:1a:99:41:0b:71:d0:f4:da:b3:46:80:d3:24:7c:
                    01:1d:52:f4:24:82:e0:25:65:7b:7e:a1:39:ed:97:
                    6b:4d:a4:e4:82:e2:98:53:76:d2:c3:74:02:5e:32:
                    e9:97:33:d4:5b:8e:8d:29:47:88:86:2e:4b:37:82:
                    ca:dd:e1:a3:b2:d3:19:c1:e7:b5:f8:88:a5:ee:9e:
                    28:5d:31:30:f0:5b:6e:df:ff:37:aa:7f:dd:19:95:
                    9f:3f:d6:31:07:82:8a:4e:de:49:98:c4:9b:0a:b8:
                    01:7f:18:f6:72:ad:cd:62:ab:0c:c5:37:9c:ec:d4:
                    33:d5
                Exponent: 65537 (0x10001)
        X509v3 extensions:
            X509v3 Basic Constraints: 
                CA:FALSE
            X509v3 Subject Key Identifier: 
                E6:BC:22:AA:CA:4B:3D:D6:89:80:D9:CC:1F:97:BF:B3:B1:5E:0F:CE
            X509v3 Authority Key Identifier: 
                keyid:C7:F4:0D:CC:AC:8E:2A:47:CA:7B:1D:2D:0D:EF:F7:46:B4:86:06:CD
                DirName:/CN=team158-net
                serial:6B:13:7C:D3:DC:02:C0:80:75:7F:1B:38:37:00:D9:27:86:94:78:6F

            X509v3 Extended Key Usage: 
                TLS Web Server Authentication
            X509v3 Key Usage: 
                Digital Signature, Key Encipherment
            X509v3 Subject Alternative Name: 
                DNS:team158-server
    Signature Algorithm: sha256WithRSAEncryption
         20:41:45:21:4f:6a:f8:12:83:0d:7e:48:d3:87:49:61:ea:bd:
         e5:05:36:02:eb:ec:0b:1e:75:85:6d:49:09:a0:eb:83:2b:3e:
         5d:c9:aa:65:52:ee:a0:02:23:e3:35:3b:93:5d:c8:f3:22:d9:
         82:b1:07:00:6e:9a:54:be:d1:5e:42:c8:69:af:00:93:5b:ac:
         61:07:de:81:b7:b2:01:83:7e:1b:6b:d8:a4:ed:20:9c:98:2f:
         0a:9b:6f:43:65:c8:c1:a7:89:c2:c4:83:88:7a:60:fc:38:20:
         29:90:26:27:0d:8b:62:03:13:cc:8e:73:13:80:0f:15:42:af:
         2f:70:b2:03:42:91:6f:9c:99:5e:f1:73:9d:4a:aa:1b:e8:f6:
         a2:46:41:14:ba:94:65:a4:1d:44:7f:5d:ce:1d:13:e5:6c:90:
         7b:74:b3:b7:1e:cf:c3:0c:cc:ad:56:69:5a:bc:da:a3:a5:2d:
         34:e9:91:89:00:11:55:d2:a4:e3:8b:3e:f5:ba:5b:15:0d:3d:
         1f:bc:f5:6d:1a:e2:13:0e:0b:15:97:77:19:cb:44:9b:78:e0:
         30:0a:31:7a:05:15:74:39:a3:14:24:46:a4:fc:25:52:3a:2a:
         b0:74:99:39:b2:e5:ec:62:23:bc:12:f6:49:4f:0a:09:e1:f2:
         30:60:b6:54
-----BEGIN CERTIFICATE-----
MIIDeDCCAmCgAwIBAgIRAOr9bOd1FBw9wGVoAPtk3FAwDQYJKoZIhvcNAQELBQAw
FjEUMBIGA1UEAwwLdGVhbTE1OC1uZXQwHhcNMjMwODE0MTQyNTMzWhcNMjYwNzI5
MTQyNTMzWjAZMRcwFQYDVQQDDA50ZWFtMTU4LXNlcnZlcjCCASIwDQYJKoZIhvcN
AQEBBQADggEPADCCAQoCggEBAM9gbMQlhKRrHzm00UE4De/Epp294YR9RNmF50oa
d1MJ86yCjBNMMK4Xm+zHxhgt6zt+ZsLlFNh52T/s83QUm51xm344P/gVEYMYKYhP
BV5qmUvnRqUGBXuNbf9lF11aiQmLSHOwM19EvRNvX18VlyXYKvqHflHCSyDX36x6
I7bEeNrpy9yWQhqZQQtx0PTas0aA0yR8AR1S9CSC4CVle36hOe2Xa02k5ILimFN2
0sN0Al4y6Zcz1FuOjSlHiIYuSzeCyt3ho7LTGcHntfiIpe6eKF0xMPBbbt//N6p/
3RmVnz/WMQeCik7eSZjEmwq4AX8Y9nKtzWKrDMU3nOzUM9UCAwEAAaOBvTCBujAJ
BgNVHRMEAjAAMB0GA1UdDgQWBBTmvCKqyks91omA2cwfl7+zsV4PzjBRBgNVHSME
SjBIgBTH9A3MrI4qR8p7HS0N7/dGtIYGzaEapBgwFjEUMBIGA1UEAwwLdGVhbTE1
OC1uZXSCFGsTfNPcAsCAdX8bODcA2SeGlHhvMBMGA1UdJQQMMAoGCCsGAQUFBwMB
MAsGA1UdDwQEAwIFoDAZBgNVHREEEjAQgg50ZWFtMTU4LXNlcnZlcjANBgkqhkiG
9w0BAQsFAAOCAQEAIEFFIU9q+BKDDX5I04dJYeq95QU2AuvsCx51hW1JCaDrgys+
XcmqZVLuoAIj4zU7k13I8yLZgrEHAG6aVL7RXkLIaa8Ak1usYQfegbeyAYN+G2vY
pO0gnJgvCptvQ2XIwaeJwsSDiHpg/DggKZAmJw2LYgMTzI5zE4APFUKvL3CyA0KR
b5yZXvFznUqqG+j2okZBFLqUZaQdRH9dzh0T5WyQe3Sztx7PwwzMrVZpWrzao6Ut
NOmRiQARVdKk44s+9bpbFQ09H7z1bRriEw4LFZd3GctEm3jgMAoxegUVdDmjFCRG
pPwlUjoqsHSZObLl7GIjvBL2SU8KCeHyMGC2VA==
-----END CERTIFICATE-----
