Certificate:
    Data:
        Version: 3 (0x2)
        Serial Number:
            b2:c4:15:83:d6:dc:b5:3e:1e:11:6b:cc:8c:d1:3f:4f
        Signature Algorithm: sha256WithRSAEncryption
        Issuer: CN=team219-net
        Validity
            Not Before: Aug 14 14:26:42 2023 GMT
            Not After : Jul 29 14:26:42 2026 GMT
        Subject: CN=team219-server
        Subject Public Key Info:
            Public Key Algorithm: rsaEncryption
                RSA Public-Key: (2048 bit)
                Modulus:
                    00:a8:6b:c8:31:27:4f:e8:0b:2d:e8:b9:60:ed:b4:
                    15:6e:16:35:aa:9d:75:08:1e:9c:93:e5:e0:e8:d4:
                    06:af:f1:4c:1d:3e:44:e3:c8:c8:18:89:4c:ac:62:
                    91:c2:3c:a7:ac:f2:3d:9e:86:93:4d:b3:73:f3:d5:
                    2a:e1:87:59:10:44:17:aa:aa:8c:dc:e7:b6:ac:a5:
                    1b:d7:6e:98:e3:c8:b9:9f:3f:df:d3:ea:59:90:f6:
                    70:a2:58:89:fe:bd:54:16:7f:f7:02:0f:dd:51:90:
                    7c:f6:db:85:e7:9d:49:bf:79:95:7a:7c:4a:e7:f8:
                    a1:57:cc:47:37:e2:87:20:b6:2a:ad:8c:c0:75:52:
                    75:e5:e0:52:d6:48:30:89:f5:3e:fa:d1:4b:f5:67:
                    cf:25:21:32:da:a5:28:0e:12:16:1d:7d:f4:5d:fd:
                    79:64:e3:f5:8e:96:81:8d:f6:66:e1:f4:d9:02:17:
                    db:30:d4:53:87:4f:da:5d:64:fc:c3:ff:72:e0:1c:
                    b9:37:a5:0e:ac:8a:70:3e:a5:83:b3:f5:04:6f:d7:
                    0e:2e:6a:d2:e2:07:e8:01:89:2e:87:a9:d5:bb:ae:
                    cb:a0:a7:58:cc:26:76:5f:c0:e1:db:6b:b8:97:e7:
                    ef:42:16:49:b1:ae:2c:0b:3d:28:70:6c:ab:8e:7a:
                    5e:71
                Exponent: 65537 (0x10001)
        X509v3 extensions:
            X509v3 Basic Constraints: 
                CA:FALSE
            X509v3 Subject Key Identifier: 
                A0:3B:C7:D3:4B:D5:29:9A:77:5F:0B:92:96:8F:88:B5:6F:AE:B9:8B
            X509v3 Authority Key Identifier: 
                keyid:92:20:7F:5C:99:C8:2C:5D:FD:42:75:E4:FE:10:EF:79:B6:C2:07:E0
                DirName:/CN=team219-net
                serial:59:71:03:1E:1E:C3:47:A4:9C:77:25:3A:83:A2:CF:E3:CC:F7:9C:E3

            X509v3 Extended Key Usage: 
                TLS Web Server Authentication
            X509v3 Key Usage: 
                Digital Signature, Key Encipherment
            X509v3 Subject Alternative Name: 
                DNS:team219-server
    Signature Algorithm: sha256WithRSAEncryption
         04:7f:0c:23:06:1a:0a:44:ae:f7:fd:2d:0e:91:55:27:d9:ba:
         7f:c0:0e:47:ee:cf:b5:90:c0:61:ae:59:40:9c:bb:97:b7:7b:
         57:c5:ff:f6:5a:75:eb:36:04:58:3f:97:d3:19:d8:a3:f4:19:
         5f:bb:2c:24:ce:ee:0b:32:8f:cb:04:ac:e5:9a:f4:13:c2:40:
         60:13:49:f1:e2:9b:72:2d:24:82:c4:ee:9f:b3:68:34:27:ee:
         96:39:37:4b:f0:30:a6:23:ef:b1:76:93:f4:04:11:6d:9d:11:
         24:82:8d:25:9e:d4:1c:9f:69:9c:74:65:b6:a0:68:01:cb:32:
         72:4e:cd:03:0a:74:be:d1:d0:fb:6b:1e:dc:7d:2a:99:d3:b5:
         7d:f5:f7:d7:5f:c2:5a:be:7f:1b:02:90:93:4b:ec:26:c1:3e:
         5a:23:79:51:43:4f:36:1c:69:f2:4f:30:97:d3:31:25:dd:0e:
         ea:16:2c:57:c1:fe:8a:52:13:44:6f:cf:4f:e8:4e:0a:15:ed:
         7f:72:1d:b0:1c:23:06:e9:e3:d3:b1:17:bc:ec:27:d0:c3:fe:
         89:75:a7:34:1c:2b:8e:3b:d0:0d:e6:cc:fa:6e:45:01:6d:33:
         4b:f0:90:cb:33:5b:e2:63:06:ab:ea:99:1b:dc:b5:34:65:4b:
         1d:c9:69:cd
-----BEGIN CERTIFICATE-----
MIIDeDCCAmCgAwIBAgIRALLEFYPW3LU+HhFrzIzRP08wDQYJKoZIhvcNAQELBQAw
FjEUMBIGA1UEAwwLdGVhbTIxOS1uZXQwHhcNMjMwODE0MTQyNjQyWhcNMjYwNzI5
MTQyNjQyWjAZMRcwFQYDVQQDDA50ZWFtMjE5LXNlcnZlcjCCASIwDQYJKoZIhvcN
AQEBBQADggEPADCCAQoCggEBAKhryDEnT+gLLei5YO20FW4WNaqddQgenJPl4OjU
Bq/xTB0+ROPIyBiJTKxikcI8p6zyPZ6Gk02zc/PVKuGHWRBEF6qqjNzntqylG9du
mOPIuZ8/39PqWZD2cKJYif69VBZ/9wIP3VGQfPbbheedSb95lXp8Suf4oVfMRzfi
hyC2Kq2MwHVSdeXgUtZIMIn1PvrRS/VnzyUhMtqlKA4SFh199F39eWTj9Y6WgY32
ZuH02QIX2zDUU4dP2l1k/MP/cuAcuTelDqyKcD6lg7P1BG/XDi5q0uIH6AGJLoep
1buuy6CnWMwmdl/A4dtruJfn70IWSbGuLAs9KHBsq456XnECAwEAAaOBvTCBujAJ
BgNVHRMEAjAAMB0GA1UdDgQWBBSgO8fTS9UpmndfC5KWj4i1b665izBRBgNVHSME
SjBIgBSSIH9cmcgsXf1CdeT+EO95tsIH4KEapBgwFjEUMBIGA1UEAwwLdGVhbTIx
OS1uZXSCFFlxAx4ew0eknHclOoOiz+PM95zjMBMGA1UdJQQMMAoGCCsGAQUFBwMB
MAsGA1UdDwQEAwIFoDAZBgNVHREEEjAQgg50ZWFtMjE5LXNlcnZlcjANBgkqhkiG
9w0BAQsFAAOCAQEABH8MIwYaCkSu9/0tDpFVJ9m6f8AOR+7PtZDAYa5ZQJy7l7d7
V8X/9lp16zYEWD+X0xnYo/QZX7ssJM7uCzKPywSs5Zr0E8JAYBNJ8eKbci0kgsTu
n7NoNCfuljk3S/AwpiPvsXaT9AQRbZ0RJIKNJZ7UHJ9pnHRltqBoAcsyck7NAwp0
vtHQ+2se3H0qmdO1ffX311/CWr5/GwKQk0vsJsE+WiN5UUNPNhxp8k8wl9MxJd0O
6hYsV8H+ilITRG/PT+hOChXtf3IdsBwjBunj07EXvOwn0MP+iXWnNBwrjjvQDebM
+m5FAW0zS/CQyzNb4mMGq+qZG9y1NGVLHclpzQ==
-----END CERTIFICATE-----
