Certificate:
    Data:
        Version: 3 (0x2)
        Serial Number:
            59:53:b9:42:76:a0:8b:a1:bb:3c:dc:c5:5f:17:e5:63
        Signature Algorithm: sha256WithRSAEncryption
        Issuer: CN=team175-net
        Validity
            Not Before: Aug 14 14:25:53 2023 GMT
            Not After : Jul 29 14:25:53 2026 GMT
        Subject: CN=team175-server
        Subject Public Key Info:
            Public Key Algorithm: rsaEncryption
                RSA Public-Key: (2048 bit)
                Modulus:
                    00:a5:7c:27:61:37:eb:40:4e:86:82:89:1d:13:fa:
                    67:37:6d:ff:31:8e:98:3e:bf:d0:d7:0c:4d:96:7d:
                    e1:d2:f7:67:14:c8:1d:54:76:fa:6b:5f:ef:d8:ae:
                    ed:3d:35:f2:91:1b:c9:13:11:01:12:28:19:b7:50:
                    18:dc:95:fb:33:52:40:1d:32:e2:ef:b8:8c:1e:81:
                    c1:83:4c:dc:44:48:7c:0c:0e:40:33:36:12:ca:c0:
                    a8:f1:19:a7:dc:89:e8:68:8e:fd:7e:bc:52:ed:8c:
                    e4:7a:27:84:59:32:59:36:65:52:89:7d:5f:da:c4:
                    5b:80:5b:8f:8a:7e:bd:e2:22:ef:b0:4c:f7:ef:ae:
                    3c:d4:ba:83:d4:01:fa:75:7d:a1:73:14:1d:77:79:
                    18:b0:3c:81:11:33:dc:b9:64:a4:2c:ca:3e:12:c9:
                    1c:9f:4c:85:e3:31:40:f7:49:9e:b0:27:cb:cf:b5:
                    ae:88:6b:48:87:0d:9f:95:c0:d1:86:e9:a7:af:e3:
                    f9:b2:32:1a:c1:de:b1:a1:2f:66:01:28:ac:e6:61:
                    9b:7a:28:b4:38:a8:f0:16:20:52:19:8b:8a:8f:59:
                    b5:f9:3d:e8:81:b9:87:8a:5b:44:33:af:4f:fb:72:
                    0d:a3:e6:10:5a:51:58:c7:33:11:29:e1:ef:7e:92:
                    9d:55
                Exponent: 65537 (0x10001)
        X509v3 extensions:
            X509v3 Basic Constraints: 
                CA:FALSE
            X509v3 Subject Key Identifier: 
                BC:F9:1A:93:5D:0C:00:D2:44:DE:9F:C3:A1:A1:A7:60:70:5C:DE:9C
            X509v3 Authority Key Identifier: 
                keyid:10:94:D0:8E:7B:CE:30:60:C2:7D:5D:EA:65:22:CB:74:D6:F3:A6:A5
                DirName:/CN=team175-net
                serial:70:F3:70:72:F7:ED:48:7A:2F:50:B7:D1:18:23:13:3C:1F:A7:44:57

            X509v3 Extended Key Usage: 
                TLS Web Server Authentication
            X509v3 Key Usage: 
                Digital Signature, Key Encipherment
            X509v3 Subject Alternative Name: 
                DNS:team175-server
    Signature Algorithm: sha256WithRSAEncryption
         d1:36:6a:67:f6:2b:e1:1b:5c:04:ab:89:f8:36:91:02:2d:60:
         39:0c:ac:01:e5:3f:7f:f8:ab:ad:27:ba:04:30:87:b5:6d:38:
         3d:4e:1e:8c:94:9f:d6:f9:4b:29:ce:15:2f:10:e9:2e:a1:89:
         be:e0:ff:23:b9:de:96:33:df:33:ca:a1:2d:b5:cf:2e:9b:8e:
         ae:05:c4:84:28:f4:f8:74:4a:e9:1c:68:e7:3d:05:3a:01:22:
         53:56:b8:2b:62:2b:98:b8:6c:42:0f:d9:6d:85:4d:fa:ba:46:
         7e:40:d9:be:8d:e3:7c:b5:7d:f8:e6:3f:1b:ba:21:08:5d:8a:
         8c:53:13:78:5c:07:d6:19:c5:47:12:04:8b:28:16:a8:17:d2:
         2a:d6:4d:ac:36:0d:87:5f:27:5a:2d:cd:5c:88:4c:67:c1:9d:
         6d:86:80:9a:c8:62:49:5d:28:10:ee:67:0b:4a:a0:6e:c3:f6:
         81:76:f9:79:79:a6:8f:3d:78:b0:37:0a:38:cd:ac:2e:99:c3:
         8c:64:a2:11:a7:d7:aa:b1:9d:9f:1c:66:ba:a1:38:5a:83:f9:
         8b:e9:f6:43:31:f0:ac:f4:ff:a8:fe:e4:31:85:c6:ad:52:63:
         8f:c3:6e:83:c4:10:fd:08:44:3c:42:f3:1d:ab:27:50:08:a8:
         ff:92:2f:55
-----BEGIN CERTIFICATE-----
MIIDdzCCAl+gAwIBAgIQWVO5Qnagi6G7PNzFXxflYzANBgkqhkiG9w0BAQsFADAW
MRQwEgYDVQQDDAt0ZWFtMTc1LW5ldDAeFw0yMzA4MTQxNDI1NTNaFw0yNjA3Mjkx
NDI1NTNaMBkxFzAVBgNVBAMMDnRlYW0xNzUtc2VydmVyMIIBIjANBgkqhkiG9w0B
AQEFAAOCAQ8AMIIBCgKCAQEApXwnYTfrQE6GgokdE/pnN23/MY6YPr/Q1wxNln3h
0vdnFMgdVHb6a1/v2K7tPTXykRvJExEBEigZt1AY3JX7M1JAHTLi77iMHoHBg0zc
REh8DA5AMzYSysCo8Rmn3InoaI79frxS7YzkeieEWTJZNmVSiX1f2sRbgFuPin69
4iLvsEz376481LqD1AH6dX2hcxQdd3kYsDyBETPcuWSkLMo+Eskcn0yF4zFA90me
sCfLz7WuiGtIhw2flcDRhumnr+P5sjIawd6xoS9mASis5mGbeii0OKjwFiBSGYuK
j1m1+T3ogbmHiltEM69P+3INo+YQWlFYxzMRKeHvfpKdVQIDAQABo4G9MIG6MAkG
A1UdEwQCMAAwHQYDVR0OBBYEFLz5GpNdDADSRN6fw6Ghp2BwXN6cMFEGA1UdIwRK
MEiAFBCU0I57zjBgwn1d6mUiy3TW86aloRqkGDAWMRQwEgYDVQQDDAt0ZWFtMTc1
LW5ldIIUcPNwcvftSHovULfRGCMTPB+nRFcwEwYDVR0lBAwwCgYIKwYBBQUHAwEw
CwYDVR0PBAQDAgWgMBkGA1UdEQQSMBCCDnRlYW0xNzUtc2VydmVyMA0GCSqGSIb3
DQEBCwUAA4IBAQDRNmpn9ivhG1wEq4n4NpECLWA5DKwB5T9/+KutJ7oEMIe1bTg9
Th6MlJ/W+UspzhUvEOkuoYm+4P8jud6WM98zyqEttc8um46uBcSEKPT4dErpHGjn
PQU6ASJTVrgrYiuYuGxCD9lthU36ukZ+QNm+jeN8tX345j8buiEIXYqMUxN4XAfW
GcVHEgSLKBaoF9Iq1k2sNg2HXydaLc1ciExnwZ1thoCayGJJXSgQ7mcLSqBuw/aB
dvl5eaaPPXiwNwo4zawumcOMZKIRp9eqsZ2fHGa6oThag/mL6fZDMfCs9P+o/uQx
hcatUmOPw26DxBD9CEQ8QvMdqydQCKj/ki9V
-----END CERTIFICATE-----
