Certificate:
    Data:
        Version: 3 (0x2)
        Serial Number:
            63:cd:b7:6c:b9:41:b7:2e:b0:17:01:2d:92:c0:0a:50
        Signature Algorithm: sha256WithRSAEncryption
        Issuer: CN=team35-net
        Validity
            Not Before: Aug 14 14:22:47 2023 GMT
            Not After : Jul 29 14:22:47 2026 GMT
        Subject: CN=team35-client
        Subject Public Key Info:
            Public Key Algorithm: rsaEncryption
                RSA Public-Key: (2048 bit)
                Modulus:
                    00:c5:03:83:97:43:59:ef:c7:68:58:f3:60:9c:6c:
                    e5:ad:9e:c2:b1:a7:16:16:a9:ee:87:f6:09:48:27:
                    be:98:17:9b:d8:e7:ae:c5:46:f1:8c:36:a4:b1:0e:
                    b9:0b:e9:da:85:d7:22:ae:e6:ab:2f:eb:4a:7b:19:
                    39:61:73:e4:f1:c4:f0:ee:7e:8c:04:89:49:98:1d:
                    7c:5e:b8:1b:9b:49:01:5c:bb:fb:b9:55:97:e9:b6:
                    51:e0:34:58:2d:51:04:3b:24:6b:d0:56:27:db:a5:
                    f9:05:3e:3b:3a:f2:e6:a6:57:7a:af:57:14:bc:4a:
                    03:84:d6:af:57:54:07:17:42:72:de:5f:d3:65:1c:
                    4e:21:7b:02:49:88:14:0a:a5:63:f2:53:e0:3b:dd:
                    a1:c1:9b:c4:ae:d0:99:c0:97:e8:f7:2f:3a:22:23:
                    d6:c8:3e:40:f0:ef:1a:44:73:62:93:be:a4:d1:88:
                    1f:7d:a0:e6:1c:7b:37:08:82:cd:34:29:0b:30:98:
                    a3:87:05:f8:9e:c8:b6:82:82:be:f0:12:03:28:68:
                    b0:1b:97:f9:3e:7b:f7:dd:ce:c4:e4:27:64:b9:7f:
                    05:1c:a5:b4:63:95:1b:4a:9b:67:82:0d:07:37:34:
                    ab:81:2c:ad:39:32:36:8e:75:48:d4:41:80:57:c6:
                    33:89
                Exponent: 65537 (0x10001)
        X509v3 extensions:
            X509v3 Basic Constraints: 
                CA:FALSE
            X509v3 Subject Key Identifier: 
                71:35:41:C4:89:57:6C:D3:F2:76:9D:DB:DF:E9:CD:AC:6F:CA:2F:CB
            X509v3 Authority Key Identifier: 
                keyid:75:E7:A0:1B:71:77:D4:A7:B5:45:5E:9D:49:F9:53:C9:5E:96:A3:B2
                DirName:/CN=team35-net
                serial:22:E9:7D:9A:E4:1C:AD:27:A8:41:80:4B:2A:1B:08:59:6B:53:24:68

            X509v3 Extended Key Usage: 
                TLS Web Client Authentication
            X509v3 Key Usage: 
                Digital Signature
    Signature Algorithm: sha256WithRSAEncryption
         5d:2f:31:db:63:7b:8f:4b:68:45:a8:ab:ca:21:5b:fe:4b:da:
         a2:f9:ee:fc:d0:78:54:96:5d:0a:40:4d:67:9c:be:c0:c0:b0:
         9e:d1:b3:9b:f8:ad:8a:1f:6a:df:54:8e:c2:a6:8e:39:04:18:
         59:49:c3:07:9c:94:33:04:5f:8b:51:f2:95:a9:87:ac:c8:71:
         ca:f1:f1:34:70:7b:53:1a:88:81:a9:18:a8:09:c7:25:c9:64:
         ab:b7:d7:05:6b:70:4f:5b:78:8a:21:6e:8a:8d:2e:e5:9c:62:
         56:b7:34:8c:71:69:fd:cf:72:42:77:b1:88:9e:a7:dd:c4:0b:
         9b:36:26:04:fa:80:47:e4:54:7f:ce:72:98:f1:98:2c:85:2c:
         d1:62:9f:57:17:8d:cb:ce:11:59:ed:a9:99:64:73:e6:e3:d6:
         d4:19:13:99:3c:5f:78:69:40:80:35:b9:cc:70:e0:e8:47:3d:
         bd:34:bb:65:7d:bb:02:b8:9b:1e:ad:49:c9:b6:ba:c3:9b:4e:
         32:31:0e:a6:45:07:37:38:4b:7a:58:99:e0:ea:ba:50:1d:05:
         fb:e4:41:c8:c6:44:0e:20:01:f7:80:a8:6c:b3:a8:07:9e:ca:
         9d:b1:3f:4c:b7:90:91:42:ca:85:39:5e:99:2d:c7:e6:5f:84:
         cf:4c:5f:b6
-----BEGIN CERTIFICATE-----
MIIDWTCCAkGgAwIBAgIQY823bLlBty6wFwEtksAKUDANBgkqhkiG9w0BAQsFADAV
MRMwEQYDVQQDDAp0ZWFtMzUtbmV0MB4XDTIzMDgxNDE0MjI0N1oXDTI2MDcyOTE0
MjI0N1owGDEWMBQGA1UEAwwNdGVhbTM1LWNsaWVudDCCASIwDQYJKoZIhvcNAQEB
BQADggEPADCCAQoCggEBAMUDg5dDWe/HaFjzYJxs5a2ewrGnFhap7of2CUgnvpgX
m9jnrsVG8Yw2pLEOuQvp2oXXIq7mqy/rSnsZOWFz5PHE8O5+jASJSZgdfF64G5tJ
AVy7+7lVl+m2UeA0WC1RBDska9BWJ9ul+QU+Ozry5qZXeq9XFLxKA4TWr1dUBxdC
ct5f02UcTiF7AkmIFAqlY/JT4DvdocGbxK7QmcCX6PcvOiIj1sg+QPDvGkRzYpO+
pNGIH32g5hx7NwiCzTQpCzCYo4cF+J7ItoKCvvASAyhosBuX+T57993OxOQnZLl/
BRyltGOVG0qbZ4INBzc0q4EsrTkyNo51SNRBgFfGM4kCAwEAAaOBoTCBnjAJBgNV
HRMEAjAAMB0GA1UdDgQWBBRxNUHEiVds0/J2ndvf6c2sb8ovyzBQBgNVHSMESTBH
gBR156AbcXfUp7VFXp1J+VPJXpajsqEZpBcwFTETMBEGA1UEAwwKdGVhbTM1LW5l
dIIUIul9muQcrSeoQYBLKhsIWWtTJGgwEwYDVR0lBAwwCgYIKwYBBQUHAwIwCwYD
VR0PBAQDAgeAMA0GCSqGSIb3DQEBCwUAA4IBAQBdLzHbY3uPS2hFqKvKIVv+S9qi
+e780HhUll0KQE1nnL7AwLCe0bOb+K2KH2rfVI7Cpo45BBhZScMHnJQzBF+LUfKV
qYesyHHK8fE0cHtTGoiBqRioCcclyWSrt9cFa3BPW3iKIW6KjS7lnGJWtzSMcWn9
z3JCd7GInqfdxAubNiYE+oBH5FR/znKY8ZgshSzRYp9XF43LzhFZ7amZZHPm49bU
GROZPF94aUCANbnMcODoRz29NLtlfbsCuJserUnJtrrDm04yMQ6mRQc3OEt6WJng
6rpQHQX75EHIxkQOIAH3gKhss6gHnsqdsT9Mt5CRQsqFOV6ZLcfmX4TPTF+2
-----END CERTIFICATE-----
