Certificate:
    Data:
        Version: 3 (0x2)
        Serial Number:
            67:18:25:65:5d:97:44:8c:38:46:47:f7:6d:0b:f7:49
        Signature Algorithm: sha256WithRSAEncryption
        Issuer: CN=team35-net
        Validity
            Not Before: Aug 14 14:22:48 2023 GMT
            Not After : Jul 29 14:22:48 2026 GMT
        Subject: CN=team35-server
        Subject Public Key Info:
            Public Key Algorithm: rsaEncryption
                RSA Public-Key: (2048 bit)
                Modulus:
                    00:e2:3e:98:1d:97:f9:75:f0:11:3f:51:59:58:55:
                    54:bb:92:3b:02:65:19:78:f2:5c:c6:5e:b4:96:d0:
                    1b:e4:2e:70:d3:2c:19:0d:4f:cc:40:ee:4f:33:5f:
                    20:34:c6:37:36:ec:46:e6:4e:8b:b8:ec:6c:bb:e4:
                    61:44:59:67:35:2e:d1:b3:7e:61:6d:ea:57:c6:a0:
                    c2:70:de:5a:a5:11:96:3b:63:2d:42:a4:4a:f5:92:
                    f4:03:9a:2b:f4:6c:53:cb:d7:d5:e6:96:5e:a8:0a:
                    68:a2:23:95:83:62:53:c2:d4:aa:db:11:59:f1:a5:
                    72:dc:34:8e:e9:08:a8:a1:d2:18:c2:50:d5:53:77:
                    ec:99:8c:03:2f:ed:28:b2:f3:c4:bf:f4:98:c4:7a:
                    03:66:6f:5b:a9:57:0e:03:70:59:d0:bb:38:db:65:
                    45:0e:b4:8f:42:ac:30:63:32:be:3e:e5:3f:7c:ae:
                    c6:3c:fd:b1:65:ca:6d:10:22:9c:db:fe:08:eb:45:
                    1b:bc:0c:da:d0:3e:39:fa:a1:60:bd:55:e0:da:36:
                    fb:9f:56:c2:3b:13:05:79:ed:f5:1c:9e:93:5c:c7:
                    1d:e9:40:04:6a:05:13:18:f3:29:02:3f:75:25:cd:
                    2d:27:83:be:f1:11:a7:7f:bd:35:e7:4b:71:08:29:
                    51:e5
                Exponent: 65537 (0x10001)
        X509v3 extensions:
            X509v3 Basic Constraints: 
                CA:FALSE
            X509v3 Subject Key Identifier: 
                68:50:6F:10:09:2C:3F:06:10:DD:12:6C:F9:E6:81:75:58:00:93:19
            X509v3 Authority Key Identifier: 
                keyid:75:E7:A0:1B:71:77:D4:A7:B5:45:5E:9D:49:F9:53:C9:5E:96:A3:B2
                DirName:/CN=team35-net
                serial:22:E9:7D:9A:E4:1C:AD:27:A8:41:80:4B:2A:1B:08:59:6B:53:24:68

            X509v3 Extended Key Usage: 
                TLS Web Server Authentication
            X509v3 Key Usage: 
                Digital Signature, Key Encipherment
            X509v3 Subject Alternative Name: 
                DNS:team35-server
    Signature Algorithm: sha256WithRSAEncryption
         5b:83:2e:01:fb:f9:2b:9c:66:79:38:07:da:05:88:1d:a0:6f:
         80:ac:f3:52:0c:75:17:2b:a7:00:90:37:77:dd:c5:f8:56:29:
         d7:5e:a7:bd:82:b4:ce:86:4e:96:45:86:32:37:ce:18:9a:68:
         84:cf:bb:64:1e:38:43:68:c9:d7:9a:3b:26:93:89:42:54:09:
         c0:fe:bf:87:a6:82:f3:15:3f:d7:c5:cf:c1:c5:14:50:0e:1c:
         4c:ef:f5:eb:f1:ec:cc:84:d5:4f:29:90:16:c1:2f:a1:a6:d9:
         d5:b6:72:01:36:3c:4b:d3:1c:e6:50:12:02:d6:fd:ef:ca:1f:
         89:0e:28:88:6c:9d:be:94:e3:c6:52:1c:2a:65:6f:2d:1c:9d:
         81:4f:c6:fe:1a:d5:f9:38:08:ef:2d:5f:fd:68:82:5e:30:5d:
         c7:6f:bd:c9:2f:ef:0d:39:2e:17:0f:be:8a:b8:54:56:0d:26:
         ea:d0:a6:05:0f:0d:0d:18:c7:c5:df:7b:f0:76:82:65:73:07:
         17:50:e8:4f:7d:fe:1e:4b:87:85:13:18:c5:48:4f:6c:d4:20:
         24:8e:22:4b:2c:de:3f:ef:47:cb:8e:3f:1f:bd:c1:57:ea:b8:
         a8:e5:b1:2c:90:c3:04:84:60:38:d9:4a:cc:90:ae:b6:24:38:
         f0:7e:e4:79
-----BEGIN CERTIFICATE-----
MIIDczCCAlugAwIBAgIQZxglZV2XRIw4Rkf3bQv3STANBgkqhkiG9w0BAQsFADAV
MRMwEQYDVQQDDAp0ZWFtMzUtbmV0MB4XDTIzMDgxNDE0MjI0OFoXDTI2MDcyOTE0
MjI0OFowGDEWMBQGA1UEAwwNdGVhbTM1LXNlcnZlcjCCASIwDQYJKoZIhvcNAQEB
BQADggEPADCCAQoCggEBAOI+mB2X+XXwET9RWVhVVLuSOwJlGXjyXMZetJbQG+Qu
cNMsGQ1PzEDuTzNfIDTGNzbsRuZOi7jsbLvkYURZZzUu0bN+YW3qV8agwnDeWqUR
ljtjLUKkSvWS9AOaK/RsU8vX1eaWXqgKaKIjlYNiU8LUqtsRWfGlctw0jukIqKHS
GMJQ1VN37JmMAy/tKLLzxL/0mMR6A2ZvW6lXDgNwWdC7ONtlRQ60j0KsMGMyvj7l
P3yuxjz9sWXKbRAinNv+COtFG7wM2tA+OfqhYL1V4No2+59WwjsTBXnt9Ryek1zH
HelABGoFExjzKQI/dSXNLSeDvvERp3+9NedLcQgpUeUCAwEAAaOBuzCBuDAJBgNV
HRMEAjAAMB0GA1UdDgQWBBRoUG8QCSw/BhDdEmz55oF1WACTGTBQBgNVHSMESTBH
gBR156AbcXfUp7VFXp1J+VPJXpajsqEZpBcwFTETMBEGA1UEAwwKdGVhbTM1LW5l
dIIUIul9muQcrSeoQYBLKhsIWWtTJGgwEwYDVR0lBAwwCgYIKwYBBQUHAwEwCwYD
VR0PBAQDAgWgMBgGA1UdEQQRMA+CDXRlYW0zNS1zZXJ2ZXIwDQYJKoZIhvcNAQEL
BQADggEBAFuDLgH7+SucZnk4B9oFiB2gb4Cs81IMdRcrpwCQN3fdxfhWKddep72C
tM6GTpZFhjI3zhiaaITPu2QeOENoydeaOyaTiUJUCcD+v4emgvMVP9fFz8HFFFAO
HEzv9evx7MyE1U8pkBbBL6Gm2dW2cgE2PEvTHOZQEgLW/e/KH4kOKIhsnb6U48ZS
HCplby0cnYFPxv4a1fk4CO8tX/1ogl4wXcdvvckv7w05LhcPvoq4VFYNJurQpgUP
DQ0Yx8Xfe/B2gmVzBxdQ6E99/h5Lh4UTGMVIT2zUICSOIkss3j/vR8uOPx+9wVfq
uKjlsSyQwwSEYDjZSsyQrrYkOPB+5Hk=
-----END CERTIFICATE-----
