Certificate:
    Data:
        Version: 3 (0x2)
        Serial Number:
            eb:e4:4d:76:b6:b0:47:92:36:5c:88:23:8e:4c:5f:87
        Signature Algorithm: sha256WithRSAEncryption
        Issuer: CN=team272-net
        Validity
            Not Before: Aug 14 14:27:50 2023 GMT
            Not After : Jul 29 14:27:50 2026 GMT
        Subject: CN=team272-client
        Subject Public Key Info:
            Public Key Algorithm: rsaEncryption
                RSA Public-Key: (2048 bit)
                Modulus:
                    00:dd:c2:be:1d:85:54:4d:cb:a5:86:bc:8c:bf:43:
                    29:a7:8d:00:12:96:d4:66:93:b0:e7:f2:c8:91:b5:
                    3e:cf:b5:a3:4b:92:39:34:8d:90:82:50:ae:0a:73:
                    c6:f5:b1:67:8d:c3:e1:a1:c0:33:76:6f:c2:d2:b3:
                    29:0f:0a:1c:10:cb:46:28:ea:79:ce:ac:ad:97:96:
                    e7:d4:dd:a3:08:c3:74:b1:0a:99:e7:5a:17:7f:2e:
                    ca:a9:83:3f:35:62:e1:80:62:b0:a6:88:70:3d:0c:
                    9b:5d:04:73:1b:1b:ab:74:e2:5b:e5:8b:1c:63:65:
                    85:e1:f1:75:a8:54:f6:c4:af:32:fa:e9:36:cb:12:
                    94:0e:85:a3:3c:46:31:88:45:61:1d:86:47:d1:ca:
                    81:f8:6c:9a:b2:10:20:18:15:11:8e:70:49:54:f8:
                    c8:97:54:4d:92:69:e9:84:cf:ef:06:5e:17:23:9a:
                    52:e4:82:24:fe:4a:f3:1b:2e:ea:2a:05:8a:07:09:
                    c8:4a:ac:03:6d:97:12:33:36:3c:98:b2:77:74:48:
                    27:14:85:b3:0c:18:dd:fa:d6:17:b8:a8:a0:a0:01:
                    41:3d:e5:fb:57:44:40:a4:c7:6a:0a:11:ae:ae:f9:
                    9b:75:14:d7:32:24:91:00:c9:c3:63:84:ad:20:cd:
                    ae:91
                Exponent: 65537 (0x10001)
        X509v3 extensions:
            X509v3 Basic Constraints: 
                CA:FALSE
            X509v3 Subject Key Identifier: 
                CE:9D:9D:26:F5:7C:44:31:FB:BB:EA:75:FD:C4:F6:A1:63:45:00:92
            X509v3 Authority Key Identifier: 
                keyid:E3:C4:2E:AC:BC:CB:E0:B6:D6:3A:77:8D:0C:FD:DC:A2:B2:F2:2D:C5
                DirName:/CN=team272-net
                serial:52:F8:3E:BE:1C:2E:74:A0:DE:D6:2F:9F:EB:BB:5C:65:02:FE:45:4F

            X509v3 Extended Key Usage: 
                TLS Web Client Authentication
            X509v3 Key Usage: 
                Digital Signature
    Signature Algorithm: sha256WithRSAEncryption
         2e:e8:ce:ae:07:bc:48:aa:80:da:07:ad:55:aa:f1:3c:ce:6c:
         02:71:79:b5:8f:1b:13:4e:09:55:03:9c:81:cc:66:49:11:b7:
         34:57:5f:51:62:34:70:7a:f0:ad:db:3f:d3:11:84:ac:af:9b:
         2c:7f:a7:50:5f:89:15:5d:ae:17:8f:11:a1:ad:53:00:dc:bd:
         c4:32:3f:d6:75:2f:fc:8a:1d:b9:67:88:65:fc:6c:34:d1:6c:
         bf:c2:9b:65:18:64:01:17:8d:93:0d:2c:c1:a0:76:a1:fd:7d:
         5a:a8:42:2b:03:68:c7:c0:c2:b2:e2:ee:db:d0:fb:51:ab:02:
         8e:42:6d:0c:97:cf:f0:7a:5c:a5:54:f4:46:86:a7:5d:57:83:
         8f:b7:35:e0:3e:a7:38:14:5e:d3:d6:74:63:da:20:c5:9c:2f:
         93:43:9c:a8:63:ce:b0:23:47:c3:2c:5c:0b:0b:3a:36:36:4f:
         0d:85:1d:12:5f:6a:da:f4:3c:46:61:3a:56:e9:54:58:4b:d6:
         35:e5:76:1b:b8:4b:10:18:f3:88:00:6e:c2:20:77:86:58:0a:
         ab:a5:ca:44:ef:d7:62:30:de:81:70:d9:f9:0b:3a:25:48:69:
         a1:d0:24:d4:7f:20:1b:b4:03:ca:b4:d2:22:93:12:44:a4:ea:
         a5:b8:c7:d4
-----BEGIN CERTIFICATE-----
MIIDXTCCAkWgAwIBAgIRAOvkTXa2sEeSNlyII45MX4cwDQYJKoZIhvcNAQELBQAw
FjEUMBIGA1UEAwwLdGVhbTI3Mi1uZXQwHhcNMjMwODE0MTQyNzUwWhcNMjYwNzI5
MTQyNzUwWjAZMRcwFQYDVQQDDA50ZWFtMjcyLWNsaWVudDCCASIwDQYJKoZIhvcN
AQEBBQADggEPADCCAQoCggEBAN3Cvh2FVE3LpYa8jL9DKaeNABKW1GaTsOfyyJG1
Ps+1o0uSOTSNkIJQrgpzxvWxZ43D4aHAM3ZvwtKzKQ8KHBDLRijqec6srZeW59Td
owjDdLEKmedaF38uyqmDPzVi4YBisKaIcD0Mm10Ecxsbq3TiW+WLHGNlheHxdahU
9sSvMvrpNssSlA6FozxGMYhFYR2GR9HKgfhsmrIQIBgVEY5wSVT4yJdUTZJp6YTP
7wZeFyOaUuSCJP5K8xsu6ioFigcJyEqsA22XEjM2PJiyd3RIJxSFswwY3frWF7io
oKABQT3l+1dEQKTHagoRrq75m3UU1zIkkQDJw2OErSDNrpECAwEAAaOBojCBnzAJ
BgNVHRMEAjAAMB0GA1UdDgQWBBTOnZ0m9XxEMfu76nX9xPahY0UAkjBRBgNVHSME
SjBIgBTjxC6svMvgttY6d40M/dyisvItxaEapBgwFjEUMBIGA1UEAwwLdGVhbTI3
Mi1uZXSCFFL4Pr4cLnSg3tYvn+u7XGUC/kVPMBMGA1UdJQQMMAoGCCsGAQUFBwMC
MAsGA1UdDwQEAwIHgDANBgkqhkiG9w0BAQsFAAOCAQEALujOrge8SKqA2getVarx
PM5sAnF5tY8bE04JVQOcgcxmSRG3NFdfUWI0cHrwrds/0xGErK+bLH+nUF+JFV2u
F48Roa1TANy9xDI/1nUv/IoduWeIZfxsNNFsv8KbZRhkAReNkw0swaB2of19WqhC
KwNox8DCsuLu29D7UasCjkJtDJfP8HpcpVT0RoanXVeDj7c14D6nOBRe09Z0Y9og
xZwvk0OcqGPOsCNHwyxcCws6NjZPDYUdEl9q2vQ8RmE6VulUWEvWNeV2G7hLEBjz
iABuwiB3hlgKq6XKRO/XYjDegXDZ+Qs6JUhpodAk1H8gG7QDyrTSIpMSRKTqpbjH
1A==
-----END CERTIFICATE-----
