Certificate:
    Data:
        Version: 3 (0x2)
        Serial Number:
            61:07:05:cb:5f:f0:1d:14:23:99:5c:a7:b2:ac:3c:6a
        Signature Algorithm: sha256WithRSAEncryption
        Issuer: CN=team40-net
        Validity
            Not Before: Aug 14 14:22:57 2023 GMT
            Not After : Jul 29 14:22:57 2026 GMT
        Subject: CN=team40-client
        Subject Public Key Info:
            Public Key Algorithm: rsaEncryption
                RSA Public-Key: (2048 bit)
                Modulus:
                    00:93:6d:d0:d2:45:85:2f:64:70:3a:e3:c9:52:3e:
                    56:6a:b9:13:7b:96:1d:64:27:fa:20:0d:bd:91:25:
                    d1:e3:18:dd:be:5b:5c:14:9a:67:c5:32:aa:6f:a7:
                    3f:3d:fc:9c:80:76:f3:0a:8d:30:da:36:9e:cd:be:
                    6b:6e:fd:8c:61:b7:7a:d9:8c:d1:5f:d3:c8:9e:f3:
                    8f:ac:d6:a5:ca:b9:f3:4c:72:2b:c9:86:2c:2e:ff:
                    27:39:36:96:98:28:40:83:2a:4f:c0:c0:aa:82:14:
                    3e:c5:2b:ca:d3:c6:b9:e4:5b:12:b7:92:4b:c8:a7:
                    59:ac:ac:e2:bc:40:5a:e9:a2:11:9f:f4:40:47:b8:
                    42:e7:28:9f:dc:9b:a1:03:8f:ef:78:33:2f:53:1c:
                    f6:5b:54:af:9e:f6:c5:fe:38:27:c2:0b:c8:8e:df:
                    74:aa:3a:50:01:1b:1e:30:e4:6e:b3:54:b7:22:16:
                    bb:1b:06:ea:a3:41:22:67:f6:35:da:b4:cb:cb:48:
                    cd:6f:eb:f2:0f:ce:91:c0:0d:c5:11:f0:15:2d:30:
                    a4:c2:95:3f:c9:e6:04:05:e8:6b:8f:47:cd:4a:31:
                    db:71:0d:7f:d3:3c:01:42:68:22:9a:96:36:82:0d:
                    69:c3:4c:4b:44:c9:fb:ea:37:bf:82:78:fc:62:0a:
                    31:93
                Exponent: 65537 (0x10001)
        X509v3 extensions:
            X509v3 Basic Constraints: 
                CA:FALSE
            X509v3 Subject Key Identifier: 
                70:1D:1A:40:D1:89:EB:14:E8:63:35:A2:EC:A6:6D:1A:FF:90:10:1F
            X509v3 Authority Key Identifier: 
                keyid:3D:1C:15:EA:6D:E9:ED:ED:2F:87:9E:7D:23:33:02:BA:84:FB:62:4E
                DirName:/CN=team40-net
                serial:5D:C5:56:E8:C3:B4:38:7F:42:04:5E:A0:9A:6C:D6:02:1A:4C:47:2A

            X509v3 Extended Key Usage: 
                TLS Web Client Authentication
            X509v3 Key Usage: 
                Digital Signature
    Signature Algorithm: sha256WithRSAEncryption
         5e:60:e3:95:f6:75:1a:30:ff:bf:1e:3d:5b:f9:10:75:e8:cb:
         ab:5b:5e:a9:32:4d:3e:b6:19:ec:9f:5f:ae:5e:f7:d8:4d:45:
         be:74:a7:0b:29:62:9e:77:f3:fb:5a:2d:47:09:f8:ae:dc:2f:
         67:1a:43:a5:00:d9:0a:67:ba:e7:b2:df:98:85:70:31:99:c6:
         ff:61:e8:d3:f0:41:a2:6c:d5:70:20:70:fe:93:a2:c7:ad:e0:
         53:1f:e7:8e:48:73:2b:5d:47:39:5f:43:9c:d2:04:a3:e1:41:
         b1:1c:ff:71:15:73:93:29:87:a8:32:df:2d:14:33:6c:f4:dc:
         88:6b:f5:42:1a:2c:d9:d8:6f:ee:b1:da:99:a8:32:1f:a6:52:
         2c:83:e2:cb:d1:96:64:28:7d:33:77:ec:3b:06:4a:f6:5c:48:
         1f:8d:41:16:9b:c4:d7:20:aa:ee:6d:b6:c6:44:ef:83:69:1a:
         fb:25:d2:fe:ef:ad:55:9f:87:e5:8a:62:f3:7a:dd:f1:a8:43:
         cd:f7:97:0d:14:8e:70:4f:d9:b4:79:1e:34:93:5b:e4:88:33:
         5b:1b:a1:2c:a6:59:4c:cd:5b:e6:8d:eb:e0:b4:76:7e:8e:15:
         89:d1:22:66:ee:c5:36:e7:d0:1b:d4:23:36:4e:9f:71:a6:c0:
         8e:98:6a:a2
-----BEGIN CERTIFICATE-----
MIIDWTCCAkGgAwIBAgIQYQcFy1/wHRQjmVynsqw8ajANBgkqhkiG9w0BAQsFADAV
MRMwEQYDVQQDDAp0ZWFtNDAtbmV0MB4XDTIzMDgxNDE0MjI1N1oXDTI2MDcyOTE0
MjI1N1owGDEWMBQGA1UEAwwNdGVhbTQwLWNsaWVudDCCASIwDQYJKoZIhvcNAQEB
BQADggEPADCCAQoCggEBAJNt0NJFhS9kcDrjyVI+Vmq5E3uWHWQn+iANvZEl0eMY
3b5bXBSaZ8Uyqm+nPz38nIB28wqNMNo2ns2+a279jGG3etmM0V/TyJ7zj6zWpcq5
80xyK8mGLC7/Jzk2lpgoQIMqT8DAqoIUPsUrytPGueRbEreSS8inWays4rxAWumi
EZ/0QEe4Qucon9yboQOP73gzL1Mc9ltUr572xf44J8ILyI7fdKo6UAEbHjDkbrNU
tyIWuxsG6qNBImf2Ndq0y8tIzW/r8g/OkcANxRHwFS0wpMKVP8nmBAXoa49HzUox
23ENf9M8AUJoIpqWNoINacNMS0TJ++o3v4J4/GIKMZMCAwEAAaOBoTCBnjAJBgNV
HRMEAjAAMB0GA1UdDgQWBBRwHRpA0YnrFOhjNaLspm0a/5AQHzBQBgNVHSMESTBH
gBQ9HBXqbent7S+Hnn0jMwK6hPtiTqEZpBcwFTETMBEGA1UEAwwKdGVhbTQwLW5l
dIIUXcVW6MO0OH9CBF6gmmzWAhpMRyowEwYDVR0lBAwwCgYIKwYBBQUHAwIwCwYD
VR0PBAQDAgeAMA0GCSqGSIb3DQEBCwUAA4IBAQBeYOOV9nUaMP+/Hj1b+RB16Mur
W16pMk0+thnsn1+uXvfYTUW+dKcLKWKed/P7Wi1HCfiu3C9nGkOlANkKZ7rnst+Y
hXAxmcb/YejT8EGibNVwIHD+k6LHreBTH+eOSHMrXUc5X0Oc0gSj4UGxHP9xFXOT
KYeoMt8tFDNs9NyIa/VCGizZ2G/usdqZqDIfplIsg+LL0ZZkKH0zd+w7Bkr2XEgf
jUEWm8TXIKrubbbGRO+DaRr7JdL+761Vn4flimLzet3xqEPN95cNFI5wT9m0eR40
k1vkiDNbG6EspllMzVvmjevgtHZ+jhWJ0SJm7sU259Ab1CM2Tp9xpsCOmGqi
-----END CERTIFICATE-----
