Certificate:
    Data:
        Version: 3 (0x2)
        Serial Number:
            a1:4b:0f:51:82:28:87:82:bf:d9:bc:ec:ca:81:a1:7c
        Signature Algorithm: sha256WithRSAEncryption
        Issuer: CN=team263-net
        Validity
            Not Before: Aug 14 14:27:37 2023 GMT
            Not After : Jul 29 14:27:37 2026 GMT
        Subject: CN=team263-server
        Subject Public Key Info:
            Public Key Algorithm: rsaEncryption
                RSA Public-Key: (2048 bit)
                Modulus:
                    00:d1:cc:49:ae:fd:24:d6:c1:df:98:d8:28:f1:1e:
                    e0:fe:10:ee:a3:96:86:3c:b7:1b:e3:3b:62:5c:ec:
                    c9:5b:e4:27:60:66:cb:0d:38:e3:6e:36:d9:a0:12:
                    82:85:33:69:53:eb:e4:a3:a4:1c:b1:68:30:36:b6:
                    3e:4d:7d:ce:4c:9d:48:95:a4:72:a3:25:c4:f4:e9:
                    37:72:b4:33:d4:fe:0e:97:0a:42:21:f1:5c:2c:6a:
                    e6:96:c5:4e:81:fa:e5:5e:56:71:3a:18:5c:11:6b:
                    b1:27:44:e6:30:20:b8:be:8d:5b:a0:59:f1:1a:9d:
                    cd:59:77:f3:1c:65:20:39:62:75:86:49:89:e3:05:
                    0a:e0:84:1b:98:73:ac:e9:1b:96:b4:4d:65:a5:95:
                    11:40:32:85:87:aa:c9:6d:64:c6:7f:22:a0:49:5e:
                    78:ad:2c:72:d2:51:7a:07:95:87:25:3f:5a:64:30:
                    4f:97:82:df:10:e8:4e:6e:5c:24:1c:fe:9d:99:89:
                    82:38:d4:5c:a6:53:db:46:36:51:a7:92:21:da:a5:
                    e0:a1:e2:b8:e4:5f:a2:36:05:bb:41:40:90:9e:d8:
                    1a:a9:42:16:4c:51:94:3a:e7:4b:31:fd:5d:9f:b7:
                    c4:53:78:8f:ca:35:b5:4d:5f:b9:ed:42:fb:66:e5:
                    22:27
                Exponent: 65537 (0x10001)
        X509v3 extensions:
            X509v3 Basic Constraints: 
                CA:FALSE
            X509v3 Subject Key Identifier: 
                34:3C:7C:B3:E2:C5:33:30:AF:E7:95:A7:F6:75:43:7E:89:B0:0D:70
            X509v3 Authority Key Identifier: 
                keyid:F8:53:D7:AD:87:24:59:4F:47:9F:EB:51:7D:76:F5:D2:27:B4:A7:78
                DirName:/CN=team263-net
                serial:75:54:DF:A3:BC:77:07:01:AF:FB:37:C9:3C:BB:C1:84:D8:9D:37:44

            X509v3 Extended Key Usage: 
                TLS Web Server Authentication
            X509v3 Key Usage: 
                Digital Signature, Key Encipherment
            X509v3 Subject Alternative Name: 
                DNS:team263-server
    Signature Algorithm: sha256WithRSAEncryption
         7b:34:5c:dc:50:97:3b:2b:90:db:aa:52:72:87:e1:5a:9d:5a:
         98:63:aa:a1:f4:db:a2:46:0e:4d:a0:c0:bb:2d:aa:25:93:89:
         45:38:5b:69:d8:72:dc:85:14:c1:1c:8f:91:fd:b4:91:1c:1a:
         96:01:56:c0:fd:2d:f0:39:9b:03:c3:35:52:0b:a1:16:5a:b9:
         bb:e4:a4:84:9f:e3:43:a2:d3:b0:b5:b2:a6:9e:6a:04:6d:46:
         02:26:a1:65:2b:25:ca:10:60:46:26:80:fe:86:75:3f:21:40:
         b1:d3:84:b7:33:31:b3:c4:9c:f2:10:68:73:16:3f:69:c2:1b:
         d9:19:bb:31:bd:bb:fe:68:9c:86:ed:11:14:2c:8b:6b:02:d4:
         53:2b:e8:c3:f4:a4:91:d1:df:0f:8d:99:58:3d:af:e8:75:c1:
         10:48:50:68:1f:12:06:e2:4c:d6:af:f7:02:c9:98:8a:ca:33:
         44:53:61:9a:32:a9:0f:3b:b6:6e:1d:39:6f:09:27:24:d5:57:
         ae:bb:cd:02:ff:f9:9e:29:e1:04:73:7b:40:e2:5d:d6:a1:56:
         1d:51:95:53:71:0f:77:0a:6d:9b:3b:82:e2:fa:10:7d:38:fd:
         b9:81:b3:ae:f7:2a:d1:ad:b9:a6:3c:6c:8c:99:aa:e9:a6:72:
         84:bc:e6:89
-----BEGIN CERTIFICATE-----
MIIDeDCCAmCgAwIBAgIRAKFLD1GCKIeCv9m87MqBoXwwDQYJKoZIhvcNAQELBQAw
FjEUMBIGA1UEAwwLdGVhbTI2My1uZXQwHhcNMjMwODE0MTQyNzM3WhcNMjYwNzI5
MTQyNzM3WjAZMRcwFQYDVQQDDA50ZWFtMjYzLXNlcnZlcjCCASIwDQYJKoZIhvcN
AQEBBQADggEPADCCAQoCggEBANHMSa79JNbB35jYKPEe4P4Q7qOWhjy3G+M7Ylzs
yVvkJ2Bmyw0442422aASgoUzaVPr5KOkHLFoMDa2Pk19zkydSJWkcqMlxPTpN3K0
M9T+DpcKQiHxXCxq5pbFToH65V5WcToYXBFrsSdE5jAguL6NW6BZ8RqdzVl38xxl
IDlidYZJieMFCuCEG5hzrOkblrRNZaWVEUAyhYeqyW1kxn8ioEleeK0sctJRegeV
hyU/WmQwT5eC3xDoTm5cJBz+nZmJgjjUXKZT20Y2UaeSIdql4KHiuORfojYFu0FA
kJ7YGqlCFkxRlDrnSzH9XZ+3xFN4j8o1tU1fue1C+2blIicCAwEAAaOBvTCBujAJ
BgNVHRMEAjAAMB0GA1UdDgQWBBQ0PHyz4sUzMK/nlaf2dUN+ibANcDBRBgNVHSME
SjBIgBT4U9ethyRZT0ef61F9dvXSJ7SneKEapBgwFjEUMBIGA1UEAwwLdGVhbTI2
My1uZXSCFHVU36O8dwcBr/s3yTy7wYTYnTdEMBMGA1UdJQQMMAoGCCsGAQUFBwMB
MAsGA1UdDwQEAwIFoDAZBgNVHREEEjAQgg50ZWFtMjYzLXNlcnZlcjANBgkqhkiG
9w0BAQsFAAOCAQEAezRc3FCXOyuQ26pScofhWp1amGOqofTbokYOTaDAuy2qJZOJ
RThbadhy3IUUwRyPkf20kRwalgFWwP0t8DmbA8M1UguhFlq5u+SkhJ/jQ6LTsLWy
pp5qBG1GAiahZSslyhBgRiaA/oZ1PyFAsdOEtzMxs8Sc8hBocxY/acIb2Rm7Mb27
/michu0RFCyLawLUUyvow/SkkdHfD42ZWD2v6HXBEEhQaB8SBuJM1q/3AsmYisoz
RFNhmjKpDzu2bh05bwknJNVXrrvNAv/5ninhBHN7QOJd1qFWHVGVU3EPdwptmzuC
4voQfTj9uYGzrvcq0a25pjxsjJmq6aZyhLzmiQ==
-----END CERTIFICATE-----
