Certificate:
    Data:
        Version: 3 (0x2)
        Serial Number:
            86:8f:62:c8:9b:cf:57:0d:27:e1:ea:53:3c:ce:6f:bc
        Signature Algorithm: sha256WithRSAEncryption
        Issuer: CN=team109-net
        Validity
            Not Before: Aug 14 14:24:29 2023 GMT
            Not After : Jul 29 14:24:29 2026 GMT
        Subject: CN=team109-client
        Subject Public Key Info:
            Public Key Algorithm: rsaEncryption
                RSA Public-Key: (2048 bit)
                Modulus:
                    00:ac:f3:7d:55:4c:af:ff:05:12:88:e2:e7:17:31:
                    90:fd:a0:37:33:b8:cc:e3:cf:24:71:6f:dc:8f:3e:
                    cb:da:0d:a5:6d:14:b3:04:06:6b:ee:f7:84:4d:77:
                    ce:96:19:bd:44:de:b9:20:fd:7e:10:eb:19:7a:bc:
                    43:22:1d:d0:b2:46:e6:b7:0c:14:2a:d6:f9:5e:71:
                    a2:16:44:72:2d:b7:b8:dc:8b:6e:5f:c5:c9:2d:82:
                    ca:89:13:94:6e:61:93:3b:46:29:7b:c9:e8:c1:59:
                    43:f4:f3:7e:f6:b9:23:5b:ff:de:ef:32:f2:12:af:
                    1d:98:cc:91:9b:db:2a:d2:34:13:00:31:62:c2:1a:
                    81:99:4a:55:69:a7:4d:b8:6d:0d:1d:84:fa:48:e5:
                    fc:27:8a:de:3b:0b:85:ef:8d:4e:45:f1:25:b9:57:
                    fa:d2:b0:d4:6c:61:2f:41:f8:d5:69:9c:6a:72:24:
                    55:cf:67:0e:4f:ce:39:46:ba:ef:da:44:a0:da:b4:
                    0b:2f:cf:ed:cc:06:33:8d:a0:cb:98:7e:2e:e8:f1:
                    4e:c2:a0:b5:75:33:5a:30:a2:2b:d9:36:f0:b2:6b:
                    1a:e2:fd:63:5d:17:9d:ac:b4:dc:d7:82:55:c9:29:
                    3f:c7:5d:bb:58:c6:2a:c1:e6:24:d3:2a:91:cb:6c:
                    30:b7
                Exponent: 65537 (0x10001)
        X509v3 extensions:
            X509v3 Basic Constraints: 
                CA:FALSE
            X509v3 Subject Key Identifier: 
                2A:D4:BA:F0:76:6E:CC:51:E7:2F:E9:3F:FE:9A:ED:28:56:4A:3A:D4
            X509v3 Authority Key Identifier: 
                keyid:FC:75:51:F5:36:93:66:EF:0B:FA:35:A1:10:55:C3:2A:CA:28:C7:9A
                DirName:/CN=team109-net
                serial:30:55:A1:80:8B:F0:69:D5:D5:CD:4D:EE:49:BF:0C:56:C7:19:06:91

            X509v3 Extended Key Usage: 
                TLS Web Client Authentication
            X509v3 Key Usage: 
                Digital Signature
    Signature Algorithm: sha256WithRSAEncryption
         8b:23:76:ae:76:5e:7b:dc:cf:2a:d8:e4:07:d6:37:39:f0:16:
         ac:45:c3:c5:5a:e3:cb:b2:63:e4:3b:29:1f:7f:9b:2f:45:23:
         1f:fd:a9:d5:36:26:3a:ec:8f:88:cd:ac:f7:18:7e:cb:6e:ed:
         86:e8:ea:81:25:46:65:a5:d7:bb:20:24:aa:b3:1e:99:ee:72:
         45:dd:9e:a6:c1:13:78:5b:8a:a5:5c:b9:1a:de:56:5a:12:41:
         cf:cb:f1:32:a7:88:4b:62:1e:77:40:42:2c:18:f3:2b:10:d3:
         f7:15:66:7e:1a:17:f0:66:e2:ce:0a:6c:12:96:6f:e2:1c:09:
         da:2c:63:25:fd:c8:af:b5:9c:7a:dc:bd:e3:9f:4e:6b:09:fc:
         22:03:50:f2:4a:c8:12:3a:82:93:e3:3f:c3:70:9e:47:c9:6f:
         30:13:52:f8:f1:ac:98:0f:3d:a9:ab:16:63:ae:71:04:d4:15:
         5b:1a:eb:53:48:10:72:f9:4b:4d:06:d8:10:67:20:39:29:bd:
         56:57:0d:07:31:58:b7:f4:16:dd:65:16:97:73:03:33:04:dd:
         62:6b:fa:0b:c8:a0:80:bd:04:35:41:c2:48:28:3e:e0:7f:04:
         64:d4:ba:d4:e9:3d:a5:4c:14:06:7a:c4:44:a0:47:2a:f6:87:
         80:4b:10:3a
-----BEGIN CERTIFICATE-----
MIIDXTCCAkWgAwIBAgIRAIaPYsibz1cNJ+HqUzzOb7wwDQYJKoZIhvcNAQELBQAw
FjEUMBIGA1UEAwwLdGVhbTEwOS1uZXQwHhcNMjMwODE0MTQyNDI5WhcNMjYwNzI5
MTQyNDI5WjAZMRcwFQYDVQQDDA50ZWFtMTA5LWNsaWVudDCCASIwDQYJKoZIhvcN
AQEBBQADggEPADCCAQoCggEBAKzzfVVMr/8FEoji5xcxkP2gNzO4zOPPJHFv3I8+
y9oNpW0UswQGa+73hE13zpYZvUTeuSD9fhDrGXq8QyId0LJG5rcMFCrW+V5xohZE
ci23uNyLbl/FyS2CyokTlG5hkztGKXvJ6MFZQ/Tzfva5I1v/3u8y8hKvHZjMkZvb
KtI0EwAxYsIagZlKVWmnTbhtDR2E+kjl/CeK3jsLhe+NTkXxJblX+tKw1GxhL0H4
1WmcanIkVc9nDk/OOUa679pEoNq0Cy/P7cwGM42gy5h+LujxTsKgtXUzWjCiK9k2
8LJrGuL9Y10Xnay03NeCVckpP8ddu1jGKsHmJNMqkctsMLcCAwEAAaOBojCBnzAJ
BgNVHRMEAjAAMB0GA1UdDgQWBBQq1Lrwdm7MUecv6T/+mu0oVko61DBRBgNVHSME
SjBIgBT8dVH1NpNm7wv6NaEQVcMqyijHmqEapBgwFjEUMBIGA1UEAwwLdGVhbTEw
OS1uZXSCFDBVoYCL8GnV1c1N7km/DFbHGQaRMBMGA1UdJQQMMAoGCCsGAQUFBwMC
MAsGA1UdDwQEAwIHgDANBgkqhkiG9w0BAQsFAAOCAQEAiyN2rnZee9zPKtjkB9Y3
OfAWrEXDxVrjy7Jj5DspH3+bL0UjH/2p1TYmOuyPiM2s9xh+y27thujqgSVGZaXX
uyAkqrMeme5yRd2epsETeFuKpVy5Gt5WWhJBz8vxMqeIS2Ied0BCLBjzKxDT9xVm
fhoX8GbizgpsEpZv4hwJ2ixjJf3Ir7Wcety9459Oawn8IgNQ8krIEjqCk+M/w3Ce
R8lvMBNS+PGsmA89qasWY65xBNQVWxrrU0gQcvlLTQbYEGcgOSm9VlcNBzFYt/QW
3WUWl3MDMwTdYmv6C8iggL0ENUHCSCg+4H8EZNS61Ok9pUwUBnrERKBHKvaHgEsQ
Og==
-----END CERTIFICATE-----
