Certificate:
    Data:
        Version: 3 (0x2)
        Serial Number:
            6a:64:92:20:02:15:90:ad:79:21:da:d9:54:7c:f2:52
        Signature Algorithm: sha256WithRSAEncryption
        Issuer: CN=team244-net
        Validity
            Not Before: Aug 14 14:27:12 2023 GMT
            Not After : Jul 29 14:27:12 2026 GMT
        Subject: CN=team244-client
        Subject Public Key Info:
            Public Key Algorithm: rsaEncryption
                RSA Public-Key: (2048 bit)
                Modulus:
                    00:e2:c1:08:f1:56:10:06:82:8c:0e:49:8b:b7:e5:
                    5c:c4:0c:32:70:fa:d4:c3:38:ae:d9:84:36:95:f4:
                    e8:70:4f:20:23:f6:7b:a5:62:14:eb:a4:88:c0:cb:
                    90:48:8c:c1:49:4f:87:d0:71:b0:78:3c:00:03:3a:
                    ce:de:6f:30:c9:0e:f3:69:7b:d0:a7:23:14:d5:15:
                    56:af:1e:aa:8f:6d:40:6d:49:0d:9c:e8:79:17:cf:
                    1f:85:02:83:9f:c1:10:9b:fa:7e:ce:75:00:d4:dc:
                    1b:5d:d9:21:b5:fd:70:8f:16:85:3b:6b:8d:4f:f9:
                    ef:c8:c1:31:5a:5c:c7:e5:31:77:f2:86:46:90:52:
                    6e:ce:b0:8e:77:78:66:1a:43:8a:14:2c:ce:71:fa:
                    23:af:89:d7:e1:b4:9c:d7:96:9f:7d:d3:40:99:7c:
                    f2:ec:c2:58:f5:bd:fa:39:13:33:d4:99:98:fb:31:
                    ab:12:74:74:e5:c4:cc:b1:e9:4a:d7:ee:87:73:d7:
                    33:c5:b1:2d:ec:11:91:03:ba:a6:31:96:57:2b:de:
                    ab:67:97:f5:47:2e:3e:c9:9e:fb:c5:b1:57:90:ea:
                    e7:67:1d:c8:e9:5a:c1:41:60:d6:3e:ed:43:eb:b3:
                    da:9c:28:4a:4e:75:d9:2a:18:af:9f:2c:99:f5:ff:
                    65:47
                Exponent: 65537 (0x10001)
        X509v3 extensions:
            X509v3 Basic Constraints: 
                CA:FALSE
            X509v3 Subject Key Identifier: 
                CC:2A:79:98:B5:58:55:88:7F:D5:F6:15:DF:4E:87:60:4E:68:0B:70
            X509v3 Authority Key Identifier: 
                keyid:88:FF:FB:AA:23:4C:9E:7C:D7:2B:5F:95:85:20:F1:09:27:19:BB:FA
                DirName:/CN=team244-net
                serial:65:FA:BD:D1:DE:3C:BD:CA:20:AA:7E:00:95:6C:FC:D9:74:D0:B4:42

            X509v3 Extended Key Usage: 
                TLS Web Client Authentication
            X509v3 Key Usage: 
                Digital Signature
    Signature Algorithm: sha256WithRSAEncryption
         18:7b:55:0e:65:13:98:6e:d4:71:d5:79:ed:27:f5:b5:b7:fa:
         0f:aa:cd:69:ab:f6:5e:81:bf:49:84:b8:b8:2d:50:fc:47:bb:
         e4:6d:7c:71:70:36:5f:ef:e7:7d:ac:09:11:26:45:64:5f:4a:
         72:20:bf:a4:ec:bd:da:cd:70:9d:71:1e:c0:f0:8d:a6:2e:55:
         20:cb:51:cb:0f:b8:af:b6:8c:b4:f4:ee:53:94:1c:43:c4:59:
         93:c6:ed:c3:5e:60:d7:74:99:c1:3b:94:70:4f:68:54:63:ff:
         1d:f0:af:d3:6f:3b:0e:aa:27:49:f2:61:e4:57:d8:35:58:6b:
         78:08:43:e1:1a:85:85:e0:eb:ac:a7:bf:35:e8:15:a2:af:ab:
         39:26:38:a0:17:90:90:a1:36:49:fe:c4:7f:13:ab:f1:fb:ca:
         15:2d:f9:44:6a:fc:e4:55:0a:4e:14:fc:cd:0d:da:94:06:b7:
         9d:b0:9c:1e:74:a5:87:1b:a4:dc:1e:29:af:ce:2f:c0:1b:61:
         a6:fa:b2:ac:8c:c7:3a:de:74:c3:ae:9d:8b:e4:7c:d6:9b:df:
         4f:15:74:26:a8:44:8d:02:43:3d:7e:56:bc:f2:c8:e5:d5:6a:
         f5:d9:34:29:b3:0b:fc:39:c6:32:66:c7:ed:f6:21:1e:01:27:
         3f:6e:19:39
-----BEGIN CERTIFICATE-----
MIIDXDCCAkSgAwIBAgIQamSSIAIVkK15IdrZVHzyUjANBgkqhkiG9w0BAQsFADAW
MRQwEgYDVQQDDAt0ZWFtMjQ0LW5ldDAeFw0yMzA4MTQxNDI3MTJaFw0yNjA3Mjkx
NDI3MTJaMBkxFzAVBgNVBAMMDnRlYW0yNDQtY2xpZW50MIIBIjANBgkqhkiG9w0B
AQEFAAOCAQ8AMIIBCgKCAQEA4sEI8VYQBoKMDkmLt+VcxAwycPrUwziu2YQ2lfTo
cE8gI/Z7pWIU66SIwMuQSIzBSU+H0HGweDwAAzrO3m8wyQ7zaXvQpyMU1RVWrx6q
j21AbUkNnOh5F88fhQKDn8EQm/p+znUA1NwbXdkhtf1wjxaFO2uNT/nvyMExWlzH
5TF38oZGkFJuzrCOd3hmGkOKFCzOcfojr4nX4bSc15affdNAmXzy7MJY9b36ORMz
1JmY+zGrEnR05cTMselK1+6Hc9czxbEt7BGRA7qmMZZXK96rZ5f1Ry4+yZ77xbFX
kOrnZx3I6VrBQWDWPu1D67PanChKTnXZKhivnyyZ9f9lRwIDAQABo4GiMIGfMAkG
A1UdEwQCMAAwHQYDVR0OBBYEFMwqeZi1WFWIf9X2Fd9Oh2BOaAtwMFEGA1UdIwRK
MEiAFIj/+6ojTJ581ytflYUg8QknGbv6oRqkGDAWMRQwEgYDVQQDDAt0ZWFtMjQ0
LW5ldIIUZfq90d48vcogqn4AlWz82XTQtEIwEwYDVR0lBAwwCgYIKwYBBQUHAwIw
CwYDVR0PBAQDAgeAMA0GCSqGSIb3DQEBCwUAA4IBAQAYe1UOZROYbtRx1XntJ/W1
t/oPqs1pq/Zegb9JhLi4LVD8R7vkbXxxcDZf7+d9rAkRJkVkX0pyIL+k7L3azXCd
cR7A8I2mLlUgy1HLD7ivtoy09O5TlBxDxFmTxu3DXmDXdJnBO5RwT2hUY/8d8K/T
bzsOqidJ8mHkV9g1WGt4CEPhGoWF4Ousp7816BWir6s5JjigF5CQoTZJ/sR/E6vx
+8oVLflEavzkVQpOFPzNDdqUBredsJwedKWHG6TcHimvzi/AG2Gm+rKsjMc63nTD
rp2L5HzWm99PFXQmqESNAkM9fla88sjl1Wr12TQpswv8OcYyZsft9iEeASc/bhk5
-----END CERTIFICATE-----
