Certificate:
    Data:
        Version: 3 (0x2)
        Serial Number:
            23:37:9f:87:94:4f:ff:ba:dd:fd:83:4c:6f:a1:ae:84
        Signature Algorithm: sha256WithRSAEncryption
        Issuer: CN=team90-net
        Validity
            Not Before: Aug 14 14:24:03 2023 GMT
            Not After : Jul 29 14:24:03 2026 GMT
        Subject: CN=team90-client
        Subject Public Key Info:
            Public Key Algorithm: rsaEncryption
                RSA Public-Key: (2048 bit)
                Modulus:
                    00:bf:c5:91:83:24:44:a1:1d:da:bc:0f:19:f2:74:
                    ee:cb:4f:4c:12:27:d7:66:ad:8f:db:2c:ed:ec:0e:
                    c3:5f:5f:91:bd:c4:f5:9b:cb:3f:d1:ac:73:c0:67:
                    c3:95:a8:c9:b4:2d:97:ca:c2:b4:96:f2:36:39:07:
                    17:05:f5:4e:6d:42:56:c3:03:f7:a5:69:cb:e2:af:
                    55:9f:6f:39:11:b9:05:b8:55:90:3b:4d:c5:af:ac:
                    ae:10:76:fc:4a:b1:a1:91:eb:ad:ff:38:0e:dd:eb:
                    27:65:4d:e7:5b:18:20:a2:f2:ff:c2:29:6a:9f:94:
                    03:d1:4b:73:f6:1d:7f:f3:41:3b:39:b8:36:2a:46:
                    23:00:e6:89:dd:ec:dc:53:94:87:9f:4b:24:ca:4d:
                    44:9e:eb:53:46:63:bb:af:e5:73:58:b6:76:f3:aa:
                    98:a6:10:9a:b4:ab:47:59:e7:58:b7:5f:65:6a:c2:
                    fa:7c:a4:8c:bd:bb:d2:e4:20:56:2e:41:6b:50:02:
                    23:b9:3e:74:c5:03:fd:6d:fd:b3:65:c2:b2:19:ee:
                    54:83:97:ac:5f:e6:10:80:88:b4:8b:e8:cb:1f:1a:
                    e5:62:05:4f:f3:33:60:3c:aa:3b:57:c5:84:c7:ae:
                    1f:20:09:9f:00:b9:7e:20:63:25:10:57:d8:81:9d:
                    a5:47
                Exponent: 65537 (0x10001)
        X509v3 extensions:
            X509v3 Basic Constraints: 
                CA:FALSE
            X509v3 Subject Key Identifier: 
                6B:B5:84:30:B7:E0:0C:30:56:5B:30:63:BF:0F:C8:98:68:54:BD:4C
            X509v3 Authority Key Identifier: 
                keyid:0D:37:A0:9C:6C:AA:EE:36:A9:3A:A9:C0:EF:2B:4B:3D:96:D6:5D:A1
                DirName:/CN=team90-net
                serial:12:D2:E8:5D:16:96:A0:19:A2:13:1C:3D:BF:DF:26:BC:00:0E:C6:2B

            X509v3 Extended Key Usage: 
                TLS Web Client Authentication
            X509v3 Key Usage: 
                Digital Signature
    Signature Algorithm: sha256WithRSAEncryption
         3b:db:53:92:6c:91:05:e3:18:16:1d:08:7f:8c:ef:0c:b9:e9:
         7a:8d:f3:e8:44:17:a3:91:c4:f2:3e:75:55:c2:dc:1d:3a:76:
         eb:28:ed:98:f8:6e:2b:3c:ba:70:aa:28:14:67:2a:f7:45:a2:
         6a:9b:c1:40:6e:b2:bf:85:0c:4e:55:b7:54:ff:82:4a:2e:70:
         1a:a8:6d:4c:b6:4a:fa:9e:93:80:7e:6f:5b:81:9a:5e:5d:b0:
         bf:08:2d:eb:71:a0:eb:9b:c4:44:0e:7e:e3:41:cc:69:ed:c1:
         73:e4:11:a6:0f:66:fc:cd:c6:ad:ff:83:ac:6b:0a:69:65:57:
         07:fa:ba:80:36:ef:a1:1b:b2:85:61:3a:f8:e7:27:2a:10:58:
         97:3f:d0:f3:4e:06:5a:e2:cf:74:82:6d:a9:4d:18:79:f0:9f:
         38:5e:36:45:84:f9:8a:ee:ac:18:9d:c5:fe:dd:f4:d5:ee:4e:
         5a:98:f2:53:9d:c9:ae:a8:bc:97:b0:61:69:36:fd:e0:d0:d6:
         bd:24:78:c1:01:f4:6e:20:5b:ef:2c:a0:f4:24:90:c0:1e:ef:
         83:10:e0:70:b6:77:92:a2:bf:13:5a:4d:3d:ea:35:50:49:0f:
         69:40:ba:13:1b:03:86:79:af:87:cb:ff:58:ce:04:5c:35:3a:
         f0:66:64:dd
-----BEGIN CERTIFICATE-----
MIIDWTCCAkGgAwIBAgIQIzefh5RP/7rd/YNMb6GuhDANBgkqhkiG9w0BAQsFADAV
MRMwEQYDVQQDDAp0ZWFtOTAtbmV0MB4XDTIzMDgxNDE0MjQwM1oXDTI2MDcyOTE0
MjQwM1owGDEWMBQGA1UEAwwNdGVhbTkwLWNsaWVudDCCASIwDQYJKoZIhvcNAQEB
BQADggEPADCCAQoCggEBAL/FkYMkRKEd2rwPGfJ07stPTBIn12atj9ss7ewOw19f
kb3E9ZvLP9Gsc8Bnw5WoybQtl8rCtJbyNjkHFwX1Tm1CVsMD96Vpy+KvVZ9vORG5
BbhVkDtNxa+srhB2/EqxoZHrrf84Dt3rJ2VN51sYIKLy/8Ipap+UA9FLc/Ydf/NB
Ozm4NipGIwDmid3s3FOUh59LJMpNRJ7rU0Zju6/lc1i2dvOqmKYQmrSrR1nnWLdf
ZWrC+nykjL270uQgVi5Ba1ACI7k+dMUD/W39s2XCshnuVIOXrF/mEICItIvoyx8a
5WIFT/MzYDyqO1fFhMeuHyAJnwC5fiBjJRBX2IGdpUcCAwEAAaOBoTCBnjAJBgNV
HRMEAjAAMB0GA1UdDgQWBBRrtYQwt+AMMFZbMGO/D8iYaFS9TDBQBgNVHSMESTBH
gBQNN6CcbKruNqk6qcDvK0s9ltZdoaEZpBcwFTETMBEGA1UEAwwKdGVhbTkwLW5l
dIIUEtLoXRaWoBmiExw9v98mvAAOxiswEwYDVR0lBAwwCgYIKwYBBQUHAwIwCwYD
VR0PBAQDAgeAMA0GCSqGSIb3DQEBCwUAA4IBAQA721OSbJEF4xgWHQh/jO8Muel6
jfPoRBejkcTyPnVVwtwdOnbrKO2Y+G4rPLpwqigUZyr3RaJqm8FAbrK/hQxOVbdU
/4JKLnAaqG1Mtkr6npOAfm9bgZpeXbC/CC3rcaDrm8REDn7jQcxp7cFz5BGmD2b8
zcat/4OsawppZVcH+rqANu+hG7KFYTr45ycqEFiXP9DzTgZa4s90gm2pTRh58J84
XjZFhPmK7qwYncX+3fTV7k5amPJTncmuqLyXsGFpNv3g0Na9JHjBAfRuIFvvLKD0
JJDAHu+DEOBwtneSor8TWk096jVQSQ9pQLoTGwOGea+Hy/9YzgRcNTrwZmTd
-----END CERTIFICATE-----
