Certificate:
    Data:
        Version: 3 (0x2)
        Serial Number:
            ee:17:2f:21:b4:67:bb:69:2b:35:72:21:50:5a:4a:97
        Signature Algorithm: sha256WithRSAEncryption
        Issuer: CN=team90-net
        Validity
            Not Before: Aug 14 14:24:04 2023 GMT
            Not After : Jul 29 14:24:04 2026 GMT
        Subject: CN=team90-server
        Subject Public Key Info:
            Public Key Algorithm: rsaEncryption
                RSA Public-Key: (2048 bit)
                Modulus:
                    00:c4:5a:f0:55:e4:82:01:5f:33:a1:8c:11:6f:b1:
                    18:ef:51:88:7e:5c:72:41:cf:6c:ca:35:d9:99:92:
                    2b:39:cd:54:8f:44:0d:ad:10:c0:8a:24:22:7d:49:
                    77:80:c7:bb:9c:d8:fa:de:87:65:33:19:3f:d1:66:
                    90:a0:fa:55:c4:78:fb:8c:26:7d:af:93:b6:e8:16:
                    7e:b2:17:58:aa:ed:a2:6f:2f:27:65:91:58:4a:95:
                    62:1a:90:18:f7:54:15:5d:b9:c4:fa:2d:c7:e7:97:
                    ed:89:2e:cc:c0:b7:16:32:02:95:12:c9:ef:80:6c:
                    b5:53:32:02:44:9a:04:52:31:8b:1f:08:86:1f:c5:
                    e0:4a:64:fa:03:24:9e:82:ad:87:28:7f:32:3f:34:
                    2d:3d:61:14:ec:d4:26:db:b2:ae:98:6c:86:45:75:
                    8a:78:09:75:96:04:03:03:73:37:a7:b2:e0:2b:e3:
                    bf:ad:35:32:4e:29:4a:2e:b1:8e:84:e1:a1:2f:bd:
                    80:c1:b2:20:fb:4e:96:a8:4a:0a:54:12:46:2c:7a:
                    3d:7b:8a:20:4b:3e:6b:3f:45:2d:46:18:9d:8c:ab:
                    13:54:30:42:aa:8e:e4:8b:af:0c:1a:15:10:ec:92:
                    9b:88:b0:20:e9:7c:7b:54:aa:fb:4e:aa:a2:62:e1:
                    19:a9
                Exponent: 65537 (0x10001)
        X509v3 extensions:
            X509v3 Basic Constraints: 
                CA:FALSE
            X509v3 Subject Key Identifier: 
                1E:8C:23:92:6F:57:F2:D0:30:08:5B:0D:03:48:13:5E:C7:4E:9D:BF
            X509v3 Authority Key Identifier: 
                keyid:0D:37:A0:9C:6C:AA:EE:36:A9:3A:A9:C0:EF:2B:4B:3D:96:D6:5D:A1
                DirName:/CN=team90-net
                serial:12:D2:E8:5D:16:96:A0:19:A2:13:1C:3D:BF:DF:26:BC:00:0E:C6:2B

            X509v3 Extended Key Usage: 
                TLS Web Server Authentication
            X509v3 Key Usage: 
                Digital Signature, Key Encipherment
            X509v3 Subject Alternative Name: 
                DNS:team90-server
    Signature Algorithm: sha256WithRSAEncryption
         62:d1:c4:42:63:23:04:07:39:98:e2:5d:82:77:ec:75:85:bc:
         c7:32:2a:7b:1f:03:ac:53:6c:b9:d6:f6:c9:ea:49:a6:a6:4f:
         81:ea:8c:e8:99:48:5b:e0:b3:e4:cc:6c:f1:f8:0a:52:df:6f:
         cc:93:fe:1e:91:71:f0:fa:d1:7a:72:be:43:f4:11:13:7f:9a:
         2b:e4:10:dd:de:13:5a:77:ce:54:bd:da:46:d2:3a:63:67:bd:
         b1:55:48:ea:16:cb:75:88:a9:44:64:58:65:d6:eb:37:c1:36:
         68:13:e9:12:b5:b3:dd:14:69:95:45:1d:b9:78:48:26:76:84:
         df:93:15:6b:6e:78:d5:f6:d8:50:52:a7:46:5b:5e:cd:97:d8:
         c9:87:f7:86:5f:21:4c:a7:94:27:65:52:0b:1e:e2:f7:56:de:
         ed:b3:39:20:94:9c:4e:7c:ef:db:11:57:7d:72:c2:4c:5c:0e:
         a1:bf:94:6d:97:d1:53:58:98:4d:86:a8:f9:20:db:a5:6f:94:
         5c:e5:e4:6a:c1:0e:32:11:37:cc:6e:f3:a9:a9:1a:a1:f4:1c:
         5c:5d:3f:dd:d8:6b:3b:62:87:53:d4:3a:97:a9:ba:bc:3c:5d:
         2b:6f:b4:f4:3f:b3:4c:1c:b4:73:b0:37:23:38:0e:4f:1b:76:
         a6:70:96:86
-----BEGIN CERTIFICATE-----
MIIDdDCCAlygAwIBAgIRAO4XLyG0Z7tpKzVyIVBaSpcwDQYJKoZIhvcNAQELBQAw
FTETMBEGA1UEAwwKdGVhbTkwLW5ldDAeFw0yMzA4MTQxNDI0MDRaFw0yNjA3Mjkx
NDI0MDRaMBgxFjAUBgNVBAMMDXRlYW05MC1zZXJ2ZXIwggEiMA0GCSqGSIb3DQEB
AQUAA4IBDwAwggEKAoIBAQDEWvBV5IIBXzOhjBFvsRjvUYh+XHJBz2zKNdmZkis5
zVSPRA2tEMCKJCJ9SXeAx7uc2Preh2UzGT/RZpCg+lXEePuMJn2vk7boFn6yF1iq
7aJvLydlkVhKlWIakBj3VBVducT6Lcfnl+2JLszAtxYyApUSye+AbLVTMgJEmgRS
MYsfCIYfxeBKZPoDJJ6CrYcofzI/NC09YRTs1Cbbsq6YbIZFdYp4CXWWBAMDczen
suAr47+tNTJOKUousY6E4aEvvYDBsiD7TpaoSgpUEkYsej17iiBLPms/RS1GGJ2M
qxNUMEKqjuSLrwwaFRDskpuIsCDpfHtUqvtOqqJi4RmpAgMBAAGjgbswgbgwCQYD
VR0TBAIwADAdBgNVHQ4EFgQUHowjkm9X8tAwCFsNA0gTXsdOnb8wUAYDVR0jBEkw
R4AUDTegnGyq7japOqnA7ytLPZbWXaGhGaQXMBUxEzARBgNVBAMMCnRlYW05MC1u
ZXSCFBLS6F0WlqAZohMcPb/fJrwADsYrMBMGA1UdJQQMMAoGCCsGAQUFBwMBMAsG
A1UdDwQEAwIFoDAYBgNVHREEETAPgg10ZWFtOTAtc2VydmVyMA0GCSqGSIb3DQEB
CwUAA4IBAQBi0cRCYyMEBzmY4l2Cd+x1hbzHMip7HwOsU2y51vbJ6kmmpk+B6ozo
mUhb4LPkzGzx+ApS32/Mk/4ekXHw+tF6cr5D9BETf5or5BDd3hNad85UvdpG0jpj
Z72xVUjqFst1iKlEZFhl1us3wTZoE+kStbPdFGmVRR25eEgmdoTfkxVrbnjV9thQ
UqdGW17Nl9jJh/eGXyFMp5QnZVILHuL3Vt7tszkglJxOfO/bEVd9csJMXA6hv5Rt
l9FTWJhNhqj5INulb5Rc5eRqwQ4yETfMbvOpqRqh9BxcXT/d2Gs7YodT1DqXqbq8
PF0rb7T0P7NMHLRzsDcjOA5PG3amcJaG
-----END CERTIFICATE-----
