Certificate:
    Data:
        Version: 3 (0x2)
        Serial Number:
            75:3b:1e:b8:22:1d:93:ac:7a:21:17:9b:f6:56:1d:7d
        Signature Algorithm: sha256WithRSAEncryption
        Issuer: CN=team104-net
        Validity
            Not Before: Aug 14 14:24:21 2023 GMT
            Not After : Jul 29 14:24:21 2026 GMT
        Subject: CN=team104-client
        Subject Public Key Info:
            Public Key Algorithm: rsaEncryption
                RSA Public-Key: (2048 bit)
                Modulus:
                    00:db:71:cf:17:1b:1a:a9:9f:8d:f9:2a:e4:25:50:
                    ee:d4:12:52:37:0a:46:75:5c:84:c2:5e:6c:cc:c9:
                    8d:bf:93:7d:59:8a:90:d4:17:e2:f0:ef:43:b6:92:
                    65:88:8d:4a:45:8e:34:33:77:02:2e:46:ce:2e:73:
                    d8:58:19:d6:a9:d4:98:67:ef:86:11:8e:39:ee:7d:
                    65:76:cc:e0:77:1b:f0:bc:22:e9:01:53:ec:42:64:
                    9d:5b:f1:31:b9:29:cc:be:00:42:33:2c:d6:af:5e:
                    ce:14:22:52:00:e9:82:60:ac:1e:9b:63:17:b4:a8:
                    6f:e1:cf:cb:e2:f6:aa:f0:cb:f9:bd:35:4a:ed:ed:
                    3b:76:7c:91:9d:40:85:ec:2b:e4:1d:16:ab:fd:00:
                    47:41:06:3a:a9:59:0d:6e:c4:6f:3a:b2:a4:84:1d:
                    dc:f6:68:ad:a8:a4:4f:b4:44:3b:c5:e5:da:80:65:
                    79:6c:15:55:be:a2:ab:bb:54:75:0f:2c:f9:e7:63:
                    4f:d7:89:87:70:0a:56:8c:4c:85:97:ee:1e:4f:bb:
                    01:87:7a:ce:11:2f:a1:aa:88:ec:cc:ec:67:96:62:
                    9a:d8:f7:9c:40:27:60:ca:8f:64:d0:24:04:2c:cd:
                    97:a2:ed:e6:d1:b4:5a:e2:5c:f3:f9:02:13:70:17:
                    b2:2b
                Exponent: 65537 (0x10001)
        X509v3 extensions:
            X509v3 Basic Constraints: 
                CA:FALSE
            X509v3 Subject Key Identifier: 
                C7:53:3C:39:49:42:6B:43:4A:6C:9B:76:21:73:84:54:20:37:A3:59
            X509v3 Authority Key Identifier: 
                keyid:D6:10:A6:A6:7E:D9:5B:0E:53:3B:F0:92:F2:A7:51:E9:8D:72:55:FE
                DirName:/CN=team104-net
                serial:3B:DE:AE:EF:F5:9F:5D:08:8C:27:04:E8:98:3B:A1:B4:E2:91:51:F2

            X509v3 Extended Key Usage: 
                TLS Web Client Authentication
            X509v3 Key Usage: 
                Digital Signature
    Signature Algorithm: sha256WithRSAEncryption
         80:80:05:36:fb:23:a8:8a:ff:3e:71:33:b4:96:ab:04:c8:c2:
         7e:45:c4:e4:8f:b9:ea:b3:c1:5e:f6:1e:d7:c0:4c:94:41:06:
         a4:2f:2c:98:4d:bc:f4:f7:bc:d6:72:84:7a:df:fc:5c:aa:fc:
         2c:47:db:9c:8c:90:29:8c:24:70:d1:29:f3:25:a8:42:1a:37:
         f6:00:07:8f:4d:38:da:d8:7a:96:b9:a4:db:35:e3:c8:76:a7:
         69:38:b9:28:58:ff:92:32:84:34:29:91:07:61:dd:c7:77:a8:
         07:0a:b2:98:16:78:b5:a2:c1:32:e1:ad:a4:39:ff:b3:ce:ba:
         ed:cf:73:e5:7b:09:d0:94:b5:c4:04:d8:51:6e:56:c8:a0:f7:
         00:fb:fb:58:43:66:bc:a1:16:f2:1e:6f:92:4a:03:e7:28:77:
         c9:2c:16:7e:06:30:91:a2:55:73:56:7b:60:de:78:db:1e:c3:
         8c:c7:54:ad:c7:6b:30:cc:2f:59:e7:b5:d3:3b:cf:d7:63:02:
         1b:f4:ce:c7:c3:e2:28:cf:0b:be:4b:11:87:d2:00:28:38:82:
         95:58:d8:f6:e6:62:64:91:ab:f1:2f:be:41:40:f6:8c:c7:32:
         31:7f:ab:e8:d6:a5:2a:14:7d:51:95:71:47:64:71:a2:4c:1d:
         b3:d1:5b:36
-----BEGIN CERTIFICATE-----
MIIDXDCCAkSgAwIBAgIQdTseuCIdk6x6IReb9lYdfTANBgkqhkiG9w0BAQsFADAW
MRQwEgYDVQQDDAt0ZWFtMTA0LW5ldDAeFw0yMzA4MTQxNDI0MjFaFw0yNjA3Mjkx
NDI0MjFaMBkxFzAVBgNVBAMMDnRlYW0xMDQtY2xpZW50MIIBIjANBgkqhkiG9w0B
AQEFAAOCAQ8AMIIBCgKCAQEA23HPFxsaqZ+N+SrkJVDu1BJSNwpGdVyEwl5szMmN
v5N9WYqQ1Bfi8O9DtpJliI1KRY40M3cCLkbOLnPYWBnWqdSYZ++GEY457n1ldszg
dxvwvCLpAVPsQmSdW/ExuSnMvgBCMyzWr17OFCJSAOmCYKwem2MXtKhv4c/L4vaq
8Mv5vTVK7e07dnyRnUCF7CvkHRar/QBHQQY6qVkNbsRvOrKkhB3c9mitqKRPtEQ7
xeXagGV5bBVVvqKru1R1Dyz552NP14mHcApWjEyFl+4eT7sBh3rOES+hqojszOxn
lmKa2PecQCdgyo9k0CQELM2Xou3m0bRa4lzz+QITcBeyKwIDAQABo4GiMIGfMAkG
A1UdEwQCMAAwHQYDVR0OBBYEFMdTPDlJQmtDSmybdiFzhFQgN6NZMFEGA1UdIwRK
MEiAFNYQpqZ+2VsOUzvwkvKnUemNclX+oRqkGDAWMRQwEgYDVQQDDAt0ZWFtMTA0
LW5ldIIUO96u7/WfXQiMJwTomDuhtOKRUfIwEwYDVR0lBAwwCgYIKwYBBQUHAwIw
CwYDVR0PBAQDAgeAMA0GCSqGSIb3DQEBCwUAA4IBAQCAgAU2+yOoiv8+cTO0lqsE
yMJ+RcTkj7nqs8Fe9h7XwEyUQQakLyyYTbz097zWcoR63/xcqvwsR9ucjJApjCRw
0SnzJahCGjf2AAePTTja2HqWuaTbNePIdqdpOLkoWP+SMoQ0KZEHYd3Hd6gHCrKY
Fni1osEy4a2kOf+zzrrtz3PlewnQlLXEBNhRblbIoPcA+/tYQ2a8oRbyHm+SSgPn
KHfJLBZ+BjCRolVzVntg3njbHsOMx1Stx2swzC9Z57XTO8/XYwIb9M7Hw+Iozwu+
SxGH0gAoOIKVWNj25mJkkavxL75BQPaMxzIxf6vo1qUqFH1RlXFHZHGiTB2z0Vs2
-----END CERTIFICATE-----
