Certificate:
    Data:
        Version: 3 (0x2)
        Serial Number:
            0e:e9:98:36:aa:06:78:88:da:89:aa:ce:a0:37:71:81
        Signature Algorithm: sha256WithRSAEncryption
        Issuer: CN=team293-net
        Validity
            Not Before: Aug 14 14:28:15 2023 GMT
            Not After : Jul 29 14:28:15 2026 GMT
        Subject: CN=team293-client
        Subject Public Key Info:
            Public Key Algorithm: rsaEncryption
                RSA Public-Key: (2048 bit)
                Modulus:
                    00:f2:4f:6f:4f:db:af:7a:63:0e:a8:55:b2:71:b2:
                    5a:16:cc:39:13:67:cb:3c:0e:c1:b2:f5:0d:72:2c:
                    6d:98:c8:d1:de:b5:25:64:09:46:f5:98:d2:53:c1:
                    6a:fe:20:0f:e9:b9:8a:7f:af:48:6c:45:68:7a:b9:
                    00:24:3b:04:9b:f2:a6:21:c3:a4:ab:b4:2b:80:4f:
                    49:ab:5b:8c:01:5a:55:8d:83:f3:7f:7f:49:67:0f:
                    c3:1f:4c:58:28:14:70:66:39:73:e6:81:d3:03:05:
                    0a:10:23:1e:b9:d2:39:98:8c:97:b4:20:5c:5d:5c:
                    a2:8e:97:43:69:6a:e5:82:5b:b9:f2:ab:dc:60:43:
                    f7:f8:59:6d:dd:d9:09:6c:47:18:4b:f2:15:b3:7f:
                    05:65:91:b2:8e:ca:8d:8b:82:e0:7a:5a:b5:80:ce:
                    b4:e3:68:87:4a:82:ac:7a:ba:c8:81:74:6f:0e:34:
                    0e:53:02:31:87:60:0a:8d:15:78:40:85:e5:57:41:
                    fc:b2:14:bf:fd:09:4d:66:0d:bd:83:ed:37:1b:8a:
                    ad:06:17:23:92:56:60:f1:dc:3c:42:75:74:8e:55:
                    45:20:d4:05:ff:31:2c:f0:bd:f6:77:31:22:6d:41:
                    97:dc:b2:29:29:b6:09:48:f0:7b:40:97:e2:78:0d:
                    7e:3b
                Exponent: 65537 (0x10001)
        X509v3 extensions:
            X509v3 Basic Constraints: 
                CA:FALSE
            X509v3 Subject Key Identifier: 
                C6:4B:E6:D1:22:32:6B:A0:E9:96:1D:0F:50:AD:05:67:A4:38:F2:15
            X509v3 Authority Key Identifier: 
                keyid:EE:46:49:05:E4:FB:74:AA:70:4C:F2:4D:C5:BD:AC:3D:C5:1D:3F:76
                DirName:/CN=team293-net
                serial:2B:32:82:1A:BE:DA:05:24:C8:19:30:83:6C:EF:64:63:7A:F7:BF:61

            X509v3 Extended Key Usage: 
                TLS Web Client Authentication
            X509v3 Key Usage: 
                Digital Signature
    Signature Algorithm: sha256WithRSAEncryption
         93:f8:95:25:2b:e4:02:8c:11:e1:70:5b:37:14:d8:a4:e3:ab:
         0e:7d:be:bc:97:63:03:31:2f:05:97:97:32:60:13:a0:f3:e8:
         02:59:e2:9c:a5:70:40:7d:2e:97:36:92:9d:6a:cc:1c:6f:e7:
         47:81:83:50:84:36:14:8c:f5:88:5f:44:d5:bb:56:2e:8a:90:
         6d:52:c2:66:b1:4c:ae:14:ed:f8:56:9d:a3:2c:10:b6:1b:71:
         53:10:b3:4f:76:9e:c5:9a:ec:6c:47:1f:f8:9e:0e:0a:a1:f4:
         ef:25:3e:bd:01:33:a5:de:50:eb:0b:ac:35:6c:14:bf:06:ac:
         31:1b:b6:7e:29:ae:9f:4d:c6:09:a1:4f:4e:ae:2c:fd:86:28:
         40:17:e4:c0:3d:67:d4:f4:7e:45:50:bd:94:91:c0:dc:bf:36:
         9f:01:73:9e:bb:9f:e7:42:7f:da:b1:cd:fb:3e:8d:9c:3d:67:
         64:fa:c8:06:c2:7f:8d:0e:2b:a1:72:ee:a3:38:8f:af:79:cb:
         d3:07:0e:09:f0:9a:98:59:35:a5:9f:4a:9b:6e:01:af:89:45:
         9f:46:b9:e4:96:58:a5:1e:0e:b9:15:cc:b2:6c:d2:69:d5:cd:
         c4:3c:77:3e:1e:dc:c5:5b:c9:27:4c:87:87:8a:c1:12:6e:4a:
         77:45:b1:91
-----BEGIN CERTIFICATE-----
MIIDXDCCAkSgAwIBAgIQDumYNqoGeIjaiarOoDdxgTANBgkqhkiG9w0BAQsFADAW
MRQwEgYDVQQDDAt0ZWFtMjkzLW5ldDAeFw0yMzA4MTQxNDI4MTVaFw0yNjA3Mjkx
NDI4MTVaMBkxFzAVBgNVBAMMDnRlYW0yOTMtY2xpZW50MIIBIjANBgkqhkiG9w0B
AQEFAAOCAQ8AMIIBCgKCAQEA8k9vT9uvemMOqFWycbJaFsw5E2fLPA7BsvUNcixt
mMjR3rUlZAlG9ZjSU8Fq/iAP6bmKf69IbEVoerkAJDsEm/KmIcOkq7QrgE9Jq1uM
AVpVjYPzf39JZw/DH0xYKBRwZjlz5oHTAwUKECMeudI5mIyXtCBcXVyijpdDaWrl
glu58qvcYEP3+Flt3dkJbEcYS/IVs38FZZGyjsqNi4Lgelq1gM6042iHSoKserrI
gXRvDjQOUwIxh2AKjRV4QIXlV0H8shS//QlNZg29g+03G4qtBhcjklZg8dw8QnV0
jlVFINQF/zEs8L32dzEibUGX3LIpKbYJSPB7QJfieA1+OwIDAQABo4GiMIGfMAkG
A1UdEwQCMAAwHQYDVR0OBBYEFMZL5tEiMmug6ZYdD1CtBWekOPIVMFEGA1UdIwRK
MEiAFO5GSQXk+3SqcEzyTcW9rD3FHT92oRqkGDAWMRQwEgYDVQQDDAt0ZWFtMjkz
LW5ldIIUKzKCGr7aBSTIGTCDbO9kY3r3v2EwEwYDVR0lBAwwCgYIKwYBBQUHAwIw
CwYDVR0PBAQDAgeAMA0GCSqGSIb3DQEBCwUAA4IBAQCT+JUlK+QCjBHhcFs3FNik
46sOfb68l2MDMS8Fl5cyYBOg8+gCWeKcpXBAfS6XNpKdaswcb+dHgYNQhDYUjPWI
X0TVu1YuipBtUsJmsUyuFO34Vp2jLBC2G3FTELNPdp7FmuxsRx/4ng4KofTvJT69
ATOl3lDrC6w1bBS/BqwxG7Z+Ka6fTcYJoU9Oriz9hihAF+TAPWfU9H5FUL2UkcDc
vzafAXOeu5/nQn/asc37Po2cPWdk+sgGwn+NDiuhcu6jOI+vecvTBw4J8JqYWTWl
n0qbbgGviUWfRrnkllilHg65FcyybNJp1c3EPHc+HtzFW8knTIeHisESbkp3RbGR
-----END CERTIFICATE-----
