Certificate:
    Data:
        Version: 3 (0x2)
        Serial Number:
            33:76:9b:82:7e:0a:90:93:16:77:71:ea:05:b0:68:b7
        Signature Algorithm: sha256WithRSAEncryption
        Issuer: CN=team293-net
        Validity
            Not Before: Aug 14 14:28:15 2023 GMT
            Not After : Jul 29 14:28:15 2026 GMT
        Subject: CN=team293-server
        Subject Public Key Info:
            Public Key Algorithm: rsaEncryption
                RSA Public-Key: (2048 bit)
                Modulus:
                    00:9a:d7:78:f3:f6:70:38:91:db:15:0f:28:ef:b9:
                    2b:3d:82:f3:95:85:5b:8e:50:de:73:b3:a7:ee:34:
                    f0:11:68:e8:c0:fb:0a:2d:7e:f6:c5:45:b6:c4:e3:
                    5a:8f:d0:84:dc:40:d8:af:bc:70:a5:61:f3:9f:da:
                    be:86:f1:6c:17:9f:29:02:ba:5f:12:6c:03:8f:c0:
                    ab:75:f5:de:f2:ca:d6:3a:71:c5:20:09:6d:41:9e:
                    e0:3e:7b:d1:fc:62:9e:a4:87:6c:f6:c6:6c:51:72:
                    35:62:72:1a:ae:7d:a1:e9:8c:bd:83:d5:aa:9f:4c:
                    2d:cf:80:52:a4:13:bd:35:21:7d:73:2f:61:3e:9d:
                    10:50:f5:d0:03:8d:ae:a2:22:3d:d6:e0:bb:b3:9b:
                    3d:33:b0:8b:d2:a8:81:88:eb:49:97:65:dd:30:9c:
                    db:1c:2e:b5:6e:1c:9b:4b:23:53:e4:f2:2e:06:26:
                    99:af:55:6f:c6:39:cb:0d:94:43:3a:41:92:d5:81:
                    e2:21:0d:ea:f3:02:39:99:9a:34:6f:19:31:59:86:
                    c8:7c:89:b4:5d:0c:b7:ef:7d:79:42:83:47:31:b8:
                    2f:6e:54:c1:ee:73:14:46:5b:0d:59:40:03:05:9d:
                    ba:13:5e:ad:01:8b:fa:20:c4:b7:99:60:67:08:92:
                    e7:35
                Exponent: 65537 (0x10001)
        X509v3 extensions:
            X509v3 Basic Constraints: 
                CA:FALSE
            X509v3 Subject Key Identifier: 
                0A:0D:1B:CD:BE:81:45:97:63:C0:9D:B1:AE:9B:9E:A9:2F:22:08:9A
            X509v3 Authority Key Identifier: 
                keyid:EE:46:49:05:E4:FB:74:AA:70:4C:F2:4D:C5:BD:AC:3D:C5:1D:3F:76
                DirName:/CN=team293-net
                serial:2B:32:82:1A:BE:DA:05:24:C8:19:30:83:6C:EF:64:63:7A:F7:BF:61

            X509v3 Extended Key Usage: 
                TLS Web Server Authentication
            X509v3 Key Usage: 
                Digital Signature, Key Encipherment
            X509v3 Subject Alternative Name: 
                DNS:team293-server
    Signature Algorithm: sha256WithRSAEncryption
         2c:e5:82:d6:35:fe:29:51:ff:38:ff:2a:dd:3e:7a:db:da:60:
         ec:b9:61:c4:3a:07:07:df:84:d4:8f:e6:2c:73:0e:73:ab:a0:
         c7:61:98:ca:d9:e1:19:08:8e:2a:9c:0b:16:5c:55:a8:ce:4e:
         5c:80:3d:31:4e:9a:ca:47:e5:88:e8:f7:28:6a:87:50:e6:68:
         70:85:fc:e1:13:0f:2b:9f:e8:35:0c:05:b3:0c:32:98:af:d8:
         5d:65:e1:ac:d5:65:e1:1c:01:71:af:cb:e5:07:bc:02:f1:2d:
         ac:91:a5:a2:41:b6:d7:a7:fa:d5:13:50:71:26:b1:36:df:17:
         ed:fb:ad:a8:7d:71:b1:92:cb:fd:f3:48:a0:b8:12:45:83:b9:
         63:c7:50:e4:f0:06:cb:42:c0:5b:b5:14:30:07:85:47:6e:f0:
         c9:78:49:1e:da:58:a9:3a:c7:73:9c:77:1b:55:1a:3f:b5:8b:
         f1:63:9b:ef:cc:63:18:2b:51:4d:a8:14:71:80:d1:6e:bb:7e:
         15:67:78:85:73:e8:59:c9:43:ec:50:e0:f2:48:e6:88:71:f8:
         ee:38:21:b7:48:16:95:4f:83:06:f7:7c:7a:c0:56:27:fc:cb:
         c0:fc:66:70:33:aa:1e:2f:85:65:72:99:8d:81:ea:cf:f0:81:
         eb:a8:b8:15
-----BEGIN CERTIFICATE-----
MIIDdzCCAl+gAwIBAgIQM3abgn4KkJMWd3HqBbBotzANBgkqhkiG9w0BAQsFADAW
MRQwEgYDVQQDDAt0ZWFtMjkzLW5ldDAeFw0yMzA4MTQxNDI4MTVaFw0yNjA3Mjkx
NDI4MTVaMBkxFzAVBgNVBAMMDnRlYW0yOTMtc2VydmVyMIIBIjANBgkqhkiG9w0B
AQEFAAOCAQ8AMIIBCgKCAQEAmtd48/ZwOJHbFQ8o77krPYLzlYVbjlDec7On7jTw
EWjowPsKLX72xUW2xONaj9CE3EDYr7xwpWHzn9q+hvFsF58pArpfEmwDj8CrdfXe
8srWOnHFIAltQZ7gPnvR/GKepIds9sZsUXI1YnIarn2h6Yy9g9Wqn0wtz4BSpBO9
NSF9cy9hPp0QUPXQA42uoiI91uC7s5s9M7CL0qiBiOtJl2XdMJzbHC61bhybSyNT
5PIuBiaZr1VvxjnLDZRDOkGS1YHiIQ3q8wI5mZo0bxkxWYbIfIm0XQy37315QoNH
MbgvblTB7nMURlsNWUADBZ26E16tAYv6IMS3mWBnCJLnNQIDAQABo4G9MIG6MAkG
A1UdEwQCMAAwHQYDVR0OBBYEFAoNG82+gUWXY8Cdsa6bnqkvIgiaMFEGA1UdIwRK
MEiAFO5GSQXk+3SqcEzyTcW9rD3FHT92oRqkGDAWMRQwEgYDVQQDDAt0ZWFtMjkz
LW5ldIIUKzKCGr7aBSTIGTCDbO9kY3r3v2EwEwYDVR0lBAwwCgYIKwYBBQUHAwEw
CwYDVR0PBAQDAgWgMBkGA1UdEQQSMBCCDnRlYW0yOTMtc2VydmVyMA0GCSqGSIb3
DQEBCwUAA4IBAQAs5YLWNf4pUf84/yrdPnrb2mDsuWHEOgcH34TUj+Yscw5zq6DH
YZjK2eEZCI4qnAsWXFWozk5cgD0xTprKR+WI6PcoaodQ5mhwhfzhEw8rn+g1DAWz
DDKYr9hdZeGs1WXhHAFxr8vlB7wC8S2skaWiQbbXp/rVE1BxJrE23xft+62ofXGx
ksv980iguBJFg7ljx1Dk8AbLQsBbtRQwB4VHbvDJeEke2lipOsdznHcbVRo/tYvx
Y5vvzGMYK1FNqBRxgNFuu34VZ3iFc+hZyUPsUODySOaIcfjuOCG3SBaVT4MG93x6
wFYn/MvA/GZwM6oeL4VlcpmNgerP8IHrqLgV
-----END CERTIFICATE-----
