Certificate:
    Data:
        Version: 3 (0x2)
        Serial Number:
            17:fa:88:80:35:3a:45:77:55:9b:1b:1e:b7:bf:d8:89
        Signature Algorithm: sha256WithRSAEncryption
        Issuer: CN=team25-net
        Validity
            Not Before: Aug 14 14:22:33 2023 GMT
            Not After : Jul 29 14:22:33 2026 GMT
        Subject: CN=team25-client
        Subject Public Key Info:
            Public Key Algorithm: rsaEncryption
                RSA Public-Key: (2048 bit)
                Modulus:
                    00:94:38:5c:68:c6:db:54:1a:95:61:3c:54:23:db:
                    e4:45:e5:70:55:de:44:e6:b5:2b:52:f2:8a:89:3e:
                    14:5c:59:a0:33:94:58:8a:6b:2b:22:7f:6a:9d:a0:
                    b7:0c:14:ba:f4:5d:c3:29:2c:0c:90:38:63:9f:45:
                    7c:1b:5d:60:19:93:20:6d:4c:68:9c:81:7b:28:ea:
                    d2:e2:91:ae:79:f4:ac:11:6d:71:e8:7a:da:a0:9a:
                    23:cc:5c:cb:09:81:c2:6c:01:70:30:c3:a8:7d:a5:
                    3c:03:1c:9d:f4:ed:5d:95:dd:73:38:be:3e:96:77:
                    77:7a:b7:af:8d:1f:5b:26:12:b5:7a:27:69:ea:bb:
                    1a:f4:75:5e:9c:4f:af:8e:fd:8b:a4:07:7e:de:70:
                    91:d3:a9:68:fb:e0:67:7e:6c:11:b4:bd:8b:5d:41:
                    1d:6f:ac:51:c9:86:78:7f:00:e7:b2:3c:31:d2:5a:
                    22:72:23:59:b3:2f:09:17:de:15:6c:ab:d1:21:64:
                    15:96:00:c1:1d:2b:59:71:8c:36:c7:28:97:07:22:
                    10:18:9c:3e:d0:c1:31:c7:e7:c4:30:1a:52:80:76:
                    d2:ee:ff:f2:f3:d3:d1:db:6e:4c:a4:bb:7c:a6:89:
                    15:94:6b:13:f7:14:e1:28:8b:5a:74:4f:e0:94:41:
                    40:27
                Exponent: 65537 (0x10001)
        X509v3 extensions:
            X509v3 Basic Constraints: 
                CA:FALSE
            X509v3 Subject Key Identifier: 
                DA:B4:C5:BF:81:3A:17:F2:B3:ED:10:BB:5A:FB:6F:E8:3E:4E:EB:72
            X509v3 Authority Key Identifier: 
                keyid:3D:DE:1A:71:97:A3:00:B5:F8:E4:90:62:51:7A:AF:61:B0:8E:51:02
                DirName:/CN=team25-net
                serial:04:F9:B4:73:3F:4B:A7:31:0F:A4:8B:BD:F4:72:D7:03:70:83:72:B7

            X509v3 Extended Key Usage: 
                TLS Web Client Authentication
            X509v3 Key Usage: 
                Digital Signature
    Signature Algorithm: sha256WithRSAEncryption
         1e:05:e3:0c:a4:18:ce:9a:58:54:45:bc:89:ef:c0:8f:70:ef:
         fe:74:4c:ec:ff:5c:a5:4d:d0:a8:7f:5a:ce:aa:29:52:91:a7:
         d9:77:61:89:2e:a5:9b:65:0f:6b:7d:b8:1d:ca:d9:4a:ca:c5:
         dc:02:76:70:38:c2:15:76:17:cd:5e:80:94:11:07:b8:4e:9a:
         c0:59:ca:ea:7e:26:b7:12:aa:4b:af:21:f1:50:7f:4f:a0:64:
         17:b2:86:12:49:8f:b1:a8:cd:00:f5:85:4c:70:24:87:39:bc:
         b4:b3:9c:94:b9:ed:b0:50:20:09:3a:f4:19:0f:47:a9:aa:9f:
         32:5f:31:6c:5a:82:a5:cc:70:a6:71:0c:d9:9b:cb:59:c7:c0:
         2b:e4:f9:0b:06:d6:0d:59:58:5c:46:73:14:5c:c3:63:db:9b:
         00:04:3b:37:51:74:24:50:c0:35:91:92:8d:da:50:94:18:84:
         85:c4:f8:a9:75:1f:b6:bc:77:c5:cc:ec:cc:bd:3c:11:f2:4a:
         28:e3:3e:e4:8d:49:38:6c:3e:39:50:2d:eb:5c:f9:2a:2b:dd:
         39:a6:b9:c4:f9:8f:9d:26:e6:61:f6:91:e9:0c:6d:83:7a:3d:
         cc:65:f9:73:18:ce:97:fe:82:2b:ee:be:d6:c2:ed:de:02:85:
         cc:82:3a:da
-----BEGIN CERTIFICATE-----
MIIDWTCCAkGgAwIBAgIQF/qIgDU6RXdVmxset7/YiTANBgkqhkiG9w0BAQsFADAV
MRMwEQYDVQQDDAp0ZWFtMjUtbmV0MB4XDTIzMDgxNDE0MjIzM1oXDTI2MDcyOTE0
MjIzM1owGDEWMBQGA1UEAwwNdGVhbTI1LWNsaWVudDCCASIwDQYJKoZIhvcNAQEB
BQADggEPADCCAQoCggEBAJQ4XGjG21QalWE8VCPb5EXlcFXeROa1K1Lyiok+FFxZ
oDOUWIprKyJ/ap2gtwwUuvRdwyksDJA4Y59FfBtdYBmTIG1MaJyBeyjq0uKRrnn0
rBFtceh62qCaI8xcywmBwmwBcDDDqH2lPAMcnfTtXZXdczi+PpZ3d3q3r40fWyYS
tXonaeq7GvR1XpxPr479i6QHft5wkdOpaPvgZ35sEbS9i11BHW+sUcmGeH8A57I8
MdJaInIjWbMvCRfeFWyr0SFkFZYAwR0rWXGMNscolwciEBicPtDBMcfnxDAaUoB2
0u7/8vPT0dtuTKS7fKaJFZRrE/cU4SiLWnRP4JRBQCcCAwEAAaOBoTCBnjAJBgNV
HRMEAjAAMB0GA1UdDgQWBBTatMW/gToX8rPtELta+2/oPk7rcjBQBgNVHSMESTBH
gBQ93hpxl6MAtfjkkGJReq9hsI5RAqEZpBcwFTETMBEGA1UEAwwKdGVhbTI1LW5l
dIIUBPm0cz9LpzEPpIu99HLXA3CDcrcwEwYDVR0lBAwwCgYIKwYBBQUHAwIwCwYD
VR0PBAQDAgeAMA0GCSqGSIb3DQEBCwUAA4IBAQAeBeMMpBjOmlhURbyJ78CPcO/+
dEzs/1ylTdCof1rOqilSkafZd2GJLqWbZQ9rfbgdytlKysXcAnZwOMIVdhfNXoCU
EQe4TprAWcrqfia3EqpLryHxUH9PoGQXsoYSSY+xqM0A9YVMcCSHOby0s5yUue2w
UCAJOvQZD0epqp8yXzFsWoKlzHCmcQzZm8tZx8Ar5PkLBtYNWVhcRnMUXMNj25sA
BDs3UXQkUMA1kZKN2lCUGISFxPipdR+2vHfFzOzMvTwR8koo4z7kjUk4bD45UC3r
XPkqK905prnE+Y+dJuZh9pHpDG2Dej3MZflzGM6X/oIr7r7Wwu3eAoXMgjra
-----END CERTIFICATE-----
