Certificate:
    Data:
        Version: 3 (0x2)
        Serial Number:
            1a:f3:36:6f:de:94:89:11:4c:a6:03:0d:f4:1b:c8:6e
        Signature Algorithm: sha256WithRSAEncryption
        Issuer: CN=team217-net
        Validity
            Not Before: Aug 14 14:26:39 2023 GMT
            Not After : Jul 29 14:26:39 2026 GMT
        Subject: CN=team217-server
        Subject Public Key Info:
            Public Key Algorithm: rsaEncryption
                RSA Public-Key: (2048 bit)
                Modulus:
                    00:af:e0:a1:65:cf:c2:4a:66:ef:cf:b6:db:fe:b5:
                    7c:ba:5b:72:48:e4:28:7f:8d:e0:d0:0f:11:49:ef:
                    96:c2:3b:c0:1c:b9:1a:62:ed:c0:90:41:d4:c5:ae:
                    a4:5e:b6:fe:db:8b:f7:65:06:5c:91:80:fc:8f:01:
                    26:4f:aa:c4:46:85:65:95:e2:8d:2b:4d:c9:3b:0a:
                    de:37:e6:28:4a:f6:5e:4f:eb:2f:89:1b:ef:e5:01:
                    9b:80:96:3c:f8:4c:ae:b7:c6:ce:bc:a9:20:56:45:
                    23:4d:2e:23:e0:63:52:df:b2:87:3b:80:7e:89:03:
                    b4:29:13:f0:95:5c:51:62:c1:95:d1:a6:96:90:9e:
                    24:64:cf:01:a0:5c:6c:e6:44:46:13:74:30:50:0f:
                    21:cd:d4:05:31:49:35:45:13:34:c7:94:44:e4:48:
                    80:6b:d4:56:35:b1:33:00:8c:63:8d:1f:71:20:a0:
                    40:2e:4c:53:8b:ab:ee:02:6b:df:88:86:11:d7:21:
                    61:8a:0b:eb:c0:bd:d8:d1:07:b5:9e:8b:dc:07:f9:
                    3d:ac:98:b3:71:e5:69:ad:54:12:ca:4b:94:f2:9b:
                    73:ae:f5:c8:bb:7f:a5:37:88:5e:53:46:83:0a:c4:
                    59:cf:85:75:6e:ca:9e:f3:c9:1c:3c:f1:49:44:28:
                    a6:ad
                Exponent: 65537 (0x10001)
        X509v3 extensions:
            X509v3 Basic Constraints: 
                CA:FALSE
            X509v3 Subject Key Identifier: 
                8E:6B:3C:F7:BD:76:D8:45:C8:24:A8:45:D7:45:7A:2D:75:53:39:79
            X509v3 Authority Key Identifier: 
                keyid:DC:A5:D1:45:EB:91:91:CF:3F:9D:1D:4B:61:20:EE:CD:30:08:1C:2C
                DirName:/CN=team217-net
                serial:66:D7:BA:5E:F8:12:F3:31:74:C1:B3:F8:FD:14:B7:EC:AA:67:51:85

            X509v3 Extended Key Usage: 
                TLS Web Server Authentication
            X509v3 Key Usage: 
                Digital Signature, Key Encipherment
            X509v3 Subject Alternative Name: 
                DNS:team217-server
    Signature Algorithm: sha256WithRSAEncryption
         37:ba:5c:84:68:b1:c4:bb:6a:23:80:80:b0:27:97:d6:a9:f6:
         18:be:92:8d:4f:84:3c:20:13:d7:90:3d:d7:3c:a8:d7:f2:4a:
         a8:c9:fd:49:96:b6:55:ec:21:87:49:88:d4:f0:5b:ff:c5:56:
         96:69:67:3e:0f:0c:d9:f4:f7:fa:81:29:f0:05:1d:72:6c:12:
         55:77:d9:a3:15:a4:b1:2b:f1:47:86:d2:7e:35:5a:05:32:98:
         ec:60:ae:51:7e:10:44:fc:88:88:b2:d3:92:e2:e0:23:81:98:
         56:78:8a:c8:56:57:6b:13:c7:49:3e:71:55:c6:4e:a7:af:5b:
         ad:0c:ca:49:8c:2c:56:df:f3:8e:1e:86:a6:fb:6f:29:db:30:
         60:9a:3d:de:a8:c0:2d:73:ec:6b:0b:68:b5:8c:b1:a4:24:94:
         76:e5:6b:38:d8:a0:ba:9c:23:87:17:b6:f7:9f:7c:44:a5:6e:
         79:98:9a:a4:9e:a6:3c:47:5d:c8:36:8d:52:50:b4:c6:07:2c:
         c8:bb:9a:ad:07:85:c2:8e:77:dd:d4:07:94:66:68:7f:ee:77:
         ab:81:a8:0a:a9:ac:4f:9c:fc:15:ae:a9:c2:7d:55:66:40:c6:
         c0:a2:f7:4e:a7:6f:84:8a:f1:6e:5a:dd:4c:eb:35:53:26:4c:
         f9:a7:05:a0
-----BEGIN CERTIFICATE-----
MIIDdzCCAl+gAwIBAgIQGvM2b96UiRFMpgMN9BvIbjANBgkqhkiG9w0BAQsFADAW
MRQwEgYDVQQDDAt0ZWFtMjE3LW5ldDAeFw0yMzA4MTQxNDI2MzlaFw0yNjA3Mjkx
NDI2MzlaMBkxFzAVBgNVBAMMDnRlYW0yMTctc2VydmVyMIIBIjANBgkqhkiG9w0B
AQEFAAOCAQ8AMIIBCgKCAQEAr+ChZc/CSmbvz7bb/rV8ultySOQof43g0A8RSe+W
wjvAHLkaYu3AkEHUxa6kXrb+24v3ZQZckYD8jwEmT6rERoVlleKNK03JOwreN+Yo
SvZeT+sviRvv5QGbgJY8+Eyut8bOvKkgVkUjTS4j4GNS37KHO4B+iQO0KRPwlVxR
YsGV0aaWkJ4kZM8BoFxs5kRGE3QwUA8hzdQFMUk1RRM0x5RE5EiAa9RWNbEzAIxj
jR9xIKBALkxTi6vuAmvfiIYR1yFhigvrwL3Y0Qe1novcB/k9rJizceVprVQSykuU
8ptzrvXIu3+lN4heU0aDCsRZz4V1bsqe88kcPPFJRCimrQIDAQABo4G9MIG6MAkG
A1UdEwQCMAAwHQYDVR0OBBYEFI5rPPe9dthFyCSoRddFei11Uzl5MFEGA1UdIwRK
MEiAFNyl0UXrkZHPP50dS2Eg7s0wCBwsoRqkGDAWMRQwEgYDVQQDDAt0ZWFtMjE3
LW5ldIIUZte6XvgS8zF0wbP4/RS37KpnUYUwEwYDVR0lBAwwCgYIKwYBBQUHAwEw
CwYDVR0PBAQDAgWgMBkGA1UdEQQSMBCCDnRlYW0yMTctc2VydmVyMA0GCSqGSIb3
DQEBCwUAA4IBAQA3ulyEaLHEu2ojgICwJ5fWqfYYvpKNT4Q8IBPXkD3XPKjX8kqo
yf1JlrZV7CGHSYjU8Fv/xVaWaWc+DwzZ9Pf6gSnwBR1ybBJVd9mjFaSxK/FHhtJ+
NVoFMpjsYK5RfhBE/IiIstOS4uAjgZhWeIrIVldrE8dJPnFVxk6nr1utDMpJjCxW
3/OOHoam+28p2zBgmj3eqMAtc+xrC2i1jLGkJJR25Ws42KC6nCOHF7b3n3xEpW55
mJqknqY8R13INo1SULTGByzIu5qtB4XCjnfd1AeUZmh/7nergagKqaxPnPwVrqnC
fVVmQMbAovdOp2+EivFuWt1M6zVTJkz5pwWg
-----END CERTIFICATE-----
