Certificate:
    Data:
        Version: 3 (0x2)
        Serial Number:
            62:fa:e0:cf:46:a5:16:15:5a:d6:1f:3c:2b:93:e7:09
        Signature Algorithm: sha256WithRSAEncryption
        Issuer: CN=team53-net
        Validity
            Not Before: Aug 14 14:23:18 2023 GMT
            Not After : Jul 29 14:23:18 2026 GMT
        Subject: CN=team53-client
        Subject Public Key Info:
            Public Key Algorithm: rsaEncryption
                RSA Public-Key: (2048 bit)
                Modulus:
                    00:f1:c6:83:a6:c0:a1:a2:bd:2e:a9:48:1a:c1:8b:
                    85:92:d6:84:fb:d0:86:1d:d0:3d:b4:08:59:1c:ae:
                    56:65:65:78:46:46:05:9e:74:a5:7c:70:84:0b:0a:
                    97:25:d5:cd:94:d5:07:73:c0:31:ab:14:e8:8f:15:
                    a6:7f:f0:39:d5:0a:a6:d5:d1:e7:5f:80:36:77:0d:
                    6f:59:50:c5:4d:1d:2f:2c:62:0b:ed:3e:f6:dc:23:
                    78:6f:bc:d2:60:6b:f0:3c:91:e6:57:bf:d2:52:42:
                    96:00:cb:56:36:fc:df:8e:d9:64:74:32:3d:c0:89:
                    2f:30:a4:b8:48:f6:df:f7:43:94:1b:9d:20:33:1f:
                    f3:ed:25:5a:81:cc:8a:0c:a9:4b:0e:cd:4b:97:1d:
                    e3:2f:2b:9d:5b:61:3b:53:16:06:e7:d2:f6:57:fa:
                    71:27:80:18:25:8e:5b:9d:34:78:bd:a5:f2:4c:12:
                    5e:e7:6e:f9:f8:6a:ec:5f:51:f3:b1:91:e0:a0:11:
                    81:4e:b4:47:0b:82:82:75:fe:c7:5e:e3:9c:86:3f:
                    40:7b:21:87:7f:24:c5:58:53:72:94:aa:c9:85:be:
                    9f:80:e1:da:7d:c9:8f:27:40:cf:c1:35:5a:ac:88:
                    b3:8d:41:69:52:39:de:6e:aa:17:fe:fb:ba:b2:6a:
                    2c:79
                Exponent: 65537 (0x10001)
        X509v3 extensions:
            X509v3 Basic Constraints: 
                CA:FALSE
            X509v3 Subject Key Identifier: 
                DE:D2:1B:BA:E0:E0:DE:6A:0E:D8:75:94:23:A5:04:54:5C:C0:2D:A3
            X509v3 Authority Key Identifier: 
                keyid:4B:F3:A6:24:30:5E:FC:71:C9:AE:87:F8:74:5E:0A:76:3C:BD:7C:C6
                DirName:/CN=team53-net
                serial:11:CF:BE:5D:39:14:C0:90:34:DD:3C:27:2E:4E:B8:0B:CC:78:FD:12

            X509v3 Extended Key Usage: 
                TLS Web Client Authentication
            X509v3 Key Usage: 
                Digital Signature
    Signature Algorithm: sha256WithRSAEncryption
         0c:05:d8:57:a7:46:96:b2:87:4b:ee:0b:06:38:48:90:e5:2b:
         04:36:45:d0:7b:96:b1:da:0d:2e:ea:d2:62:16:64:55:50:c5:
         11:64:b7:5b:0c:55:ba:ec:3d:50:c3:83:4c:0d:7c:ae:ef:57:
         15:73:22:40:3c:b7:89:fe:fe:c4:72:bb:32:a3:a0:dc:00:20:
         5f:36:a9:3a:85:60:ea:19:59:fd:a6:e3:10:96:c6:7f:22:92:
         72:64:d7:02:2f:b2:cc:d7:6b:3a:fc:62:55:75:0d:64:b5:61:
         69:9c:11:e9:28:32:3e:e6:cd:c7:05:fa:49:3f:84:be:20:19:
         0c:78:ee:ac:92:e0:12:33:e5:7a:85:2e:da:9d:1e:3b:67:e3:
         01:57:ff:7c:79:0e:06:a7:65:9c:4f:e9:58:b0:b0:13:03:ef:
         fd:ce:49:75:be:34:75:9c:0c:25:3d:74:bd:49:2a:a9:1d:06:
         07:62:05:85:35:7d:78:64:82:e5:d5:0f:75:d6:86:32:2b:b4:
         a0:3b:16:70:d9:6d:f9:63:98:04:d5:20:67:34:51:45:3f:ca:
         aa:31:cf:d4:15:14:0e:e7:77:e7:87:8b:e2:3c:aa:ad:b1:e6:
         f5:84:dc:e2:48:bd:b7:65:32:5b:25:99:a4:05:d8:17:ca:eb:
         cf:19:37:22
-----BEGIN CERTIFICATE-----
MIIDWTCCAkGgAwIBAgIQYvrgz0alFhVa1h88K5PnCTANBgkqhkiG9w0BAQsFADAV
MRMwEQYDVQQDDAp0ZWFtNTMtbmV0MB4XDTIzMDgxNDE0MjMxOFoXDTI2MDcyOTE0
MjMxOFowGDEWMBQGA1UEAwwNdGVhbTUzLWNsaWVudDCCASIwDQYJKoZIhvcNAQEB
BQADggEPADCCAQoCggEBAPHGg6bAoaK9LqlIGsGLhZLWhPvQhh3QPbQIWRyuVmVl
eEZGBZ50pXxwhAsKlyXVzZTVB3PAMasU6I8Vpn/wOdUKptXR51+ANncNb1lQxU0d
LyxiC+0+9twjeG+80mBr8DyR5le/0lJClgDLVjb8347ZZHQyPcCJLzCkuEj23/dD
lBudIDMf8+0lWoHMigypSw7NS5cd4y8rnVthO1MWBufS9lf6cSeAGCWOW500eL2l
8kwSXudu+fhq7F9R87GR4KARgU60RwuCgnX+x17jnIY/QHshh38kxVhTcpSqyYW+
n4Dh2n3JjydAz8E1WqyIs41BaVI53m6qF/77urJqLHkCAwEAAaOBoTCBnjAJBgNV
HRMEAjAAMB0GA1UdDgQWBBTe0hu64ODeag7YdZQjpQRUXMAtozBQBgNVHSMESTBH
gBRL86YkMF78ccmuh/h0Xgp2PL18xqEZpBcwFTETMBEGA1UEAwwKdGVhbTUzLW5l
dIIUEc++XTkUwJA03TwnLk64C8x4/RIwEwYDVR0lBAwwCgYIKwYBBQUHAwIwCwYD
VR0PBAQDAgeAMA0GCSqGSIb3DQEBCwUAA4IBAQAMBdhXp0aWsodL7gsGOEiQ5SsE
NkXQe5ax2g0u6tJiFmRVUMURZLdbDFW67D1Qw4NMDXyu71cVcyJAPLeJ/v7Ecrsy
o6DcACBfNqk6hWDqGVn9puMQlsZ/IpJyZNcCL7LM12s6/GJVdQ1ktWFpnBHpKDI+
5s3HBfpJP4S+IBkMeO6skuASM+V6hS7anR47Z+MBV/98eQ4Gp2WcT+lYsLATA+/9
zkl1vjR1nAwlPXS9SSqpHQYHYgWFNX14ZILl1Q911oYyK7SgOxZw2W35Y5gE1SBn
NFFFP8qqMc/UFRQO53fnh4viPKqtseb1hNziSL23ZTJbJZmkBdgXyuvPGTci
-----END CERTIFICATE-----
