Certificate:
    Data:
        Version: 3 (0x2)
        Serial Number:
            16:40:26:58:15:d0:e0:66:75:49:92:07:dc:bb:83:9a
        Signature Algorithm: sha256WithRSAEncryption
        Issuer: CN=team12-net
        Validity
            Not Before: Aug 14 14:22:17 2023 GMT
            Not After : Jul 29 14:22:17 2026 GMT
        Subject: CN=team12-client
        Subject Public Key Info:
            Public Key Algorithm: rsaEncryption
                RSA Public-Key: (2048 bit)
                Modulus:
                    00:95:6b:a3:c2:b7:c9:18:ab:80:39:a3:fa:30:03:
                    29:ff:42:ed:3a:36:d9:51:21:1e:e7:60:f2:c4:5d:
                    4d:b0:7d:6a:09:52:03:ef:93:c9:c2:8c:f5:43:e5:
                    52:98:61:c7:59:18:eb:f7:b3:7b:8f:ea:2f:21:b9:
                    bc:6a:46:ad:45:a3:6b:47:1b:d1:2e:53:8b:3a:f2:
                    e9:4d:4c:98:f2:24:dc:12:64:91:b9:54:90:83:2b:
                    7e:aa:d4:30:29:fe:67:c9:92:6f:34:f2:4e:aa:c1:
                    0b:bf:55:d4:48:3a:7b:a5:83:75:31:72:db:07:30:
                    48:32:bd:33:b3:32:69:2e:13:4c:b5:2c:ea:36:d6:
                    91:76:aa:ff:47:0c:ef:d3:3e:de:f4:af:70:cf:97:
                    98:eb:58:06:24:ef:dc:f2:ca:26:13:3d:db:fb:6a:
                    f7:6f:a3:41:26:d2:98:4b:08:2d:9e:32:be:0b:f8:
                    56:14:ed:57:da:b8:03:c1:9c:75:7f:20:6a:1a:51:
                    e3:e0:e1:68:3f:45:9b:cf:9c:c5:77:a5:1f:93:b0:
                    1f:3a:46:83:4a:09:23:47:cb:3e:7a:7c:86:03:03:
                    8d:6e:55:ac:f8:b9:f3:ff:ef:bb:ad:d4:ec:cc:5b:
                    46:de:aa:19:b4:8d:d8:56:17:04:6a:cc:16:97:7c:
                    c8:55
                Exponent: 65537 (0x10001)
        X509v3 extensions:
            X509v3 Basic Constraints: 
                CA:FALSE
            X509v3 Subject Key Identifier: 
                08:61:3F:68:EC:8F:EC:D3:48:F0:0E:D8:7D:E5:21:F5:A0:7E:13:45
            X509v3 Authority Key Identifier: 
                keyid:23:C8:3F:EF:E9:66:56:97:60:70:58:C7:13:CB:B2:B1:D0:76:03:09
                DirName:/CN=team12-net
                serial:01:E0:D9:B8:F6:44:DA:74:E4:22:98:0B:80:CF:A2:27:C4:EC:2B:31

            X509v3 Extended Key Usage: 
                TLS Web Client Authentication
            X509v3 Key Usage: 
                Digital Signature
    Signature Algorithm: sha256WithRSAEncryption
         1c:f2:7d:80:03:ea:2e:49:61:f4:a1:6b:a5:83:33:c8:00:39:
         00:17:ba:05:ce:f7:00:9b:5f:59:92:c1:61:fc:97:24:2f:e1:
         73:27:6c:35:5e:a3:9e:81:db:d9:96:3b:75:3f:f4:7d:f1:a0:
         b4:e9:64:05:8d:95:2d:d0:4c:22:9d:7a:99:f7:ae:55:78:be:
         1c:11:c5:ea:ed:3e:5f:ab:56:cb:82:47:9c:55:53:64:e0:4d:
         32:10:00:c5:20:8e:5d:f7:89:7d:0d:95:60:4f:49:95:f0:57:
         80:81:6d:b3:54:50:e2:a9:fa:1b:c8:c6:bc:1f:ae:ef:86:00:
         c0:5b:b9:80:ad:6c:99:73:99:15:39:53:46:57:1d:41:6f:f4:
         c2:90:56:73:31:b2:a4:e2:0e:95:fc:08:56:d6:ef:06:a4:a1:
         a9:b3:bc:0f:75:c7:f9:03:99:69:ab:8e:10:16:14:9a:52:68:
         06:13:5d:d4:d9:cc:b8:03:73:e0:79:1a:a7:73:0c:28:76:f6:
         db:68:4f:c7:60:67:d9:9f:f8:d7:0f:02:f0:12:1f:9b:24:02:
         ed:08:81:de:23:7a:e9:4b:52:6b:34:77:04:63:56:11:d1:c1:
         aa:98:f0:cb:f9:ae:5d:96:2e:7c:19:d1:d5:97:94:9f:06:da:
         a8:9d:b8:6d
-----BEGIN CERTIFICATE-----
MIIDWTCCAkGgAwIBAgIQFkAmWBXQ4GZ1SZIH3LuDmjANBgkqhkiG9w0BAQsFADAV
MRMwEQYDVQQDDAp0ZWFtMTItbmV0MB4XDTIzMDgxNDE0MjIxN1oXDTI2MDcyOTE0
MjIxN1owGDEWMBQGA1UEAwwNdGVhbTEyLWNsaWVudDCCASIwDQYJKoZIhvcNAQEB
BQADggEPADCCAQoCggEBAJVro8K3yRirgDmj+jADKf9C7To22VEhHudg8sRdTbB9
aglSA++TycKM9UPlUphhx1kY6/eze4/qLyG5vGpGrUWja0cb0S5Tizry6U1MmPIk
3BJkkblUkIMrfqrUMCn+Z8mSbzTyTqrBC79V1Eg6e6WDdTFy2wcwSDK9M7MyaS4T
TLUs6jbWkXaq/0cM79M+3vSvcM+XmOtYBiTv3PLKJhM92/tq92+jQSbSmEsILZ4y
vgv4VhTtV9q4A8GcdX8gahpR4+DhaD9Fm8+cxXelH5OwHzpGg0oJI0fLPnp8hgMD
jW5VrPi58//vu63U7MxbRt6qGbSN2FYXBGrMFpd8yFUCAwEAAaOBoTCBnjAJBgNV
HRMEAjAAMB0GA1UdDgQWBBQIYT9o7I/s00jwDth95SH1oH4TRTBQBgNVHSMESTBH
gBQjyD/v6WZWl2BwWMcTy7Kx0HYDCaEZpBcwFTETMBEGA1UEAwwKdGVhbTEyLW5l
dIIUAeDZuPZE2nTkIpgLgM+iJ8TsKzEwEwYDVR0lBAwwCgYIKwYBBQUHAwIwCwYD
VR0PBAQDAgeAMA0GCSqGSIb3DQEBCwUAA4IBAQAc8n2AA+ouSWH0oWulgzPIADkA
F7oFzvcAm19ZksFh/JckL+FzJ2w1XqOegdvZljt1P/R98aC06WQFjZUt0EwinXqZ
965VeL4cEcXq7T5fq1bLgkecVVNk4E0yEADFII5d94l9DZVgT0mV8FeAgW2zVFDi
qfobyMa8H67vhgDAW7mArWyZc5kVOVNGVx1Bb/TCkFZzMbKk4g6V/AhW1u8GpKGp
s7wPdcf5A5lpq44QFhSaUmgGE13U2cy4A3PgeRqncwwodvbbaE/HYGfZn/jXDwLw
Eh+bJALtCIHeI3rpS1JrNHcEY1YR0cGqmPDL+a5dli58GdHVl5SfBtqonbht
-----END CERTIFICATE-----
