Certificate:
    Data:
        Version: 3 (0x2)
        Serial Number:
            84:e3:04:76:0f:b1:22:98:b0:6c:88:de:d1:b5:9b:ff
        Signature Algorithm: sha256WithRSAEncryption
        Issuer: CN=team12-net
        Validity
            Not Before: Aug 14 14:22:17 2023 GMT
            Not After : Jul 29 14:22:17 2026 GMT
        Subject: CN=team12-server
        Subject Public Key Info:
            Public Key Algorithm: rsaEncryption
                RSA Public-Key: (2048 bit)
                Modulus:
                    00:a2:80:1c:99:cb:93:3b:1b:8a:d2:5c:1c:db:19:
                    78:74:48:ae:de:20:36:d4:da:4e:f5:54:9d:3a:2c:
                    80:a0:80:1b:19:d2:7d:5e:70:3f:fb:ff:9e:f4:b6:
                    06:2b:c4:62:d8:97:fb:20:d8:f4:de:02:7a:e3:38:
                    11:7f:1d:9a:0c:07:27:49:6a:7f:ab:65:78:24:ce:
                    34:e0:89:80:7b:1b:b3:be:65:bf:53:e1:d3:07:ce:
                    6c:cf:be:66:86:60:e2:b8:25:e9:c6:94:2d:94:ed:
                    4b:b5:88:e0:21:7f:46:5f:91:5a:5e:87:3d:03:f6:
                    04:59:d0:22:70:57:40:86:4a:68:61:0b:aa:22:b5:
                    73:ce:1b:e5:51:1f:7f:a9:36:9d:ad:94:6d:e3:e7:
                    5a:38:93:64:c6:51:76:23:12:f4:39:61:17:7c:9c:
                    a7:f8:85:4a:9a:5d:f5:0a:28:11:3a:f7:dd:33:54:
                    8a:3b:82:95:7e:a8:04:bd:ff:a0:b7:4a:3b:c9:53:
                    f0:63:4d:3a:61:d5:6e:29:35:f1:b3:be:74:d8:4e:
                    ab:e7:5b:5d:54:6e:30:8a:c9:d5:6c:66:97:40:fc:
                    2f:f2:3e:0a:50:65:8c:e2:4f:7a:3d:3c:f4:2a:67:
                    54:c5:53:da:7f:45:ab:b6:42:1e:59:ae:04:da:e4:
                    23:b9
                Exponent: 65537 (0x10001)
        X509v3 extensions:
            X509v3 Basic Constraints: 
                CA:FALSE
            X509v3 Subject Key Identifier: 
                F4:C4:D6:C1:A3:0D:18:82:77:15:86:03:3F:01:53:A2:7C:B0:0E:66
            X509v3 Authority Key Identifier: 
                keyid:23:C8:3F:EF:E9:66:56:97:60:70:58:C7:13:CB:B2:B1:D0:76:03:09
                DirName:/CN=team12-net
                serial:01:E0:D9:B8:F6:44:DA:74:E4:22:98:0B:80:CF:A2:27:C4:EC:2B:31

            X509v3 Extended Key Usage: 
                TLS Web Server Authentication
            X509v3 Key Usage: 
                Digital Signature, Key Encipherment
            X509v3 Subject Alternative Name: 
                DNS:team12-server
    Signature Algorithm: sha256WithRSAEncryption
         a2:73:0a:16:83:ec:a4:d3:b2:65:c8:58:25:09:91:f0:40:33:
         92:b2:7b:db:6f:fe:29:f9:fd:42:de:18:bf:3c:a3:cd:27:69:
         d3:b5:3c:1a:16:d8:d7:86:cc:d1:78:f9:2d:5a:2e:8c:27:14:
         87:89:d6:8b:97:6c:82:bb:35:52:a4:56:09:25:8e:f4:f8:97:
         48:27:52:88:11:cd:3c:b1:74:4a:79:7b:e3:6d:84:53:ce:2c:
         00:3f:fb:f2:e0:b5:61:0f:39:9f:23:0a:e9:b8:0a:4f:4a:7c:
         fe:d5:76:84:4e:05:09:40:07:7e:b5:50:29:22:44:89:c0:40:
         af:f3:68:87:76:e0:34:af:52:d4:0a:4e:77:f3:da:e7:28:ad:
         74:82:fa:85:35:09:ad:97:64:c4:22:68:8f:75:8a:47:a9:a1:
         a7:bd:f7:86:d0:50:ec:b2:74:53:83:98:00:d9:9c:07:a7:01:
         7f:bd:9c:05:05:f3:cf:e1:b2:c0:b8:dc:c5:ae:c9:b9:c2:bf:
         27:63:43:6b:97:fd:b0:06:1b:02:b3:25:f7:ce:dc:a0:72:b1:
         2e:ad:aa:b6:06:7f:de:4a:a9:d9:9a:fe:69:33:43:3d:4a:fe:
         c5:83:24:77:a7:5f:cb:57:29:28:2e:9a:f4:77:16:ae:8d:c6:
         69:47:6f:b2
-----BEGIN CERTIFICATE-----
MIIDdDCCAlygAwIBAgIRAITjBHYPsSKYsGyI3tG1m/8wDQYJKoZIhvcNAQELBQAw
FTETMBEGA1UEAwwKdGVhbTEyLW5ldDAeFw0yMzA4MTQxNDIyMTdaFw0yNjA3Mjkx
NDIyMTdaMBgxFjAUBgNVBAMMDXRlYW0xMi1zZXJ2ZXIwggEiMA0GCSqGSIb3DQEB
AQUAA4IBDwAwggEKAoIBAQCigByZy5M7G4rSXBzbGXh0SK7eIDbU2k71VJ06LICg
gBsZ0n1ecD/7/570tgYrxGLYl/sg2PTeAnrjOBF/HZoMBydJan+rZXgkzjTgiYB7
G7O+Zb9T4dMHzmzPvmaGYOK4JenGlC2U7Uu1iOAhf0ZfkVpehz0D9gRZ0CJwV0CG
SmhhC6oitXPOG+VRH3+pNp2tlG3j51o4k2TGUXYjEvQ5YRd8nKf4hUqaXfUKKBE6
990zVIo7gpV+qAS9/6C3SjvJU/BjTTph1W4pNfGzvnTYTqvnW11UbjCKydVsZpdA
/C/yPgpQZYziT3o9PPQqZ1TFU9p/Rau2Qh5ZrgTa5CO5AgMBAAGjgbswgbgwCQYD
VR0TBAIwADAdBgNVHQ4EFgQU9MTWwaMNGIJ3FYYDPwFTonywDmYwUAYDVR0jBEkw
R4AUI8g/7+lmVpdgcFjHE8uysdB2AwmhGaQXMBUxEzARBgNVBAMMCnRlYW0xMi1u
ZXSCFAHg2bj2RNp05CKYC4DPoifE7CsxMBMGA1UdJQQMMAoGCCsGAQUFBwMBMAsG
A1UdDwQEAwIFoDAYBgNVHREEETAPgg10ZWFtMTItc2VydmVyMA0GCSqGSIb3DQEB
CwUAA4IBAQCicwoWg+yk07JlyFglCZHwQDOSsnvbb/4p+f1C3hi/PKPNJ2nTtTwa
FtjXhszRePktWi6MJxSHidaLl2yCuzVSpFYJJY70+JdIJ1KIEc08sXRKeXvjbYRT
ziwAP/vy4LVhDzmfIwrpuApPSnz+1XaETgUJQAd+tVApIkSJwECv82iHduA0r1LU
Ck5389rnKK10gvqFNQmtl2TEImiPdYpHqaGnvfeG0FDssnRTg5gA2ZwHpwF/vZwF
BfPP4bLAuNzFrsm5wr8nY0Nrl/2wBhsCsyX3ztygcrEuraq2Bn/eSqnZmv5pM0M9
Sv7FgyR3p1/LVykoLpr0dxaujcZpR2+y
-----END CERTIFICATE-----
