Certificate:
    Data:
        Version: 3 (0x2)
        Serial Number:
            39:d5:35:7f:ee:91:ef:51:79:33:31:b5:5e:a7:2b:71
        Signature Algorithm: sha256WithRSAEncryption
        Issuer: CN=team87-net
        Validity
            Not Before: Aug 14 14:24:00 2023 GMT
            Not After : Jul 29 14:24:00 2026 GMT
        Subject: CN=team87-server
        Subject Public Key Info:
            Public Key Algorithm: rsaEncryption
                RSA Public-Key: (2048 bit)
                Modulus:
                    00:ee:56:00:b4:3d:1c:4d:0e:0a:35:d9:84:a1:fe:
                    9e:f6:40:4e:5f:47:b7:4b:6c:5c:b6:4f:6b:cd:ce:
                    c0:4a:14:45:05:9c:4a:9b:cc:f7:ff:aa:22:25:7a:
                    97:05:44:f9:27:c8:f9:9b:8a:f2:ed:c2:5a:af:d0:
                    16:07:f0:54:cb:f0:74:93:7a:0d:32:04:4f:7a:11:
                    ac:af:0d:54:19:0c:aa:0b:e2:d9:3a:92:62:09:b5:
                    fc:b2:ac:df:39:b5:ad:63:51:05:75:55:7f:25:b4:
                    96:d3:ad:df:e8:3d:c1:4d:3b:25:f2:46:93:50:2d:
                    72:5e:4a:63:39:9d:19:c2:ba:c3:3a:5d:da:b8:8f:
                    92:e9:1e:a9:21:f0:ef:da:e0:1b:5b:3b:5a:12:3d:
                    10:bd:cc:39:01:f1:b8:48:81:e0:9f:be:88:4c:3a:
                    14:5b:e2:6d:76:f0:13:65:f1:e2:c7:9c:9b:c5:75:
                    aa:82:e3:dc:7b:40:76:e0:36:31:f1:50:4c:6c:16:
                    cd:bf:96:d3:b2:43:f6:fc:a0:db:38:ad:ce:e7:a2:
                    62:5f:92:bc:fc:01:2f:53:a2:3c:6c:78:d8:1a:ea:
                    cd:2d:0b:28:26:3e:48:ab:6d:17:15:c7:3f:93:16:
                    87:ea:68:b8:c1:1c:95:7c:87:27:92:32:09:9f:70:
                    60:4b
                Exponent: 65537 (0x10001)
        X509v3 extensions:
            X509v3 Basic Constraints: 
                CA:FALSE
            X509v3 Subject Key Identifier: 
                65:B9:C8:1D:6D:A8:0F:C2:90:28:9F:00:42:6B:EE:A2:48:B7:AC:62
            X509v3 Authority Key Identifier: 
                keyid:13:03:2A:E2:AA:A9:17:B1:8E:9F:D5:A8:CB:78:CD:CD:7E:93:EF:93
                DirName:/CN=team87-net
                serial:39:17:53:4B:EF:53:13:2C:54:C2:8C:E9:01:E2:45:C5:52:CB:FB:9E

            X509v3 Extended Key Usage: 
                TLS Web Server Authentication
            X509v3 Key Usage: 
                Digital Signature, Key Encipherment
            X509v3 Subject Alternative Name: 
                DNS:team87-server
    Signature Algorithm: sha256WithRSAEncryption
         98:e6:4a:9b:70:e3:22:b8:a8:77:f4:c9:db:28:7f:9d:05:a9:
         2c:19:93:8d:2b:46:ab:8c:f2:bb:85:a7:1a:d8:75:05:84:c9:
         91:56:5e:2e:7e:b4:fc:44:40:4a:85:2e:4f:73:33:c3:c4:eb:
         a4:b2:7d:ae:ba:0b:45:29:28:0c:8d:cb:1f:94:93:a4:b5:99:
         23:19:cc:c6:aa:3b:ab:8c:50:ab:2b:d8:8c:c4:f4:5f:c4:b6:
         c5:60:2c:df:55:03:59:48:f5:0f:33:95:26:4d:2d:54:33:57:
         47:ce:58:d7:48:e0:48:31:02:a0:e7:76:ab:d5:51:80:1c:81:
         e7:b6:14:16:4d:25:40:aa:ea:e4:95:f9:06:93:46:0e:6d:92:
         f5:d5:88:65:f3:11:a4:4a:07:76:65:36:1b:48:10:c4:85:d7:
         cb:d2:23:b4:68:ed:53:b9:96:23:1f:c9:fc:4e:15:5f:55:0c:
         81:fc:8f:75:89:7f:5c:00:1b:09:12:ba:33:81:b3:2b:8c:99:
         cf:11:1f:46:de:48:8b:f6:8e:5e:02:b4:85:4f:61:33:00:c5:
         47:27:35:88:95:38:e5:79:14:76:c2:35:ed:ec:37:e5:b4:25:
         26:83:13:bc:f8:98:ee:41:54:2b:78:0f:22:1e:94:9d:42:08:
         1d:06:a2:53
-----BEGIN CERTIFICATE-----
MIIDczCCAlugAwIBAgIQOdU1f+6R71F5MzG1XqcrcTANBgkqhkiG9w0BAQsFADAV
MRMwEQYDVQQDDAp0ZWFtODctbmV0MB4XDTIzMDgxNDE0MjQwMFoXDTI2MDcyOTE0
MjQwMFowGDEWMBQGA1UEAwwNdGVhbTg3LXNlcnZlcjCCASIwDQYJKoZIhvcNAQEB
BQADggEPADCCAQoCggEBAO5WALQ9HE0OCjXZhKH+nvZATl9Ht0tsXLZPa83OwEoU
RQWcSpvM9/+qIiV6lwVE+SfI+ZuK8u3CWq/QFgfwVMvwdJN6DTIET3oRrK8NVBkM
qgvi2TqSYgm1/LKs3zm1rWNRBXVVfyW0ltOt3+g9wU07JfJGk1Atcl5KYzmdGcK6
wzpd2riPkukeqSHw79rgG1s7WhI9EL3MOQHxuEiB4J++iEw6FFvibXbwE2Xx4sec
m8V1qoLj3HtAduA2MfFQTGwWzb+W07JD9vyg2zitzueiYl+SvPwBL1OiPGx42Brq
zS0LKCY+SKttFxXHP5MWh+pouMEclXyHJ5IyCZ9wYEsCAwEAAaOBuzCBuDAJBgNV
HRMEAjAAMB0GA1UdDgQWBBRlucgdbagPwpAonwBCa+6iSLesYjBQBgNVHSMESTBH
gBQTAyriqqkXsY6f1ajLeM3NfpPvk6EZpBcwFTETMBEGA1UEAwwKdGVhbTg3LW5l
dIIUORdTS+9TEyxUwozpAeJFxVLL+54wEwYDVR0lBAwwCgYIKwYBBQUHAwEwCwYD
VR0PBAQDAgWgMBgGA1UdEQQRMA+CDXRlYW04Ny1zZXJ2ZXIwDQYJKoZIhvcNAQEL
BQADggEBAJjmSptw4yK4qHf0ydsof50FqSwZk40rRquM8ruFpxrYdQWEyZFWXi5+
tPxEQEqFLk9zM8PE66Syfa66C0UpKAyNyx+Uk6S1mSMZzMaqO6uMUKsr2IzE9F/E
tsVgLN9VA1lI9Q8zlSZNLVQzV0fOWNdI4EgxAqDndqvVUYAcgee2FBZNJUCq6uSV
+QaTRg5tkvXViGXzEaRKB3ZlNhtIEMSF18vSI7Ro7VO5liMfyfxOFV9VDIH8j3WJ
f1wAGwkSujOBsyuMmc8RH0beSIv2jl4CtIVPYTMAxUcnNYiVOOV5FHbCNe3sN+W0
JSaDE7z4mO5BVCt4DyIelJ1CCB0GolM=
-----END CERTIFICATE-----
