Certificate:
    Data:
        Version: 3 (0x2)
        Serial Number:
            17:b2:9c:37:73:3f:e6:ec:2e:06:f9:1f:67:44:0b:a9
        Signature Algorithm: sha256WithRSAEncryption
        Issuer: CN=team105-net
        Validity
            Not Before: Aug 14 14:24:22 2023 GMT
            Not After : Jul 29 14:24:22 2026 GMT
        Subject: CN=team105-client
        Subject Public Key Info:
            Public Key Algorithm: rsaEncryption
                RSA Public-Key: (2048 bit)
                Modulus:
                    00:b3:47:18:04:c5:fd:a4:8c:51:32:20:fe:c2:72:
                    6c:24:fa:8e:b8:01:19:6f:a9:1c:bf:3b:11:4a:2b:
                    fe:62:1f:42:6b:99:ab:f5:39:1c:a0:10:2b:fe:97:
                    e0:bb:7f:3a:9c:f5:31:b7:56:26:d6:fe:fe:93:0b:
                    bb:bc:fe:dc:b5:d8:15:7a:e3:b5:5e:5a:eb:11:0e:
                    31:a8:ef:2f:a8:b1:e9:e4:7f:d1:24:8f:e1:80:43:
                    b1:c6:f0:63:68:0e:99:27:62:7a:34:08:13:0e:b6:
                    76:56:8c:55:6b:6d:ad:16:56:07:ba:f8:1d:56:d0:
                    69:5a:e3:5b:e2:c4:67:17:8f:69:bc:c1:34:47:1e:
                    9b:73:c0:ed:e1:9c:af:d8:59:fe:3c:41:e4:51:d3:
                    3d:f0:36:1b:ee:7f:7e:cd:98:8b:f9:e5:c5:cc:31:
                    5e:32:c0:ce:c4:57:07:c9:02:cc:a6:fb:d6:17:09:
                    f5:97:ac:6d:8f:57:82:c5:78:9b:c1:66:3a:be:84:
                    6e:b8:37:e0:55:8a:e0:b3:17:81:e6:9e:32:83:c7:
                    32:3f:9a:61:31:1d:17:b3:6f:2b:95:08:24:13:31:
                    2e:3a:84:d7:20:ec:21:39:ff:c8:37:62:09:f4:aa:
                    c3:34:be:ae:6e:7b:da:e8:95:01:1b:20:70:94:7e:
                    3f:81
                Exponent: 65537 (0x10001)
        X509v3 extensions:
            X509v3 Basic Constraints: 
                CA:FALSE
            X509v3 Subject Key Identifier: 
                72:B0:51:5D:FA:0A:74:F7:9E:F2:B3:DC:F6:FC:0B:2D:41:37:30:9F
            X509v3 Authority Key Identifier: 
                keyid:AB:47:69:1D:67:A2:48:E7:00:D5:24:08:6F:5F:FE:54:81:0A:68:C9
                DirName:/CN=team105-net
                serial:6B:27:A8:E3:AD:24:7D:FE:46:BB:EC:1E:98:94:88:48:75:2C:47:BB

            X509v3 Extended Key Usage: 
                TLS Web Client Authentication
            X509v3 Key Usage: 
                Digital Signature
    Signature Algorithm: sha256WithRSAEncryption
         13:07:37:cb:bc:30:c8:79:a0:43:b5:ef:58:b5:9a:52:e4:f1:
         7e:87:34:e9:55:fb:4d:13:d2:bc:39:03:8f:58:09:50:6e:42:
         90:eb:3b:b4:62:0d:f1:1d:8f:62:5e:31:18:2a:ef:0d:88:92:
         17:30:93:a7:5b:10:e0:bc:e0:bd:f4:e5:f5:77:9d:73:1e:f1:
         23:90:c2:42:d5:40:d0:4c:c4:52:a1:c5:1d:48:5d:b6:56:81:
         8a:f6:8f:9b:32:91:b2:35:f1:39:05:44:c7:3b:d5:46:79:ca:
         47:71:4e:52:3e:d9:19:61:4d:9b:ae:2e:b7:41:78:dc:e7:da:
         f2:56:9a:71:64:d1:eb:e5:f8:de:b2:58:dc:06:0d:06:85:2d:
         a0:dd:47:92:a9:44:5a:c8:7b:91:fe:3c:60:db:14:6e:7a:2c:
         9f:b3:82:cc:c6:3c:1c:32:b2:89:b3:b7:3b:a1:9b:a0:83:77:
         08:98:6c:18:44:ab:7e:07:15:ef:a0:e2:49:0a:e2:7d:1c:d7:
         24:39:59:7b:39:e8:a2:0c:ef:c0:af:4d:6b:1b:58:9b:05:a4:
         3c:04:b4:b0:a7:c2:35:0e:cb:26:ac:fa:b9:0c:8c:0f:ca:3c:
         3c:32:ef:5d:89:bf:b1:1c:4f:7d:c9:79:f6:7c:a6:79:56:d8:
         53:5f:ac:ec
-----BEGIN CERTIFICATE-----
MIIDXDCCAkSgAwIBAgIQF7KcN3M/5uwuBvkfZ0QLqTANBgkqhkiG9w0BAQsFADAW
MRQwEgYDVQQDDAt0ZWFtMTA1LW5ldDAeFw0yMzA4MTQxNDI0MjJaFw0yNjA3Mjkx
NDI0MjJaMBkxFzAVBgNVBAMMDnRlYW0xMDUtY2xpZW50MIIBIjANBgkqhkiG9w0B
AQEFAAOCAQ8AMIIBCgKCAQEAs0cYBMX9pIxRMiD+wnJsJPqOuAEZb6kcvzsRSiv+
Yh9Ca5mr9TkcoBAr/pfgu386nPUxt1Ym1v7+kwu7vP7ctdgVeuO1XlrrEQ4xqO8v
qLHp5H/RJI/hgEOxxvBjaA6ZJ2J6NAgTDrZ2VoxVa22tFlYHuvgdVtBpWuNb4sRn
F49pvME0Rx6bc8Dt4Zyv2Fn+PEHkUdM98DYb7n9+zZiL+eXFzDFeMsDOxFcHyQLM
pvvWFwn1l6xtj1eCxXibwWY6voRuuDfgVYrgsxeB5p4yg8cyP5phMR0Xs28rlQgk
EzEuOoTXIOwhOf/IN2IJ9KrDNL6ubnva6JUBGyBwlH4/gQIDAQABo4GiMIGfMAkG
A1UdEwQCMAAwHQYDVR0OBBYEFHKwUV36CnT3nvKz3Pb8Cy1BNzCfMFEGA1UdIwRK
MEiAFKtHaR1nokjnANUkCG9f/lSBCmjJoRqkGDAWMRQwEgYDVQQDDAt0ZWFtMTA1
LW5ldIIUayeo460kff5Gu+wemJSISHUsR7swEwYDVR0lBAwwCgYIKwYBBQUHAwIw
CwYDVR0PBAQDAgeAMA0GCSqGSIb3DQEBCwUAA4IBAQATBzfLvDDIeaBDte9YtZpS
5PF+hzTpVftNE9K8OQOPWAlQbkKQ6zu0Yg3xHY9iXjEYKu8NiJIXMJOnWxDgvOC9
9OX1d51zHvEjkMJC1UDQTMRSocUdSF22VoGK9o+bMpGyNfE5BUTHO9VGecpHcU5S
PtkZYU2bri63QXjc59ryVppxZNHr5fjesljcBg0GhS2g3UeSqURayHuR/jxg2xRu
eiyfs4LMxjwcMrKJs7c7oZugg3cImGwYRKt+BxXvoOJJCuJ9HNckOVl7OeiiDO/A
r01rG1ibBaQ8BLSwp8I1DssmrPq5DIwPyjw8Mu9dib+xHE99yXn2fKZ5VthTX6zs
-----END CERTIFICATE-----
