Certificate:
    Data:
        Version: 3 (0x2)
        Serial Number:
            78:2d:e4:af:1e:b2:6a:5b:a4:ea:a2:4d:43:85:ba:9a
        Signature Algorithm: sha256WithRSAEncryption
        Issuer: CN=team150-net
        Validity
            Not Before: Aug 14 14:25:23 2023 GMT
            Not After : Jul 29 14:25:23 2026 GMT
        Subject: CN=team150-server
        Subject Public Key Info:
            Public Key Algorithm: rsaEncryption
                RSA Public-Key: (2048 bit)
                Modulus:
                    00:b5:47:cd:48:c6:5e:a5:e1:17:ba:1f:58:2d:14:
                    22:1c:c0:c5:fe:ae:d9:e5:0e:fa:15:99:a6:0c:f0:
                    e2:fb:1a:b2:00:03:45:90:f3:5a:89:92:c0:64:48:
                    fd:34:96:92:8d:54:4a:49:9c:4d:e9:6e:a5:b3:84:
                    71:cb:a2:65:fd:04:ea:4e:dc:e4:09:12:87:22:f2:
                    4d:25:a4:45:38:01:33:e7:4c:2d:71:b8:9e:44:08:
                    dc:51:a6:d5:e3:67:6a:19:88:9c:6f:25:18:ae:84:
                    40:e4:fa:a6:6f:d9:eb:5f:fd:a4:96:6c:d0:39:14:
                    1c:56:2a:51:4a:8c:ae:ca:bf:d2:3d:d7:a2:1e:b2:
                    27:04:20:9a:74:61:93:a2:06:ff:67:b0:f8:01:b9:
                    3d:66:e0:34:04:0b:24:89:ad:11:9e:ec:d2:86:b3:
                    47:24:5e:2a:e2:6f:d0:b8:c0:bd:b4:65:dd:1e:87:
                    46:85:67:c6:20:a2:a4:f1:5e:2f:96:cd:01:61:45:
                    07:52:49:39:dc:22:22:91:e7:c4:6b:91:fd:fd:e6:
                    80:44:68:74:d5:eb:14:8a:46:ad:1d:84:b4:d1:d4:
                    92:74:f4:bb:79:80:28:09:6b:21:0d:0c:43:76:77:
                    cd:ec:a6:23:b8:4f:cd:fa:8b:c7:52:93:37:97:13:
                    df:55
                Exponent: 65537 (0x10001)
        X509v3 extensions:
            X509v3 Basic Constraints: 
                CA:FALSE
            X509v3 Subject Key Identifier: 
                77:18:7A:96:DA:D0:2B:95:EA:D9:29:F5:9D:D6:A9:86:78:33:62:26
            X509v3 Authority Key Identifier: 
                keyid:23:01:A1:80:DA:5B:93:93:D1:D6:0F:3B:49:41:F4:A4:55:75:1F:B1
                DirName:/CN=team150-net
                serial:5D:B2:E0:30:DD:22:23:03:BB:37:84:90:71:B8:C9:AE:6D:1B:FF:91

            X509v3 Extended Key Usage: 
                TLS Web Server Authentication
            X509v3 Key Usage: 
                Digital Signature, Key Encipherment
            X509v3 Subject Alternative Name: 
                DNS:team150-server
    Signature Algorithm: sha256WithRSAEncryption
         05:1f:56:2e:c3:4e:52:c2:ca:f0:d0:ab:03:9b:5d:07:23:f8:
         44:cc:94:48:fe:ec:1d:7b:8f:32:6f:30:b8:4e:f2:7e:1e:58:
         2b:c0:b0:a3:dc:d1:b5:f9:b0:56:1d:a2:10:6b:a9:df:27:cc:
         fd:af:96:ad:97:ed:0f:7a:ff:28:e6:10:f4:87:fd:a6:0e:76:
         84:1a:19:91:b8:4c:18:fe:60:5a:63:0a:c2:03:d5:08:42:9c:
         17:c9:be:5f:cd:14:33:36:fe:63:e3:18:ee:5d:66:7e:25:5b:
         1f:a2:6c:76:42:87:9b:56:ad:ca:45:d9:02:29:78:b3:35:5f:
         47:f1:00:b3:e6:8c:dc:2d:aa:c9:da:08:33:f3:20:d3:8d:f5:
         09:43:08:f6:d2:fb:80:52:61:a3:ed:95:7a:d7:88:0e:b9:fe:
         ac:86:06:d4:53:c2:6e:04:db:63:d3:93:84:cc:58:b8:bf:9f:
         e0:e9:b2:01:2f:e6:7b:92:9a:de:d2:43:c0:15:22:8e:cc:f4:
         75:9a:1a:9d:b3:33:09:9e:26:2d:6c:51:bf:86:64:2a:84:ce:
         f6:5d:93:91:52:38:4b:1b:dd:9a:c1:b6:ce:f5:29:99:13:d9:
         8c:53:75:2b:8b:82:d2:e5:f9:29:2f:e4:65:46:dd:db:68:ff:
         0f:12:94:6a
-----BEGIN CERTIFICATE-----
MIIDdzCCAl+gAwIBAgIQeC3krx6yaluk6qJNQ4W6mjANBgkqhkiG9w0BAQsFADAW
MRQwEgYDVQQDDAt0ZWFtMTUwLW5ldDAeFw0yMzA4MTQxNDI1MjNaFw0yNjA3Mjkx
NDI1MjNaMBkxFzAVBgNVBAMMDnRlYW0xNTAtc2VydmVyMIIBIjANBgkqhkiG9w0B
AQEFAAOCAQ8AMIIBCgKCAQEAtUfNSMZepeEXuh9YLRQiHMDF/q7Z5Q76FZmmDPDi
+xqyAANFkPNaiZLAZEj9NJaSjVRKSZxN6W6ls4Rxy6Jl/QTqTtzkCRKHIvJNJaRF
OAEz50wtcbieRAjcUabV42dqGYicbyUYroRA5Pqmb9nrX/2klmzQORQcVipRSoyu
yr/SPdeiHrInBCCadGGTogb/Z7D4Abk9ZuA0BAskia0RnuzShrNHJF4q4m/QuMC9
tGXdHodGhWfGIKKk8V4vls0BYUUHUkk53CIikefEa5H9/eaARGh01esUikatHYS0
0dSSdPS7eYAoCWshDQxDdnfN7KYjuE/N+ovHUpM3lxPfVQIDAQABo4G9MIG6MAkG
A1UdEwQCMAAwHQYDVR0OBBYEFHcYepba0CuV6tkp9Z3WqYZ4M2ImMFEGA1UdIwRK
MEiAFCMBoYDaW5OT0dYPO0lB9KRVdR+xoRqkGDAWMRQwEgYDVQQDDAt0ZWFtMTUw
LW5ldIIUXbLgMN0iIwO7N4SQcbjJrm0b/5EwEwYDVR0lBAwwCgYIKwYBBQUHAwEw
CwYDVR0PBAQDAgWgMBkGA1UdEQQSMBCCDnRlYW0xNTAtc2VydmVyMA0GCSqGSIb3
DQEBCwUAA4IBAQAFH1Yuw05Swsrw0KsDm10HI/hEzJRI/uwde48ybzC4TvJ+Hlgr
wLCj3NG1+bBWHaIQa6nfJ8z9r5atl+0Pev8o5hD0h/2mDnaEGhmRuEwY/mBaYwrC
A9UIQpwXyb5fzRQzNv5j4xjuXWZ+JVsfomx2QoebVq3KRdkCKXizNV9H8QCz5ozc
LarJ2ggz8yDTjfUJQwj20vuAUmGj7ZV614gOuf6shgbUU8JuBNtj05OEzFi4v5/g
6bIBL+Z7kpre0kPAFSKOzPR1mhqdszMJniYtbFG/hmQqhM72XZORUjhLG92awbbO
9SmZE9mMU3Uri4LS5fkpL+RlRt3baP8PEpRq
-----END CERTIFICATE-----
