Certificate:
    Data:
        Version: 3 (0x2)
        Serial Number:
            9f:4f:b5:66:aa:71:f4:8e:4b:95:57:5c:33:57:43:8c
        Signature Algorithm: sha256WithRSAEncryption
        Issuer: CN=team226-net
        Validity
            Not Before: Aug 14 14:26:51 2023 GMT
            Not After : Jul 29 14:26:51 2026 GMT
        Subject: CN=team226-server
        Subject Public Key Info:
            Public Key Algorithm: rsaEncryption
                RSA Public-Key: (2048 bit)
                Modulus:
                    00:c1:0e:48:88:37:c6:f1:49:cc:ac:43:96:07:2c:
                    f4:86:de:b7:68:8c:69:40:fa:79:60:c5:ed:b9:8c:
                    da:31:e9:4a:e8:40:9a:8e:aa:b1:c1:61:c4:00:13:
                    78:38:c3:76:7d:13:7e:7c:37:dd:0c:85:f3:68:17:
                    e5:a4:1e:93:60:fe:5b:27:cf:ae:cf:16:72:dc:4a:
                    b3:d9:07:4c:e4:11:5e:a0:d8:7f:91:06:fe:e6:16:
                    e0:fa:a2:b6:ac:dc:43:8f:cc:44:89:b7:48:c0:e3:
                    42:b5:b3:94:fe:25:f9:d2:43:ce:4f:b0:26:84:85:
                    62:1a:b8:0d:23:db:55:2d:84:15:03:3e:69:98:09:
                    4a:f0:a4:d5:26:55:8d:e3:2c:ea:d8:c5:3e:0c:94:
                    25:4d:5e:ed:14:71:5c:5c:78:9c:fe:dc:52:c7:95:
                    2e:57:ab:55:92:43:8b:56:86:c8:08:dc:ce:df:9b:
                    7b:c7:16:f2:c2:dc:ff:59:b8:b9:b5:1c:2b:32:55:
                    d8:fc:ae:34:82:23:5f:4b:68:81:c8:ec:aa:25:c1:
                    56:b1:16:9a:ff:63:8d:11:ed:cb:e1:b1:7f:6c:ec:
                    a9:b4:22:a2:09:86:51:55:01:47:37:4a:3b:b9:dc:
                    e0:07:54:32:ec:b9:af:60:70:56:31:0c:c4:d2:87:
                    ac:c9
                Exponent: 65537 (0x10001)
        X509v3 extensions:
            X509v3 Basic Constraints: 
                CA:FALSE
            X509v3 Subject Key Identifier: 
                AF:71:16:9B:94:E9:6F:5B:87:AD:6B:1D:C7:E6:DE:52:F4:68:93:28
            X509v3 Authority Key Identifier: 
                keyid:18:7F:56:FF:5A:47:AC:E5:06:2E:F4:E7:04:EA:48:6F:78:26:21:C8
                DirName:/CN=team226-net
                serial:49:98:05:DD:22:D5:C2:54:FD:F6:92:B0:C4:49:C9:66:3F:3C:5F:FC

            X509v3 Extended Key Usage: 
                TLS Web Server Authentication
            X509v3 Key Usage: 
                Digital Signature, Key Encipherment
            X509v3 Subject Alternative Name: 
                DNS:team226-server
    Signature Algorithm: sha256WithRSAEncryption
         17:ce:52:55:d4:a3:26:8b:97:98:aa:e8:cc:9d:a8:be:aa:15:
         c2:f0:d2:6d:2f:bf:da:83:92:cc:e2:7e:a6:ad:36:15:e6:5a:
         be:17:7e:bb:ac:a9:2f:69:26:9d:e4:a3:30:b8:4b:7e:58:51:
         93:74:f0:25:70:3a:68:f5:18:9d:92:9c:5b:c8:0c:6f:b7:5c:
         01:67:0f:98:96:04:74:ec:a0:f7:96:b2:81:4b:fd:c8:32:67:
         fd:0f:73:70:d5:03:d4:b1:bb:24:6d:0d:a4:ec:fa:d6:a8:9b:
         73:68:d8:28:e0:0d:8f:4b:1d:39:aa:31:96:a4:b2:a2:77:c8:
         21:21:a7:4a:f3:2a:85:40:ae:03:de:63:95:9c:eb:fa:3a:9d:
         79:ad:db:f7:ba:0f:3a:d0:cc:8f:b0:5b:c3:88:55:88:d9:70:
         6b:0d:d7:d0:0c:e4:75:de:e7:23:b8:6f:ca:fb:9b:7d:64:6e:
         a6:9d:92:48:09:23:42:4e:a5:17:e5:a6:cc:64:84:cc:06:6e:
         81:ca:d6:33:02:94:73:96:8e:16:0f:af:96:48:11:e1:48:0f:
         a9:7c:1a:26:61:52:c3:49:8c:71:e9:c0:71:3e:ea:3f:57:14:
         35:ce:d0:60:3f:26:66:bf:44:87:dc:79:8e:75:a5:fd:0a:66:
         c8:81:a7:1d
-----BEGIN CERTIFICATE-----
MIIDeDCCAmCgAwIBAgIRAJ9PtWaqcfSOS5VXXDNXQ4wwDQYJKoZIhvcNAQELBQAw
FjEUMBIGA1UEAwwLdGVhbTIyNi1uZXQwHhcNMjMwODE0MTQyNjUxWhcNMjYwNzI5
MTQyNjUxWjAZMRcwFQYDVQQDDA50ZWFtMjI2LXNlcnZlcjCCASIwDQYJKoZIhvcN
AQEBBQADggEPADCCAQoCggEBAMEOSIg3xvFJzKxDlgcs9Ibet2iMaUD6eWDF7bmM
2jHpSuhAmo6qscFhxAATeDjDdn0Tfnw33QyF82gX5aQek2D+WyfPrs8WctxKs9kH
TOQRXqDYf5EG/uYW4PqitqzcQ4/MRIm3SMDjQrWzlP4l+dJDzk+wJoSFYhq4DSPb
VS2EFQM+aZgJSvCk1SZVjeMs6tjFPgyUJU1e7RRxXFx4nP7cUseVLlerVZJDi1aG
yAjczt+be8cW8sLc/1m4ubUcKzJV2PyuNIIjX0togcjsqiXBVrEWmv9jjRHty+Gx
f2zsqbQiogmGUVUBRzdKO7nc4AdUMuy5r2BwVjEMxNKHrMkCAwEAAaOBvTCBujAJ
BgNVHRMEAjAAMB0GA1UdDgQWBBSvcRablOlvW4etax3H5t5S9GiTKDBRBgNVHSME
SjBIgBQYf1b/Wkes5QYu9OcE6khveCYhyKEapBgwFjEUMBIGA1UEAwwLdGVhbTIy
Ni1uZXSCFEmYBd0i1cJU/faSsMRJyWY/PF/8MBMGA1UdJQQMMAoGCCsGAQUFBwMB
MAsGA1UdDwQEAwIFoDAZBgNVHREEEjAQgg50ZWFtMjI2LXNlcnZlcjANBgkqhkiG
9w0BAQsFAAOCAQEAF85SVdSjJouXmKrozJ2ovqoVwvDSbS+/2oOSzOJ+pq02FeZa
vhd+u6ypL2kmneSjMLhLflhRk3TwJXA6aPUYnZKcW8gMb7dcAWcPmJYEdOyg95ay
gUv9yDJn/Q9zcNUD1LG7JG0NpOz61qibc2jYKOANj0sdOaoxlqSyonfIISGnSvMq
hUCuA95jlZzr+jqdea3b97oPOtDMj7Bbw4hViNlwaw3X0Azkdd7nI7hvyvubfWRu
pp2SSAkjQk6lF+WmzGSEzAZugcrWMwKUc5aOFg+vlkgR4UgPqXwaJmFSw0mMcenA
cT7qP1cUNc7QYD8mZr9Eh9x5jnWl/QpmyIGnHQ==
-----END CERTIFICATE-----
