Certificate:
    Data:
        Version: 3 (0x2)
        Serial Number:
            0c:1c:f2:62:c9:be:d5:c0:aa:4c:6c:b3:6f:dc:e3:9a
        Signature Algorithm: sha256WithRSAEncryption
        Issuer: CN=team49-net
        Validity
            Not Before: Aug 14 14:23:11 2023 GMT
            Not After : Jul 29 14:23:11 2026 GMT
        Subject: CN=team49-client
        Subject Public Key Info:
            Public Key Algorithm: rsaEncryption
                RSA Public-Key: (2048 bit)
                Modulus:
                    00:c9:fc:18:00:2a:be:fb:3c:2e:a5:0d:9e:2c:02:
                    fe:d9:30:8e:f3:d6:e8:90:fe:82:f3:53:fc:28:fb:
                    e1:c4:b6:5d:72:f0:1e:e6:2c:8f:99:dd:1a:cc:ce:
                    a6:d0:30:a9:97:33:19:06:2c:c8:76:12:98:4a:01:
                    c4:fa:9e:49:2a:a2:98:23:95:77:95:b0:76:a6:5c:
                    80:11:ec:5e:ef:2a:9e:d4:d5:48:4b:27:8c:83:bf:
                    09:c5:a8:cb:4d:0a:b3:22:b5:a3:25:d1:af:af:df:
                    8a:b3:47:3c:a7:da:56:52:0d:37:bd:7d:59:52:5e:
                    97:38:38:d6:4c:c4:5c:06:e1:bc:46:70:83:66:94:
                    48:27:15:db:45:71:b9:7b:3b:26:74:40:49:8c:76:
                    4f:d8:49:39:87:3c:30:5b:22:f1:a8:1f:d0:11:ea:
                    85:4d:f6:8e:11:8d:45:be:32:6d:6d:83:f3:56:11:
                    82:32:a4:3c:07:fa:42:8d:94:78:94:d8:05:8b:46:
                    12:d3:d9:6c:a2:9a:66:9f:1f:dc:1f:ad:da:05:55:
                    68:a3:6b:e8:be:10:83:00:1c:0b:ac:1a:88:e6:80:
                    3e:c1:bd:32:4a:02:b4:e4:bb:5a:19:f0:79:aa:1e:
                    7c:91:ee:8b:3d:b9:47:80:94:17:55:b8:2e:1b:61:
                    66:15
                Exponent: 65537 (0x10001)
        X509v3 extensions:
            X509v3 Basic Constraints: 
                CA:FALSE
            X509v3 Subject Key Identifier: 
                9B:6E:AC:2A:A2:FD:3E:2E:4D:11:FC:D8:D5:39:51:D0:25:C1:AB:DF
            X509v3 Authority Key Identifier: 
                keyid:6C:FB:42:77:1C:61:7A:F2:4B:DA:9C:A7:25:D6:1B:34:9D:48:9A:8D
                DirName:/CN=team49-net
                serial:7E:20:4D:E5:26:2C:7D:7E:D4:0C:04:2E:65:BE:F2:47:EF:B6:70:77

            X509v3 Extended Key Usage: 
                TLS Web Client Authentication
            X509v3 Key Usage: 
                Digital Signature
    Signature Algorithm: sha256WithRSAEncryption
         3f:07:d4:4d:c0:9e:85:a7:79:68:19:bb:c2:55:e6:27:ea:d8:
         74:b0:98:9f:d5:1d:16:a4:91:a6:59:e0:cc:64:76:84:46:e4:
         35:f4:26:45:dd:e0:77:e9:42:cf:1d:88:2c:3a:b4:54:bc:43:
         8b:63:b7:cd:ae:7e:26:62:a8:2e:93:7f:db:86:47:00:d5:46:
         8e:c3:30:b9:5c:84:5d:e6:10:19:74:dd:71:a1:95:2d:16:9a:
         72:ee:29:fc:d4:f3:df:fc:ef:9b:8e:ff:5b:43:f2:2d:d6:d4:
         69:90:12:d8:67:e9:5a:94:d7:64:32:b6:b1:ab:f4:de:12:75:
         e3:0f:53:37:d3:fd:30:6b:f2:38:e8:a2:ef:07:08:a9:52:7a:
         f1:bf:23:48:a9:d6:4c:6d:d3:a5:46:d3:75:44:c4:cd:9b:78:
         3f:a3:6e:9d:54:38:5a:24:c2:d9:22:30:a8:a5:f1:b1:d9:73:
         f9:3e:18:14:0d:bd:9b:84:64:7a:75:8e:1d:44:b1:d0:06:e9:
         d2:d8:fe:56:3a:38:69:71:8c:ec:1a:a0:33:96:0c:71:34:58:
         25:b9:4d:62:e9:dd:29:37:a5:52:68:d7:67:b3:ec:cf:d4:b6:
         5e:51:34:f0:7b:1d:bb:ea:4b:2f:37:b3:d2:a0:e3:48:17:41:
         48:cc:18:34
-----BEGIN CERTIFICATE-----
MIIDWTCCAkGgAwIBAgIQDBzyYsm+1cCqTGyzb9zjmjANBgkqhkiG9w0BAQsFADAV
MRMwEQYDVQQDDAp0ZWFtNDktbmV0MB4XDTIzMDgxNDE0MjMxMVoXDTI2MDcyOTE0
MjMxMVowGDEWMBQGA1UEAwwNdGVhbTQ5LWNsaWVudDCCASIwDQYJKoZIhvcNAQEB
BQADggEPADCCAQoCggEBAMn8GAAqvvs8LqUNniwC/tkwjvPW6JD+gvNT/Cj74cS2
XXLwHuYsj5ndGszOptAwqZczGQYsyHYSmEoBxPqeSSqimCOVd5WwdqZcgBHsXu8q
ntTVSEsnjIO/CcWoy00KsyK1oyXRr6/firNHPKfaVlINN719WVJelzg41kzEXAbh
vEZwg2aUSCcV20VxuXs7JnRASYx2T9hJOYc8MFsi8agf0BHqhU32jhGNRb4ybW2D
81YRgjKkPAf6Qo2UeJTYBYtGEtPZbKKaZp8f3B+t2gVVaKNr6L4QgwAcC6waiOaA
PsG9MkoCtOS7WhnweaoefJHuiz25R4CUF1W4LhthZhUCAwEAAaOBoTCBnjAJBgNV
HRMEAjAAMB0GA1UdDgQWBBSbbqwqov0+Lk0R/NjVOVHQJcGr3zBQBgNVHSMESTBH
gBRs+0J3HGF68kvanKcl1hs0nUiajaEZpBcwFTETMBEGA1UEAwwKdGVhbTQ5LW5l
dIIUfiBN5SYsfX7UDAQuZb7yR++2cHcwEwYDVR0lBAwwCgYIKwYBBQUHAwIwCwYD
VR0PBAQDAgeAMA0GCSqGSIb3DQEBCwUAA4IBAQA/B9RNwJ6Fp3loGbvCVeYn6th0
sJif1R0WpJGmWeDMZHaERuQ19CZF3eB36ULPHYgsOrRUvEOLY7fNrn4mYqguk3/b
hkcA1UaOwzC5XIRd5hAZdN1xoZUtFppy7in81PPf/O+bjv9bQ/It1tRpkBLYZ+la
lNdkMraxq/TeEnXjD1M30/0wa/I46KLvBwipUnrxvyNIqdZMbdOlRtN1RMTNm3g/
o26dVDhaJMLZIjCopfGx2XP5PhgUDb2bhGR6dY4dRLHQBunS2P5WOjhpcYzsGqAz
lgxxNFgluU1i6d0pN6VSaNdns+zP1LZeUTTwex276ksvN7PSoONIF0FIzBg0
-----END CERTIFICATE-----
