Certificate:
    Data:
        Version: 3 (0x2)
        Serial Number:
            ea:9a:88:3d:51:2b:47:67:83:9e:20:e8:c9:35:b2:8f
        Signature Algorithm: sha256WithRSAEncryption
        Issuer: CN=team255-net
        Validity
            Not Before: Aug 14 14:27:27 2023 GMT
            Not After : Jul 29 14:27:27 2026 GMT
        Subject: CN=team255-client
        Subject Public Key Info:
            Public Key Algorithm: rsaEncryption
                RSA Public-Key: (2048 bit)
                Modulus:
                    00:ba:8d:34:cb:1d:9f:a9:a2:bd:14:e2:b0:d9:82:
                    2e:1d:f3:af:8c:7a:f3:e4:2a:2a:0e:aa:6b:22:5c:
                    6e:a8:a3:10:d4:24:46:47:81:1b:fa:ef:cb:70:08:
                    e9:04:58:a9:a3:4d:c7:f8:70:54:45:26:56:f9:6e:
                    7c:70:7d:88:81:58:eb:37:be:af:c7:ec:bb:e5:86:
                    f4:74:09:bf:4c:c0:16:c4:4d:fa:28:87:a6:48:43:
                    4f:6f:4c:16:30:69:bd:4f:b5:8c:59:ab:a4:a2:c1:
                    37:34:1c:c1:43:f0:13:ff:9f:fd:59:20:cd:0a:86:
                    cc:fc:19:38:b9:06:de:3f:21:8e:3d:00:b5:cb:0f:
                    9f:32:83:17:9a:dc:2f:ce:ad:9f:41:9f:86:10:c4:
                    0c:c8:87:7f:64:83:f4:99:82:70:bf:7b:a7:21:0e:
                    0a:fc:fa:d0:12:e9:0e:e6:4f:72:61:0f:2f:fa:e3:
                    c1:73:be:30:96:ad:7a:b8:8b:c6:28:92:63:df:11:
                    ee:0e:61:0d:af:cd:58:e3:0c:6b:8d:09:a7:dd:0b:
                    f1:99:15:f8:96:14:61:96:89:fd:27:07:6c:80:5b:
                    32:fd:ae:e6:48:89:3d:df:46:c3:a4:4a:fa:5d:af:
                    32:be:df:e8:4b:eb:e5:cd:80:ca:0b:6d:f4:12:88:
                    83:91
                Exponent: 65537 (0x10001)
        X509v3 extensions:
            X509v3 Basic Constraints: 
                CA:FALSE
            X509v3 Subject Key Identifier: 
                3E:1B:33:BD:01:C0:F6:41:8F:E0:A0:43:10:88:54:4B:4D:BA:1D:A5
            X509v3 Authority Key Identifier: 
                keyid:37:64:C3:F3:E7:70:B6:EE:8F:BC:1B:CD:2B:8D:BA:5A:F6:1A:89:C7
                DirName:/CN=team255-net
                serial:7C:38:DD:B2:F4:44:A8:1D:6F:10:D1:FD:EB:6F:4F:98:4F:AA:E9:4C

            X509v3 Extended Key Usage: 
                TLS Web Client Authentication
            X509v3 Key Usage: 
                Digital Signature
    Signature Algorithm: sha256WithRSAEncryption
         0c:15:0f:4b:41:43:48:b2:fe:0f:72:7d:44:7e:69:49:f7:89:
         cd:0b:17:12:a9:26:1c:ec:21:95:78:ea:b7:76:92:3f:20:6e:
         ba:f3:3e:3e:0a:43:9f:6f:ea:33:e4:51:33:3f:6d:03:b6:cc:
         f0:07:fb:5f:fd:c0:4d:1e:9a:01:55:76:53:04:2b:88:e0:7e:
         fa:1a:b8:88:04:8b:1b:f5:3c:f7:0c:f5:42:a2:bd:e5:1c:8f:
         7d:74:cb:df:9f:ac:b0:b6:c4:23:1c:25:76:54:b8:bb:af:7f:
         bd:a6:50:4f:06:87:d8:ec:ec:33:2a:22:dd:4a:4d:74:39:6f:
         0b:b9:88:75:46:07:e4:69:41:ae:55:d3:c9:ef:9d:de:dc:52:
         7b:8a:82:c9:23:39:79:f0:23:36:54:f6:37:b2:53:d5:fb:f2:
         64:7e:b8:bc:2b:cd:94:54:c8:f4:a6:09:b6:1f:7b:ed:cd:ac:
         e2:55:77:bf:2d:1f:d3:af:33:37:ab:a9:cb:01:e1:ef:43:e7:
         17:bf:ab:f2:6a:dd:6a:de:30:48:cd:d4:46:55:4f:6b:ca:c7:
         e5:5a:91:e4:95:be:58:a2:61:a2:97:07:7f:4d:da:ba:10:b8:
         e2:d5:4b:70:bd:6c:ce:cb:2f:ab:da:0c:29:b7:89:08:09:a0:
         29:4e:fe:c2
-----BEGIN CERTIFICATE-----
MIIDXTCCAkWgAwIBAgIRAOqaiD1RK0dng54g6Mk1so8wDQYJKoZIhvcNAQELBQAw
FjEUMBIGA1UEAwwLdGVhbTI1NS1uZXQwHhcNMjMwODE0MTQyNzI3WhcNMjYwNzI5
MTQyNzI3WjAZMRcwFQYDVQQDDA50ZWFtMjU1LWNsaWVudDCCASIwDQYJKoZIhvcN
AQEBBQADggEPADCCAQoCggEBALqNNMsdn6mivRTisNmCLh3zr4x68+QqKg6qayJc
bqijENQkRkeBG/rvy3AI6QRYqaNNx/hwVEUmVvlufHB9iIFY6ze+r8fsu+WG9HQJ
v0zAFsRN+iiHpkhDT29MFjBpvU+1jFmrpKLBNzQcwUPwE/+f/VkgzQqGzPwZOLkG
3j8hjj0AtcsPnzKDF5rcL86tn0GfhhDEDMiHf2SD9JmCcL97pyEOCvz60BLpDuZP
cmEPL/rjwXO+MJateriLxiiSY98R7g5hDa/NWOMMa40Jp90L8ZkV+JYUYZaJ/ScH
bIBbMv2u5kiJPd9Gw6RK+l2vMr7f6Evr5c2Aygtt9BKIg5ECAwEAAaOBojCBnzAJ
BgNVHRMEAjAAMB0GA1UdDgQWBBQ+GzO9AcD2QY/goEMQiFRLTbodpTBRBgNVHSME
SjBIgBQ3ZMPz53C27o+8G80rjbpa9hqJx6EapBgwFjEUMBIGA1UEAwwLdGVhbTI1
NS1uZXSCFHw43bL0RKgdbxDR/etvT5hPqulMMBMGA1UdJQQMMAoGCCsGAQUFBwMC
MAsGA1UdDwQEAwIHgDANBgkqhkiG9w0BAQsFAAOCAQEADBUPS0FDSLL+D3J9RH5p
SfeJzQsXEqkmHOwhlXjqt3aSPyBuuvM+PgpDn2/qM+RRMz9tA7bM8Af7X/3ATR6a
AVV2UwQriOB++hq4iASLG/U89wz1QqK95RyPfXTL35+ssLbEIxwldlS4u69/vaZQ
TwaH2OzsMyoi3UpNdDlvC7mIdUYH5GlBrlXTye+d3txSe4qCySM5efAjNlT2N7JT
1fvyZH64vCvNlFTI9KYJth977c2s4lV3vy0f068zN6upywHh70PnF7+r8mrdat4w
SM3URlVPa8rH5VqR5JW+WKJhopcHf03auhC44tVLcL1szssvq9oMKbeJCAmgKU7+
wg==
-----END CERTIFICATE-----
