Certificate:
    Data:
        Version: 3 (0x2)
        Serial Number:
            11:94:9f:04:f8:3b:07:f5:ec:b3:a6:40:85:0e:38:b7
        Signature Algorithm: sha256WithRSAEncryption
        Issuer: CN=team79-net
        Validity
            Not Before: Aug 14 14:23:49 2023 GMT
            Not After : Jul 29 14:23:49 2026 GMT
        Subject: CN=team79-server
        Subject Public Key Info:
            Public Key Algorithm: rsaEncryption
                RSA Public-Key: (2048 bit)
                Modulus:
                    00:c6:f5:13:aa:07:91:01:51:52:a8:6c:6c:4c:4d:
                    37:f4:2f:3e:30:be:da:46:1b:a7:da:ae:b7:37:ed:
                    cd:2c:96:50:07:5e:b7:5b:d6:4d:3a:88:b6:50:4d:
                    61:ef:fc:74:89:c5:d2:58:a3:90:5e:fa:14:ef:60:
                    af:c8:0f:a0:99:09:59:4a:4a:ef:bb:48:86:dd:e9:
                    9d:3d:11:65:36:ad:45:cb:7c:45:f8:bc:fd:c2:2b:
                    ee:0d:00:45:7d:8e:77:7d:2d:3c:cb:2a:ce:01:18:
                    80:7a:58:4a:d0:a6:75:96:5a:ff:d5:cd:2b:85:24:
                    3f:ed:72:c5:39:8b:84:98:77:2a:39:6d:db:e3:84:
                    fd:23:e3:c7:b9:9f:e9:6f:60:15:d1:f3:1b:1d:08:
                    97:fc:b1:70:d9:e8:a4:2c:cc:1e:cd:3b:0d:6b:34:
                    f3:41:ac:ce:a0:a3:de:73:8c:b4:cd:09:cf:fe:93:
                    c9:33:ac:fc:3c:3f:26:1d:52:75:13:3b:7f:9d:04:
                    d7:05:d8:df:08:c7:53:2d:78:0f:cd:55:00:d7:10:
                    4f:f2:60:97:ed:2c:0f:8d:7c:75:a6:2d:4c:2a:f9:
                    91:e6:49:43:37:13:86:ef:38:fe:a7:90:d0:bf:cc:
                    3f:37:a6:9f:a7:5f:8b:40:6b:a2:bb:0b:a8:13:af:
                    e9:17
                Exponent: 65537 (0x10001)
        X509v3 extensions:
            X509v3 Basic Constraints: 
                CA:FALSE
            X509v3 Subject Key Identifier: 
                53:80:EA:B1:53:22:75:FD:62:DA:7F:B8:31:18:1F:EF:20:91:6B:16
            X509v3 Authority Key Identifier: 
                keyid:84:F0:F6:27:AA:C7:C2:4C:F2:95:13:36:4F:B1:8E:75:10:6D:E3:65
                DirName:/CN=team79-net
                serial:0B:33:54:FB:E3:FB:47:73:AD:CA:89:03:21:B0:1E:4A:7A:7A:98:8F

            X509v3 Extended Key Usage: 
                TLS Web Server Authentication
            X509v3 Key Usage: 
                Digital Signature, Key Encipherment
            X509v3 Subject Alternative Name: 
                DNS:team79-server
    Signature Algorithm: sha256WithRSAEncryption
         0f:81:26:d4:d1:20:d3:f6:cb:91:28:dc:ad:f2:04:04:8c:e8:
         1c:48:7f:18:2e:41:2c:8c:da:54:40:79:01:e7:f9:c3:69:8a:
         4d:47:51:0f:b9:6b:f3:0a:b5:41:ab:24:69:42:a9:15:d2:07:
         fa:50:c0:08:9d:72:75:dc:93:cb:96:5a:36:f2:54:ed:1c:9f:
         88:8b:46:33:e7:59:c8:f4:c5:0d:76:18:7d:6e:d3:2a:8b:04:
         b2:46:ad:d5:97:52:32:c5:f7:17:5b:b4:fc:f2:8f:7f:c0:98:
         cb:38:5f:b2:4a:fd:d2:d0:9e:cd:d0:0f:68:49:d5:e6:a0:be:
         72:47:c6:b6:b7:44:d0:51:0d:c9:14:11:8a:fd:b2:f7:f9:00:
         da:24:c3:78:14:07:c4:7d:f6:2b:fa:92:d5:17:e9:29:09:23:
         97:71:47:1c:df:c2:5b:2f:c6:89:90:d7:13:31:4b:d0:65:d6:
         d7:3a:21:1e:ad:0b:a5:99:4a:de:b5:50:bb:49:7a:dc:e7:8c:
         11:77:a7:2d:03:7e:76:00:0d:5d:7d:c4:0a:04:64:2d:63:33:
         22:6b:88:f5:59:c8:95:fb:ca:d5:e4:ed:a0:66:8c:c8:ca:d7:
         6b:50:33:e6:ea:a3:82:04:cd:6b:d4:95:5e:cc:44:8d:e3:55:
         f7:7e:76:1d
-----BEGIN CERTIFICATE-----
MIIDczCCAlugAwIBAgIQEZSfBPg7B/Xss6ZAhQ44tzANBgkqhkiG9w0BAQsFADAV
MRMwEQYDVQQDDAp0ZWFtNzktbmV0MB4XDTIzMDgxNDE0MjM0OVoXDTI2MDcyOTE0
MjM0OVowGDEWMBQGA1UEAwwNdGVhbTc5LXNlcnZlcjCCASIwDQYJKoZIhvcNAQEB
BQADggEPADCCAQoCggEBAMb1E6oHkQFRUqhsbExNN/QvPjC+2kYbp9qutzftzSyW
UAdet1vWTTqItlBNYe/8dInF0lijkF76FO9gr8gPoJkJWUpK77tIht3pnT0RZTat
Rct8Rfi8/cIr7g0ARX2Od30tPMsqzgEYgHpYStCmdZZa/9XNK4UkP+1yxTmLhJh3
Kjlt2+OE/SPjx7mf6W9gFdHzGx0Il/yxcNnopCzMHs07DWs080GszqCj3nOMtM0J
z/6TyTOs/Dw/Jh1SdRM7f50E1wXY3wjHUy14D81VANcQT/Jgl+0sD418daYtTCr5
keZJQzcThu84/qeQ0L/MPzemn6dfi0BrorsLqBOv6RcCAwEAAaOBuzCBuDAJBgNV
HRMEAjAAMB0GA1UdDgQWBBRTgOqxUyJ1/WLaf7gxGB/vIJFrFjBQBgNVHSMESTBH
gBSE8PYnqsfCTPKVEzZPsY51EG3jZaEZpBcwFTETMBEGA1UEAwwKdGVhbTc5LW5l
dIIUCzNU++P7R3OtyokDIbAeSnp6mI8wEwYDVR0lBAwwCgYIKwYBBQUHAwEwCwYD
VR0PBAQDAgWgMBgGA1UdEQQRMA+CDXRlYW03OS1zZXJ2ZXIwDQYJKoZIhvcNAQEL
BQADggEBAA+BJtTRINP2y5Eo3K3yBASM6BxIfxguQSyM2lRAeQHn+cNpik1HUQ+5
a/MKtUGrJGlCqRXSB/pQwAidcnXck8uWWjbyVO0cn4iLRjPnWcj0xQ12GH1u0yqL
BLJGrdWXUjLF9xdbtPzyj3/AmMs4X7JK/dLQns3QD2hJ1eagvnJHxra3RNBRDckU
EYr9svf5ANokw3gUB8R99iv6ktUX6SkJI5dxRxzfwlsvxomQ1xMxS9Bl1tc6IR6t
C6WZSt61ULtJetznjBF3py0DfnYADV19xAoEZC1jMyJriPVZyJX7ytXk7aBmjMjK
12tQM+bqo4IEzWvUlV7MRI3jVfd+dh0=
-----END CERTIFICATE-----
