Certificate:
    Data:
        Version: 3 (0x2)
        Serial Number:
            34:3d:fe:a7:48:7c:fb:5c:d3:de:ff:5d:02:32:79:ce
        Signature Algorithm: sha256WithRSAEncryption
        Issuer: CN=team113-net
        Validity
            Not Before: Aug 14 14:24:35 2023 GMT
            Not After : Jul 29 14:24:35 2026 GMT
        Subject: CN=team113-server
        Subject Public Key Info:
            Public Key Algorithm: rsaEncryption
                RSA Public-Key: (2048 bit)
                Modulus:
                    00:de:66:30:b4:48:0e:ee:0b:ae:ff:fe:c1:83:bd:
                    6f:67:4f:9d:cb:fc:08:54:6f:ea:11:0d:82:6b:9d:
                    4c:5e:ed:4a:3f:e4:e0:41:2e:73:09:56:75:fe:e0:
                    e2:8e:5a:e8:ee:39:d7:39:76:4b:bd:d2:a3:59:f7:
                    75:8c:58:f9:44:dc:9b:98:b3:9a:36:6c:50:eb:a4:
                    35:a7:96:1e:1c:82:cd:eb:5b:3b:d3:95:04:73:13:
                    b9:69:21:ba:b5:3d:6e:90:79:ac:81:aa:2c:b6:a2:
                    f1:c8:e3:53:90:7a:5c:e9:31:a5:da:7b:b9:35:55:
                    bc:0e:98:68:6b:9d:37:14:90:7b:71:a5:a3:e4:40:
                    27:4e:16:c2:a7:70:9e:e5:b4:d8:0b:4a:6b:8c:07:
                    2a:15:61:11:f7:0a:31:91:47:3e:cb:bc:6c:cd:c5:
                    a5:8b:c4:0d:af:d1:96:13:56:24:4b:e2:ba:b5:eb:
                    ab:8c:9d:68:41:06:16:82:dd:7d:88:5a:a4:6c:38:
                    ec:82:fc:ec:65:83:e8:16:d5:c7:ec:80:db:de:e9:
                    e5:db:ce:73:66:0e:dc:d7:12:b2:f0:6b:27:96:99:
                    89:db:c9:e5:a3:cc:42:b4:f8:de:04:29:64:be:85:
                    48:ab:06:f7:5a:b5:ed:89:05:08:85:de:5a:f6:d2:
                    e1:45
                Exponent: 65537 (0x10001)
        X509v3 extensions:
            X509v3 Basic Constraints: 
                CA:FALSE
            X509v3 Subject Key Identifier: 
                DB:1F:67:E6:BD:21:EC:AE:88:DE:BE:71:11:CA:74:06:1F:45:B9:09
            X509v3 Authority Key Identifier: 
                keyid:64:7E:8D:C8:F9:B3:D1:11:7F:AA:F5:45:5F:85:D6:10:65:CF:8E:E9
                DirName:/CN=team113-net
                serial:24:B4:46:90:54:07:FA:E7:18:E3:6D:3B:E4:E2:69:2F:91:7E:B7:4B

            X509v3 Extended Key Usage: 
                TLS Web Server Authentication
            X509v3 Key Usage: 
                Digital Signature, Key Encipherment
            X509v3 Subject Alternative Name: 
                DNS:team113-server
    Signature Algorithm: sha256WithRSAEncryption
         8c:f1:aa:9a:09:5e:10:2f:43:bc:b5:1b:2e:f1:36:19:dd:67:
         fc:45:87:43:51:fb:64:8c:74:69:af:3a:48:a5:3b:7d:0f:f4:
         76:b9:2d:b0:96:6f:ba:a7:b9:c1:c0:b2:b1:4a:bf:2d:54:f7:
         8e:f6:fe:c6:0b:57:f7:23:b7:43:3d:b3:fc:b3:bd:59:63:bb:
         93:4b:51:21:a7:33:89:c1:8e:eb:c5:e2:8e:f6:2d:4a:56:1f:
         dc:81:fb:9f:99:11:d3:b3:dd:30:30:2f:38:1f:82:32:ae:a2:
         a7:be:cd:72:a1:86:1e:b5:bd:ac:ed:26:81:06:cb:38:a1:29:
         b9:05:03:b8:b6:a4:ba:8d:c1:e5:2d:b2:e8:0a:d3:91:63:7d:
         37:1d:fb:4a:0f:bc:9b:fc:36:c9:04:c0:65:42:a9:85:5f:d1:
         8a:8f:ec:48:ea:01:cc:89:3a:3d:32:82:50:43:a9:f0:44:56:
         80:c5:ca:4a:2e:c7:f3:60:64:4a:d1:22:fb:bb:61:f2:c5:0f:
         46:f7:83:97:a5:86:98:be:4d:4a:25:62:1a:1b:6f:67:60:93:
         cf:c7:82:1d:ed:b6:bc:88:e1:b8:4a:03:7b:a0:bb:3d:a5:31:
         b0:70:d9:a1:9a:e9:d5:ba:ad:d8:97:9a:eb:52:71:09:bf:19:
         b3:55:03:e1
-----BEGIN CERTIFICATE-----
MIIDdzCCAl+gAwIBAgIQND3+p0h8+1zT3v9dAjJ5zjANBgkqhkiG9w0BAQsFADAW
MRQwEgYDVQQDDAt0ZWFtMTEzLW5ldDAeFw0yMzA4MTQxNDI0MzVaFw0yNjA3Mjkx
NDI0MzVaMBkxFzAVBgNVBAMMDnRlYW0xMTMtc2VydmVyMIIBIjANBgkqhkiG9w0B
AQEFAAOCAQ8AMIIBCgKCAQEA3mYwtEgO7guu//7Bg71vZ0+dy/wIVG/qEQ2Ca51M
Xu1KP+TgQS5zCVZ1/uDijlro7jnXOXZLvdKjWfd1jFj5RNybmLOaNmxQ66Q1p5Ye
HILN61s705UEcxO5aSG6tT1ukHmsgaostqLxyONTkHpc6TGl2nu5NVW8Dphoa503
FJB7caWj5EAnThbCp3Ce5bTYC0prjAcqFWER9woxkUc+y7xszcWli8QNr9GWE1Yk
S+K6teurjJ1oQQYWgt19iFqkbDjsgvzsZYPoFtXH7IDb3unl285zZg7c1xKy8Gsn
lpmJ28nlo8xCtPjeBClkvoVIqwb3WrXtiQUIhd5a9tLhRQIDAQABo4G9MIG6MAkG
A1UdEwQCMAAwHQYDVR0OBBYEFNsfZ+a9IeyuiN6+cRHKdAYfRbkJMFEGA1UdIwRK
MEiAFGR+jcj5s9ERf6r1RV+F1hBlz47poRqkGDAWMRQwEgYDVQQDDAt0ZWFtMTEz
LW5ldIIUJLRGkFQH+ucY42075OJpL5F+t0swEwYDVR0lBAwwCgYIKwYBBQUHAwEw
CwYDVR0PBAQDAgWgMBkGA1UdEQQSMBCCDnRlYW0xMTMtc2VydmVyMA0GCSqGSIb3
DQEBCwUAA4IBAQCM8aqaCV4QL0O8tRsu8TYZ3Wf8RYdDUftkjHRprzpIpTt9D/R2
uS2wlm+6p7nBwLKxSr8tVPeO9v7GC1f3I7dDPbP8s71ZY7uTS1EhpzOJwY7rxeKO
9i1KVh/cgfufmRHTs90wMC84H4IyrqKnvs1yoYYetb2s7SaBBss4oSm5BQO4tqS6
jcHlLbLoCtORY303HftKD7yb/DbJBMBlQqmFX9GKj+xI6gHMiTo9MoJQQ6nwRFaA
xcpKLsfzYGRK0SL7u2HyxQ9G94OXpYaYvk1KJWIaG29nYJPPx4Id7ba8iOG4SgN7
oLs9pTGwcNmhmunVuq3Yl5rrUnEJvxmzVQPh
-----END CERTIFICATE-----
