Certificate:
    Data:
        Version: 3 (0x2)
        Serial Number:
            46:f9:82:3d:40:fa:7d:dd:25:74:1d:7e:a4:6a:3e:79
        Signature Algorithm: sha256WithRSAEncryption
        Issuer: CN=team284-net
        Validity
            Not Before: Aug 14 14:28:05 2023 GMT
            Not After : Jul 29 14:28:05 2026 GMT
        Subject: CN=team284-client
        Subject Public Key Info:
            Public Key Algorithm: rsaEncryption
                RSA Public-Key: (2048 bit)
                Modulus:
                    00:f0:8b:10:78:3d:5c:50:28:9f:84:0a:81:bc:1b:
                    00:e0:8a:59:a6:bc:75:69:34:35:15:f5:c6:f4:de:
                    39:5f:1c:f9:e2:4a:73:61:b9:15:f4:aa:6e:b2:05:
                    4e:5f:b1:d1:af:b4:a0:80:b0:4f:16:f6:21:b9:f4:
                    21:57:c0:39:63:2f:fa:35:a0:89:60:04:c4:2d:b7:
                    70:d5:f0:a5:a9:47:b5:4a:af:6b:86:c0:2d:ad:ad:
                    3c:7a:79:41:d8:04:95:82:d3:76:4b:40:60:b8:c6:
                    db:2b:4a:6b:fd:62:2d:7a:ad:e5:e4:c0:e0:f7:1b:
                    63:04:69:59:b2:07:8a:d7:4b:61:06:6e:75:5e:2c:
                    a7:7b:5a:4c:65:fc:a1:24:32:93:41:3c:63:6f:61:
                    a8:5e:a5:fc:d0:7d:0b:68:70:86:8c:a6:f1:5c:8f:
                    35:fc:a0:e3:08:33:a4:cf:75:d7:82:77:12:c4:3c:
                    57:e3:ee:d7:b4:cd:df:96:ee:34:52:47:82:c4:a8:
                    8a:ae:6c:2f:24:cb:45:39:a6:a3:5f:a7:0e:5f:e5:
                    a0:25:97:06:66:50:b8:ae:37:66:e9:a7:c4:f3:f5:
                    77:03:21:a1:25:be:65:f5:a7:f9:fc:9e:23:4c:ad:
                    78:e3:31:e5:71:a0:70:e0:44:32:69:57:40:6d:ae:
                    34:87
                Exponent: 65537 (0x10001)
        X509v3 extensions:
            X509v3 Basic Constraints: 
                CA:FALSE
            X509v3 Subject Key Identifier: 
                00:F3:0B:AA:A4:77:48:AC:C1:F2:BE:74:6B:38:7D:AB:E9:26:E2:73
            X509v3 Authority Key Identifier: 
                keyid:06:A7:B6:36:29:5F:A1:F2:16:D4:1F:22:B2:D0:9F:69:1C:25:C2:FA
                DirName:/CN=team284-net
                serial:2B:AC:35:02:29:52:87:7C:22:BA:FF:66:27:CC:16:12:C2:DC:EC:C6

            X509v3 Extended Key Usage: 
                TLS Web Client Authentication
            X509v3 Key Usage: 
                Digital Signature
    Signature Algorithm: sha256WithRSAEncryption
         7c:95:88:e1:f7:fa:12:c3:ef:bb:4a:a7:8e:cf:5f:1e:69:64:
         8a:cc:c7:d7:4a:9c:16:f8:20:ec:d3:01:33:ef:0d:b2:83:48:
         89:e6:15:dd:d0:d5:e6:45:a6:82:b1:a8:b2:b0:1e:f9:1a:26:
         28:fa:bb:44:07:e9:0f:80:5b:e1:cb:58:ad:b7:50:9e:18:d8:
         88:97:a1:93:17:90:35:24:a6:56:a8:26:1d:74:f9:59:63:70:
         ad:56:8b:cc:de:3b:9a:bf:97:0e:7e:97:88:1d:48:33:3e:26:
         68:81:fd:c4:b6:18:3c:2b:e1:1e:24:d6:2f:90:e0:3b:95:8c:
         18:26:2f:ab:f6:74:d4:cf:6a:03:0b:44:08:9c:01:8e:ab:0a:
         cd:ab:21:66:24:e9:f3:e5:66:45:64:38:b2:65:39:e3:52:bc:
         08:97:c2:ea:b1:ab:b7:b2:1f:d0:c8:29:1b:1f:8f:92:cf:af:
         c3:5b:88:ad:aa:4c:9f:71:17:81:a0:f0:cb:f8:64:10:41:1b:
         4b:e6:7c:e6:02:aa:cb:c7:e2:1d:8e:69:ca:6a:28:96:42:f7:
         52:8e:ac:0d:81:8f:96:67:20:4c:28:90:9b:10:f9:57:f3:d0:
         37:f9:ec:fe:86:b9:80:72:34:ab:ca:5a:a2:e8:a5:70:0f:61:
         c2:c5:6c:f7
-----BEGIN CERTIFICATE-----
MIIDXDCCAkSgAwIBAgIQRvmCPUD6fd0ldB1+pGo+eTANBgkqhkiG9w0BAQsFADAW
MRQwEgYDVQQDDAt0ZWFtMjg0LW5ldDAeFw0yMzA4MTQxNDI4MDVaFw0yNjA3Mjkx
NDI4MDVaMBkxFzAVBgNVBAMMDnRlYW0yODQtY2xpZW50MIIBIjANBgkqhkiG9w0B
AQEFAAOCAQ8AMIIBCgKCAQEA8IsQeD1cUCifhAqBvBsA4IpZprx1aTQ1FfXG9N45
Xxz54kpzYbkV9KpusgVOX7HRr7SggLBPFvYhufQhV8A5Yy/6NaCJYATELbdw1fCl
qUe1Sq9rhsAtra08enlB2ASVgtN2S0BguMbbK0pr/WIteq3l5MDg9xtjBGlZsgeK
10thBm51Xiyne1pMZfyhJDKTQTxjb2GoXqX80H0LaHCGjKbxXI81/KDjCDOkz3XX
gncSxDxX4+7XtM3flu40UkeCxKiKrmwvJMtFOaajX6cOX+WgJZcGZlC4rjdm6afE
8/V3AyGhJb5l9af5/J4jTK144zHlcaBw4EQyaVdAba40hwIDAQABo4GiMIGfMAkG
A1UdEwQCMAAwHQYDVR0OBBYEFADzC6qkd0iswfK+dGs4favpJuJzMFEGA1UdIwRK
MEiAFAantjYpX6HyFtQfIrLQn2kcJcL6oRqkGDAWMRQwEgYDVQQDDAt0ZWFtMjg0
LW5ldIIUK6w1AilSh3wiuv9mJ8wWEsLc7MYwEwYDVR0lBAwwCgYIKwYBBQUHAwIw
CwYDVR0PBAQDAgeAMA0GCSqGSIb3DQEBCwUAA4IBAQB8lYjh9/oSw++7SqeOz18e
aWSKzMfXSpwW+CDs0wEz7w2yg0iJ5hXd0NXmRaaCsaiysB75GiYo+rtEB+kPgFvh
y1itt1CeGNiIl6GTF5A1JKZWqCYddPlZY3CtVovM3juav5cOfpeIHUgzPiZogf3E
thg8K+EeJNYvkOA7lYwYJi+r9nTUz2oDC0QInAGOqwrNqyFmJOnz5WZFZDiyZTnj
UrwIl8Lqsau3sh/QyCkbH4+Sz6/DW4itqkyfcReBoPDL+GQQQRtL5nzmAqrLx+Id
jmnKaiiWQvdSjqwNgY+WZyBMKJCbEPlX89A3+ez+hrmAcjSrylqi6KVwD2HCxWz3
-----END CERTIFICATE-----
