Certificate:
    Data:
        Version: 3 (0x2)
        Serial Number:
            b6:05:2c:f4:f5:e9:74:c1:09:98:47:f6:8d:7a:ff:2a
        Signature Algorithm: sha256WithRSAEncryption
        Issuer: CN=team232-net
        Validity
            Not Before: Aug 14 14:26:59 2023 GMT
            Not After : Jul 29 14:26:59 2026 GMT
        Subject: CN=team232-server
        Subject Public Key Info:
            Public Key Algorithm: rsaEncryption
                RSA Public-Key: (2048 bit)
                Modulus:
                    00:be:4a:02:4c:3e:4c:58:0a:d4:67:a9:30:b9:86:
                    ea:25:3d:e6:7e:65:60:f3:31:f8:b8:62:91:af:d1:
                    4f:70:cd:4c:ec:0f:b4:fa:e8:d9:54:a9:30:52:02:
                    69:56:9a:fc:20:9b:2e:c4:b6:ec:a7:2c:d2:2e:e6:
                    b4:b3:96:2e:6f:c8:79:09:93:6b:c8:8b:b2:ca:21:
                    f2:ca:e1:43:99:48:b4:87:fd:2c:88:e5:7d:d7:c4:
                    67:d5:df:c4:74:23:50:f3:12:5f:8e:e4:60:87:f6:
                    8b:d7:7b:e3:60:5b:e1:f6:0f:d6:4c:a3:e2:70:90:
                    0d:8d:7e:a5:2e:d1:36:df:f7:e6:49:45:8e:35:7b:
                    b8:7f:4f:d9:c6:76:a3:4f:c0:90:70:4f:d7:cf:15:
                    c4:4b:7b:24:e0:3f:9f:a4:17:db:7f:89:22:8e:21:
                    77:af:fd:07:d8:fe:ef:55:45:c8:1d:41:de:4c:64:
                    32:0c:02:43:58:bd:26:06:8b:d5:35:f7:00:ea:19:
                    91:9c:bb:73:57:11:b0:43:fd:d1:ad:07:91:fd:53:
                    1a:3d:23:f0:92:78:b7:b7:51:c1:a0:c0:c8:f0:ef:
                    e8:43:f9:15:6d:51:ec:ee:fb:a5:cf:b4:9a:d8:41:
                    e5:b1:b6:bf:12:c4:3f:2c:b5:a9:b0:fd:57:e3:57:
                    e1:73
                Exponent: 65537 (0x10001)
        X509v3 extensions:
            X509v3 Basic Constraints: 
                CA:FALSE
            X509v3 Subject Key Identifier: 
                B1:C5:67:F2:CB:C8:4F:EA:BC:71:C7:22:15:28:24:1D:04:8D:23:98
            X509v3 Authority Key Identifier: 
                keyid:9C:FB:EC:65:55:C4:F5:14:9A:5E:60:86:03:17:5A:97:A3:52:F6:F4
                DirName:/CN=team232-net
                serial:29:A9:48:D6:00:85:83:F8:E4:C1:8F:56:2B:7F:9B:CA:C4:7B:0D:31

            X509v3 Extended Key Usage: 
                TLS Web Server Authentication
            X509v3 Key Usage: 
                Digital Signature, Key Encipherment
            X509v3 Subject Alternative Name: 
                DNS:team232-server
    Signature Algorithm: sha256WithRSAEncryption
         9e:b8:2d:1c:82:43:fa:7e:4d:f3:a4:b5:5e:ad:d1:a5:8c:0c:
         89:19:37:30:84:46:8e:ce:0d:44:a6:7b:2c:70:a1:5c:a6:e7:
         b0:93:a7:81:31:0b:c5:e2:85:be:83:e8:97:ba:49:5d:e6:5a:
         dc:be:77:e2:47:ff:46:8d:42:88:75:0f:43:37:9e:6d:c6:db:
         3c:ab:82:67:a1:de:3f:25:37:ab:06:1a:95:65:e6:69:8b:1d:
         c5:35:81:0b:c2:f9:dd:17:c7:f4:0f:d9:0d:86:89:e2:80:e7:
         7d:54:c0:73:3c:1e:c3:ed:84:60:c0:7c:4c:6c:30:d9:d9:c2:
         e4:4d:bd:a3:c1:1c:da:88:52:cc:7e:8b:0b:38:2c:73:68:6b:
         b8:21:d5:91:a4:37:a2:62:75:07:36:82:2a:82:b6:05:c1:c0:
         59:6c:62:12:a5:d2:07:6a:e6:fd:e1:0a:6d:06:2e:57:79:39:
         89:b6:f0:3b:92:07:a8:1b:bf:59:2d:3b:72:0f:07:14:8d:f5:
         dd:4f:aa:75:09:da:67:db:57:45:ce:8e:6e:fa:92:f9:ce:f4:
         52:76:38:b4:ab:3c:73:9b:a3:da:1e:cb:af:90:e2:10:5f:90:
         f8:d2:c8:40:fd:5f:c0:29:d0:cf:fc:65:6e:88:16:ed:df:c2:
         3b:f8:46:34
-----BEGIN CERTIFICATE-----
MIIDeDCCAmCgAwIBAgIRALYFLPT16XTBCZhH9o16/yowDQYJKoZIhvcNAQELBQAw
FjEUMBIGA1UEAwwLdGVhbTIzMi1uZXQwHhcNMjMwODE0MTQyNjU5WhcNMjYwNzI5
MTQyNjU5WjAZMRcwFQYDVQQDDA50ZWFtMjMyLXNlcnZlcjCCASIwDQYJKoZIhvcN
AQEBBQADggEPADCCAQoCggEBAL5KAkw+TFgK1GepMLmG6iU95n5lYPMx+Lhika/R
T3DNTOwPtPro2VSpMFICaVaa/CCbLsS27Kcs0i7mtLOWLm/IeQmTa8iLssoh8srh
Q5lItIf9LIjlfdfEZ9XfxHQjUPMSX47kYIf2i9d742Bb4fYP1kyj4nCQDY1+pS7R
Nt/35klFjjV7uH9P2cZ2o0/AkHBP188VxEt7JOA/n6QX23+JIo4hd6/9B9j+71VF
yB1B3kxkMgwCQ1i9JgaL1TX3AOoZkZy7c1cRsEP90a0Hkf1TGj0j8JJ4t7dRwaDA
yPDv6EP5FW1R7O77pc+0mthB5bG2vxLEPyy1qbD9V+NX4XMCAwEAAaOBvTCBujAJ
BgNVHRMEAjAAMB0GA1UdDgQWBBSxxWfyy8hP6rxxxyIVKCQdBI0jmDBRBgNVHSME
SjBIgBSc++xlVcT1FJpeYIYDF1qXo1L29KEapBgwFjEUMBIGA1UEAwwLdGVhbTIz
Mi1uZXSCFCmpSNYAhYP45MGPVit/m8rEew0xMBMGA1UdJQQMMAoGCCsGAQUFBwMB
MAsGA1UdDwQEAwIFoDAZBgNVHREEEjAQgg50ZWFtMjMyLXNlcnZlcjANBgkqhkiG
9w0BAQsFAAOCAQEAnrgtHIJD+n5N86S1Xq3RpYwMiRk3MIRGjs4NRKZ7LHChXKbn
sJOngTELxeKFvoPol7pJXeZa3L534kf/Ro1CiHUPQzeebcbbPKuCZ6HePyU3qwYa
lWXmaYsdxTWBC8L53RfH9A/ZDYaJ4oDnfVTAczwew+2EYMB8TGww2dnC5E29o8Ec
2ohSzH6LCzgsc2hruCHVkaQ3omJ1BzaCKoK2BcHAWWxiEqXSB2rm/eEKbQYuV3k5
ibbwO5IHqBu/WS07cg8HFI313U+qdQnaZ9tXRc6ObvqS+c70UnY4tKs8c5uj2h7L
r5DiEF+Q+NLIQP1fwCnQz/xlbogW7d/CO/hGNA==
-----END CERTIFICATE-----
