Certificate:
    Data:
        Version: 3 (0x2)
        Serial Number:
            6b:da:c9:22:4e:e0:18:20:62:a8:ad:59:e7:e8:a8:1b
        Signature Algorithm: sha256WithRSAEncryption
        Issuer: CN=team136-net
        Validity
            Not Before: Aug 14 14:25:05 2023 GMT
            Not After : Jul 29 14:25:05 2026 GMT
        Subject: CN=team136-client
        Subject Public Key Info:
            Public Key Algorithm: rsaEncryption
                RSA Public-Key: (2048 bit)
                Modulus:
                    00:bd:79:78:e6:5b:01:1e:d0:48:fe:8c:b7:38:de:
                    cd:2c:e5:de:41:67:6a:39:94:45:a6:45:e0:7d:b6:
                    0d:dc:79:19:47:41:46:f8:e5:3f:15:41:0a:a7:02:
                    dd:74:6d:cf:f3:ab:5a:89:77:83:89:5d:3f:27:cd:
                    a0:bc:cd:3d:40:70:59:73:64:1b:cd:32:fd:13:18:
                    1c:7c:5e:d5:53:a8:14:62:f3:e2:f9:26:c2:71:f3:
                    44:f3:1f:52:85:5a:bf:1f:6d:5d:ea:f1:56:59:7a:
                    b2:86:9e:fc:17:04:e1:c7:5f:2c:61:e5:bb:8b:66:
                    1a:2d:7a:6a:54:4c:38:34:74:7c:73:92:1c:6b:dc:
                    67:7d:9e:99:d2:51:c2:a3:25:12:53:6a:6f:f6:70:
                    63:9d:cb:1a:2d:2c:e8:4f:0a:7c:bc:00:83:ef:2a:
                    a7:a5:0f:fa:b3:b5:9b:b1:3b:e1:46:ae:eb:76:e4:
                    53:da:79:5d:0f:59:38:fa:68:81:6d:dd:dc:7a:08:
                    1d:2f:e7:c9:44:72:8b:01:4f:01:0f:4f:ca:39:3a:
                    4c:b9:f8:a7:cf:2b:57:a1:23:dc:e8:8a:61:d5:7a:
                    f9:21:b8:b4:2d:80:24:83:9c:49:1d:a3:a3:26:7e:
                    dd:35:25:cb:78:67:e8:32:98:cc:47:6c:ee:0d:66:
                    6a:cf
                Exponent: 65537 (0x10001)
        X509v3 extensions:
            X509v3 Basic Constraints: 
                CA:FALSE
            X509v3 Subject Key Identifier: 
                4B:A9:FD:40:C8:9E:B0:6D:17:AF:A1:26:80:BE:B6:C7:FC:7F:4F:0B
            X509v3 Authority Key Identifier: 
                keyid:F0:81:FE:4F:82:DA:C3:4E:FF:9E:BA:46:A7:6A:CD:80:B1:E2:D0:CF
                DirName:/CN=team136-net
                serial:79:95:B2:27:52:81:54:4D:7F:31:D7:F0:D9:79:C7:5F:AA:31:D9:7C

            X509v3 Extended Key Usage: 
                TLS Web Client Authentication
            X509v3 Key Usage: 
                Digital Signature
    Signature Algorithm: sha256WithRSAEncryption
         ab:51:e4:50:b4:5f:93:dd:82:a7:94:8b:8e:18:d8:2a:a3:cb:
         84:49:9b:d4:15:0e:df:a3:92:14:c1:c4:0d:ec:16:75:d4:f4:
         45:0a:47:fa:01:91:73:e8:01:94:a6:71:e9:ae:6d:98:36:93:
         19:4e:1e:fd:2a:7e:6d:28:e7:ef:24:80:86:37:44:39:f5:1b:
         6e:cd:1f:52:f4:96:40:b1:e9:02:d1:0a:4f:a7:17:f0:f7:3a:
         37:c9:dc:67:9c:e0:ac:e4:9f:64:2d:7e:64:cc:fa:a9:45:01:
         9f:92:12:5e:17:19:b4:10:c0:aa:2f:7b:ae:69:b3:c4:61:d8:
         d2:66:32:05:27:a9:32:b7:3a:6b:0d:c1:17:19:4d:24:8d:77:
         92:dc:8c:f5:ec:46:20:21:0b:b4:1c:77:b6:d1:e7:7a:f6:5b:
         9b:63:49:ea:bd:70:e2:5a:e8:a1:b4:64:85:09:49:3b:0b:84:
         ea:39:fd:05:be:cb:a0:e9:f4:3f:46:3c:05:02:82:55:fc:82:
         9e:3a:c4:70:ff:03:bd:bb:df:5f:03:f3:9a:65:fe:b9:05:42:
         42:5a:bb:36:d5:c4:e8:21:4b:f9:89:60:1e:7e:94:ae:22:10:
         cf:de:65:81:6f:57:ea:ef:d5:b3:38:12:0f:1c:30:0e:ce:28:
         3e:85:ae:c5
-----BEGIN CERTIFICATE-----
MIIDXDCCAkSgAwIBAgIQa9rJIk7gGCBiqK1Z5+ioGzANBgkqhkiG9w0BAQsFADAW
MRQwEgYDVQQDDAt0ZWFtMTM2LW5ldDAeFw0yMzA4MTQxNDI1MDVaFw0yNjA3Mjkx
NDI1MDVaMBkxFzAVBgNVBAMMDnRlYW0xMzYtY2xpZW50MIIBIjANBgkqhkiG9w0B
AQEFAAOCAQ8AMIIBCgKCAQEAvXl45lsBHtBI/oy3ON7NLOXeQWdqOZRFpkXgfbYN
3HkZR0FG+OU/FUEKpwLddG3P86taiXeDiV0/J82gvM09QHBZc2QbzTL9ExgcfF7V
U6gUYvPi+SbCcfNE8x9ShVq/H21d6vFWWXqyhp78FwThx18sYeW7i2YaLXpqVEw4
NHR8c5Ica9xnfZ6Z0lHCoyUSU2pv9nBjncsaLSzoTwp8vACD7yqnpQ/6s7WbsTvh
Rq7rduRT2nldD1k4+miBbd3ceggdL+fJRHKLAU8BD0/KOTpMufinzytXoSPc6Iph
1Xr5Ibi0LYAkg5xJHaOjJn7dNSXLeGfoMpjMR2zuDWZqzwIDAQABo4GiMIGfMAkG
A1UdEwQCMAAwHQYDVR0OBBYEFEup/UDInrBtF6+hJoC+tsf8f08LMFEGA1UdIwRK
MEiAFPCB/k+C2sNO/566RqdqzYCx4tDPoRqkGDAWMRQwEgYDVQQDDAt0ZWFtMTM2
LW5ldIIUeZWyJ1KBVE1/Mdfw2XnHX6ox2XwwEwYDVR0lBAwwCgYIKwYBBQUHAwIw
CwYDVR0PBAQDAgeAMA0GCSqGSIb3DQEBCwUAA4IBAQCrUeRQtF+T3YKnlIuOGNgq
o8uESZvUFQ7fo5IUwcQN7BZ11PRFCkf6AZFz6AGUpnHprm2YNpMZTh79Kn5tKOfv
JICGN0Q59RtuzR9S9JZAsekC0QpPpxfw9zo3ydxnnOCs5J9kLX5kzPqpRQGfkhJe
Fxm0EMCqL3uuabPEYdjSZjIFJ6kytzprDcEXGU0kjXeS3Iz17EYgIQu0HHe20ed6
9lubY0nqvXDiWuihtGSFCUk7C4TqOf0Fvsug6fQ/RjwFAoJV/IKeOsRw/wO9u99f
A/OaZf65BUJCWrs21cToIUv5iWAefpSuIhDP3mWBb1fq79WzOBIPHDAOzig+ha7F
-----END CERTIFICATE-----
