Certificate:
    Data:
        Version: 3 (0x2)
        Serial Number:
            9a:a6:42:a3:8d:02:ec:1e:d7:d8:9f:59:6b:1f:73:d2
        Signature Algorithm: sha256WithRSAEncryption
        Issuer: CN=team136-net
        Validity
            Not Before: Aug 14 14:25:05 2023 GMT
            Not After : Jul 29 14:25:05 2026 GMT
        Subject: CN=team136-server
        Subject Public Key Info:
            Public Key Algorithm: rsaEncryption
                RSA Public-Key: (2048 bit)
                Modulus:
                    00:a3:f3:9f:2e:29:92:ca:7c:bf:ed:f1:b0:19:a7:
                    61:e7:7f:05:f2:87:b7:4e:cc:67:c3:0b:71:39:9d:
                    62:b0:bc:c2:b0:9c:c2:93:5d:bd:c1:bb:5d:77:d6:
                    5a:1e:8b:27:2c:ad:d5:6a:31:ab:3b:4c:e5:c6:8f:
                    2d:6e:27:0a:d3:bf:ee:cc:ec:59:d5:ae:17:fb:8d:
                    15:41:3a:6a:78:66:45:cc:7c:2f:2b:30:63:f3:4a:
                    ac:26:98:06:7e:fd:b8:45:88:58:e1:db:dc:53:11:
                    50:56:d8:4d:44:57:7b:23:46:75:34:e2:a3:53:ea:
                    fa:c8:4b:a3:27:8b:60:3d:23:c9:89:9c:7d:72:d3:
                    6c:bc:3f:57:e5:fe:b6:41:8c:8c:19:3f:b1:b5:7f:
                    0f:4c:b2:cc:ab:4e:be:fb:fa:ba:9a:86:21:6f:9b:
                    df:ca:47:5a:d4:5f:b5:06:d4:fb:49:eb:79:75:41:
                    91:59:c5:f6:e3:35:4c:d6:34:aa:c6:c8:3d:ca:92:
                    56:13:39:be:ba:60:4d:44:21:af:1d:28:a0:bc:ad:
                    9b:16:21:8d:01:cc:fd:51:d7:98:ba:7e:18:f8:3d:
                    0c:86:25:7b:ef:fa:62:82:5e:18:fe:d4:43:e5:e0:
                    43:53:a9:2e:c7:76:21:b7:c7:cd:a3:1c:fa:06:74:
                    38:41
                Exponent: 65537 (0x10001)
        X509v3 extensions:
            X509v3 Basic Constraints: 
                CA:FALSE
            X509v3 Subject Key Identifier: 
                B7:48:44:53:31:D3:60:AB:15:CB:1E:73:DE:21:CE:42:A4:B6:20:E5
            X509v3 Authority Key Identifier: 
                keyid:F0:81:FE:4F:82:DA:C3:4E:FF:9E:BA:46:A7:6A:CD:80:B1:E2:D0:CF
                DirName:/CN=team136-net
                serial:79:95:B2:27:52:81:54:4D:7F:31:D7:F0:D9:79:C7:5F:AA:31:D9:7C

            X509v3 Extended Key Usage: 
                TLS Web Server Authentication
            X509v3 Key Usage: 
                Digital Signature, Key Encipherment
            X509v3 Subject Alternative Name: 
                DNS:team136-server
    Signature Algorithm: sha256WithRSAEncryption
         99:63:c6:af:80:5f:13:4f:3f:fc:10:78:b4:16:1c:9e:ea:dd:
         3e:0c:dc:b5:0a:19:7f:85:69:ac:29:91:20:cf:cf:1c:8b:ce:
         ca:ab:1f:91:72:93:6f:2c:16:b5:05:3d:5e:8a:f1:5c:29:1c:
         d0:57:ac:e6:70:e8:4a:44:8d:e7:c2:44:57:33:20:7a:13:7c:
         5d:00:d1:c6:94:8e:d7:83:f3:7a:ab:0b:ff:29:c9:8d:db:84:
         3c:45:08:eb:c1:c9:d1:fd:6c:b3:1b:b2:33:c2:96:eb:34:d6:
         ed:fa:10:8b:75:86:aa:f7:9f:67:86:00:54:db:ca:00:4c:7e:
         2f:72:9f:78:7a:a4:5e:05:15:6d:22:72:8b:9a:57:54:94:34:
         0a:bf:27:cd:d6:b2:7c:02:8f:63:12:1a:a6:1a:5e:4d:0c:2b:
         8f:a7:e0:b0:58:a1:3a:fc:b8:a2:f6:60:70:cc:c6:f7:ce:29:
         6c:82:6e:75:d2:56:f9:3b:ea:17:de:a8:de:70:14:c1:65:34:
         6c:0b:10:04:d3:1b:c6:59:62:c8:54:c5:2c:f5:85:b3:63:9c:
         78:da:03:a3:59:b8:f6:75:9e:3c:2a:3c:db:17:a0:a5:27:99:
         49:68:15:c5:3e:98:c7:88:6a:db:bd:83:18:e1:1e:ca:d2:28:
         da:02:13:ac
-----BEGIN CERTIFICATE-----
MIIDeDCCAmCgAwIBAgIRAJqmQqONAuwe19ifWWsfc9IwDQYJKoZIhvcNAQELBQAw
FjEUMBIGA1UEAwwLdGVhbTEzNi1uZXQwHhcNMjMwODE0MTQyNTA1WhcNMjYwNzI5
MTQyNTA1WjAZMRcwFQYDVQQDDA50ZWFtMTM2LXNlcnZlcjCCASIwDQYJKoZIhvcN
AQEBBQADggEPADCCAQoCggEBAKPzny4pksp8v+3xsBmnYed/BfKHt07MZ8MLcTmd
YrC8wrCcwpNdvcG7XXfWWh6LJyyt1WoxqztM5caPLW4nCtO/7szsWdWuF/uNFUE6
anhmRcx8LyswY/NKrCaYBn79uEWIWOHb3FMRUFbYTURXeyNGdTTio1Pq+shLoyeL
YD0jyYmcfXLTbLw/V+X+tkGMjBk/sbV/D0yyzKtOvvv6upqGIW+b38pHWtRftQbU
+0nreXVBkVnF9uM1TNY0qsbIPcqSVhM5vrpgTUQhrx0ooLytmxYhjQHM/VHXmLp+
GPg9DIYle+/6YoJeGP7UQ+XgQ1OpLsd2IbfHzaMc+gZ0OEECAwEAAaOBvTCBujAJ
BgNVHRMEAjAAMB0GA1UdDgQWBBS3SERTMdNgqxXLHnPeIc5CpLYg5TBRBgNVHSME
SjBIgBTwgf5PgtrDTv+eukanas2AseLQz6EapBgwFjEUMBIGA1UEAwwLdGVhbTEz
Ni1uZXSCFHmVsidSgVRNfzHX8Nl5x1+qMdl8MBMGA1UdJQQMMAoGCCsGAQUFBwMB
MAsGA1UdDwQEAwIFoDAZBgNVHREEEjAQgg50ZWFtMTM2LXNlcnZlcjANBgkqhkiG
9w0BAQsFAAOCAQEAmWPGr4BfE08//BB4tBYcnurdPgzctQoZf4VprCmRIM/PHIvO
yqsfkXKTbywWtQU9XorxXCkc0Fes5nDoSkSN58JEVzMgehN8XQDRxpSO14PzeqsL
/ynJjduEPEUI68HJ0f1ssxuyM8KW6zTW7foQi3WGqvefZ4YAVNvKAEx+L3KfeHqk
XgUVbSJyi5pXVJQ0Cr8nzdayfAKPYxIaphpeTQwrj6fgsFihOvy4ovZgcMzG984p
bIJuddJW+TvqF96o3nAUwWU0bAsQBNMbxlliyFTFLPWFs2OceNoDo1m49nWePCo8
2xegpSeZSWgVxT6Yx4hq272DGOEeytIo2gITrA==
-----END CERTIFICATE-----
