Certificate:
    Data:
        Version: 3 (0x2)
        Serial Number:
            20:88:52:67:87:06:55:52:5d:6b:6c:ed:78:80:6a:b2
        Signature Algorithm: sha256WithRSAEncryption
        Issuer: CN=team295-net
        Validity
            Not Before: Aug 14 14:28:18 2023 GMT
            Not After : Jul 29 14:28:18 2026 GMT
        Subject: CN=team295-server
        Subject Public Key Info:
            Public Key Algorithm: rsaEncryption
                RSA Public-Key: (2048 bit)
                Modulus:
                    00:d2:4e:44:f0:08:71:5a:7f:bd:ad:78:b4:56:36:
                    44:45:6e:3d:84:5b:fe:46:05:fe:b0:da:9d:40:26:
                    0f:34:14:47:46:91:86:56:45:22:83:bc:97:0b:c5:
                    89:18:b0:67:1c:96:d8:88:57:f4:fb:1c:42:21:4f:
                    4a:b2:71:6f:26:74:3d:d8:61:a2:8b:8b:3d:65:49:
                    f4:bf:22:95:31:ed:e7:7b:fc:34:a9:2b:62:63:62:
                    d5:34:f4:c7:ae:4b:38:f8:69:27:ef:82:9a:8e:da:
                    c1:d3:3f:65:2a:2e:da:bc:d2:86:57:a9:3e:9a:f8:
                    f2:70:f0:0a:71:e6:65:f4:5c:e6:58:9b:fa:15:d9:
                    ce:31:f4:1b:3b:27:ca:72:06:8d:f6:29:d7:53:af:
                    4f:0d:40:4e:c5:3d:d2:6a:1f:47:cd:95:53:f5:17:
                    f2:d6:5e:c9:54:e3:b8:07:da:8c:78:ae:30:23:fe:
                    36:ba:45:12:6f:cd:3c:28:18:09:ba:95:14:5e:de:
                    82:18:9d:6d:36:c7:17:b3:6f:7d:8b:f0:ea:00:f8:
                    e9:46:1a:4c:f1:36:95:30:78:b0:8a:f4:8a:8d:ff:
                    9d:9c:ac:c2:9d:f4:7c:a1:95:d1:a6:6a:aa:c8:56:
                    89:59:d3:0b:28:ef:93:bc:e7:de:4c:07:ef:69:4a:
                    bf:e1
                Exponent: 65537 (0x10001)
        X509v3 extensions:
            X509v3 Basic Constraints: 
                CA:FALSE
            X509v3 Subject Key Identifier: 
                CC:AD:2E:97:28:3A:EB:48:6E:C0:E1:55:0A:85:1F:09:46:16:45:FD
            X509v3 Authority Key Identifier: 
                keyid:65:2B:A8:89:58:CB:64:7F:B8:26:FD:32:DA:43:92:D4:58:5D:97:00
                DirName:/CN=team295-net
                serial:5B:48:57:56:96:2B:D7:65:2F:95:AC:46:F5:19:47:E9:D2:E2:1B:F9

            X509v3 Extended Key Usage: 
                TLS Web Server Authentication
            X509v3 Key Usage: 
                Digital Signature, Key Encipherment
            X509v3 Subject Alternative Name: 
                DNS:team295-server
    Signature Algorithm: sha256WithRSAEncryption
         83:6f:5f:66:a6:df:be:38:21:06:4c:aa:5d:03:68:f3:9b:40:
         57:2b:80:b9:d9:68:fa:11:79:a1:b0:28:9b:76:3c:04:40:0b:
         95:b2:f4:24:71:8a:b1:63:54:48:f3:7a:f8:1e:e7:0d:45:fc:
         72:fd:62:d7:9b:9f:0d:be:3d:0b:69:3e:20:76:05:cd:a8:a3:
         9b:e4:cd:1b:3a:27:28:c8:39:d0:d1:d3:ee:81:c4:f8:0f:37:
         94:e6:cc:76:03:39:60:0c:8e:ae:51:2c:86:4c:7f:68:9a:ac:
         06:58:93:f7:e1:28:78:8b:19:4a:bf:b7:3b:de:4d:7c:e8:52:
         22:c8:b2:2d:3e:9f:7d:36:46:4e:00:30:3a:43:77:b6:b3:78:
         11:5a:4a:0b:3c:3e:3c:63:2f:df:d0:fb:4e:35:57:7d:87:c9:
         00:86:f3:6b:87:49:6b:22:c7:bc:ec:3a:a3:c8:65:f3:07:21:
         d5:53:09:4b:0c:8f:2f:65:69:07:43:07:f4:b3:d0:2e:e1:2e:
         7e:a3:88:1f:f3:a5:1a:ac:77:c7:08:e9:42:e2:77:4e:01:f4:
         90:31:49:b9:fe:c6:39:0f:41:46:fe:c5:ba:21:62:c3:07:ff:
         ff:4f:61:5a:f7:6b:23:f7:30:55:32:2d:74:06:37:3d:b8:64:
         e9:66:d4:40
-----BEGIN CERTIFICATE-----
MIIDdzCCAl+gAwIBAgIQIIhSZ4cGVVJda2zteIBqsjANBgkqhkiG9w0BAQsFADAW
MRQwEgYDVQQDDAt0ZWFtMjk1LW5ldDAeFw0yMzA4MTQxNDI4MThaFw0yNjA3Mjkx
NDI4MThaMBkxFzAVBgNVBAMMDnRlYW0yOTUtc2VydmVyMIIBIjANBgkqhkiG9w0B
AQEFAAOCAQ8AMIIBCgKCAQEA0k5E8AhxWn+9rXi0VjZERW49hFv+RgX+sNqdQCYP
NBRHRpGGVkUig7yXC8WJGLBnHJbYiFf0+xxCIU9KsnFvJnQ92GGii4s9ZUn0vyKV
Me3ne/w0qStiY2LVNPTHrks4+Gkn74KajtrB0z9lKi7avNKGV6k+mvjycPAKceZl
9FzmWJv6FdnOMfQbOyfKcgaN9inXU69PDUBOxT3Sah9HzZVT9Rfy1l7JVOO4B9qM
eK4wI/42ukUSb808KBgJupUUXt6CGJ1tNscXs299i/DqAPjpRhpM8TaVMHiwivSK
jf+dnKzCnfR8oZXRpmqqyFaJWdMLKO+TvOfeTAfvaUq/4QIDAQABo4G9MIG6MAkG
A1UdEwQCMAAwHQYDVR0OBBYEFMytLpcoOutIbsDhVQqFHwlGFkX9MFEGA1UdIwRK
MEiAFGUrqIlYy2R/uCb9MtpDktRYXZcAoRqkGDAWMRQwEgYDVQQDDAt0ZWFtMjk1
LW5ldIIUW0hXVpYr12UvlaxG9RlH6dLiG/kwEwYDVR0lBAwwCgYIKwYBBQUHAwEw
CwYDVR0PBAQDAgWgMBkGA1UdEQQSMBCCDnRlYW0yOTUtc2VydmVyMA0GCSqGSIb3
DQEBCwUAA4IBAQCDb19mpt++OCEGTKpdA2jzm0BXK4C52Wj6EXmhsCibdjwEQAuV
svQkcYqxY1RI83r4HucNRfxy/WLXm58Nvj0LaT4gdgXNqKOb5M0bOicoyDnQ0dPu
gcT4DzeU5sx2AzlgDI6uUSyGTH9omqwGWJP34Sh4ixlKv7c73k186FIiyLItPp99
NkZOADA6Q3e2s3gRWkoLPD48Yy/f0PtONVd9h8kAhvNrh0lrIse87DqjyGXzByHV
UwlLDI8vZWkHQwf0s9Au4S5+o4gf86UarHfHCOlC4ndOAfSQMUm5/sY5D0FG/sW6
IWLDB///T2Fa92sj9zBVMi10Bjc9uGTpZtRA
-----END CERTIFICATE-----
