Certificate:
    Data:
        Version: 3 (0x2)
        Serial Number:
            d4:ab:ec:ee:7b:17:b4:a3:fe:fa:2b:2d:a6:7c:2b:df
        Signature Algorithm: sha256WithRSAEncryption
        Issuer: CN=team104-net
        Validity
            Not Before: Aug 14 14:24:22 2023 GMT
            Not After : Jul 29 14:24:22 2026 GMT
        Subject: CN=team104-server
        Subject Public Key Info:
            Public Key Algorithm: rsaEncryption
                RSA Public-Key: (2048 bit)
                Modulus:
                    00:bd:d0:6d:99:82:e1:d6:1e:7f:ee:6a:7a:fd:bd:
                    4e:8e:2c:e8:b6:79:db:b9:1d:ee:36:80:44:3e:dc:
                    a8:ef:7f:6b:bc:c4:b8:ed:6d:7b:a2:e9:33:d7:3a:
                    e7:63:4f:60:bd:e6:bc:bb:09:1e:01:d1:47:42:84:
                    cd:0e:85:ca:08:0c:fa:36:4e:db:da:6a:f3:23:45:
                    c7:12:0c:0e:3d:e3:8a:4c:e1:4e:65:e9:c7:c9:4c:
                    73:ac:b0:ef:10:0d:bc:d3:e8:c0:81:da:ea:a0:85:
                    50:c9:ec:2f:a7:0e:df:49:43:45:8b:d2:4a:61:ae:
                    71:e5:89:44:8c:af:1b:9b:52:70:07:ac:63:8a:ae:
                    8b:69:2a:20:1e:b1:6c:52:f4:65:5b:df:b4:de:4d:
                    94:61:dd:e3:42:21:c9:7c:24:e6:21:c2:b6:ba:7f:
                    83:55:2e:10:81:4e:bf:fd:29:32:5a:b2:80:b2:78:
                    7c:93:16:60:cf:20:71:9b:30:46:ff:a6:83:48:1b:
                    57:c3:db:99:1b:b9:36:b8:92:d2:74:d4:e4:c9:a4:
                    54:a6:e1:5b:b0:f6:11:cb:2f:39:80:24:c7:80:99:
                    c4:9b:5e:b4:19:c5:cf:2f:aa:0c:68:9b:0d:ab:b4:
                    60:ab:2c:2a:2f:b5:00:50:7c:e2:8d:3f:c5:97:3a:
                    83:1d
                Exponent: 65537 (0x10001)
        X509v3 extensions:
            X509v3 Basic Constraints: 
                CA:FALSE
            X509v3 Subject Key Identifier: 
                11:EC:89:B5:CC:08:E5:69:40:64:72:F5:ED:28:B2:38:D0:6F:9A:99
            X509v3 Authority Key Identifier: 
                keyid:D6:10:A6:A6:7E:D9:5B:0E:53:3B:F0:92:F2:A7:51:E9:8D:72:55:FE
                DirName:/CN=team104-net
                serial:3B:DE:AE:EF:F5:9F:5D:08:8C:27:04:E8:98:3B:A1:B4:E2:91:51:F2

            X509v3 Extended Key Usage: 
                TLS Web Server Authentication
            X509v3 Key Usage: 
                Digital Signature, Key Encipherment
            X509v3 Subject Alternative Name: 
                DNS:team104-server
    Signature Algorithm: sha256WithRSAEncryption
         0e:31:11:a9:c0:6e:17:3c:22:a2:60:a1:c2:33:36:1c:4f:c4:
         da:36:8d:33:f4:4f:7d:51:e6:69:ab:70:dc:b1:c7:15:77:5d:
         ac:f9:7e:ef:a8:96:45:8d:46:83:46:65:17:ad:9d:c7:55:46:
         61:5c:4c:71:61:20:2e:13:ac:e4:70:d8:19:c4:fb:dc:b9:7a:
         cb:27:89:85:f6:68:8c:96:5a:91:61:1b:a5:fc:02:52:d2:4f:
         01:e8:d5:87:eb:1a:a7:b8:70:cc:8e:1a:0a:db:d5:24:90:6d:
         07:b1:81:31:5b:38:0b:4d:6f:76:38:ba:f4:a1:84:db:46:db:
         f2:05:bf:89:48:95:be:30:d5:cd:ee:cc:2e:a2:ef:88:93:16:
         76:01:28:99:4c:10:e5:80:a0:fc:77:c0:70:68:6f:93:59:3c:
         f5:b8:88:d8:d5:f0:0d:8f:b8:d0:f5:5a:3f:88:d7:ac:7d:ca:
         48:5a:84:e6:f0:ee:26:12:62:0e:82:54:a4:64:00:99:0c:3b:
         46:42:09:92:b8:b3:ac:0f:da:4f:b9:d7:c4:b1:22:32:53:b0:
         f6:c0:a6:2e:11:3d:b0:92:a2:e4:4b:0a:4f:6f:ce:8b:33:3a:
         92:79:77:94:18:de:66:94:24:99:83:cb:d6:d5:3a:19:e9:cd:
         93:cb:70:64
-----BEGIN CERTIFICATE-----
MIIDeDCCAmCgAwIBAgIRANSr7O57F7Sj/vorLaZ8K98wDQYJKoZIhvcNAQELBQAw
FjEUMBIGA1UEAwwLdGVhbTEwNC1uZXQwHhcNMjMwODE0MTQyNDIyWhcNMjYwNzI5
MTQyNDIyWjAZMRcwFQYDVQQDDA50ZWFtMTA0LXNlcnZlcjCCASIwDQYJKoZIhvcN
AQEBBQADggEPADCCAQoCggEBAL3QbZmC4dYef+5qev29To4s6LZ527kd7jaARD7c
qO9/a7zEuO1te6LpM9c652NPYL3mvLsJHgHRR0KEzQ6FyggM+jZO29pq8yNFxxIM
Dj3jikzhTmXpx8lMc6yw7xANvNPowIHa6qCFUMnsL6cO30lDRYvSSmGuceWJRIyv
G5tScAesY4qui2kqIB6xbFL0ZVvftN5NlGHd40IhyXwk5iHCtrp/g1UuEIFOv/0p
MlqygLJ4fJMWYM8gcZswRv+mg0gbV8PbmRu5NriS0nTU5MmkVKbhW7D2EcsvOYAk
x4CZxJtetBnFzy+qDGibDau0YKssKi+1AFB84o0/xZc6gx0CAwEAAaOBvTCBujAJ
BgNVHRMEAjAAMB0GA1UdDgQWBBQR7Im1zAjlaUBkcvXtKLI40G+amTBRBgNVHSME
SjBIgBTWEKamftlbDlM78JLyp1HpjXJV/qEapBgwFjEUMBIGA1UEAwwLdGVhbTEw
NC1uZXSCFDveru/1n10IjCcE6Jg7obTikVHyMBMGA1UdJQQMMAoGCCsGAQUFBwMB
MAsGA1UdDwQEAwIFoDAZBgNVHREEEjAQgg50ZWFtMTA0LXNlcnZlcjANBgkqhkiG
9w0BAQsFAAOCAQEADjERqcBuFzwiomChwjM2HE/E2jaNM/RPfVHmaatw3LHHFXdd
rPl+76iWRY1Gg0ZlF62dx1VGYVxMcWEgLhOs5HDYGcT73Ll6yyeJhfZojJZakWEb
pfwCUtJPAejVh+sap7hwzI4aCtvVJJBtB7GBMVs4C01vdji69KGE20bb8gW/iUiV
vjDVze7MLqLviJMWdgEomUwQ5YCg/HfAcGhvk1k89biI2NXwDY+40PVaP4jXrH3K
SFqE5vDuJhJiDoJUpGQAmQw7RkIJkrizrA/aT7nXxLEiMlOw9sCmLhE9sJKi5EsK
T2/OizM6knl3lBjeZpQkmYPL1tU6GenNk8twZA==
-----END CERTIFICATE-----
