Certificate:
    Data:
        Version: 3 (0x2)
        Serial Number:
            4c:d3:52:80:fa:a2:26:e9:01:56:a9:e9:43:80:6f:de
        Signature Algorithm: sha256WithRSAEncryption
        Issuer: CN=team197-net
        Validity
            Not Before: Aug 14 14:26:15 2023 GMT
            Not After : Jul 29 14:26:15 2026 GMT
        Subject: CN=team197-client
        Subject Public Key Info:
            Public Key Algorithm: rsaEncryption
                RSA Public-Key: (2048 bit)
                Modulus:
                    00:d2:cb:82:12:88:e0:16:f6:ed:5b:fc:10:24:6b:
                    74:10:d3:44:62:ec:13:14:1a:09:b6:42:76:b7:7f:
                    71:65:a7:ac:4d:29:78:d0:53:15:0d:e9:4f:90:49:
                    99:9d:ab:2a:86:2c:c5:76:a7:90:b9:ae:b8:9e:bb:
                    25:f5:20:aa:17:cd:9f:df:fe:4f:a8:1f:d5:d2:c9:
                    a1:52:89:f0:6c:a7:55:7a:0f:03:a4:3f:56:56:08:
                    8b:f8:dd:cb:07:23:fb:0d:01:69:60:a4:73:42:6e:
                    ab:30:59:ca:91:de:c2:a9:00:d1:66:9d:1c:be:be:
                    a7:d6:34:89:30:58:7b:d8:cf:df:b4:2b:38:e4:35:
                    d2:20:3f:fd:09:bd:8c:5e:e2:36:a7:6f:62:e3:d9:
                    00:39:1e:88:8a:dc:3c:80:c9:fa:85:0e:78:28:52:
                    8d:14:22:f4:e0:58:f8:57:ca:60:0b:fd:02:26:70:
                    ea:76:e0:7b:18:3a:0c:61:a5:0d:c0:41:e8:57:64:
                    d1:c8:cf:f9:e1:4d:2d:9c:3b:cb:45:1c:71:0d:6c:
                    03:ff:ea:d3:d0:9a:fb:47:59:94:2a:c7:0a:48:76:
                    ee:40:89:ea:68:bc:0f:01:d8:d2:44:0f:2e:b1:3f:
                    03:48:aa:78:a5:fc:fe:1b:5b:b6:0d:7e:cf:07:05:
                    fc:f3
                Exponent: 65537 (0x10001)
        X509v3 extensions:
            X509v3 Basic Constraints: 
                CA:FALSE
            X509v3 Subject Key Identifier: 
                81:50:9A:DE:3C:66:70:92:3C:DC:80:69:18:02:F1:E5:DE:25:34:54
            X509v3 Authority Key Identifier: 
                keyid:31:77:3A:DE:CD:EA:B0:0F:C5:04:88:60:90:5A:CE:27:52:0C:E3:7B
                DirName:/CN=team197-net
                serial:1D:97:B7:13:F5:40:A8:FF:34:5A:CD:9F:7B:F4:1B:EE:A1:9D:C1:24

            X509v3 Extended Key Usage: 
                TLS Web Client Authentication
            X509v3 Key Usage: 
                Digital Signature
    Signature Algorithm: sha256WithRSAEncryption
         2a:9b:b8:32:8f:47:6c:e4:d4:4d:f9:87:28:cd:cf:ec:7b:04:
         13:f0:bd:19:97:1d:74:d8:0f:59:db:a0:ef:10:41:e0:da:16:
         47:6c:4b:86:a2:b2:00:fa:fb:54:ce:51:33:7b:0e:ab:6d:ab:
         7f:63:db:22:a6:ce:5d:28:80:45:e4:ad:c2:2b:6b:08:9c:30:
         a4:2d:21:01:aa:17:dc:45:d0:91:09:80:7c:0b:5a:df:bc:4b:
         f0:33:e8:70:73:f5:90:0f:3a:ce:ad:d1:70:57:1e:a4:24:12:
         6f:7f:9e:8d:90:1a:ad:51:a0:7e:1e:ad:2d:ad:c0:4d:7e:fb:
         83:bf:03:07:36:27:8b:2a:bc:8d:bd:4e:76:66:59:2c:74:25:
         ce:04:51:f0:90:3d:4d:a5:49:de:b3:e1:d8:85:89:f9:7b:42:
         e8:ce:f1:12:99:33:0b:d2:d7:8c:69:5a:8b:9c:cb:59:8d:57:
         6a:08:0b:2e:b5:a5:d6:b2:01:5e:8e:9c:36:9d:47:a7:cc:18:
         51:61:7d:73:0a:92:dd:13:32:b6:18:6f:d8:85:92:c9:55:a7:
         1a:7d:57:53:b6:7c:b2:43:a7:0a:f4:7a:d5:02:11:6c:2b:30:
         d2:10:b7:5a:58:46:42:e2:81:1b:d8:13:16:52:9f:7c:be:10:
         0e:11:fd:1f
-----BEGIN CERTIFICATE-----
MIIDXDCCAkSgAwIBAgIQTNNSgPqiJukBVqnpQ4Bv3jANBgkqhkiG9w0BAQsFADAW
MRQwEgYDVQQDDAt0ZWFtMTk3LW5ldDAeFw0yMzA4MTQxNDI2MTVaFw0yNjA3Mjkx
NDI2MTVaMBkxFzAVBgNVBAMMDnRlYW0xOTctY2xpZW50MIIBIjANBgkqhkiG9w0B
AQEFAAOCAQ8AMIIBCgKCAQEA0suCEojgFvbtW/wQJGt0ENNEYuwTFBoJtkJ2t39x
ZaesTSl40FMVDelPkEmZnasqhizFdqeQua64nrsl9SCqF82f3/5PqB/V0smhUonw
bKdVeg8DpD9WVgiL+N3LByP7DQFpYKRzQm6rMFnKkd7CqQDRZp0cvr6n1jSJMFh7
2M/ftCs45DXSID/9Cb2MXuI2p29i49kAOR6Iitw8gMn6hQ54KFKNFCL04Fj4V8pg
C/0CJnDqduB7GDoMYaUNwEHoV2TRyM/54U0tnDvLRRxxDWwD/+rT0Jr7R1mUKscK
SHbuQInqaLwPAdjSRA8usT8DSKp4pfz+G1u2DX7PBwX88wIDAQABo4GiMIGfMAkG
A1UdEwQCMAAwHQYDVR0OBBYEFIFQmt48ZnCSPNyAaRgC8eXeJTRUMFEGA1UdIwRK
MEiAFDF3Ot7N6rAPxQSIYJBazidSDON7oRqkGDAWMRQwEgYDVQQDDAt0ZWFtMTk3
LW5ldIIUHZe3E/VAqP80Ws2fe/Qb7qGdwSQwEwYDVR0lBAwwCgYIKwYBBQUHAwIw
CwYDVR0PBAQDAgeAMA0GCSqGSIb3DQEBCwUAA4IBAQAqm7gyj0ds5NRN+Ycozc/s
ewQT8L0Zlx102A9Z26DvEEHg2hZHbEuGorIA+vtUzlEzew6rbat/Y9sips5dKIBF
5K3CK2sInDCkLSEBqhfcRdCRCYB8C1rfvEvwM+hwc/WQDzrOrdFwVx6kJBJvf56N
kBqtUaB+Hq0trcBNfvuDvwMHNieLKryNvU52ZlksdCXOBFHwkD1NpUnes+HYhYn5
e0LozvESmTML0teMaVqLnMtZjVdqCAsutaXWsgFejpw2nUenzBhRYX1zCpLdEzK2
GG/YhZLJVacafVdTtnyyQ6cK9HrVAhFsKzDSELdaWEZC4oEb2BMWUp98vhAOEf0f
-----END CERTIFICATE-----
