Certificate:
    Data:
        Version: 3 (0x2)
        Serial Number:
            70:c2:d9:73:dc:cb:c2:60:d2:a6:cf:54:30:db:11:46
        Signature Algorithm: sha256WithRSAEncryption
        Issuer: CN=team197-net
        Validity
            Not Before: Aug 14 14:26:16 2023 GMT
            Not After : Jul 29 14:26:16 2026 GMT
        Subject: CN=team197-server
        Subject Public Key Info:
            Public Key Algorithm: rsaEncryption
                RSA Public-Key: (2048 bit)
                Modulus:
                    00:a2:e6:ef:8e:46:9c:9f:0f:63:6a:a8:ae:01:18:
                    8e:4b:c7:59:52:34:46:21:0b:a4:4d:de:d6:b0:c2:
                    05:ba:7b:e3:e6:b5:ae:5f:a8:be:00:76:cd:cc:51:
                    a8:da:ca:29:7b:e9:0c:57:6e:5b:5b:26:14:07:59:
                    db:5d:4d:46:f0:6e:2a:f1:50:41:f4:ed:8a:c3:84:
                    f8:cd:df:c2:68:a3:a8:de:af:6e:64:98:ef:a9:18:
                    bf:e4:43:c1:c0:78:b8:29:f5:23:6b:a6:89:0e:07:
                    48:e9:91:dc:4f:fd:15:73:3d:a7:ea:e4:80:a3:26:
                    97:5d:f2:cf:95:69:7b:34:a8:b2:79:44:73:50:04:
                    86:e8:b1:08:71:a8:b0:fd:f7:c6:33:c7:06:6d:86:
                    c2:bc:dc:3b:79:6c:e0:e0:d5:b2:9b:23:1c:32:58:
                    af:04:38:fc:87:8a:73:e3:fd:7a:12:a8:0d:22:0c:
                    35:16:d9:2f:77:0d:ce:62:98:ee:90:f8:f4:e9:44:
                    72:59:e3:4b:ca:ee:a2:f5:f7:70:97:35:b5:a4:28:
                    39:3a:11:81:dc:10:af:44:ba:29:b1:ae:ba:41:f5:
                    63:0d:64:a8:74:01:d4:fa:24:34:43:58:0a:d7:b9:
                    94:3f:64:7a:ad:2f:1d:36:2e:5d:34:0e:f6:6e:0e:
                    9d:67
                Exponent: 65537 (0x10001)
        X509v3 extensions:
            X509v3 Basic Constraints: 
                CA:FALSE
            X509v3 Subject Key Identifier: 
                41:AF:D9:81:A0:3D:7D:1B:B3:1C:9D:A7:1B:D1:42:54:97:AD:64:9B
            X509v3 Authority Key Identifier: 
                keyid:31:77:3A:DE:CD:EA:B0:0F:C5:04:88:60:90:5A:CE:27:52:0C:E3:7B
                DirName:/CN=team197-net
                serial:1D:97:B7:13:F5:40:A8:FF:34:5A:CD:9F:7B:F4:1B:EE:A1:9D:C1:24

            X509v3 Extended Key Usage: 
                TLS Web Server Authentication
            X509v3 Key Usage: 
                Digital Signature, Key Encipherment
            X509v3 Subject Alternative Name: 
                DNS:team197-server
    Signature Algorithm: sha256WithRSAEncryption
         9a:ee:8a:ce:71:e3:fd:47:bc:96:6f:77:88:e5:b4:ca:71:f8:
         44:03:07:33:26:ab:ce:8d:04:86:5d:ba:e1:de:24:66:d2:98:
         49:f5:a3:c5:04:16:af:dd:67:13:c0:b6:26:e4:2d:90:b4:09:
         c3:52:35:ce:fc:60:52:a0:15:8a:79:6a:b4:44:d7:97:63:8a:
         3a:39:2b:85:0b:32:68:39:48:fb:41:5a:a4:61:d2:94:9e:49:
         74:b9:cb:fd:b0:be:e7:78:d7:e7:25:f3:71:35:85:37:fd:1d:
         76:1b:4f:2a:1b:30:ca:bf:18:bd:1c:c3:db:8e:10:6e:cc:74:
         6d:c6:bb:3f:53:42:d7:bd:af:ef:16:5a:38:56:ca:e4:c0:95:
         87:be:cf:7e:86:27:7f:0b:84:9e:bc:9e:11:d3:b3:f6:2e:b3:
         41:52:5f:82:e7:22:d2:ab:e6:02:44:69:9f:c6:be:3e:68:4d:
         f9:ca:05:db:51:9d:ae:02:c7:0a:47:21:6f:b4:7a:66:d7:46:
         67:c1:d2:4f:f7:bc:ee:e9:a0:ba:8b:15:2d:71:24:60:ce:2d:
         4e:57:37:16:0a:25:0e:51:51:21:4e:d2:d9:15:fc:f7:48:19:
         4b:24:6b:9d:e6:b2:53:a2:b5:65:f3:e7:44:3e:d2:5c:06:a8:
         fb:a4:3f:2c
-----BEGIN CERTIFICATE-----
MIIDdzCCAl+gAwIBAgIQcMLZc9zLwmDSps9UMNsRRjANBgkqhkiG9w0BAQsFADAW
MRQwEgYDVQQDDAt0ZWFtMTk3LW5ldDAeFw0yMzA4MTQxNDI2MTZaFw0yNjA3Mjkx
NDI2MTZaMBkxFzAVBgNVBAMMDnRlYW0xOTctc2VydmVyMIIBIjANBgkqhkiG9w0B
AQEFAAOCAQ8AMIIBCgKCAQEAoubvjkacnw9jaqiuARiOS8dZUjRGIQukTd7WsMIF
unvj5rWuX6i+AHbNzFGo2sope+kMV25bWyYUB1nbXU1G8G4q8VBB9O2Kw4T4zd/C
aKOo3q9uZJjvqRi/5EPBwHi4KfUja6aJDgdI6ZHcT/0Vcz2n6uSAoyaXXfLPlWl7
NKiyeURzUASG6LEIcaiw/ffGM8cGbYbCvNw7eWzg4NWymyMcMlivBDj8h4pz4/16
EqgNIgw1Ftkvdw3OYpjukPj06URyWeNLyu6i9fdwlzW1pCg5OhGB3BCvRLopsa66
QfVjDWSodAHU+iQ0Q1gK17mUP2R6rS8dNi5dNA72bg6dZwIDAQABo4G9MIG6MAkG
A1UdEwQCMAAwHQYDVR0OBBYEFEGv2YGgPX0bsxydpxvRQlSXrWSbMFEGA1UdIwRK
MEiAFDF3Ot7N6rAPxQSIYJBazidSDON7oRqkGDAWMRQwEgYDVQQDDAt0ZWFtMTk3
LW5ldIIUHZe3E/VAqP80Ws2fe/Qb7qGdwSQwEwYDVR0lBAwwCgYIKwYBBQUHAwEw
CwYDVR0PBAQDAgWgMBkGA1UdEQQSMBCCDnRlYW0xOTctc2VydmVyMA0GCSqGSIb3
DQEBCwUAA4IBAQCa7orOceP9R7yWb3eI5bTKcfhEAwczJqvOjQSGXbrh3iRm0phJ
9aPFBBav3WcTwLYm5C2QtAnDUjXO/GBSoBWKeWq0RNeXY4o6OSuFCzJoOUj7QVqk
YdKUnkl0ucv9sL7neNfnJfNxNYU3/R12G08qGzDKvxi9HMPbjhBuzHRtxrs/U0LX
va/vFlo4VsrkwJWHvs9+hid/C4SevJ4R07P2LrNBUl+C5yLSq+YCRGmfxr4+aE35
ygXbUZ2uAscKRyFvtHpm10ZnwdJP97zu6aC6ixUtcSRgzi1OVzcWCiUOUVEhTtLZ
Ffz3SBlLJGud5rJTorVl8+dEPtJcBqj7pD8s
-----END CERTIFICATE-----
