Certificate:
    Data:
        Version: 3 (0x2)
        Serial Number:
            74:34:da:d1:c5:fd:3e:a4:46:63:38:f1:42:2a:80:89
        Signature Algorithm: sha256WithRSAEncryption
        Issuer: CN=team193-net
        Validity
            Not Before: Aug 14 14:26:12 2023 GMT
            Not After : Jul 29 14:26:12 2026 GMT
        Subject: CN=team193-server
        Subject Public Key Info:
            Public Key Algorithm: rsaEncryption
                RSA Public-Key: (2048 bit)
                Modulus:
                    00:eb:7d:8c:47:6c:4e:f3:3c:b0:13:58:02:cf:cf:
                    63:b6:f4:e8:27:bc:db:cd:94:3f:24:7b:57:b2:ab:
                    4a:9c:24:f9:e7:0c:8e:8f:55:8c:23:3e:c5:31:78:
                    e8:79:e4:fe:d0:fe:ed:dc:4f:1c:d1:9a:6d:b3:bf:
                    d3:fd:b8:1d:0e:43:6e:1d:5a:53:00:4d:c0:74:5b:
                    80:a5:02:e9:3b:60:14:85:8f:52:84:a9:f1:b8:95:
                    34:0f:f4:c2:f8:48:ac:a6:71:1b:b9:ff:bc:ff:8e:
                    e3:da:1a:57:5a:50:43:3c:73:3c:b0:25:87:a0:ab:
                    8d:74:95:a5:9c:03:48:54:83:dc:28:b4:7a:af:cc:
                    bb:45:38:ad:6b:9e:c0:6f:25:9c:c5:4f:f5:72:cb:
                    d9:2e:3d:e3:0b:20:ef:5d:fc:17:74:fe:2a:16:80:
                    c0:5f:e3:4a:02:bb:dc:4b:ff:ab:a4:84:4a:02:11:
                    f3:6f:6b:6c:1c:b9:01:84:65:2d:b3:d0:e0:78:20:
                    c1:40:b5:40:b1:06:f2:fe:b5:56:96:e2:45:48:b7:
                    44:f6:5c:f8:25:fa:21:97:e0:87:87:db:55:10:8f:
                    78:07:7b:c0:66:b6:a8:fb:6f:a6:8b:87:5b:7c:e0:
                    ab:40:12:80:a0:84:f8:4e:ad:b5:09:5f:52:c1:10:
                    1f:33
                Exponent: 65537 (0x10001)
        X509v3 extensions:
            X509v3 Basic Constraints: 
                CA:FALSE
            X509v3 Subject Key Identifier: 
                72:30:56:AF:BB:C6:95:CD:2B:71:BA:07:AD:34:11:34:D6:41:8E:C2
            X509v3 Authority Key Identifier: 
                keyid:32:4A:2A:00:EE:BA:40:6F:17:11:FB:D0:D9:B1:DB:83:4C:42:9F:79
                DirName:/CN=team193-net
                serial:2C:6C:AD:E6:8D:E6:EA:59:D3:D9:90:96:AE:0C:8B:12:9D:CB:E6:EE

            X509v3 Extended Key Usage: 
                TLS Web Server Authentication
            X509v3 Key Usage: 
                Digital Signature, Key Encipherment
            X509v3 Subject Alternative Name: 
                DNS:team193-server
    Signature Algorithm: sha256WithRSAEncryption
         af:4c:bb:f3:ab:6f:86:4a:01:ef:76:ec:f2:eb:72:58:3d:2c:
         37:7c:d9:3a:fb:62:40:92:c4:9d:bc:6f:9b:4b:ff:a1:d2:1b:
         cc:f4:19:cf:f0:0f:93:5d:8b:a4:4c:03:f8:b7:5d:d9:c0:6c:
         1f:1e:56:9a:5c:72:e3:3d:19:26:a0:98:0c:55:a9:f1:6d:98:
         c1:3c:1b:b4:30:8b:0e:b6:94:56:69:9b:1e:43:7a:6c:70:c7:
         4e:be:30:51:3d:2c:9e:75:63:85:ad:80:d6:ba:bb:6c:c9:57:
         60:ec:d8:7d:87:d0:57:70:48:4f:94:50:a2:6a:72:14:c0:fc:
         16:bc:d8:58:e7:29:7f:84:fc:0e:14:ff:8e:42:f4:6e:76:70:
         5e:1b:f5:bc:50:3a:85:0a:c3:3b:1e:0e:49:58:8f:f4:d1:17:
         94:89:5e:a3:94:c8:3f:77:05:c1:21:1e:db:99:ff:fd:1e:de:
         f9:8c:c4:d9:65:ce:59:97:70:20:de:07:68:88:d0:ca:22:0e:
         8b:2e:1f:ec:d7:01:9c:15:3d:a5:a3:89:10:65:72:06:58:e8:
         e7:9e:e5:b1:14:f2:dc:26:07:0c:75:ff:9a:79:03:5a:1f:b3:
         a6:49:b2:ba:11:c3:a6:18:d3:3a:3e:db:96:46:65:cb:8a:33:
         e9:4f:53:df
-----BEGIN CERTIFICATE-----
MIIDdzCCAl+gAwIBAgIQdDTa0cX9PqRGYzjxQiqAiTANBgkqhkiG9w0BAQsFADAW
MRQwEgYDVQQDDAt0ZWFtMTkzLW5ldDAeFw0yMzA4MTQxNDI2MTJaFw0yNjA3Mjkx
NDI2MTJaMBkxFzAVBgNVBAMMDnRlYW0xOTMtc2VydmVyMIIBIjANBgkqhkiG9w0B
AQEFAAOCAQ8AMIIBCgKCAQEA632MR2xO8zywE1gCz89jtvToJ7zbzZQ/JHtXsqtK
nCT55wyOj1WMIz7FMXjoeeT+0P7t3E8c0Zpts7/T/bgdDkNuHVpTAE3AdFuApQLp
O2AUhY9ShKnxuJU0D/TC+EispnEbuf+8/47j2hpXWlBDPHM8sCWHoKuNdJWlnANI
VIPcKLR6r8y7RTita57AbyWcxU/1csvZLj3jCyDvXfwXdP4qFoDAX+NKArvcS/+r
pIRKAhHzb2tsHLkBhGUts9DgeCDBQLVAsQby/rVWluJFSLdE9lz4Jfohl+CHh9tV
EI94B3vAZrao+2+mi4dbfOCrQBKAoIT4Tq21CV9SwRAfMwIDAQABo4G9MIG6MAkG
A1UdEwQCMAAwHQYDVR0OBBYEFHIwVq+7xpXNK3G6B600ETTWQY7CMFEGA1UdIwRK
MEiAFDJKKgDuukBvFxH70Nmx24NMQp95oRqkGDAWMRQwEgYDVQQDDAt0ZWFtMTkz
LW5ldIIULGyt5o3m6lnT2ZCWrgyLEp3L5u4wEwYDVR0lBAwwCgYIKwYBBQUHAwEw
CwYDVR0PBAQDAgWgMBkGA1UdEQQSMBCCDnRlYW0xOTMtc2VydmVyMA0GCSqGSIb3
DQEBCwUAA4IBAQCvTLvzq2+GSgHvduzy63JYPSw3fNk6+2JAksSdvG+bS/+h0hvM
9BnP8A+TXYukTAP4t13ZwGwfHlaaXHLjPRkmoJgMVanxbZjBPBu0MIsOtpRWaZse
Q3pscMdOvjBRPSyedWOFrYDWurtsyVdg7Nh9h9BXcEhPlFCianIUwPwWvNhY5yl/
hPwOFP+OQvRudnBeG/W8UDqFCsM7Hg5JWI/00ReUiV6jlMg/dwXBIR7bmf/9Ht75
jMTZZc5Zl3Ag3gdoiNDKIg6LLh/s1wGcFT2lo4kQZXIGWOjnnuWxFPLcJgcMdf+a
eQNaH7OmSbK6EcOmGNM6PtuWRmXLijPpT1Pf
-----END CERTIFICATE-----
