Certificate:
    Data:
        Version: 3 (0x2)
        Serial Number:
            d2:73:17:88:a5:82:bb:b1:82:23:64:80:35:e3:62:d6
        Signature Algorithm: sha256WithRSAEncryption
        Issuer: CN=team60-net
        Validity
            Not Before: Aug 14 14:23:26 2023 GMT
            Not After : Jul 29 14:23:26 2026 GMT
        Subject: CN=team60-client
        Subject Public Key Info:
            Public Key Algorithm: rsaEncryption
                RSA Public-Key: (2048 bit)
                Modulus:
                    00:9d:d0:d2:cd:ed:0f:2c:b2:7c:0e:bb:21:53:5f:
                    e7:ce:61:b2:00:16:df:af:eb:8b:a9:2a:19:e2:29:
                    5a:e7:d8:19:93:bb:84:89:cd:a3:bc:f1:75:93:e4:
                    a3:22:ff:8f:d9:d8:2e:de:2b:20:00:4f:1b:e9:b9:
                    e9:92:fa:9c:2c:2c:c3:a2:59:54:0c:6d:55:63:f2:
                    b2:64:f6:55:27:b2:ca:5f:3c:f7:b6:0d:b9:d6:79:
                    b4:9f:20:2a:7a:02:ce:17:1b:18:5b:79:4c:b9:40:
                    ab:31:36:3b:bd:78:1f:12:d0:dc:ed:0f:9f:0d:9f:
                    80:2b:20:1b:84:17:90:a8:58:c5:a6:4b:c6:82:17:
                    70:db:df:a3:91:12:c5:68:dd:d1:f9:7b:b2:44:3c:
                    6d:c6:d6:d1:77:87:19:f9:9e:44:06:34:5f:a4:ab:
                    de:46:a2:3f:23:5a:10:4d:21:2a:cd:c3:ef:55:67:
                    65:75:a3:ed:87:da:34:06:8a:1c:c5:13:e7:ff:9c:
                    e2:e3:ab:d3:24:8f:84:23:7c:12:cd:60:65:68:a5:
                    4d:ff:da:1e:e5:3d:38:23:cb:86:e3:1c:14:8f:c4:
                    31:9d:41:7e:64:ff:5e:c2:a0:c5:b3:8b:d5:6b:c2:
                    08:4a:e8:f2:4b:94:28:49:e7:2c:3e:76:5d:f9:c2:
                    b2:63
                Exponent: 65537 (0x10001)
        X509v3 extensions:
            X509v3 Basic Constraints: 
                CA:FALSE
            X509v3 Subject Key Identifier: 
                C5:78:A2:27:80:DF:71:51:19:4B:65:82:78:27:6B:C9:C6:CB:18:4A
            X509v3 Authority Key Identifier: 
                keyid:72:5F:29:ED:7E:0D:F7:BA:A1:57:11:CB:FF:0D:AA:24:C9:FD:A5:0C
                DirName:/CN=team60-net
                serial:15:30:AE:D7:28:E1:C7:E2:8C:0D:49:6C:DB:5D:4C:DC:50:A5:64:6D

            X509v3 Extended Key Usage: 
                TLS Web Client Authentication
            X509v3 Key Usage: 
                Digital Signature
    Signature Algorithm: sha256WithRSAEncryption
         57:08:0f:87:b9:27:b9:a6:1a:ad:d1:7e:4c:64:7d:99:94:6c:
         ff:eb:79:c3:ab:eb:10:2a:61:1f:8d:e1:3c:f2:e0:51:db:c2:
         88:7b:3f:90:3f:0e:f0:1c:16:fb:4d:74:10:bc:37:0f:53:8f:
         7f:c2:3a:24:5d:15:4d:41:70:04:91:4b:c8:19:54:9d:3e:27:
         23:b4:40:7a:bf:4f:68:62:49:00:a4:06:f2:ab:87:de:5e:3e:
         bd:d3:41:33:24:78:28:bd:20:1a:fe:ce:1b:c2:60:5a:d0:ef:
         1f:f0:e1:96:9b:0a:26:d2:0c:25:95:af:73:0b:4c:65:c2:77:
         eb:27:ac:ab:fa:20:44:24:af:08:44:9c:7a:82:b9:39:5c:11:
         a9:ea:00:6f:83:24:8b:86:80:26:4f:97:7f:4b:bb:ad:30:95:
         09:a7:b7:d6:bc:80:53:01:80:de:4e:72:13:e9:16:3f:ab:12:
         04:10:d4:c1:d7:f1:b9:58:4f:a5:3d:25:30:77:b8:12:65:23:
         84:0b:af:e8:b4:57:79:06:fe:9d:b3:75:e5:25:e1:25:5f:0d:
         92:d8:85:04:f7:6d:b7:f0:db:2c:29:8f:f2:7f:3e:c0:40:23:
         b7:7c:51:a8:2f:0e:64:ff:31:bd:a4:a3:2a:1d:7a:bb:cb:27:
         3c:b3:b1:85
-----BEGIN CERTIFICATE-----
MIIDWjCCAkKgAwIBAgIRANJzF4ilgruxgiNkgDXjYtYwDQYJKoZIhvcNAQELBQAw
FTETMBEGA1UEAwwKdGVhbTYwLW5ldDAeFw0yMzA4MTQxNDIzMjZaFw0yNjA3Mjkx
NDIzMjZaMBgxFjAUBgNVBAMMDXRlYW02MC1jbGllbnQwggEiMA0GCSqGSIb3DQEB
AQUAA4IBDwAwggEKAoIBAQCd0NLN7Q8ssnwOuyFTX+fOYbIAFt+v64upKhniKVrn
2BmTu4SJzaO88XWT5KMi/4/Z2C7eKyAATxvpuemS+pwsLMOiWVQMbVVj8rJk9lUn
sspfPPe2DbnWebSfICp6As4XGxhbeUy5QKsxNju9eB8S0NztD58Nn4ArIBuEF5Co
WMWmS8aCF3Db36OREsVo3dH5e7JEPG3G1tF3hxn5nkQGNF+kq95Goj8jWhBNISrN
w+9VZ2V1o+2H2jQGihzFE+f/nOLjq9Mkj4QjfBLNYGVopU3/2h7lPTgjy4bjHBSP
xDGdQX5k/17CoMWzi9VrwghK6PJLlChJ5yw+dl35wrJjAgMBAAGjgaEwgZ4wCQYD
VR0TBAIwADAdBgNVHQ4EFgQUxXiiJ4DfcVEZS2WCeCdrycbLGEowUAYDVR0jBEkw
R4AUcl8p7X4N97qhVxHL/w2qJMn9pQyhGaQXMBUxEzARBgNVBAMMCnRlYW02MC1u
ZXSCFBUwrtco4cfijA1JbNtdTNxQpWRtMBMGA1UdJQQMMAoGCCsGAQUFBwMCMAsG
A1UdDwQEAwIHgDANBgkqhkiG9w0BAQsFAAOCAQEAVwgPh7knuaYardF+TGR9mZRs
/+t5w6vrECphH43hPPLgUdvCiHs/kD8O8BwW+010ELw3D1OPf8I6JF0VTUFwBJFL
yBlUnT4nI7RAer9PaGJJAKQG8quH3l4+vdNBMyR4KL0gGv7OG8JgWtDvH/DhlpsK
JtIMJZWvcwtMZcJ36yesq/ogRCSvCESceoK5OVwRqeoAb4Mki4aAJk+Xf0u7rTCV
Cae31ryAUwGA3k5yE+kWP6sSBBDUwdfxuVhPpT0lMHe4EmUjhAuv6LRXeQb+nbN1
5SXhJV8NktiFBPdtt/DbLCmP8n8+wEAjt3xRqC8OZP8xvaSjKh16u8snPLOxhQ==
-----END CERTIFICATE-----
