Certificate:
    Data:
        Version: 3 (0x2)
        Serial Number:
            ad:ee:4c:6c:78:5f:9f:ad:46:e3:68:5e:02:d5:81:b6
        Signature Algorithm: sha256WithRSAEncryption
        Issuer: CN=team228-net
        Validity
            Not Before: Aug 14 14:26:54 2023 GMT
            Not After : Jul 29 14:26:54 2026 GMT
        Subject: CN=team228-server
        Subject Public Key Info:
            Public Key Algorithm: rsaEncryption
                RSA Public-Key: (2048 bit)
                Modulus:
                    00:ea:d4:4b:51:ba:bb:1c:8d:1c:89:04:bf:a3:9e:
                    12:b5:b5:65:fa:29:a0:6a:81:f2:38:81:a3:23:99:
                    d1:97:44:58:e0:99:3f:d5:3e:24:ca:a5:4e:e9:c9:
                    4f:e9:64:77:70:83:49:8e:ac:5b:d1:41:65:c7:53:
                    35:d7:10:bb:d2:02:96:a1:33:67:d5:76:38:c0:df:
                    f7:9b:7d:3b:01:06:c8:69:d4:12:8f:48:59:af:dd:
                    4c:72:41:61:d4:08:ba:c8:d4:a3:8a:33:d2:23:cf:
                    d0:34:84:1b:8e:8e:b4:af:f2:cb:14:c0:97:e4:36:
                    8a:46:b5:18:65:b9:b7:4d:a6:7d:3b:97:93:34:ee:
                    59:a3:21:da:fe:06:c4:61:d1:95:a8:fd:6e:1b:50:
                    07:35:2c:4c:9f:db:40:8d:65:59:ef:ad:21:cc:f3:
                    e6:0a:67:70:14:f1:2f:2a:39:f3:01:05:cd:25:9b:
                    5e:cf:02:f4:f9:eb:2d:fe:98:2b:d1:05:10:9a:20:
                    0b:f5:ba:50:e6:69:bc:30:bd:3b:66:c0:08:f3:07:
                    a7:9b:5f:0b:19:87:4a:56:23:8f:b0:a2:f3:ec:41:
                    01:0d:ac:48:9c:d3:9b:77:c0:b7:a8:8f:1b:36:23:
                    4b:c0:81:f3:9e:32:1d:8c:6a:14:22:15:53:15:b6:
                    b4:17
                Exponent: 65537 (0x10001)
        X509v3 extensions:
            X509v3 Basic Constraints: 
                CA:FALSE
            X509v3 Subject Key Identifier: 
                67:1C:32:12:86:7A:42:24:46:46:77:9B:36:F1:45:D0:B5:FF:AE:D3
            X509v3 Authority Key Identifier: 
                keyid:78:39:E6:51:B9:6F:67:9D:18:CC:64:99:34:2F:CB:14:73:02:5D:B6
                DirName:/CN=team228-net
                serial:27:9E:85:8E:24:24:51:0F:0E:67:3F:90:71:E8:2F:1E:AF:49:12:66

            X509v3 Extended Key Usage: 
                TLS Web Server Authentication
            X509v3 Key Usage: 
                Digital Signature, Key Encipherment
            X509v3 Subject Alternative Name: 
                DNS:team228-server
    Signature Algorithm: sha256WithRSAEncryption
         2d:31:70:43:07:d4:84:b8:a1:3c:3e:86:e3:cf:41:33:fa:cc:
         23:9e:8d:dd:71:b0:20:03:13:64:0a:95:56:87:e1:96:a3:85:
         d5:ed:41:27:c4:f1:07:73:43:c0:ee:c7:05:93:c7:75:1e:67:
         50:ca:58:d4:d7:c6:cf:ec:73:8e:c6:03:4e:f6:8a:06:37:18:
         3f:cf:7c:e9:6b:eb:de:49:d8:ca:08:93:60:a0:6c:e2:b2:36:
         38:ce:90:bc:da:35:0d:53:a1:28:06:94:de:a7:f7:7a:e9:06:
         94:a5:87:27:60:97:31:55:4f:51:f7:f9:90:32:e6:cb:bc:03:
         d9:ca:99:6a:f5:92:49:41:ba:4a:ed:64:bb:3d:7d:fd:cc:63:
         8f:93:20:6a:03:37:72:fc:29:eb:70:44:4d:be:85:3c:19:2c:
         25:78:18:05:7c:fd:ff:c7:98:da:c0:ac:d1:9f:f2:4d:12:1b:
         8f:0e:76:eb:62:5f:15:1b:7d:c0:68:11:90:50:94:d6:c8:a8:
         71:38:9d:17:6b:5e:80:bc:0e:64:4c:e5:6c:03:03:94:d3:69:
         e3:99:ad:6a:89:dd:c4:04:6d:a8:00:7f:2d:6f:32:7a:df:85:
         d2:08:bc:9c:f7:10:2b:57:67:3c:22:69:99:b5:42:ba:61:46:
         36:ca:c5:91
-----BEGIN CERTIFICATE-----
MIIDeDCCAmCgAwIBAgIRAK3uTGx4X5+tRuNoXgLVgbYwDQYJKoZIhvcNAQELBQAw
FjEUMBIGA1UEAwwLdGVhbTIyOC1uZXQwHhcNMjMwODE0MTQyNjU0WhcNMjYwNzI5
MTQyNjU0WjAZMRcwFQYDVQQDDA50ZWFtMjI4LXNlcnZlcjCCASIwDQYJKoZIhvcN
AQEBBQADggEPADCCAQoCggEBAOrUS1G6uxyNHIkEv6OeErW1ZfopoGqB8jiBoyOZ
0ZdEWOCZP9U+JMqlTunJT+lkd3CDSY6sW9FBZcdTNdcQu9IClqEzZ9V2OMDf95t9
OwEGyGnUEo9IWa/dTHJBYdQIusjUo4oz0iPP0DSEG46OtK/yyxTAl+Q2ika1GGW5
t02mfTuXkzTuWaMh2v4GxGHRlaj9bhtQBzUsTJ/bQI1lWe+tIczz5gpncBTxLyo5
8wEFzSWbXs8C9PnrLf6YK9EFEJogC/W6UOZpvDC9O2bACPMHp5tfCxmHSlYjj7Ci
8+xBAQ2sSJzTm3fAt6iPGzYjS8CB854yHYxqFCIVUxW2tBcCAwEAAaOBvTCBujAJ
BgNVHRMEAjAAMB0GA1UdDgQWBBRnHDIShnpCJEZGd5s28UXQtf+u0zBRBgNVHSME
SjBIgBR4OeZRuW9nnRjMZJk0L8sUcwJdtqEapBgwFjEUMBIGA1UEAwwLdGVhbTIy
OC1uZXSCFCeehY4kJFEPDmc/kHHoLx6vSRJmMBMGA1UdJQQMMAoGCCsGAQUFBwMB
MAsGA1UdDwQEAwIFoDAZBgNVHREEEjAQgg50ZWFtMjI4LXNlcnZlcjANBgkqhkiG
9w0BAQsFAAOCAQEALTFwQwfUhLihPD6G489BM/rMI56N3XGwIAMTZAqVVofhlqOF
1e1BJ8TxB3NDwO7HBZPHdR5nUMpY1NfGz+xzjsYDTvaKBjcYP8986Wvr3knYygiT
YKBs4rI2OM6QvNo1DVOhKAaU3qf3eukGlKWHJ2CXMVVPUff5kDLmy7wD2cqZavWS
SUG6Su1kuz19/cxjj5MgagM3cvwp63BETb6FPBksJXgYBXz9/8eY2sCs0Z/yTRIb
jw5262JfFRt9wGgRkFCU1siocTidF2tegLwOZEzlbAMDlNNp45mtaondxARtqAB/
LW8yet+F0gi8nPcQK1dnPCJpmbVCumFGNsrFkQ==
-----END CERTIFICATE-----
