Certificate:
    Data:
        Version: 3 (0x2)
        Serial Number:
            86:63:b7:89:9b:43:ec:1f:76:68:ec:af:62:2a:b7:74
        Signature Algorithm: sha256WithRSAEncryption
        Issuer: CN=team154-net
        Validity
            Not Before: Aug 14 14:25:28 2023 GMT
            Not After : Jul 29 14:25:28 2026 GMT
        Subject: CN=team154-server
        Subject Public Key Info:
            Public Key Algorithm: rsaEncryption
                RSA Public-Key: (2048 bit)
                Modulus:
                    00:a5:3c:c0:87:12:c4:17:e8:18:4a:06:f0:18:6f:
                    d1:e7:0d:b2:03:e1:d8:7e:1d:a0:a0:be:88:4a:3f:
                    e5:4b:3c:92:75:5b:f5:dd:99:04:16:1b:43:f2:bc:
                    02:20:a4:3e:f0:2f:0e:50:90:12:5d:8b:73:50:5c:
                    43:af:f5:f6:c6:c0:d6:33:dc:2a:81:4f:41:a3:fa:
                    be:80:e1:18:c1:9f:5b:f9:7d:77:8d:2a:f6:b9:d8:
                    21:0f:bc:a4:31:9b:f2:60:4b:69:16:03:45:0a:ab:
                    27:a3:c8:c4:db:8c:4a:b3:4c:64:7e:ff:03:e4:a1:
                    d0:6d:a4:86:4d:ac:44:8a:6e:96:1c:c4:e4:3a:e6:
                    15:d4:fa:69:94:09:95:02:8f:29:32:99:ff:52:15:
                    27:84:5e:b5:88:fb:74:45:10:53:fa:71:f6:83:29:
                    65:9d:d1:31:07:b2:c0:8a:1b:19:9a:d4:52:70:eb:
                    e9:56:fc:89:54:c8:ca:ba:4f:81:85:ed:30:51:9f:
                    3f:1d:06:16:22:40:61:82:6b:f2:84:8b:6e:2e:f4:
                    6e:48:05:9c:bb:ad:9a:54:38:71:a5:d8:c6:6c:d9:
                    d2:8b:14:3f:d4:bf:67:5c:47:51:78:00:ca:c1:41:
                    af:f4:08:7d:08:24:32:2d:ed:41:2f:ae:e1:8b:f1:
                    a4:57
                Exponent: 65537 (0x10001)
        X509v3 extensions:
            X509v3 Basic Constraints: 
                CA:FALSE
            X509v3 Subject Key Identifier: 
                C6:ED:23:C0:03:F9:40:F9:6C:08:87:32:09:2E:74:AB:86:3A:CB:AF
            X509v3 Authority Key Identifier: 
                keyid:FD:F2:B1:31:EA:2F:B9:34:55:BC:4B:10:69:A9:47:C0:F1:78:D0:06
                DirName:/CN=team154-net
                serial:28:B1:13:9A:93:70:A9:1F:DB:31:12:4F:75:D0:D9:7E:29:FF:35:C5

            X509v3 Extended Key Usage: 
                TLS Web Server Authentication
            X509v3 Key Usage: 
                Digital Signature, Key Encipherment
            X509v3 Subject Alternative Name: 
                DNS:team154-server
    Signature Algorithm: sha256WithRSAEncryption
         a6:94:d3:94:26:45:23:8d:62:3b:76:8d:cf:01:5f:ec:9a:7d:
         89:be:ca:de:80:0b:b1:22:9b:92:0f:8c:9f:77:a6:1e:2c:d3:
         43:5f:eb:dc:d2:2c:36:ce:03:27:89:f5:07:20:74:e7:13:8f:
         51:16:84:56:ce:67:01:3d:37:bb:ad:de:08:7b:29:eb:df:de:
         c5:29:e3:4f:0b:81:e2:33:e4:fb:4f:5c:30:1a:f9:b2:e2:5d:
         9c:ef:7e:c6:64:38:a1:59:f2:2d:0d:68:2f:f7:52:36:b4:cb:
         e5:22:0a:cf:9f:1f:6d:18:18:56:f5:11:82:f4:e4:0d:c8:57:
         65:fd:ef:03:3b:32:73:a8:cc:4f:e3:ea:80:7a:f8:74:20:ed:
         c9:cb:60:65:62:cd:22:10:d9:0e:69:7f:f0:fb:5b:c8:c1:67:
         4a:76:fc:69:f7:13:7e:96:fb:81:c1:30:72:cd:0f:45:8b:65:
         b1:dc:e5:74:f9:ee:22:14:fa:e5:eb:49:a9:cc:fd:a0:12:fa:
         19:d3:06:d9:c6:7a:10:f9:ab:87:2e:80:40:9e:c5:bc:9f:4d:
         3c:04:82:12:97:0e:d0:9a:6f:e3:08:3c:a9:25:f7:3b:57:29:
         83:40:4a:f6:69:f3:5d:e8:40:f4:b4:6d:f6:2d:27:2c:e6:1d:
         ed:55:8f:5e
-----BEGIN CERTIFICATE-----
MIIDeDCCAmCgAwIBAgIRAIZjt4mbQ+wfdmjsr2Iqt3QwDQYJKoZIhvcNAQELBQAw
FjEUMBIGA1UEAwwLdGVhbTE1NC1uZXQwHhcNMjMwODE0MTQyNTI4WhcNMjYwNzI5
MTQyNTI4WjAZMRcwFQYDVQQDDA50ZWFtMTU0LXNlcnZlcjCCASIwDQYJKoZIhvcN
AQEBBQADggEPADCCAQoCggEBAKU8wIcSxBfoGEoG8Bhv0ecNsgPh2H4doKC+iEo/
5Us8knVb9d2ZBBYbQ/K8AiCkPvAvDlCQEl2Lc1BcQ6/19sbA1jPcKoFPQaP6voDh
GMGfW/l9d40q9rnYIQ+8pDGb8mBLaRYDRQqrJ6PIxNuMSrNMZH7/A+Sh0G2khk2s
RIpulhzE5DrmFdT6aZQJlQKPKTKZ/1IVJ4RetYj7dEUQU/px9oMpZZ3RMQeywIob
GZrUUnDr6Vb8iVTIyrpPgYXtMFGfPx0GFiJAYYJr8oSLbi70bkgFnLutmlQ4caXY
xmzZ0osUP9S/Z1xHUXgAysFBr/QIfQgkMi3tQS+u4YvxpFcCAwEAAaOBvTCBujAJ
BgNVHRMEAjAAMB0GA1UdDgQWBBTG7SPAA/lA+WwIhzIJLnSrhjrLrzBRBgNVHSME
SjBIgBT98rEx6i+5NFW8SxBpqUfA8XjQBqEapBgwFjEUMBIGA1UEAwwLdGVhbTE1
NC1uZXSCFCixE5qTcKkf2zEST3XQ2X4p/zXFMBMGA1UdJQQMMAoGCCsGAQUFBwMB
MAsGA1UdDwQEAwIFoDAZBgNVHREEEjAQgg50ZWFtMTU0LXNlcnZlcjANBgkqhkiG
9w0BAQsFAAOCAQEAppTTlCZFI41iO3aNzwFf7Jp9ib7K3oALsSKbkg+Mn3emHizT
Q1/r3NIsNs4DJ4n1ByB05xOPURaEVs5nAT03u63eCHsp69/exSnjTwuB4jPk+09c
MBr5suJdnO9+xmQ4oVnyLQ1oL/dSNrTL5SIKz58fbRgYVvURgvTkDchXZf3vAzsy
c6jMT+PqgHr4dCDtyctgZWLNIhDZDml/8PtbyMFnSnb8afcTfpb7gcEwcs0PRYtl
sdzldPnuIhT65etJqcz9oBL6GdMG2cZ6EPmrhy6AQJ7FvJ9NPASCEpcO0Jpv4wg8
qSX3O1cpg0BK9mnzXehA9LRt9i0nLOYd7VWPXg==
-----END CERTIFICATE-----
