Certificate:
    Data:
        Version: 3 (0x2)
        Serial Number:
            56:c9:aa:49:09:9c:4f:8f:f7:28:a2:e9:2c:02:99:72
        Signature Algorithm: sha256WithRSAEncryption
        Issuer: CN=team275-net
        Validity
            Not Before: Aug 14 14:27:55 2023 GMT
            Not After : Jul 29 14:27:55 2026 GMT
        Subject: CN=team275-client
        Subject Public Key Info:
            Public Key Algorithm: rsaEncryption
                RSA Public-Key: (2048 bit)
                Modulus:
                    00:b2:23:bb:6b:b0:e2:d0:ae:fa:03:72:31:42:a4:
                    41:3e:2f:57:32:02:d1:c6:8c:fc:33:47:db:3c:61:
                    66:66:7b:da:9f:4c:65:1c:68:ff:1b:6c:7b:f3:30:
                    a0:80:19:d2:e4:f0:7d:75:dd:16:fb:d3:1a:6d:f4:
                    dc:d6:21:58:28:de:15:ff:b5:1b:1f:3a:97:05:7d:
                    24:60:89:ae:10:1a:67:41:78:35:89:43:b6:15:86:
                    12:7a:c3:ae:bf:04:1a:48:5b:5e:c5:40:66:33:4c:
                    96:2c:73:d7:dd:67:94:c2:2b:b4:44:79:02:fc:15:
                    af:45:6d:ac:a2:51:fc:2a:77:6a:75:85:ed:4e:01:
                    77:a3:72:1d:86:42:e4:08:0f:6d:3e:44:6b:d7:a9:
                    3f:65:4b:e6:2e:b4:59:b0:2b:7d:a8:87:fe:41:1b:
                    1d:04:fb:d9:b9:ca:57:4f:5c:ad:17:ca:32:e4:2d:
                    bc:2a:36:d0:63:95:2f:9a:24:ec:90:f5:a9:07:3b:
                    0f:86:cb:7c:20:2d:7c:7b:05:da:2b:32:e7:5c:a1:
                    4f:3b:6d:a7:f0:6d:96:1d:5d:46:bb:4b:ad:f4:8e:
                    ad:4c:3a:f7:61:aa:03:e0:ef:a7:0f:b2:49:62:11:
                    31:f7:b1:d3:b7:16:9d:f8:b7:44:cd:6a:6a:b1:a5:
                    92:1d
                Exponent: 65537 (0x10001)
        X509v3 extensions:
            X509v3 Basic Constraints: 
                CA:FALSE
            X509v3 Subject Key Identifier: 
                D1:E5:5F:29:D5:54:66:E7:74:2E:D9:EC:60:AA:55:8B:BE:FF:E6:24
            X509v3 Authority Key Identifier: 
                keyid:CE:97:DF:1B:5D:37:24:79:B5:50:B8:DD:19:F4:1E:07:5B:49:02:2F
                DirName:/CN=team275-net
                serial:56:9C:3F:9E:10:1D:34:5F:00:50:D7:89:C3:E8:0E:2B:94:CF:11:6F

            X509v3 Extended Key Usage: 
                TLS Web Client Authentication
            X509v3 Key Usage: 
                Digital Signature
    Signature Algorithm: sha256WithRSAEncryption
         af:4c:73:58:9f:76:ce:5a:d0:50:e2:5c:03:f2:2a:57:cb:f9:
         24:03:e0:31:7d:2c:e3:88:94:ab:54:d0:5c:43:af:a7:ab:fd:
         aa:5c:d4:8b:4c:4d:6a:8c:e3:9e:10:c3:8e:e6:3f:4b:68:27:
         8a:11:38:6f:06:d2:d8:97:ac:c7:af:07:c5:e7:53:7d:dd:c7:
         96:e6:ba:c1:40:e8:77:d0:17:a1:cc:c3:b0:60:8c:86:a1:65:
         df:ea:ce:d9:e5:35:55:b8:5b:96:f3:38:3d:10:c2:53:50:31:
         92:40:7b:18:b8:e6:67:d9:52:30:9e:05:ec:35:56:f8:4c:c5:
         87:fb:6f:ac:06:b8:ab:83:17:44:99:c5:b2:ff:4a:96:7d:47:
         8e:ff:17:87:c6:2a:40:97:44:76:ee:bf:8d:64:50:57:7d:6e:
         b2:a2:3a:ee:42:c2:dd:f0:aa:6c:88:09:76:7c:fb:76:57:32:
         62:73:5e:a4:d4:81:1e:22:ea:d0:ac:6a:c2:cb:97:7c:6a:2f:
         5d:05:f5:a3:54:6f:04:23:ae:45:8e:a4:22:77:4d:11:af:61:
         4e:79:df:93:de:b1:48:f1:2a:57:cd:82:4a:19:05:89:08:7d:
         32:0c:0d:48:57:25:89:68:4e:46:cc:35:ff:62:e2:e3:0e:e1:
         b7:16:bc:ea
-----BEGIN CERTIFICATE-----
MIIDXDCCAkSgAwIBAgIQVsmqSQmcT4/3KKLpLAKZcjANBgkqhkiG9w0BAQsFADAW
MRQwEgYDVQQDDAt0ZWFtMjc1LW5ldDAeFw0yMzA4MTQxNDI3NTVaFw0yNjA3Mjkx
NDI3NTVaMBkxFzAVBgNVBAMMDnRlYW0yNzUtY2xpZW50MIIBIjANBgkqhkiG9w0B
AQEFAAOCAQ8AMIIBCgKCAQEAsiO7a7Di0K76A3IxQqRBPi9XMgLRxoz8M0fbPGFm
Znvan0xlHGj/G2x78zCggBnS5PB9dd0W+9MabfTc1iFYKN4V/7UbHzqXBX0kYImu
EBpnQXg1iUO2FYYSesOuvwQaSFtexUBmM0yWLHPX3WeUwiu0RHkC/BWvRW2solH8
KndqdYXtTgF3o3IdhkLkCA9tPkRr16k/ZUvmLrRZsCt9qIf+QRsdBPvZucpXT1yt
F8oy5C28KjbQY5UvmiTskPWpBzsPhst8IC18ewXaKzLnXKFPO22n8G2WHV1Gu0ut
9I6tTDr3YaoD4O+nD7JJYhEx97HTtxad+LdEzWpqsaWSHQIDAQABo4GiMIGfMAkG
A1UdEwQCMAAwHQYDVR0OBBYEFNHlXynVVGbndC7Z7GCqVYu+/+YkMFEGA1UdIwRK
MEiAFM6X3xtdNyR5tVC43Rn0HgdbSQIvoRqkGDAWMRQwEgYDVQQDDAt0ZWFtMjc1
LW5ldIIUVpw/nhAdNF8AUNeJw+gOK5TPEW8wEwYDVR0lBAwwCgYIKwYBBQUHAwIw
CwYDVR0PBAQDAgeAMA0GCSqGSIb3DQEBCwUAA4IBAQCvTHNYn3bOWtBQ4lwD8ipX
y/kkA+AxfSzjiJSrVNBcQ6+nq/2qXNSLTE1qjOOeEMOO5j9LaCeKEThvBtLYl6zH
rwfF51N93ceW5rrBQOh30BehzMOwYIyGoWXf6s7Z5TVVuFuW8zg9EMJTUDGSQHsY
uOZn2VIwngXsNVb4TMWH+2+sBrirgxdEmcWy/0qWfUeO/xeHxipAl0R27r+NZFBX
fW6yojruQsLd8KpsiAl2fPt2VzJic16k1IEeIurQrGrCy5d8ai9dBfWjVG8EI65F
jqQid00Rr2FOed+T3rFI8SpXzYJKGQWJCH0yDA1IVyWJaE5GzDX/YuLjDuG3Frzq
-----END CERTIFICATE-----
