Certificate:
    Data:
        Version: 3 (0x2)
        Serial Number:
            48:3b:13:b4:f7:7b:1e:13:e8:b5:9e:47:39:03:df:a3
        Signature Algorithm: sha256WithRSAEncryption
        Issuer: CN=team166-net
        Validity
            Not Before: Aug 14 14:25:42 2023 GMT
            Not After : Jul 29 14:25:42 2026 GMT
        Subject: CN=team166-server
        Subject Public Key Info:
            Public Key Algorithm: rsaEncryption
                RSA Public-Key: (2048 bit)
                Modulus:
                    00:d3:7e:03:b6:74:b4:1a:19:bd:2f:ee:2f:10:a6:
                    66:41:1e:38:ba:b5:57:55:73:96:cb:95:78:1d:97:
                    46:09:d7:09:84:82:6a:7d:4e:27:d9:6f:2a:f6:19:
                    06:71:21:25:24:8f:e1:3d:bb:f7:67:2a:f7:c8:69:
                    4f:3a:c9:35:f8:a2:4f:c0:c9:df:76:6c:f0:3e:ae:
                    c5:9c:ce:38:50:6b:5c:c6:a5:c2:ea:cd:8c:cf:cd:
                    01:83:87:d0:ab:a9:a2:7f:4d:1e:eb:53:fc:66:ea:
                    3f:c0:49:51:a2:7b:49:39:d6:fd:88:39:ba:b9:a5:
                    b7:90:b6:43:5c:a7:c8:1d:ee:49:ac:22:40:2a:28:
                    11:82:da:b7:74:dc:00:c9:4d:3a:cd:7b:b8:9b:0d:
                    e0:01:8b:22:8a:d5:87:91:fc:b4:62:00:67:f2:f3:
                    65:c6:03:90:59:ad:b2:fb:e5:fb:d3:d7:31:8b:57:
                    bf:5e:71:4d:23:bb:82:1f:44:6f:65:87:ba:6b:5f:
                    ae:3b:9a:5d:75:a1:3a:1b:fd:08:68:db:0c:28:b2:
                    d3:78:99:45:6c:02:4e:e9:ce:45:9d:20:6b:3d:f7:
                    98:1d:13:c3:68:3c:70:21:6f:75:31:4c:7f:dd:23:
                    a8:07:27:3c:42:fb:97:b0:63:37:5e:3e:ff:e7:65:
                    31:ef
                Exponent: 65537 (0x10001)
        X509v3 extensions:
            X509v3 Basic Constraints: 
                CA:FALSE
            X509v3 Subject Key Identifier: 
                66:89:30:0D:75:B2:53:8B:FC:EB:08:87:F2:A6:C2:16:34:F9:B7:6F
            X509v3 Authority Key Identifier: 
                keyid:FC:2F:C1:25:DB:D6:19:E8:B4:CB:A7:F6:DA:39:14:09:9E:98:B1:DC
                DirName:/CN=team166-net
                serial:2A:2E:4A:B4:D1:92:D6:1B:E1:59:B2:58:1B:5F:43:B5:20:9E:19:ED

            X509v3 Extended Key Usage: 
                TLS Web Server Authentication
            X509v3 Key Usage: 
                Digital Signature, Key Encipherment
            X509v3 Subject Alternative Name: 
                DNS:team166-server
    Signature Algorithm: sha256WithRSAEncryption
         5c:60:e2:b4:c2:58:96:8a:cc:51:6d:81:07:9f:19:9d:a4:e0:
         be:94:4f:f0:27:06:f9:42:90:84:0a:fe:7e:c5:fb:e6:20:da:
         a7:d9:ae:cb:bf:ba:38:2d:d5:6d:3c:25:81:80:db:13:5d:09:
         9d:a3:49:27:62:7a:c0:7d:32:0e:f0:ca:64:d6:a7:bf:df:e9:
         b7:b9:70:f4:f4:cc:f3:7c:04:41:bf:bf:06:6a:67:1d:f2:00:
         7d:aa:b4:a2:ae:4d:78:4f:2c:3e:14:87:42:83:87:72:ff:2a:
         71:38:80:bb:34:35:d2:e3:84:d5:92:2f:3e:de:5e:b9:18:9a:
         8a:0b:b3:95:98:5c:d0:00:db:d6:1c:61:2d:47:8f:51:30:ba:
         9c:40:65:bf:43:e3:58:ae:18:7b:fd:e3:97:40:99:03:6a:2a:
         84:c7:00:85:c3:59:b7:b5:07:88:6b:70:db:aa:e8:1d:39:71:
         31:3e:60:22:5e:09:b7:96:fa:3e:c9:44:e0:9e:e8:88:0e:1d:
         36:94:ed:73:ad:e8:64:92:08:48:c0:ce:a9:98:ff:35:d4:9c:
         83:f3:e6:6a:73:e0:b6:f1:e8:eb:0b:05:5a:9a:da:76:03:25:
         e0:4d:3f:cb:a7:59:9b:87:90:eb:43:e7:8f:aa:fd:c1:40:eb:
         64:9c:67:df
-----BEGIN CERTIFICATE-----
MIIDdzCCAl+gAwIBAgIQSDsTtPd7HhPotZ5HOQPfozANBgkqhkiG9w0BAQsFADAW
MRQwEgYDVQQDDAt0ZWFtMTY2LW5ldDAeFw0yMzA4MTQxNDI1NDJaFw0yNjA3Mjkx
NDI1NDJaMBkxFzAVBgNVBAMMDnRlYW0xNjYtc2VydmVyMIIBIjANBgkqhkiG9w0B
AQEFAAOCAQ8AMIIBCgKCAQEA034DtnS0Ghm9L+4vEKZmQR44urVXVXOWy5V4HZdG
CdcJhIJqfU4n2W8q9hkGcSElJI/hPbv3Zyr3yGlPOsk1+KJPwMnfdmzwPq7FnM44
UGtcxqXC6s2Mz80Bg4fQq6mif00e61P8Zuo/wElRontJOdb9iDm6uaW3kLZDXKfI
He5JrCJAKigRgtq3dNwAyU06zXu4mw3gAYsiitWHkfy0YgBn8vNlxgOQWa2y++X7
09cxi1e/XnFNI7uCH0RvZYe6a1+uO5pddaE6G/0IaNsMKLLTeJlFbAJO6c5FnSBr
PfeYHRPDaDxwIW91MUx/3SOoByc8QvuXsGM3Xj7/52Ux7wIDAQABo4G9MIG6MAkG
A1UdEwQCMAAwHQYDVR0OBBYEFGaJMA11slOL/OsIh/KmwhY0+bdvMFEGA1UdIwRK
MEiAFPwvwSXb1hnotMun9to5FAmemLHcoRqkGDAWMRQwEgYDVQQDDAt0ZWFtMTY2
LW5ldIIUKi5KtNGS1hvhWbJYG19DtSCeGe0wEwYDVR0lBAwwCgYIKwYBBQUHAwEw
CwYDVR0PBAQDAgWgMBkGA1UdEQQSMBCCDnRlYW0xNjYtc2VydmVyMA0GCSqGSIb3
DQEBCwUAA4IBAQBcYOK0wliWisxRbYEHnxmdpOC+lE/wJwb5QpCECv5+xfvmINqn
2a7Lv7o4LdVtPCWBgNsTXQmdo0knYnrAfTIO8Mpk1qe/3+m3uXD09MzzfARBv78G
amcd8gB9qrSirk14Tyw+FIdCg4dy/ypxOIC7NDXS44TVki8+3l65GJqKC7OVmFzQ
ANvWHGEtR49RMLqcQGW/Q+NYrhh7/eOXQJkDaiqExwCFw1m3tQeIa3DbqugdOXEx
PmAiXgm3lvo+yUTgnuiIDh02lO1zrehkkghIwM6pmP811JyD8+Zqc+C28ejrCwVa
mtp2AyXgTT/Lp1mbh5DrQ+ePqv3BQOtknGff
-----END CERTIFICATE-----
