Certificate:
    Data:
        Version: 3 (0x2)
        Serial Number:
            b4:66:00:1b:52:23:f2:74:34:7a:07:83:98:1c:87:e2
        Signature Algorithm: sha256WithRSAEncryption
        Issuer: CN=team126-net
        Validity
            Not Before: Aug 14 14:24:52 2023 GMT
            Not After : Jul 29 14:24:52 2026 GMT
        Subject: CN=team126-client
        Subject Public Key Info:
            Public Key Algorithm: rsaEncryption
                RSA Public-Key: (2048 bit)
                Modulus:
                    00:ba:1a:4f:8f:be:43:17:4b:b5:6a:71:bf:c1:a6:
                    52:f0:67:7e:66:88:1d:5d:07:17:66:bf:00:fd:23:
                    ce:44:cf:99:f0:9f:17:39:40:14:31:fd:26:73:c1:
                    63:3e:64:32:f0:eb:12:23:51:01:44:4b:85:59:ce:
                    85:50:5d:f9:11:50:5d:4e:1d:89:45:ef:01:b0:60:
                    1c:d4:01:02:eb:f8:60:e0:65:de:6c:b0:91:a4:af:
                    3f:39:0a:5d:aa:bd:23:e3:06:a6:47:ed:8e:52:8b:
                    f3:6f:8a:7d:60:e8:a0:ae:dc:93:68:49:47:a3:da:
                    49:33:21:ce:ab:e3:30:1d:dc:2e:37:64:59:3b:56:
                    25:a3:73:40:ab:6b:17:b8:fe:f9:67:9d:88:19:aa:
                    20:5a:68:74:a8:12:f4:4b:ad:40:06:a6:3a:1a:6d:
                    ad:f9:40:46:de:5e:87:a9:23:89:c0:e1:4f:97:9b:
                    2d:b5:2f:d8:00:88:05:c4:a5:9e:76:1c:1d:8a:a0:
                    3e:dd:b9:07:b7:53:d6:d8:55:d5:0d:2a:6c:ec:f0:
                    fb:10:00:6b:82:01:1a:f2:08:e3:20:18:24:74:58:
                    ca:80:88:3d:a3:a9:07:3a:3a:80:be:26:f3:0e:9a:
                    fa:26:78:ff:19:58:ab:f2:58:71:30:0c:19:cb:d2:
                    60:43
                Exponent: 65537 (0x10001)
        X509v3 extensions:
            X509v3 Basic Constraints: 
                CA:FALSE
            X509v3 Subject Key Identifier: 
                0A:F9:AC:EA:A4:64:32:E0:69:74:D0:9B:5D:F7:5C:73:E9:3B:9F:27
            X509v3 Authority Key Identifier: 
                keyid:ED:C9:1D:5A:78:94:3F:7F:F1:42:EB:23:9D:98:F8:15:45:CC:5C:17
                DirName:/CN=team126-net
                serial:3D:76:1C:21:FC:F2:3F:13:44:63:FB:4E:58:92:3E:83:3B:36:47:D2

            X509v3 Extended Key Usage: 
                TLS Web Client Authentication
            X509v3 Key Usage: 
                Digital Signature
    Signature Algorithm: sha256WithRSAEncryption
         19:9f:c7:a6:65:1d:82:0b:a9:89:13:04:44:e2:b1:e1:85:e8:
         29:70:74:b5:e8:31:86:0c:4a:b3:bc:39:9a:03:9a:70:41:7d:
         af:c1:65:fa:59:ce:a2:0d:5d:6b:7e:c9:9b:e6:f8:de:be:74:
         cc:1f:69:a0:98:8a:6d:bd:db:47:08:fb:0e:76:1f:44:8b:b2:
         5f:2e:66:e2:6b:56:96:20:ff:50:8f:b9:72:91:fa:a9:1c:0b:
         6a:14:fd:c8:ee:10:eb:58:33:b9:86:93:ad:fa:49:07:18:f5:
         1a:18:d1:0b:02:4f:c5:58:a9:4b:b1:d5:64:be:b5:5b:ae:16:
         30:f4:7e:a4:df:51:3a:7f:30:59:57:02:7c:38:09:31:1a:43:
         1f:cf:40:6c:29:58:44:60:ae:0e:45:98:e9:db:00:2e:c9:fb:
         43:f5:c2:4b:7a:68:4d:39:61:bb:8d:ce:d7:8c:70:31:38:b1:
         00:36:98:97:5f:9e:9a:9b:54:00:c1:da:37:aa:bc:52:6a:e8:
         a1:38:9e:29:0f:3a:b7:be:26:9b:82:db:0a:27:fc:54:9a:60:
         07:80:46:20:98:b3:5e:59:cc:7c:29:69:c6:f5:62:f1:d4:26:
         e9:0e:54:cd:7e:01:c1:29:51:d3:a0:d4:ee:52:5b:9f:34:6d:
         a7:c3:fe:48
-----BEGIN CERTIFICATE-----
MIIDXTCCAkWgAwIBAgIRALRmABtSI/J0NHoHg5gch+IwDQYJKoZIhvcNAQELBQAw
FjEUMBIGA1UEAwwLdGVhbTEyNi1uZXQwHhcNMjMwODE0MTQyNDUyWhcNMjYwNzI5
MTQyNDUyWjAZMRcwFQYDVQQDDA50ZWFtMTI2LWNsaWVudDCCASIwDQYJKoZIhvcN
AQEBBQADggEPADCCAQoCggEBALoaT4++QxdLtWpxv8GmUvBnfmaIHV0HF2a/AP0j
zkTPmfCfFzlAFDH9JnPBYz5kMvDrEiNRAURLhVnOhVBd+RFQXU4diUXvAbBgHNQB
Auv4YOBl3mywkaSvPzkKXaq9I+MGpkftjlKL82+KfWDooK7ck2hJR6PaSTMhzqvj
MB3cLjdkWTtWJaNzQKtrF7j++WediBmqIFpodKgS9EutQAamOhptrflARt5eh6kj
icDhT5ebLbUv2ACIBcSlnnYcHYqgPt25B7dT1thV1Q0qbOzw+xAAa4IBGvII4yAY
JHRYyoCIPaOpBzo6gL4m8w6a+iZ4/xlYq/JYcTAMGcvSYEMCAwEAAaOBojCBnzAJ
BgNVHRMEAjAAMB0GA1UdDgQWBBQK+azqpGQy4Gl00Jtd91xz6TufJzBRBgNVHSME
SjBIgBTtyR1aeJQ/f/FC6yOdmPgVRcxcF6EapBgwFjEUMBIGA1UEAwwLdGVhbTEy
Ni1uZXSCFD12HCH88j8TRGP7TliSPoM7NkfSMBMGA1UdJQQMMAoGCCsGAQUFBwMC
MAsGA1UdDwQEAwIHgDANBgkqhkiG9w0BAQsFAAOCAQEAGZ/HpmUdggupiRMEROKx
4YXoKXB0tegxhgxKs7w5mgOacEF9r8Fl+lnOog1da37Jm+b43r50zB9poJiKbb3b
Rwj7DnYfRIuyXy5m4mtWliD/UI+5cpH6qRwLahT9yO4Q61gzuYaTrfpJBxj1GhjR
CwJPxVipS7HVZL61W64WMPR+pN9ROn8wWVcCfDgJMRpDH89AbClYRGCuDkWY6dsA
Lsn7Q/XCS3poTTlhu43O14xwMTixADaYl1+emptUAMHaN6q8UmrooTieKQ86t74m
m4LbCif8VJpgB4BGIJizXlnMfClpxvVi8dQm6Q5UzX4BwSlR06DU7lJbnzRtp8P+
SA==
-----END CERTIFICATE-----
