Certificate:
    Data:
        Version: 3 (0x2)
        Serial Number:
            db:23:69:35:4f:a3:ca:20:99:0c:09:21:4a:ce:a3:44
        Signature Algorithm: sha256WithRSAEncryption
        Issuer: CN=team126-net
        Validity
            Not Before: Aug 14 14:24:52 2023 GMT
            Not After : Jul 29 14:24:52 2026 GMT
        Subject: CN=team126-server
        Subject Public Key Info:
            Public Key Algorithm: rsaEncryption
                RSA Public-Key: (2048 bit)
                Modulus:
                    00:d8:9f:4d:03:68:1c:1d:e4:c6:e8:50:ae:14:d8:
                    7f:d2:34:c1:36:67:4b:9a:ab:0a:30:6d:d1:c2:26:
                    b2:37:ce:70:7a:70:66:b5:98:2c:93:b1:14:e3:06:
                    f1:88:3d:6b:c9:70:68:20:29:2e:1e:29:fa:65:20:
                    86:f8:f6:52:3d:ce:c3:f0:99:d6:91:d8:e0:5a:15:
                    f0:03:22:4a:1e:7f:e1:38:d9:22:8a:31:e9:c6:f6:
                    95:c3:92:ab:31:35:1b:df:3e:1a:06:a5:5e:5b:08:
                    11:b0:6c:3f:e9:3d:92:81:0d:03:73:5e:22:9d:ad:
                    09:1b:47:f7:98:a6:20:03:45:68:4d:b1:c9:05:62:
                    4b:49:2b:e6:79:58:b2:3b:de:57:bb:5f:23:4e:de:
                    ce:c1:7b:e6:fb:9c:ae:20:23:ad:2f:8b:82:bf:6b:
                    57:e6:37:44:0c:e6:50:cb:de:d7:55:72:a5:05:13:
                    84:dd:5c:9d:48:aa:0f:29:df:49:86:6d:cf:c5:e5:
                    a0:66:25:3b:e5:92:4b:ae:a3:58:e0:5f:93:09:4e:
                    a5:9b:d4:49:69:98:43:f2:69:64:aa:bb:85:66:18:
                    9d:4e:0a:c2:b2:f1:80:fb:73:3a:21:e3:19:15:8f:
                    d1:3b:ef:c5:31:ff:12:54:5e:08:fb:82:86:5b:54:
                    59:9b
                Exponent: 65537 (0x10001)
        X509v3 extensions:
            X509v3 Basic Constraints: 
                CA:FALSE
            X509v3 Subject Key Identifier: 
                41:BA:85:1F:87:4A:47:AF:A6:1D:73:C2:ED:2A:04:EA:CE:44:17:3D
            X509v3 Authority Key Identifier: 
                keyid:ED:C9:1D:5A:78:94:3F:7F:F1:42:EB:23:9D:98:F8:15:45:CC:5C:17
                DirName:/CN=team126-net
                serial:3D:76:1C:21:FC:F2:3F:13:44:63:FB:4E:58:92:3E:83:3B:36:47:D2

            X509v3 Extended Key Usage: 
                TLS Web Server Authentication
            X509v3 Key Usage: 
                Digital Signature, Key Encipherment
            X509v3 Subject Alternative Name: 
                DNS:team126-server
    Signature Algorithm: sha256WithRSAEncryption
         12:18:13:cb:59:fd:32:1a:4e:c3:3a:74:78:1a:c8:21:c1:3c:
         0e:f1:f4:0e:2f:8d:a2:82:2f:2b:80:22:ee:a1:28:eb:ca:22:
         3c:72:4d:28:ab:aa:0b:36:fc:7c:73:ae:0c:7d:b0:dd:26:b4:
         50:82:07:7a:82:b1:c7:b3:4b:e3:2d:0e:a3:b2:5c:6a:57:a9:
         73:7c:f7:a1:87:3f:1a:96:73:ef:3d:e0:b4:d8:c7:72:a9:8b:
         b7:79:63:b4:df:4d:04:97:de:ce:fe:bc:1a:3a:41:27:c3:1d:
         37:95:6f:df:85:b0:eb:fd:15:3a:01:c0:91:0f:b9:dd:5d:11:
         f8:9c:4c:e6:d5:50:76:f8:38:f5:42:77:47:ee:e5:48:64:85:
         04:01:0f:6e:34:95:6a:ca:75:31:c0:7f:b4:ab:5a:27:ca:4e:
         1b:01:34:eb:cd:05:07:84:fe:04:07:83:b7:e1:ab:53:e8:f9:
         07:20:41:42:fb:40:b6:9b:83:11:f4:13:51:5f:5e:a4:2a:2b:
         66:9c:2a:81:3b:28:3a:68:e9:4a:f2:e0:32:f6:5c:46:f3:a0:
         a1:21:6e:64:0d:72:7d:31:b8:68:de:0d:80:41:7e:9e:fa:5c:
         36:78:8e:eb:eb:eb:61:dd:e2:bb:79:8c:0a:78:00:89:ab:f5:
         ce:eb:00:22
-----BEGIN CERTIFICATE-----
MIIDeDCCAmCgAwIBAgIRANsjaTVPo8ogmQwJIUrOo0QwDQYJKoZIhvcNAQELBQAw
FjEUMBIGA1UEAwwLdGVhbTEyNi1uZXQwHhcNMjMwODE0MTQyNDUyWhcNMjYwNzI5
MTQyNDUyWjAZMRcwFQYDVQQDDA50ZWFtMTI2LXNlcnZlcjCCASIwDQYJKoZIhvcN
AQEBBQADggEPADCCAQoCggEBANifTQNoHB3kxuhQrhTYf9I0wTZnS5qrCjBt0cIm
sjfOcHpwZrWYLJOxFOMG8Yg9a8lwaCApLh4p+mUghvj2Uj3Ow/CZ1pHY4FoV8AMi
Sh5/4TjZIoox6cb2lcOSqzE1G98+GgalXlsIEbBsP+k9koENA3NeIp2tCRtH95im
IANFaE2xyQViS0kr5nlYsjveV7tfI07ezsF75vucriAjrS+Lgr9rV+Y3RAzmUMve
11VypQUThN1cnUiqDynfSYZtz8XloGYlO+WSS66jWOBfkwlOpZvUSWmYQ/JpZKq7
hWYYnU4KwrLxgPtzOiHjGRWP0TvvxTH/ElReCPuChltUWZsCAwEAAaOBvTCBujAJ
BgNVHRMEAjAAMB0GA1UdDgQWBBRBuoUfh0pHr6Ydc8LtKgTqzkQXPTBRBgNVHSME
SjBIgBTtyR1aeJQ/f/FC6yOdmPgVRcxcF6EapBgwFjEUMBIGA1UEAwwLdGVhbTEy
Ni1uZXSCFD12HCH88j8TRGP7TliSPoM7NkfSMBMGA1UdJQQMMAoGCCsGAQUFBwMB
MAsGA1UdDwQEAwIFoDAZBgNVHREEEjAQgg50ZWFtMTI2LXNlcnZlcjANBgkqhkiG
9w0BAQsFAAOCAQEAEhgTy1n9MhpOwzp0eBrIIcE8DvH0Di+NooIvK4Ai7qEo68oi
PHJNKKuqCzb8fHOuDH2w3Sa0UIIHeoKxx7NL4y0Oo7Jcalepc3z3oYc/GpZz7z3g
tNjHcqmLt3ljtN9NBJfezv68GjpBJ8MdN5Vv34Ww6/0VOgHAkQ+53V0R+JxM5tVQ
dvg49UJ3R+7lSGSFBAEPbjSVasp1McB/tKtaJ8pOGwE0680FB4T+BAeDt+GrU+j5
ByBBQvtAtpuDEfQTUV9epCorZpwqgTsoOmjpSvLgMvZcRvOgoSFuZA1yfTG4aN4N
gEF+nvpcNniO6+vrYd3iu3mMCngAiav1zusAIg==
-----END CERTIFICATE-----
