Certificate:
    Data:
        Version: 3 (0x2)
        Serial Number:
            88:41:c5:33:06:13:84:18:5e:5e:43:92:0f:9f:e1:f3
        Signature Algorithm: sha256WithRSAEncryption
        Issuer: CN=team240-net
        Validity
            Not Before: Aug 14 14:27:08 2023 GMT
            Not After : Jul 29 14:27:08 2026 GMT
        Subject: CN=team240-client
        Subject Public Key Info:
            Public Key Algorithm: rsaEncryption
                RSA Public-Key: (2048 bit)
                Modulus:
                    00:98:e1:1d:1c:f1:5f:1a:7b:de:3e:70:31:b4:bb:
                    80:c8:4f:bc:a5:3f:8d:34:84:54:b4:d5:4b:48:f8:
                    4e:ff:a6:23:11:6b:fe:b7:50:bf:72:f3:e3:ca:4a:
                    6c:2e:3e:3a:b5:86:4f:70:90:86:58:f9:02:de:c5:
                    cd:92:2d:fa:ff:a2:a3:85:ed:9d:ce:b3:a2:45:c8:
                    24:4a:7a:38:d9:9d:ef:e5:c9:d2:ba:5b:70:5a:fe:
                    66:b2:4f:19:dc:5c:4a:dc:57:55:e0:96:13:c2:6d:
                    76:e7:6f:b1:ef:80:61:67:08:67:05:84:ba:8b:d5:
                    ac:2a:67:de:83:23:ad:50:ea:fe:94:00:a7:f7:0b:
                    b1:e8:f3:26:e2:c6:2d:98:ca:1f:bb:62:9d:da:72:
                    54:d3:4a:c5:9c:60:a1:19:0f:5a:a4:f5:60:8d:c0:
                    c1:c0:2a:50:47:f4:88:67:5c:f4:e3:97:76:66:5c:
                    92:5a:84:43:12:22:f3:d6:8b:fe:55:04:ed:62:00:
                    47:c4:e9:5b:25:9e:b9:f8:b6:ef:c0:6e:50:eb:bc:
                    b6:97:f7:e4:8c:90:ef:e8:b6:e3:eb:71:a5:8e:e2:
                    e0:9f:44:c7:1f:ad:b1:5b:cc:b2:83:31:74:d1:ad:
                    e1:dc:14:5e:d1:51:f4:88:0b:19:13:86:e9:97:81:
                    02:4d
                Exponent: 65537 (0x10001)
        X509v3 extensions:
            X509v3 Basic Constraints: 
                CA:FALSE
            X509v3 Subject Key Identifier: 
                31:51:4F:26:FD:A7:F3:9B:A0:0F:BC:A6:66:9A:D2:30:E3:E2:5A:25
            X509v3 Authority Key Identifier: 
                keyid:17:BC:B1:D2:24:00:17:FC:24:01:4E:5D:3A:C0:43:81:25:CD:22:65
                DirName:/CN=team240-net
                serial:33:E7:B0:8D:1C:34:7E:BF:CE:BD:CE:5F:7D:C6:7C:90:BC:10:96:E2

            X509v3 Extended Key Usage: 
                TLS Web Client Authentication
            X509v3 Key Usage: 
                Digital Signature
    Signature Algorithm: sha256WithRSAEncryption
         05:ae:f1:3b:a4:89:9b:86:01:0b:1c:65:be:43:53:b3:76:0c:
         f3:4e:00:0e:7c:21:c4:f2:83:b3:08:42:dd:87:d6:6e:37:ed:
         a8:91:3d:9b:5a:ce:07:ce:1a:fd:5f:f2:a5:af:78:53:4f:55:
         16:44:95:b7:f7:98:33:d6:7d:90:0a:78:84:5b:85:a2:a7:7a:
         71:48:a3:ee:a8:37:88:07:b6:33:67:4f:03:83:bd:c6:b5:af:
         6f:a7:38:7e:7e:45:c7:20:a3:0a:8c:d9:d9:1f:63:4d:c8:41:
         b2:05:bc:0d:ef:46:83:2c:68:22:28:2e:28:e1:49:63:eb:62:
         49:b6:e8:87:c9:5c:07:da:55:a9:0e:4e:9b:d0:f3:ac:d6:15:
         1f:39:e9:80:56:70:86:8a:87:55:42:de:db:22:12:75:37:fc:
         b3:18:2d:bb:67:48:74:1c:85:4b:b8:8f:23:07:3c:2b:10:1f:
         c3:a0:54:36:44:29:fc:24:f9:27:03:8d:13:98:3d:ce:94:0a:
         4f:4b:26:9a:1c:e9:88:ee:63:cf:b2:1c:d4:ef:28:50:f9:3b:
         cf:a5:3f:e0:39:00:03:76:74:48:6e:92:f1:e1:86:6a:17:1f:
         7e:37:3c:90:fc:a0:3e:e8:75:d7:43:42:4f:1e:66:a3:70:39:
         24:b9:51:fb
-----BEGIN CERTIFICATE-----
MIIDXTCCAkWgAwIBAgIRAIhBxTMGE4QYXl5Dkg+f4fMwDQYJKoZIhvcNAQELBQAw
FjEUMBIGA1UEAwwLdGVhbTI0MC1uZXQwHhcNMjMwODE0MTQyNzA4WhcNMjYwNzI5
MTQyNzA4WjAZMRcwFQYDVQQDDA50ZWFtMjQwLWNsaWVudDCCASIwDQYJKoZIhvcN
AQEBBQADggEPADCCAQoCggEBAJjhHRzxXxp73j5wMbS7gMhPvKU/jTSEVLTVS0j4
Tv+mIxFr/rdQv3Lz48pKbC4+OrWGT3CQhlj5At7FzZIt+v+io4Xtnc6zokXIJEp6
ONmd7+XJ0rpbcFr+ZrJPGdxcStxXVeCWE8Jtdudvse+AYWcIZwWEuovVrCpn3oMj
rVDq/pQAp/cLsejzJuLGLZjKH7tindpyVNNKxZxgoRkPWqT1YI3AwcAqUEf0iGdc
9OOXdmZcklqEQxIi89aL/lUE7WIAR8TpWyWeufi278BuUOu8tpf35IyQ7+i24+tx
pY7i4J9Exx+tsVvMsoMxdNGt4dwUXtFR9IgLGROG6ZeBAk0CAwEAAaOBojCBnzAJ
BgNVHRMEAjAAMB0GA1UdDgQWBBQxUU8m/afzm6APvKZmmtIw4+JaJTBRBgNVHSME
SjBIgBQXvLHSJAAX/CQBTl06wEOBJc0iZaEapBgwFjEUMBIGA1UEAwwLdGVhbTI0
MC1uZXSCFDPnsI0cNH6/zr3OX33GfJC8EJbiMBMGA1UdJQQMMAoGCCsGAQUFBwMC
MAsGA1UdDwQEAwIHgDANBgkqhkiG9w0BAQsFAAOCAQEABa7xO6SJm4YBCxxlvkNT
s3YM804ADnwhxPKDswhC3YfWbjftqJE9m1rOB84a/V/ypa94U09VFkSVt/eYM9Z9
kAp4hFuFoqd6cUij7qg3iAe2M2dPA4O9xrWvb6c4fn5FxyCjCozZ2R9jTchBsgW8
De9GgyxoIiguKOFJY+tiSbboh8lcB9pVqQ5Om9DzrNYVHznpgFZwhoqHVULe2yIS
dTf8sxgtu2dIdByFS7iPIwc8KxAfw6BUNkQp/CT5JwONE5g9zpQKT0smmhzpiO5j
z7Ic1O8oUPk7z6U/4DkAA3Z0SG6S8eGGahcffjc8kPygPuh110NCTx5mo3A5JLlR
+w==
-----END CERTIFICATE-----
