Certificate:
    Data:
        Version: 3 (0x2)
        Serial Number:
            60:03:7c:d7:9e:b2:44:2f:cb:a7:a3:6f:25:bb:61:9a
        Signature Algorithm: sha256WithRSAEncryption
        Issuer: CN=team22-net
        Validity
            Not Before: Aug 14 14:22:29 2023 GMT
            Not After : Jul 29 14:22:29 2026 GMT
        Subject: CN=team22-client
        Subject Public Key Info:
            Public Key Algorithm: rsaEncryption
                RSA Public-Key: (2048 bit)
                Modulus:
                    00:d8:01:e8:b0:8a:2f:84:d5:2c:16:9f:27:46:8f:
                    09:ec:d3:ee:2b:ba:e5:fa:e7:79:b1:53:d8:e5:ce:
                    a9:1c:8a:44:11:19:55:60:07:7f:b4:3d:c9:f1:5e:
                    4e:06:a5:cb:4f:46:bc:83:6b:cb:aa:b5:16:16:93:
                    f8:65:80:81:c9:35:19:72:38:31:1e:1b:e9:f8:e4:
                    72:bf:99:dd:eb:4f:d4:37:70:36:08:b6:ca:1e:37:
                    27:a6:52:b5:fd:09:aa:57:04:08:38:67:26:c5:70:
                    31:58:8c:df:90:39:85:c0:e5:92:9e:b5:7f:10:33:
                    a8:94:67:21:aa:d4:44:a0:51:97:48:56:3d:ba:b9:
                    c4:62:32:a4:40:39:e9:e8:28:3b:10:41:72:f6:00:
                    34:e7:b0:c9:9b:48:29:82:6f:ac:f2:a1:73:75:38:
                    46:25:ff:83:bc:0a:f9:55:4e:7b:0b:de:2a:c9:8e:
                    09:14:e8:52:04:1a:e6:25:d3:75:8f:ae:64:28:5c:
                    ef:0a:65:16:82:72:3d:4b:f7:4b:a2:77:b8:fe:f2:
                    d3:f6:b8:6d:46:77:5f:cb:b0:26:c7:2f:2e:83:21:
                    f9:fa:d5:77:ad:b7:b8:ab:95:a4:ff:cb:67:06:42:
                    09:71:f2:44:e8:ca:d7:ac:30:ef:7e:a9:20:00:01:
                    f7:df
                Exponent: 65537 (0x10001)
        X509v3 extensions:
            X509v3 Basic Constraints: 
                CA:FALSE
            X509v3 Subject Key Identifier: 
                51:62:DA:24:AE:48:31:6B:53:42:EA:2C:EB:18:73:D2:C7:38:3A:F2
            X509v3 Authority Key Identifier: 
                keyid:B0:FF:F2:35:B1:65:7B:AB:FB:A9:0C:83:0B:A4:3B:11:13:E5:9F:5F
                DirName:/CN=team22-net
                serial:39:BF:8D:97:88:F0:44:21:FB:F1:E5:53:C4:79:E0:97:A6:D1:D8:8A

            X509v3 Extended Key Usage: 
                TLS Web Client Authentication
            X509v3 Key Usage: 
                Digital Signature
    Signature Algorithm: sha256WithRSAEncryption
         5e:49:bf:0a:2e:ed:1d:a9:b9:e1:14:5e:f5:89:30:58:43:62:
         45:1d:23:b7:ab:92:18:06:13:03:93:8a:7c:59:bb:4e:45:16:
         db:e7:5a:c0:70:59:43:46:4d:45:cb:78:ab:bf:d3:32:22:ba:
         da:5d:9a:2a:92:21:7d:16:ea:fe:a9:75:30:69:2e:17:9b:aa:
         68:57:96:82:3a:6c:2f:07:95:b7:6f:8a:ff:ec:d6:2d:da:2d:
         f5:8a:bf:9f:dd:83:56:eb:8a:e5:c7:95:98:45:53:a6:54:98:
         2b:a6:4c:07:56:89:a2:df:7f:ae:14:0f:31:3c:12:51:14:a9:
         2e:b8:6a:07:38:c0:bb:a4:55:bb:24:1c:59:77:93:9f:70:e0:
         c9:f8:df:8b:72:2f:91:c8:d4:92:b1:90:94:0a:0e:21:9f:91:
         da:fe:31:dd:0d:04:c1:11:99:a6:f2:a1:ce:dd:d4:44:14:6d:
         61:eb:fc:4d:69:6e:ff:15:3e:71:47:5f:53:24:9a:d2:ab:e8:
         1a:d3:76:5d:2d:40:11:ba:75:0c:2e:ce:ec:82:3b:12:55:b7:
         58:af:1f:0c:91:4c:a7:3e:f2:da:43:18:48:bb:05:8a:c9:a7:
         71:da:37:44:71:9a:c1:fd:1b:87:ad:f1:e2:6d:9d:2c:a3:63:
         96:cd:ac:87
-----BEGIN CERTIFICATE-----
MIIDWTCCAkGgAwIBAgIQYAN8156yRC/Lp6NvJbthmjANBgkqhkiG9w0BAQsFADAV
MRMwEQYDVQQDDAp0ZWFtMjItbmV0MB4XDTIzMDgxNDE0MjIyOVoXDTI2MDcyOTE0
MjIyOVowGDEWMBQGA1UEAwwNdGVhbTIyLWNsaWVudDCCASIwDQYJKoZIhvcNAQEB
BQADggEPADCCAQoCggEBANgB6LCKL4TVLBafJ0aPCezT7iu65frnebFT2OXOqRyK
RBEZVWAHf7Q9yfFeTgaly09GvINry6q1FhaT+GWAgck1GXI4MR4b6fjkcr+Z3etP
1DdwNgi2yh43J6ZStf0JqlcECDhnJsVwMViM35A5hcDlkp61fxAzqJRnIarURKBR
l0hWPbq5xGIypEA56egoOxBBcvYANOewyZtIKYJvrPKhc3U4RiX/g7wK+VVOewve
KsmOCRToUgQa5iXTdY+uZChc7wplFoJyPUv3S6J3uP7y0/a4bUZ3X8uwJscvLoMh
+frVd623uKuVpP/LZwZCCXHyROjK16ww736pIAAB998CAwEAAaOBoTCBnjAJBgNV
HRMEAjAAMB0GA1UdDgQWBBRRYtokrkgxa1NC6izrGHPSxzg68jBQBgNVHSMESTBH
gBSw//I1sWV7q/upDIMLpDsRE+WfX6EZpBcwFTETMBEGA1UEAwwKdGVhbTIyLW5l
dIIUOb+Nl4jwRCH78eVTxHngl6bR2IowEwYDVR0lBAwwCgYIKwYBBQUHAwIwCwYD
VR0PBAQDAgeAMA0GCSqGSIb3DQEBCwUAA4IBAQBeSb8KLu0dqbnhFF71iTBYQ2JF
HSO3q5IYBhMDk4p8WbtORRbb51rAcFlDRk1Fy3irv9MyIrraXZoqkiF9Fur+qXUw
aS4Xm6poV5aCOmwvB5W3b4r/7NYt2i31ir+f3YNW64rlx5WYRVOmVJgrpkwHVomi
33+uFA8xPBJRFKkuuGoHOMC7pFW7JBxZd5OfcODJ+N+Lci+RyNSSsZCUCg4hn5Ha
/jHdDQTBEZmm8qHO3dREFG1h6/xNaW7/FT5xR19TJJrSq+ga03ZdLUARunUMLs7s
gjsSVbdYrx8MkUynPvLaQxhIuwWKyadx2jdEcZrB/RuHrfHibZ0so2OWzayH
-----END CERTIFICATE-----
