Certificate:
    Data:
        Version: 3 (0x2)
        Serial Number:
            9e:ef:b7:62:3f:56:41:e0:85:6c:29:6d:ed:69:05:fe
        Signature Algorithm: sha256WithRSAEncryption
        Issuer: CN=team216-net
        Validity
            Not Before: Aug 14 14:26:38 2023 GMT
            Not After : Jul 29 14:26:38 2026 GMT
        Subject: CN=team216-server
        Subject Public Key Info:
            Public Key Algorithm: rsaEncryption
                RSA Public-Key: (2048 bit)
                Modulus:
                    00:d1:b5:41:f0:5b:b8:c2:df:a9:79:db:72:92:50:
                    77:ec:93:0f:2a:08:8a:10:d3:07:df:59:99:8b:09:
                    39:aa:5e:98:1b:aa:1d:69:26:88:95:a6:9b:ad:81:
                    c8:f3:9e:44:89:71:d6:dd:6a:a3:12:c0:d4:6c:a3:
                    f4:fa:c2:43:b6:3a:5d:78:38:31:6c:5c:09:41:cc:
                    95:2b:f4:37:8d:cc:f7:d1:78:6b:dc:04:fa:4f:0d:
                    11:56:35:48:2e:bd:42:f3:0f:48:60:f5:82:78:b6:
                    90:f4:8d:c8:65:1f:df:d6:5a:b0:b0:3b:e0:16:ab:
                    05:09:0c:87:6f:ab:88:f6:8a:b0:82:10:fb:c0:9d:
                    8b:74:67:60:20:7a:32:51:68:50:aa:c1:16:2e:ee:
                    69:4e:99:4a:0b:96:18:d2:d4:dc:b7:50:05:ce:00:
                    e5:f5:a7:28:c5:dd:c7:10:2f:ea:e0:97:b0:86:fa:
                    d3:ca:b6:b3:33:18:e5:d0:19:71:14:95:ba:cb:5e:
                    49:15:cd:cf:a8:73:7b:1a:c2:6a:0e:34:36:cc:b1:
                    e4:66:02:6b:15:54:1a:cc:96:84:e9:a4:a9:af:fa:
                    df:92:a3:c3:4f:fc:1d:e3:8b:d8:89:5c:e6:3d:14:
                    6b:11:9a:d8:8f:ba:17:52:fe:12:1a:38:50:38:87:
                    70:51
                Exponent: 65537 (0x10001)
        X509v3 extensions:
            X509v3 Basic Constraints: 
                CA:FALSE
            X509v3 Subject Key Identifier: 
                6E:FD:5B:F6:B6:89:52:17:1F:31:59:CB:7E:58:88:4D:81:F7:BF:36
            X509v3 Authority Key Identifier: 
                keyid:42:CC:D3:64:7E:1D:03:DB:04:F1:88:91:DB:D8:C0:9A:7F:DD:DF:86
                DirName:/CN=team216-net
                serial:66:A4:A7:33:CC:12:DD:85:3B:7D:14:7F:FD:B0:DC:E9:E7:05:89:8E

            X509v3 Extended Key Usage: 
                TLS Web Server Authentication
            X509v3 Key Usage: 
                Digital Signature, Key Encipherment
            X509v3 Subject Alternative Name: 
                DNS:team216-server
    Signature Algorithm: sha256WithRSAEncryption
         8f:58:38:6c:e2:72:85:1a:41:c6:f3:a5:98:0a:f3:2d:93:e0:
         06:c4:c0:48:2c:e4:3a:ae:96:16:59:a0:50:40:95:47:7d:c5:
         f9:3e:98:df:94:f5:77:2d:99:28:ea:33:37:65:cb:96:45:0b:
         b5:68:48:94:a8:31:ae:f8:6f:e3:39:cf:7d:c2:67:2c:38:40:
         e6:21:19:0c:fd:7b:a6:b7:ce:46:64:de:15:c4:26:5d:db:04:
         0d:58:7e:d3:52:d0:4d:0b:04:3d:0a:27:24:4d:e6:a8:c1:3c:
         a0:59:f9:36:55:89:bb:8b:ca:c9:86:17:74:0d:20:97:5e:fe:
         26:c0:57:42:c2:17:78:be:b5:15:20:2d:b6:8c:79:aa:78:e8:
         32:65:1d:27:10:40:80:45:a6:c8:7b:5b:99:dc:61:fc:b2:f0:
         09:1d:18:a1:64:9e:1f:3b:bd:3a:f0:68:52:6c:7b:d1:18:57:
         6c:16:0c:77:ac:6f:d0:27:21:83:bb:6a:15:2e:9d:75:71:c5:
         47:ff:ea:36:52:e0:35:6c:06:ee:22:dd:78:a0:c9:b8:d5:43:
         b1:7f:9d:79:17:dc:7f:9e:63:9c:e5:33:f6:46:a3:ac:00:2e:
         e7:7e:a6:22:1b:ca:71:e1:73:19:84:3e:dc:04:ee:40:9d:90:
         6a:c5:5d:2d
-----BEGIN CERTIFICATE-----
MIIDeDCCAmCgAwIBAgIRAJ7vt2I/VkHghWwpbe1pBf4wDQYJKoZIhvcNAQELBQAw
FjEUMBIGA1UEAwwLdGVhbTIxNi1uZXQwHhcNMjMwODE0MTQyNjM4WhcNMjYwNzI5
MTQyNjM4WjAZMRcwFQYDVQQDDA50ZWFtMjE2LXNlcnZlcjCCASIwDQYJKoZIhvcN
AQEBBQADggEPADCCAQoCggEBANG1QfBbuMLfqXnbcpJQd+yTDyoIihDTB99ZmYsJ
OapemBuqHWkmiJWmm62ByPOeRIlx1t1qoxLA1Gyj9PrCQ7Y6XXg4MWxcCUHMlSv0
N43M99F4a9wE+k8NEVY1SC69QvMPSGD1gni2kPSNyGUf39ZasLA74BarBQkMh2+r
iPaKsIIQ+8Cdi3RnYCB6MlFoUKrBFi7uaU6ZSguWGNLU3LdQBc4A5fWnKMXdxxAv
6uCXsIb608q2szMY5dAZcRSVusteSRXNz6hzexrCag40Nsyx5GYCaxVUGsyWhOmk
qa/635Kjw0/8HeOL2Ilc5j0UaxGa2I+6F1L+Eho4UDiHcFECAwEAAaOBvTCBujAJ
BgNVHRMEAjAAMB0GA1UdDgQWBBRu/Vv2tolSFx8xWct+WIhNgfe/NjBRBgNVHSME
SjBIgBRCzNNkfh0D2wTxiJHb2MCaf93fhqEapBgwFjEUMBIGA1UEAwwLdGVhbTIx
Ni1uZXSCFGakpzPMEt2FO30Uf/2w3OnnBYmOMBMGA1UdJQQMMAoGCCsGAQUFBwMB
MAsGA1UdDwQEAwIFoDAZBgNVHREEEjAQgg50ZWFtMjE2LXNlcnZlcjANBgkqhkiG
9w0BAQsFAAOCAQEAj1g4bOJyhRpBxvOlmArzLZPgBsTASCzkOq6WFlmgUECVR33F
+T6Y35T1dy2ZKOozN2XLlkULtWhIlKgxrvhv4znPfcJnLDhA5iEZDP17prfORmTe
FcQmXdsEDVh+01LQTQsEPQonJE3mqME8oFn5NlWJu4vKyYYXdA0gl17+JsBXQsIX
eL61FSAttox5qnjoMmUdJxBAgEWmyHtbmdxh/LLwCR0YoWSeHzu9OvBoUmx70RhX
bBYMd6xv0Cchg7tqFS6ddXHFR//qNlLgNWwG7iLdeKDJuNVDsX+deRfcf55jnOUz
9kajrAAu536mIhvKceFzGYQ+3ATuQJ2QasVdLQ==
-----END CERTIFICATE-----
