Certificate:
    Data:
        Version: 3 (0x2)
        Serial Number:
            07:d6:ee:1c:e6:09:fc:67:3b:a1:18:f9:c6:94:1b:22
        Signature Algorithm: sha256WithRSAEncryption
        Issuer: CN=team30-net
        Validity
            Not Before: Aug 14 14:22:41 2023 GMT
            Not After : Jul 29 14:22:41 2026 GMT
        Subject: CN=team30-client
        Subject Public Key Info:
            Public Key Algorithm: rsaEncryption
                RSA Public-Key: (2048 bit)
                Modulus:
                    00:b3:ac:e6:34:b1:57:a2:b9:5c:44:b0:59:6f:33:
                    dd:ba:6f:0a:7f:35:53:58:75:f9:85:a2:b3:5d:12:
                    38:bb:61:f8:17:c0:dc:2a:ad:f1:92:04:94:a7:7a:
                    ca:47:75:c6:7b:99:26:4c:fc:43:a7:0f:35:14:6a:
                    46:54:21:41:16:31:a0:c7:ce:fa:23:09:78:09:eb:
                    3d:c1:22:6a:82:83:90:8a:c1:95:2e:49:41:9b:13:
                    96:9d:09:94:cd:9e:c7:65:e2:45:e1:23:e6:b8:a7:
                    5a:94:a2:c0:c9:47:e7:c5:c3:93:a7:5e:55:76:a1:
                    9d:94:32:e6:95:44:9a:c1:c6:22:32:dd:c5:46:56:
                    fb:3e:d9:bc:b1:ae:e8:86:e5:45:3b:0b:43:e7:04:
                    44:e0:22:a9:c7:d6:4b:88:be:50:9c:6f:fb:a7:d0:
                    ba:97:94:58:ae:a6:6b:2d:95:3d:21:93:77:f9:66:
                    28:35:5e:ed:12:b0:e9:0a:72:94:31:86:70:10:93:
                    cc:a4:7b:44:fb:65:8f:2b:27:a7:ea:0b:9a:ac:5e:
                    1c:29:ca:a7:bc:33:8d:12:1f:84:fc:71:bb:ce:a3:
                    e6:ce:a5:1d:a4:6a:8e:7c:ca:95:39:1f:39:91:6f:
                    d1:36:e7:30:ab:d5:37:5b:43:0f:79:66:61:0c:37:
                    7b:0d
                Exponent: 65537 (0x10001)
        X509v3 extensions:
            X509v3 Basic Constraints: 
                CA:FALSE
            X509v3 Subject Key Identifier: 
                AF:B7:FC:A5:6F:99:84:F4:40:8B:27:50:AC:80:71:CA:6B:18:38:C1
            X509v3 Authority Key Identifier: 
                keyid:3A:9C:46:4E:FF:F8:1D:37:1A:3B:92:EB:24:0F:47:5E:E3:7A:B8:8E
                DirName:/CN=team30-net
                serial:1E:48:42:AB:0A:E2:C3:70:73:BD:7E:59:CF:F5:E7:4B:34:3F:73:20

            X509v3 Extended Key Usage: 
                TLS Web Client Authentication
            X509v3 Key Usage: 
                Digital Signature
    Signature Algorithm: sha256WithRSAEncryption
         04:6d:94:6a:fe:24:bd:3b:00:59:a7:1d:b8:39:31:78:d1:2e:
         95:d1:87:cd:0f:a5:e3:6a:fa:ea:c8:75:2f:35:66:51:ea:24:
         23:84:3e:25:77:eb:a4:c4:57:5d:a2:e0:6f:bf:36:e3:e7:f8:
         5e:0d:1c:0b:99:0e:95:3d:72:49:19:fd:e0:4f:36:74:46:03:
         7c:35:85:bb:cf:ca:29:9e:be:2c:5e:cf:f4:ec:ef:06:34:ec:
         a9:98:f1:21:bb:80:7e:2d:5f:ff:f9:97:65:cc:3d:98:9b:86:
         97:77:f6:3c:19:c2:36:32:40:75:88:88:10:82:e8:e7:00:9e:
         bb:46:e5:8a:be:96:c0:50:56:98:79:8f:fa:3d:e8:a1:10:6e:
         36:ea:f1:fe:49:6d:e9:60:7f:ff:aa:51:01:dd:12:07:8a:88:
         05:af:10:50:4d:e3:3a:8e:a5:cd:02:17:e7:ae:83:10:c4:fa:
         9d:66:70:8c:16:f4:7c:d0:60:8f:5b:56:eb:6f:ad:80:5b:13:
         8e:b6:7a:6d:bf:b3:0b:78:58:15:73:51:d3:87:9e:94:10:7d:
         42:cd:42:02:ee:ef:3d:79:ba:d6:6d:25:94:35:5f:bf:71:bc:
         70:44:09:c4:18:60:73:f4:75:db:9e:45:01:3a:0b:00:99:ba:
         82:79:18:c5
-----BEGIN CERTIFICATE-----
MIIDWTCCAkGgAwIBAgIQB9buHOYJ/Gc7oRj5xpQbIjANBgkqhkiG9w0BAQsFADAV
MRMwEQYDVQQDDAp0ZWFtMzAtbmV0MB4XDTIzMDgxNDE0MjI0MVoXDTI2MDcyOTE0
MjI0MVowGDEWMBQGA1UEAwwNdGVhbTMwLWNsaWVudDCCASIwDQYJKoZIhvcNAQEB
BQADggEPADCCAQoCggEBALOs5jSxV6K5XESwWW8z3bpvCn81U1h1+YWis10SOLth
+BfA3Cqt8ZIElKd6ykd1xnuZJkz8Q6cPNRRqRlQhQRYxoMfO+iMJeAnrPcEiaoKD
kIrBlS5JQZsTlp0JlM2ex2XiReEj5rinWpSiwMlH58XDk6deVXahnZQy5pVEmsHG
IjLdxUZW+z7ZvLGu6IblRTsLQ+cEROAiqcfWS4i+UJxv+6fQupeUWK6may2VPSGT
d/lmKDVe7RKw6QpylDGGcBCTzKR7RPtljysnp+oLmqxeHCnKp7wzjRIfhPxxu86j
5s6lHaRqjnzKlTkfOZFv0TbnMKvVN1tDD3lmYQw3ew0CAwEAAaOBoTCBnjAJBgNV
HRMEAjAAMB0GA1UdDgQWBBSvt/ylb5mE9ECLJ1CsgHHKaxg4wTBQBgNVHSMESTBH
gBQ6nEZO//gdNxo7kuskD0de43q4jqEZpBcwFTETMBEGA1UEAwwKdGVhbTMwLW5l
dIIUHkhCqwriw3BzvX5Zz/XnSzQ/cyAwEwYDVR0lBAwwCgYIKwYBBQUHAwIwCwYD
VR0PBAQDAgeAMA0GCSqGSIb3DQEBCwUAA4IBAQAEbZRq/iS9OwBZpx24OTF40S6V
0YfND6XjavrqyHUvNWZR6iQjhD4ld+ukxFddouBvvzbj5/heDRwLmQ6VPXJJGf3g
TzZ0RgN8NYW7z8opnr4sXs/07O8GNOypmPEhu4B+LV//+ZdlzD2Ym4aXd/Y8GcI2
MkB1iIgQgujnAJ67RuWKvpbAUFaYeY/6PeihEG426vH+SW3pYH//qlEB3RIHiogF
rxBQTeM6jqXNAhfnroMQxPqdZnCMFvR80GCPW1brb62AWxOOtnptv7MLeFgVc1HT
h56UEH1CzUIC7u89ebrWbSWUNV+/cbxwRAnEGGBz9HXbnkUBOgsAmbqCeRjF
-----END CERTIFICATE-----
