Certificate:
    Data:
        Version: 3 (0x2)
        Serial Number:
            34:fb:af:50:21:75:b3:65:19:27:28:38:12:6c:9b:21
        Signature Algorithm: sha256WithRSAEncryption
        Issuer: CN=team30-net
        Validity
            Not Before: Aug 14 14:22:41 2023 GMT
            Not After : Jul 29 14:22:41 2026 GMT
        Subject: CN=team30-server
        Subject Public Key Info:
            Public Key Algorithm: rsaEncryption
                RSA Public-Key: (2048 bit)
                Modulus:
                    00:d8:92:e8:7d:c0:43:de:c7:0a:cd:77:80:1f:11:
                    bf:4f:34:4b:43:f0:65:28:50:67:11:16:28:67:36:
                    35:8a:01:86:0b:94:55:41:61:1e:da:8f:ee:6a:30:
                    d5:39:ec:4f:6d:e1:ea:59:57:62:76:1b:26:65:87:
                    c2:37:21:cc:b3:bc:5a:9f:df:c5:15:31:bd:47:a4:
                    0e:99:3a:23:49:52:57:e0:00:08:f1:c4:6f:30:6c:
                    70:bf:ab:ef:4f:ba:75:15:88:77:88:51:ff:07:20:
                    c0:c2:ca:00:eb:c0:6d:f3:99:5d:2a:38:32:1c:44:
                    75:72:ee:42:e2:e3:28:a6:fa:d9:a5:da:f6:c6:0e:
                    4b:b1:6b:20:5a:49:04:df:39:47:fc:cd:fc:34:a8:
                    92:1f:43:64:95:47:10:70:94:cd:aa:09:d4:47:cb:
                    92:d6:e5:32:c2:8d:7e:bb:c6:59:21:b7:4c:6c:46:
                    6c:4c:fa:6a:ba:23:28:1b:31:2e:f7:88:d4:02:05:
                    ed:7d:41:c6:0a:5a:78:2c:99:b9:3f:c9:38:58:82:
                    20:5b:a1:29:3f:28:91:4e:94:53:b0:56:4d:fa:41:
                    da:40:ac:54:54:03:08:0a:9a:af:2a:78:4d:01:09:
                    d1:23:b8:1a:54:d7:92:c5:34:1c:96:ad:39:c8:e2:
                    74:21
                Exponent: 65537 (0x10001)
        X509v3 extensions:
            X509v3 Basic Constraints: 
                CA:FALSE
            X509v3 Subject Key Identifier: 
                35:48:F1:0E:2B:3D:7D:76:A3:81:39:28:22:96:10:B7:2D:AC:B1:DD
            X509v3 Authority Key Identifier: 
                keyid:3A:9C:46:4E:FF:F8:1D:37:1A:3B:92:EB:24:0F:47:5E:E3:7A:B8:8E
                DirName:/CN=team30-net
                serial:1E:48:42:AB:0A:E2:C3:70:73:BD:7E:59:CF:F5:E7:4B:34:3F:73:20

            X509v3 Extended Key Usage: 
                TLS Web Server Authentication
            X509v3 Key Usage: 
                Digital Signature, Key Encipherment
            X509v3 Subject Alternative Name: 
                DNS:team30-server
    Signature Algorithm: sha256WithRSAEncryption
         99:0e:b4:7f:ff:8c:1b:91:6e:6a:8c:f6:93:cd:42:fb:1c:a9:
         02:b4:e7:74:99:76:41:67:74:1c:e2:e9:c0:be:d4:8a:34:6d:
         9d:1f:d4:5d:f7:1f:9a:4d:47:77:7b:3f:9b:f8:81:ac:62:c9:
         af:c9:dd:21:f5:b1:3a:d4:37:bf:c5:87:89:ed:40:7c:73:83:
         49:df:9b:f7:ee:62:a8:4a:1e:a6:50:62:da:76:11:55:0f:31:
         bb:73:19:d7:da:dc:79:05:43:8d:6e:92:d1:c8:ce:b4:9b:4f:
         da:9d:1b:8d:4d:92:7f:46:65:7d:b8:74:b3:5c:ef:f9:47:7d:
         dd:b1:27:33:5b:4b:c4:c4:b7:34:78:4a:50:90:44:c6:3c:0c:
         20:93:d8:16:81:08:b9:ce:6c:ba:e5:97:c2:d4:f3:9a:c5:89:
         6b:a2:c2:15:a6:ae:23:7b:87:8e:21:42:42:7e:0d:e6:8a:ad:
         55:2a:79:55:9b:f8:36:06:8b:aa:d4:fa:f3:af:79:ef:0c:a7:
         fd:a9:bd:d4:b3:77:07:21:66:55:a8:ee:3f:cb:9b:af:a2:c9:
         1f:63:be:8f:e0:1c:1e:5e:a8:94:f9:f4:81:dc:7c:bc:08:97:
         a4:c0:44:f3:74:72:f0:2a:03:4f:cf:eb:15:56:48:ad:33:23:
         88:00:4c:0a
-----BEGIN CERTIFICATE-----
MIIDczCCAlugAwIBAgIQNPuvUCF1s2UZJyg4EmybITANBgkqhkiG9w0BAQsFADAV
MRMwEQYDVQQDDAp0ZWFtMzAtbmV0MB4XDTIzMDgxNDE0MjI0MVoXDTI2MDcyOTE0
MjI0MVowGDEWMBQGA1UEAwwNdGVhbTMwLXNlcnZlcjCCASIwDQYJKoZIhvcNAQEB
BQADggEPADCCAQoCggEBANiS6H3AQ97HCs13gB8Rv080S0PwZShQZxEWKGc2NYoB
hguUVUFhHtqP7mow1TnsT23h6llXYnYbJmWHwjchzLO8Wp/fxRUxvUekDpk6I0lS
V+AACPHEbzBscL+r70+6dRWId4hR/wcgwMLKAOvAbfOZXSo4MhxEdXLuQuLjKKb6
2aXa9sYOS7FrIFpJBN85R/zN/DSokh9DZJVHEHCUzaoJ1EfLktblMsKNfrvGWSG3
TGxGbEz6arojKBsxLveI1AIF7X1BxgpaeCyZuT/JOFiCIFuhKT8okU6UU7BWTfpB
2kCsVFQDCAqaryp4TQEJ0SO4GlTXksU0HJatOcjidCECAwEAAaOBuzCBuDAJBgNV
HRMEAjAAMB0GA1UdDgQWBBQ1SPEOKz19dqOBOSgilhC3Layx3TBQBgNVHSMESTBH
gBQ6nEZO//gdNxo7kuskD0de43q4jqEZpBcwFTETMBEGA1UEAwwKdGVhbTMwLW5l
dIIUHkhCqwriw3BzvX5Zz/XnSzQ/cyAwEwYDVR0lBAwwCgYIKwYBBQUHAwEwCwYD
VR0PBAQDAgWgMBgGA1UdEQQRMA+CDXRlYW0zMC1zZXJ2ZXIwDQYJKoZIhvcNAQEL
BQADggEBAJkOtH//jBuRbmqM9pPNQvscqQK053SZdkFndBzi6cC+1Io0bZ0f1F33
H5pNR3d7P5v4gaxiya/J3SH1sTrUN7/Fh4ntQHxzg0nfm/fuYqhKHqZQYtp2EVUP
MbtzGdfa3HkFQ41uktHIzrSbT9qdG41Nkn9GZX24dLNc7/lHfd2xJzNbS8TEtzR4
SlCQRMY8DCCT2BaBCLnObLrll8LU85rFiWuiwhWmriN7h44hQkJ+DeaKrVUqeVWb
+DYGi6rU+vOvee8Mp/2pvdSzdwchZlWo7j/Lm6+iyR9jvo/gHB5eqJT59IHcfLwI
l6TARPN0cvAqA0/P6xVWSK0zI4gATAo=
-----END CERTIFICATE-----
