Certificate:
    Data:
        Version: 3 (0x2)
        Serial Number:
            2f:3f:34:bc:23:63:23:8f:a1:66:c5:8f:11:66:76:2e
        Signature Algorithm: sha256WithRSAEncryption
        Issuer: CN=team235-net
        Validity
            Not Before: Aug 14 14:27:02 2023 GMT
            Not After : Jul 29 14:27:02 2026 GMT
        Subject: CN=team235-client
        Subject Public Key Info:
            Public Key Algorithm: rsaEncryption
                RSA Public-Key: (2048 bit)
                Modulus:
                    00:d0:85:70:bb:f5:a6:18:d8:5a:40:da:c8:a0:69:
                    ed:09:4c:05:4a:af:73:9a:64:d6:b6:ee:ee:c5:41:
                    b5:6b:0e:c8:a4:3a:ba:43:24:79:00:d0:d1:5e:15:
                    5a:d3:6c:19:01:cb:84:b5:1d:82:48:f1:dc:4b:2b:
                    58:1b:48:51:7e:7a:18:a4:3e:d5:88:09:d7:a2:a4:
                    74:2d:a0:d0:c6:fa:7c:6b:b2:1f:e0:a6:8c:ab:c5:
                    ff:01:85:d3:ec:d7:1b:cb:fc:e6:8a:db:84:26:c7:
                    0a:f3:d3:1f:38:d0:3f:a3:60:9b:d2:00:4f:98:fb:
                    8f:29:c0:26:e0:0b:f3:c5:aa:2a:0b:ac:01:2f:d7:
                    6f:17:75:6e:54:4b:c7:ad:5f:f2:35:f5:54:4c:92:
                    ff:4f:7b:9f:05:99:3c:84:45:e9:82:0a:85:25:be:
                    fd:9b:00:85:b3:9b:d3:28:e3:40:1a:55:45:a4:6d:
                    c3:98:eb:9e:30:b4:c1:8b:bf:fe:43:7f:1c:68:f4:
                    90:04:14:07:79:89:15:d5:07:ae:64:00:fc:09:04:
                    8f:d0:ef:27:c5:c1:26:2e:3f:82:65:37:ec:9f:0b:
                    71:f0:25:37:2d:7c:a0:9b:6d:f6:fb:0b:26:e4:14:
                    bd:a6:c7:1d:21:fe:3c:3c:8d:41:aa:99:04:87:20:
                    16:27
                Exponent: 65537 (0x10001)
        X509v3 extensions:
            X509v3 Basic Constraints: 
                CA:FALSE
            X509v3 Subject Key Identifier: 
                E7:6D:8A:2B:34:C8:EA:A9:20:17:99:17:AC:A2:CC:E3:A1:33:24:C4
            X509v3 Authority Key Identifier: 
                keyid:46:4E:CD:AC:AE:3D:3E:E5:11:5A:11:23:DB:CF:0B:C3:DB:DE:32:AC
                DirName:/CN=team235-net
                serial:58:06:77:54:E0:06:56:A5:56:AF:F0:A0:25:4E:0A:CA:9A:49:BA:03

            X509v3 Extended Key Usage: 
                TLS Web Client Authentication
            X509v3 Key Usage: 
                Digital Signature
    Signature Algorithm: sha256WithRSAEncryption
         6d:7e:b6:79:09:13:d4:c7:b3:df:30:0f:2d:0a:a6:f9:07:15:
         6f:9e:6c:7c:df:f7:e6:7a:cd:5a:9b:0a:c4:e3:71:d9:d6:75:
         8c:75:8e:8d:cf:51:a1:b4:5b:bf:dc:5c:89:43:3d:2c:2d:79:
         09:fd:09:cf:f5:63:1c:27:36:76:02:be:ce:63:ab:17:52:d5:
         3c:a9:72:7c:9e:fc:e0:7b:66:32:9f:cc:c1:c6:6d:e3:cc:c5:
         bf:f3:53:17:4b:7c:2f:ed:f4:38:66:31:58:18:33:5c:54:b4:
         44:cf:de:80:df:e0:69:ed:76:45:b8:0a:d0:7f:ce:2c:ab:53:
         ab:e4:62:90:94:fb:bc:ec:cd:77:15:24:12:76:1f:22:dd:30:
         ef:ec:ff:fc:a7:38:e9:d2:df:c0:5b:08:73:3b:9d:5b:12:2b:
         dd:ae:9a:1e:f3:83:e2:83:db:c6:ac:84:75:2c:e9:94:66:3a:
         4c:71:43:dc:70:44:dc:96:d8:c4:59:28:9d:44:bc:e3:f1:f5:
         ae:fa:8f:57:2b:b3:6e:11:49:5a:fa:57:57:7e:38:0e:ec:8e:
         a8:20:da:fd:d7:d0:a5:c4:09:ce:24:aa:65:5f:7a:1d:91:b4:
         dc:38:3c:dd:75:0a:55:98:61:bf:c8:97:db:bd:df:31:5a:7b:
         4a:6e:66:cb
-----BEGIN CERTIFICATE-----
MIIDXDCCAkSgAwIBAgIQLz80vCNjI4+hZsWPEWZ2LjANBgkqhkiG9w0BAQsFADAW
MRQwEgYDVQQDDAt0ZWFtMjM1LW5ldDAeFw0yMzA4MTQxNDI3MDJaFw0yNjA3Mjkx
NDI3MDJaMBkxFzAVBgNVBAMMDnRlYW0yMzUtY2xpZW50MIIBIjANBgkqhkiG9w0B
AQEFAAOCAQ8AMIIBCgKCAQEA0IVwu/WmGNhaQNrIoGntCUwFSq9zmmTWtu7uxUG1
aw7IpDq6QyR5ANDRXhVa02wZAcuEtR2CSPHcSytYG0hRfnoYpD7ViAnXoqR0LaDQ
xvp8a7If4KaMq8X/AYXT7Ncby/zmituEJscK89MfONA/o2Cb0gBPmPuPKcAm4Avz
xaoqC6wBL9dvF3VuVEvHrV/yNfVUTJL/T3ufBZk8hEXpggqFJb79mwCFs5vTKONA
GlVFpG3DmOueMLTBi7/+Q38caPSQBBQHeYkV1QeuZAD8CQSP0O8nxcEmLj+CZTfs
nwtx8CU3LXygm232+wsm5BS9pscdIf48PI1BqpkEhyAWJwIDAQABo4GiMIGfMAkG
A1UdEwQCMAAwHQYDVR0OBBYEFOdtiis0yOqpIBeZF6yizOOhMyTEMFEGA1UdIwRK
MEiAFEZOzayuPT7lEVoRI9vPC8Pb3jKsoRqkGDAWMRQwEgYDVQQDDAt0ZWFtMjM1
LW5ldIIUWAZ3VOAGVqVWr/CgJU4KyppJugMwEwYDVR0lBAwwCgYIKwYBBQUHAwIw
CwYDVR0PBAQDAgeAMA0GCSqGSIb3DQEBCwUAA4IBAQBtfrZ5CRPUx7PfMA8tCqb5
BxVvnmx83/fmes1amwrE43HZ1nWMdY6Nz1GhtFu/3FyJQz0sLXkJ/QnP9WMcJzZ2
Ar7OY6sXUtU8qXJ8nvzge2Yyn8zBxm3jzMW/81MXS3wv7fQ4ZjFYGDNcVLREz96A
3+Bp7XZFuArQf84sq1Or5GKQlPu87M13FSQSdh8i3TDv7P/8pzjp0t/AWwhzO51b
Eivdrpoe84Pig9vGrIR1LOmUZjpMcUPccETcltjEWSidRLzj8fWu+o9XK7NuEUla
+ldXfjgO7I6oINr919ClxAnOJKplX3odkbTcODzddQpVmGG/yJfbvd8xWntKbmbL
-----END CERTIFICATE-----
