Certificate:
    Data:
        Version: 3 (0x2)
        Serial Number:
            44:a7:e4:85:bd:a9:1b:96:db:27:fd:70:1f:a9:b6:1d
        Signature Algorithm: sha256WithRSAEncryption
        Issuer: CN=team235-net
        Validity
            Not Before: Aug 14 14:27:02 2023 GMT
            Not After : Jul 29 14:27:02 2026 GMT
        Subject: CN=team235-server
        Subject Public Key Info:
            Public Key Algorithm: rsaEncryption
                RSA Public-Key: (2048 bit)
                Modulus:
                    00:c1:ac:3b:26:92:2c:64:92:45:1c:7a:4e:ae:3f:
                    ef:21:af:84:b1:fc:53:9b:0c:e4:27:f9:7e:0e:b3:
                    a4:b7:6d:50:6a:a0:6b:f0:7a:95:0a:4d:56:3a:91:
                    ae:70:9a:4c:44:59:bf:60:8a:cf:1b:d1:e0:89:10:
                    a7:cd:ac:14:5a:f0:a3:8c:16:f1:e2:0c:ba:38:ff:
                    75:74:0e:ec:4b:a9:e0:bb:e2:9f:e9:1d:3d:3a:ee:
                    ee:30:6b:b3:dd:28:80:96:4b:87:47:ba:44:af:a3:
                    12:90:59:19:ef:f3:39:e1:c3:cf:03:db:c4:11:2e:
                    f7:2e:ae:f2:8f:26:80:ac:a2:13:79:83:75:ef:20:
                    f7:eb:06:4c:6b:1a:84:d1:fc:ff:0b:1c:7a:03:f4:
                    f5:c5:25:0d:88:b2:39:72:02:e0:c6:57:4c:69:d9:
                    03:92:50:8d:ff:f1:a8:e3:bf:91:c0:d1:75:c0:b4:
                    8a:20:8e:bd:a0:0e:72:fa:10:38:89:d6:b3:b7:1b:
                    e4:64:1e:61:65:83:48:42:63:9b:2c:a0:0d:92:30:
                    4c:af:c8:7a:3c:29:14:df:cd:e2:b0:38:8a:60:60:
                    50:97:76:8f:c6:0b:cb:98:f8:31:c7:f5:28:3a:10:
                    4e:e1:74:de:fb:6d:a3:4e:21:14:d8:41:58:22:b8:
                    ad:63
                Exponent: 65537 (0x10001)
        X509v3 extensions:
            X509v3 Basic Constraints: 
                CA:FALSE
            X509v3 Subject Key Identifier: 
                EF:30:EF:B3:93:78:0F:2D:F7:63:D8:7A:7C:5B:39:95:3D:61:3F:15
            X509v3 Authority Key Identifier: 
                keyid:46:4E:CD:AC:AE:3D:3E:E5:11:5A:11:23:DB:CF:0B:C3:DB:DE:32:AC
                DirName:/CN=team235-net
                serial:58:06:77:54:E0:06:56:A5:56:AF:F0:A0:25:4E:0A:CA:9A:49:BA:03

            X509v3 Extended Key Usage: 
                TLS Web Server Authentication
            X509v3 Key Usage: 
                Digital Signature, Key Encipherment
            X509v3 Subject Alternative Name: 
                DNS:team235-server
    Signature Algorithm: sha256WithRSAEncryption
         70:51:71:7d:a4:df:c2:a5:07:ce:74:88:ef:a7:ef:b6:bc:43:
         a0:2c:d0:c9:a3:0a:21:c6:ee:93:7e:ba:eb:80:c7:d0:7c:dc:
         f8:69:89:03:1e:1c:a5:95:2f:62:c1:7a:ba:97:85:04:2a:fb:
         9e:e9:ad:88:0a:49:ff:3c:14:ed:88:45:26:06:c8:96:ed:25:
         1e:f7:cf:f0:e7:79:cc:42:1d:cb:a9:b0:a2:a0:50:9d:d3:8b:
         69:88:5f:1b:43:a5:da:e8:ea:59:72:83:2b:93:15:5a:a2:18:
         e3:c5:2b:40:63:d7:11:ca:e0:83:5a:b6:5b:7d:46:b8:7b:d1:
         68:30:46:ff:49:97:ef:eb:08:95:ae:12:a6:5b:12:03:7d:f3:
         e9:be:3a:f3:59:5d:4b:98:c1:d5:b6:0b:66:86:43:06:74:bf:
         26:f3:8a:47:b8:1e:35:bb:43:8b:26:1a:d2:40:f0:36:fb:c3:
         90:b2:60:85:60:65:0e:8b:5e:e6:bc:9e:00:5e:b3:1f:ac:00:
         14:91:90:41:5a:49:17:10:7a:73:34:d6:69:f2:42:6a:97:5c:
         a5:d6:02:93:2a:d7:15:37:05:c2:36:59:84:7a:2a:70:f6:46:
         93:eb:98:e3:90:4d:40:5e:30:e8:fd:75:9b:b0:a4:18:b3:1d:
         55:3f:62:39
-----BEGIN CERTIFICATE-----
MIIDdzCCAl+gAwIBAgIQRKfkhb2pG5bbJ/1wH6m2HTANBgkqhkiG9w0BAQsFADAW
MRQwEgYDVQQDDAt0ZWFtMjM1LW5ldDAeFw0yMzA4MTQxNDI3MDJaFw0yNjA3Mjkx
NDI3MDJaMBkxFzAVBgNVBAMMDnRlYW0yMzUtc2VydmVyMIIBIjANBgkqhkiG9w0B
AQEFAAOCAQ8AMIIBCgKCAQEAwaw7JpIsZJJFHHpOrj/vIa+EsfxTmwzkJ/l+DrOk
t21QaqBr8HqVCk1WOpGucJpMRFm/YIrPG9HgiRCnzawUWvCjjBbx4gy6OP91dA7s
S6ngu+Kf6R09Ou7uMGuz3SiAlkuHR7pEr6MSkFkZ7/M54cPPA9vEES73Lq7yjyaA
rKITeYN17yD36wZMaxqE0fz/Cxx6A/T1xSUNiLI5cgLgxldMadkDklCN//Go47+R
wNF1wLSKII69oA5y+hA4idaztxvkZB5hZYNIQmObLKANkjBMr8h6PCkU383isDiK
YGBQl3aPxgvLmPgxx/UoOhBO4XTe+22jTiEU2EFYIritYwIDAQABo4G9MIG6MAkG
A1UdEwQCMAAwHQYDVR0OBBYEFO8w77OTeA8t92PYenxbOZU9YT8VMFEGA1UdIwRK
MEiAFEZOzayuPT7lEVoRI9vPC8Pb3jKsoRqkGDAWMRQwEgYDVQQDDAt0ZWFtMjM1
LW5ldIIUWAZ3VOAGVqVWr/CgJU4KyppJugMwEwYDVR0lBAwwCgYIKwYBBQUHAwEw
CwYDVR0PBAQDAgWgMBkGA1UdEQQSMBCCDnRlYW0yMzUtc2VydmVyMA0GCSqGSIb3
DQEBCwUAA4IBAQBwUXF9pN/CpQfOdIjvp++2vEOgLNDJowohxu6TfrrrgMfQfNz4
aYkDHhyllS9iwXq6l4UEKvue6a2ICkn/PBTtiEUmBsiW7SUe98/w53nMQh3LqbCi
oFCd04tpiF8bQ6Xa6OpZcoMrkxVaohjjxStAY9cRyuCDWrZbfUa4e9FoMEb/SZfv
6wiVrhKmWxIDffPpvjrzWV1LmMHVtgtmhkMGdL8m84pHuB41u0OLJhrSQPA2+8OQ
smCFYGUOi17mvJ4AXrMfrAAUkZBBWkkXEHpzNNZp8kJql1yl1gKTKtcVNwXCNlmE
eipw9kaT65jjkE1AXjDo/XWbsKQYsx1VP2I5
-----END CERTIFICATE-----
