Certificate:
    Data:
        Version: 3 (0x2)
        Serial Number:
            66:55:14:a2:31:ad:5f:76:af:88:8b:53:e2:5d:af:30
        Signature Algorithm: sha256WithRSAEncryption
        Issuer: CN=team233-net
        Validity
            Not Before: Aug 14 14:26:59 2023 GMT
            Not After : Jul 29 14:26:59 2026 GMT
        Subject: CN=team233-server
        Subject Public Key Info:
            Public Key Algorithm: rsaEncryption
                RSA Public-Key: (2048 bit)
                Modulus:
                    00:c3:d9:a3:fb:85:e8:10:d5:9c:87:05:1d:c9:74:
                    ff:63:cb:59:60:10:b6:57:08:1c:0a:84:7e:08:3e:
                    2f:c9:f8:a6:15:52:2d:50:45:4c:92:11:3b:33:f5:
                    aa:bd:63:bc:d2:2d:8e:0f:1f:7e:e2:23:cd:ca:70:
                    e4:8f:51:1b:41:08:8e:b3:3f:61:a1:f7:bf:f1:07:
                    b8:0e:4d:c7:d5:f4:49:1e:9a:5e:7f:d6:25:38:87:
                    e5:51:e5:63:4c:35:ec:77:02:28:60:fc:9f:42:a4:
                    d5:60:9b:09:2e:da:c3:ed:b4:a4:de:3f:a2:42:ca:
                    6f:75:d7:df:ec:43:b7:43:b9:8b:05:d0:b6:f7:12:
                    18:d1:a5:28:e0:59:bf:31:8d:99:01:77:d2:31:6d:
                    0b:50:ea:82:90:85:4e:64:fc:1f:67:ec:11:90:2c:
                    1b:d0:13:84:50:e1:f2:77:8a:cb:5d:5e:a7:c1:c0:
                    16:02:bf:9f:41:1f:ff:d6:03:5e:16:97:dd:af:3c:
                    8b:da:99:15:3d:1c:43:95:b4:5e:7e:4a:48:cc:15:
                    64:c7:d8:7f:3f:30:53:24:30:3b:61:93:78:ee:1a:
                    a9:e4:60:50:2e:46:ad:f0:16:e0:9a:4c:8e:5e:b0:
                    25:a0:a8:a6:24:63:9a:fa:55:01:16:c0:a7:33:ae:
                    3b:41
                Exponent: 65537 (0x10001)
        X509v3 extensions:
            X509v3 Basic Constraints: 
                CA:FALSE
            X509v3 Subject Key Identifier: 
                E7:D6:A6:6F:97:5D:D1:F3:F4:DA:92:06:60:F7:2E:0B:6A:31:85:D5
            X509v3 Authority Key Identifier: 
                keyid:4C:47:3C:7B:B7:E4:D5:79:2E:54:F8:E3:A4:C2:8B:D2:06:D0:3C:9D
                DirName:/CN=team233-net
                serial:2E:E0:3E:93:29:E5:B1:DD:2A:36:48:AF:BE:71:50:5B:F1:96:21:32

            X509v3 Extended Key Usage: 
                TLS Web Server Authentication
            X509v3 Key Usage: 
                Digital Signature, Key Encipherment
            X509v3 Subject Alternative Name: 
                DNS:team233-server
    Signature Algorithm: sha256WithRSAEncryption
         6c:59:9d:ff:14:fb:f4:16:e3:0c:59:ad:e5:1a:df:9f:5c:11:
         f2:bf:a2:7d:d4:9e:58:f0:7c:37:f9:29:c9:d6:9c:86:e5:4c:
         9f:9a:51:5a:88:c7:6d:97:27:96:94:31:06:5d:f9:c6:74:8d:
         01:14:b9:eb:10:55:88:fd:47:79:08:0e:d3:ce:13:53:ee:d3:
         1e:00:8d:6b:19:be:93:32:d3:19:51:f2:a7:da:2d:ac:6c:fa:
         b7:f5:8a:0b:e9:1a:2c:70:02:e6:f6:4f:c8:48:d7:c1:33:dd:
         5b:00:f6:55:ec:6f:d9:e0:31:d0:01:97:44:73:6f:e2:67:7a:
         90:d3:29:bd:32:73:e3:1a:f5:0b:9f:7e:e6:d4:84:31:df:72:
         17:00:bf:43:ef:6f:ad:88:31:11:ee:39:59:bf:f0:de:1f:9e:
         41:5e:7b:7a:a6:49:02:cb:a1:d1:2b:5e:ed:b8:db:07:61:d0:
         b9:14:06:4d:b5:19:9f:5c:80:8e:83:df:ac:65:28:05:23:6f:
         6c:e8:a7:1e:87:52:16:04:86:22:08:27:be:61:0b:0a:17:c3:
         bb:e7:5d:a5:6f:b0:a1:da:60:61:7f:ad:40:3b:27:c3:8a:cd:
         c7:7b:c5:ea:c7:ac:e6:6a:5a:d2:e5:0c:fa:aa:a0:00:70:d9:
         11:10:ee:02
-----BEGIN CERTIFICATE-----
MIIDdzCCAl+gAwIBAgIQZlUUojGtX3aviItT4l2vMDANBgkqhkiG9w0BAQsFADAW
MRQwEgYDVQQDDAt0ZWFtMjMzLW5ldDAeFw0yMzA4MTQxNDI2NTlaFw0yNjA3Mjkx
NDI2NTlaMBkxFzAVBgNVBAMMDnRlYW0yMzMtc2VydmVyMIIBIjANBgkqhkiG9w0B
AQEFAAOCAQ8AMIIBCgKCAQEAw9mj+4XoENWchwUdyXT/Y8tZYBC2VwgcCoR+CD4v
yfimFVItUEVMkhE7M/WqvWO80i2ODx9+4iPNynDkj1EbQQiOsz9hofe/8Qe4Dk3H
1fRJHppef9YlOIflUeVjTDXsdwIoYPyfQqTVYJsJLtrD7bSk3j+iQspvddff7EO3
Q7mLBdC29xIY0aUo4Fm/MY2ZAXfSMW0LUOqCkIVOZPwfZ+wRkCwb0BOEUOHyd4rL
XV6nwcAWAr+fQR//1gNeFpfdrzyL2pkVPRxDlbRefkpIzBVkx9h/PzBTJDA7YZN4
7hqp5GBQLkat8BbgmkyOXrAloKimJGOa+lUBFsCnM647QQIDAQABo4G9MIG6MAkG
A1UdEwQCMAAwHQYDVR0OBBYEFOfWpm+XXdHz9NqSBmD3LgtqMYXVMFEGA1UdIwRK
MEiAFExHPHu35NV5LlT446TCi9IG0DydoRqkGDAWMRQwEgYDVQQDDAt0ZWFtMjMz
LW5ldIIULuA+kynlsd0qNkivvnFQW/GWITIwEwYDVR0lBAwwCgYIKwYBBQUHAwEw
CwYDVR0PBAQDAgWgMBkGA1UdEQQSMBCCDnRlYW0yMzMtc2VydmVyMA0GCSqGSIb3
DQEBCwUAA4IBAQBsWZ3/FPv0FuMMWa3lGt+fXBHyv6J91J5Y8Hw3+SnJ1pyG5Uyf
mlFaiMdtlyeWlDEGXfnGdI0BFLnrEFWI/Ud5CA7TzhNT7tMeAI1rGb6TMtMZUfKn
2i2sbPq39YoL6RoscALm9k/ISNfBM91bAPZV7G/Z4DHQAZdEc2/iZ3qQ0ym9MnPj
GvULn37m1IQx33IXAL9D72+tiDER7jlZv/DeH55BXnt6pkkCy6HRK17tuNsHYdC5
FAZNtRmfXICOg9+sZSgFI29s6Kceh1IWBIYiCCe+YQsKF8O7512lb7Ch2mBhf61A
OyfDis3He8Xqx6zmalrS5Qz6qqAAcNkREO4C
-----END CERTIFICATE-----
