Certificate:
    Data:
        Version: 3 (0x2)
        Serial Number:
            c1:36:1d:a2:1f:a1:65:1e:9f:51:f7:73:ed:d8:0e:fa
        Signature Algorithm: sha256WithRSAEncryption
        Issuer: CN=team233-net
        Validity
            Not Before: Aug 14 14:26:59 2023 GMT
            Not After : Jul 29 14:26:59 2026 GMT
        Subject: CN=team233-client
        Subject Public Key Info:
            Public Key Algorithm: rsaEncryption
                RSA Public-Key: (2048 bit)
                Modulus:
                    00:d7:19:be:a9:0d:f4:d4:26:1b:00:2a:1a:3b:76:
                    14:be:3f:3c:0c:08:1d:3a:c4:a8:31:21:d0:21:7d:
                    05:ed:24:88:aa:17:1d:04:89:a9:c5:f0:43:06:65:
                    64:1b:c3:ba:53:2e:89:04:09:ec:de:cd:e6:b5:df:
                    8a:79:3d:3b:ee:38:bc:26:7d:d5:4b:e6:5c:cb:84:
                    f0:cf:e3:59:4f:54:66:ec:c5:5f:09:1d:14:cc:c2:
                    6c:08:8e:4a:21:cf:6c:ec:b7:48:a1:49:02:d6:12:
                    a3:93:cb:bb:5a:0c:d9:2a:25:53:6f:99:3e:20:f8:
                    e9:55:7e:2e:a6:b9:a7:31:24:25:ba:08:8f:c0:e1:
                    0b:ed:b0:e7:70:5f:94:60:c9:26:df:e5:3d:06:96:
                    d7:81:d9:41:0f:82:be:8a:08:e7:14:9b:f9:31:14:
                    ae:90:91:a6:26:69:63:ea:06:76:07:95:bc:7b:0d:
                    95:80:e9:85:63:f0:4e:4d:c0:39:4e:eb:ee:99:61:
                    02:7b:a5:3b:8d:25:c0:6c:8d:b5:72:9b:86:0e:a5:
                    57:99:24:33:d3:2d:00:d2:f8:e1:ea:b9:e2:94:62:
                    bc:c6:b7:31:6c:8a:21:29:84:51:91:1b:ce:00:71:
                    80:69:46:dc:18:c9:49:18:ac:ae:9a:cd:60:7c:72:
                    b6:d1
                Exponent: 65537 (0x10001)
        X509v3 extensions:
            X509v3 Basic Constraints: 
                CA:FALSE
            X509v3 Subject Key Identifier: 
                3F:BB:6A:3C:76:65:E3:B5:15:89:A5:C7:EF:20:8F:C7:49:FC:2E:CA
            X509v3 Authority Key Identifier: 
                keyid:4C:47:3C:7B:B7:E4:D5:79:2E:54:F8:E3:A4:C2:8B:D2:06:D0:3C:9D
                DirName:/CN=team233-net
                serial:2E:E0:3E:93:29:E5:B1:DD:2A:36:48:AF:BE:71:50:5B:F1:96:21:32

            X509v3 Extended Key Usage: 
                TLS Web Client Authentication
            X509v3 Key Usage: 
                Digital Signature
    Signature Algorithm: sha256WithRSAEncryption
         63:c0:91:f0:7f:08:5e:06:fc:2f:a0:f4:6a:37:ca:dd:de:73:
         c8:67:7b:e5:f9:99:08:6f:e7:09:93:b4:b3:a9:ff:fb:77:68:
         2d:b7:8e:88:26:07:e5:e8:a3:17:6c:2f:3e:ad:a5:40:87:23:
         b6:70:d6:94:50:90:99:bf:b0:f4:48:7b:6c:14:08:53:b5:60:
         af:66:aa:35:9c:6f:28:59:a0:9a:10:a1:87:af:f1:45:d6:06:
         1f:50:35:b8:d5:4a:97:49:63:16:0c:95:5b:e9:9f:05:a0:b4:
         e3:85:18:5d:3d:92:de:3b:1f:3c:da:42:b1:cd:78:75:83:96:
         fe:54:8a:36:a2:fb:0e:9b:4d:fd:96:be:ad:a2:3e:01:fd:8a:
         3e:d0:ea:39:f3:2d:8b:82:42:61:e2:c2:e5:18:37:79:73:20:
         14:c4:f9:51:1a:a3:bd:c7:88:16:df:91:70:8f:c3:80:0c:e9:
         5c:27:75:ce:e1:03:eb:ac:ad:c5:27:91:ee:8b:5a:51:11:99:
         a8:1e:33:91:a4:2e:f5:30:35:7f:15:87:8a:26:ba:9b:58:4e:
         86:7d:21:d6:14:8d:a1:0c:cc:2e:3d:d3:b8:e2:52:b4:8e:46:
         e7:e7:2c:c0:d0:85:7d:b2:74:09:ec:e4:c8:50:72:12:14:ba:
         70:d5:90:4c
-----BEGIN CERTIFICATE-----
MIIDXTCCAkWgAwIBAgIRAME2HaIfoWUen1H3c+3YDvowDQYJKoZIhvcNAQELBQAw
FjEUMBIGA1UEAwwLdGVhbTIzMy1uZXQwHhcNMjMwODE0MTQyNjU5WhcNMjYwNzI5
MTQyNjU5WjAZMRcwFQYDVQQDDA50ZWFtMjMzLWNsaWVudDCCASIwDQYJKoZIhvcN
AQEBBQADggEPADCCAQoCggEBANcZvqkN9NQmGwAqGjt2FL4/PAwIHTrEqDEh0CF9
Be0kiKoXHQSJqcXwQwZlZBvDulMuiQQJ7N7N5rXfink9O+44vCZ91UvmXMuE8M/j
WU9UZuzFXwkdFMzCbAiOSiHPbOy3SKFJAtYSo5PLu1oM2SolU2+ZPiD46VV+Lqa5
pzEkJboIj8DhC+2w53BflGDJJt/lPQaW14HZQQ+CvooI5xSb+TEUrpCRpiZpY+oG
dgeVvHsNlYDphWPwTk3AOU7r7plhAnulO40lwGyNtXKbhg6lV5kkM9MtANL44eq5
4pRivMa3MWyKISmEUZEbzgBxgGlG3BjJSRisrprNYHxyttECAwEAAaOBojCBnzAJ
BgNVHRMEAjAAMB0GA1UdDgQWBBQ/u2o8dmXjtRWJpcfvII/HSfwuyjBRBgNVHSME
SjBIgBRMRzx7t+TVeS5U+OOkwovSBtA8naEapBgwFjEUMBIGA1UEAwwLdGVhbTIz
My1uZXSCFC7gPpMp5bHdKjZIr75xUFvxliEyMBMGA1UdJQQMMAoGCCsGAQUFBwMC
MAsGA1UdDwQEAwIHgDANBgkqhkiG9w0BAQsFAAOCAQEAY8CR8H8IXgb8L6D0ajfK
3d5zyGd75fmZCG/nCZO0s6n/+3doLbeOiCYH5eijF2wvPq2lQIcjtnDWlFCQmb+w
9Eh7bBQIU7Vgr2aqNZxvKFmgmhChh6/xRdYGH1A1uNVKl0ljFgyVW+mfBaC044UY
XT2S3jsfPNpCsc14dYOW/lSKNqL7DptN/Za+raI+Af2KPtDqOfMti4JCYeLC5Rg3
eXMgFMT5URqjvceIFt+RcI/DgAzpXCd1zuED66ytxSeR7otaURGZqB4zkaQu9TA1
fxWHiia6m1hOhn0h1hSNoQzMLj3TuOJStI5G5+cswNCFfbJ0CezkyFByEhS6cNWQ
TA==
-----END CERTIFICATE-----
