Certificate:
    Data:
        Version: 3 (0x2)
        Serial Number:
            1c:8f:ab:4d:18:84:06:98:b6:b1:69:5e:88:27:49:7b
        Signature Algorithm: sha256WithRSAEncryption
        Issuer: CN=team178-net
        Validity
            Not Before: Aug 14 14:25:56 2023 GMT
            Not After : Jul 29 14:25:56 2026 GMT
        Subject: CN=team178-client
        Subject Public Key Info:
            Public Key Algorithm: rsaEncryption
                RSA Public-Key: (2048 bit)
                Modulus:
                    00:bc:3b:b8:a4:93:20:99:07:a6:8a:5d:a9:fd:22:
                    a9:38:e6:86:24:91:c1:a9:f5:6d:2b:f9:87:99:30:
                    9e:fa:47:78:54:2d:1b:9d:08:86:8e:99:fe:f5:ed:
                    a4:80:13:a9:4e:f4:93:c1:54:07:bb:38:c3:1a:d9:
                    70:7a:24:a5:21:b4:68:b0:f5:97:b8:a4:18:86:c6:
                    5d:31:1d:eb:28:52:70:42:c9:dd:3d:3c:06:84:7e:
                    96:31:5b:61:a3:08:f6:d5:82:83:9b:b3:ba:e0:bf:
                    12:88:50:49:77:9e:a9:fb:d2:a6:86:f0:c2:2d:90:
                    7f:07:47:b6:f9:d3:66:ea:43:09:e7:ae:22:e2:36:
                    d7:4d:b9:f4:b3:32:50:00:23:c6:b6:6a:e1:d2:cf:
                    5e:9c:39:5b:29:89:0d:c2:0b:ac:25:77:c4:8a:f2:
                    79:fa:da:43:63:6b:fb:36:ff:91:7a:b5:62:2b:33:
                    95:d5:a2:07:73:36:35:ee:44:3e:98:57:81:11:f2:
                    1e:26:ea:cb:90:93:74:72:47:52:bc:12:bd:9c:7c:
                    f2:ff:2f:c0:f1:f8:4c:4b:32:ed:e4:c5:5f:dc:f3:
                    f8:82:7d:e5:cb:d2:c6:b1:12:c2:8c:74:38:73:40:
                    5e:8e:3c:3c:89:97:e0:e8:ad:b1:d3:ee:1a:c1:d2:
                    ad:8f
                Exponent: 65537 (0x10001)
        X509v3 extensions:
            X509v3 Basic Constraints: 
                CA:FALSE
            X509v3 Subject Key Identifier: 
                EA:79:E5:25:FE:C2:56:45:84:8A:3F:00:8D:48:F5:FD:CE:F1:6E:7C
            X509v3 Authority Key Identifier: 
                keyid:E7:9B:38:0C:02:AB:DE:70:BD:A6:BB:BD:F7:FC:65:CA:55:28:9C:50
                DirName:/CN=team178-net
                serial:34:E8:E7:B3:55:80:DB:E7:EC:F0:F0:5E:A1:4F:B4:97:86:9A:50:B4

            X509v3 Extended Key Usage: 
                TLS Web Client Authentication
            X509v3 Key Usage: 
                Digital Signature
    Signature Algorithm: sha256WithRSAEncryption
         8f:5e:1d:bc:6b:0b:25:36:2d:72:a8:17:66:2d:6f:d9:14:05:
         6f:97:fc:3b:ff:16:78:91:96:cb:f8:3e:2b:d1:4f:61:18:cc:
         3e:88:1c:f9:53:3d:74:e0:46:80:3e:58:8b:b7:5b:ee:4c:2c:
         c3:95:28:5a:3f:20:6e:44:93:ff:0e:98:bb:e9:e5:e2:a1:98:
         ad:3a:13:b4:a1:07:4c:c5:d0:66:fa:59:33:a6:1d:c8:3f:24:
         d6:27:be:ef:5f:b7:a8:e7:4e:63:f9:61:49:6f:e8:36:0d:e4:
         d3:94:6e:06:23:21:5d:7b:cf:21:cf:02:34:35:18:f3:0e:d2:
         a4:bb:56:7d:b3:a5:4a:ee:45:04:c7:d7:33:6a:c5:7c:62:26:
         c3:38:2c:87:94:61:53:ce:64:fb:8c:24:95:51:4c:c7:ca:2f:
         c7:7b:7c:d3:86:1a:0b:19:f3:97:df:cd:f1:38:5e:2f:7d:5e:
         4d:ff:62:72:a7:43:28:a8:37:5a:1c:e1:8b:20:eb:f8:35:bd:
         47:e4:23:d1:c4:2a:09:b6:2b:73:a7:02:94:87:86:ad:33:de:
         aa:5b:a7:8a:3d:0b:9b:ee:ee:a5:b9:c1:85:99:5b:8b:af:3b:
         00:4e:cf:f9:6e:a6:b8:73:1b:47:c0:8c:7e:58:dc:1c:89:81:
         ac:d6:e8:06
-----BEGIN CERTIFICATE-----
MIIDXDCCAkSgAwIBAgIQHI+rTRiEBpi2sWleiCdJezANBgkqhkiG9w0BAQsFADAW
MRQwEgYDVQQDDAt0ZWFtMTc4LW5ldDAeFw0yMzA4MTQxNDI1NTZaFw0yNjA3Mjkx
NDI1NTZaMBkxFzAVBgNVBAMMDnRlYW0xNzgtY2xpZW50MIIBIjANBgkqhkiG9w0B
AQEFAAOCAQ8AMIIBCgKCAQEAvDu4pJMgmQemil2p/SKpOOaGJJHBqfVtK/mHmTCe
+kd4VC0bnQiGjpn+9e2kgBOpTvSTwVQHuzjDGtlweiSlIbRosPWXuKQYhsZdMR3r
KFJwQsndPTwGhH6WMVthowj21YKDm7O64L8SiFBJd56p+9KmhvDCLZB/B0e2+dNm
6kMJ564i4jbXTbn0szJQACPGtmrh0s9enDlbKYkNwgusJXfEivJ5+tpDY2v7Nv+R
erViKzOV1aIHczY17kQ+mFeBEfIeJurLkJN0ckdSvBK9nHzy/y/A8fhMSzLt5MVf
3PP4gn3ly9LGsRLCjHQ4c0Bejjw8iZfg6K2x0+4awdKtjwIDAQABo4GiMIGfMAkG
A1UdEwQCMAAwHQYDVR0OBBYEFOp55SX+wlZFhIo/AI1I9f3O8W58MFEGA1UdIwRK
MEiAFOebOAwCq95wvaa7vff8ZcpVKJxQoRqkGDAWMRQwEgYDVQQDDAt0ZWFtMTc4
LW5ldIIUNOjns1WA2+fs8PBeoU+0l4aaULQwEwYDVR0lBAwwCgYIKwYBBQUHAwIw
CwYDVR0PBAQDAgeAMA0GCSqGSIb3DQEBCwUAA4IBAQCPXh28awslNi1yqBdmLW/Z
FAVvl/w7/xZ4kZbL+D4r0U9hGMw+iBz5Uz104EaAPliLt1vuTCzDlShaPyBuRJP/
Dpi76eXioZitOhO0oQdMxdBm+lkzph3IPyTWJ77vX7eo505j+WFJb+g2DeTTlG4G
IyFde88hzwI0NRjzDtKku1Z9s6VK7kUEx9czasV8YibDOCyHlGFTzmT7jCSVUUzH
yi/He3zThhoLGfOX383xOF4vfV5N/2Jyp0MoqDdaHOGLIOv4Nb1H5CPRxCoJtitz
pwKUh4atM96qW6eKPQub7u6lucGFmVuLrzsATs/5bqa4cxtHwIx+WNwciYGs1ugG
-----END CERTIFICATE-----
