Certificate:
    Data:
        Version: 3 (0x2)
        Serial Number:
            01:7a:a8:f0:99:ab:62:aa:46:16:0f:67:a5:5c:31:29
        Signature Algorithm: sha256WithRSAEncryption
        Issuer: CN=team3-net
        Validity
            Not Before: Aug 14 14:22:06 2023 GMT
            Not After : Jul 29 14:22:06 2026 GMT
        Subject: CN=team3-server
        Subject Public Key Info:
            Public Key Algorithm: rsaEncryption
                RSA Public-Key: (2048 bit)
                Modulus:
                    00:d5:f6:0c:0e:31:3a:2f:f4:0c:6a:21:a5:db:9a:
                    bf:4b:5a:40:3b:7d:35:b8:9a:ff:c2:82:b9:98:ef:
                    3d:ae:fb:b3:31:ed:8d:46:b7:96:cc:a5:0b:5c:7a:
                    43:08:bc:1a:13:5a:41:42:ca:fe:93:56:ee:af:a4:
                    86:d9:c1:33:88:98:41:6a:da:62:ad:56:8c:68:4e:
                    2f:cc:01:75:92:7c:82:4e:34:e2:07:9c:f5:fb:ea:
                    2e:05:22:24:5e:ee:a3:de:b6:85:a2:e9:fc:82:fa:
                    af:3f:0f:01:9c:44:cb:94:00:65:72:fc:11:67:f9:
                    59:81:7c:22:23:86:d6:e3:0e:5d:b2:d0:07:dc:ae:
                    7f:d0:40:b9:e2:b5:8a:8b:61:c0:f0:2b:b2:61:82:
                    7a:27:f8:d0:5a:a2:cf:13:dc:69:cb:f8:96:fb:31:
                    ed:b5:a9:19:20:fa:3e:1b:d8:aa:c5:5e:5b:fb:c4:
                    8e:e9:53:b1:09:69:da:59:44:14:c5:0e:55:22:85:
                    18:b6:05:cf:be:cb:fe:67:c1:34:60:79:3d:78:20:
                    70:52:24:fa:f6:67:fe:bf:7f:f0:7f:e0:98:18:d4:
                    2f:98:1c:5e:65:76:d3:1a:2d:05:d9:5e:86:11:80:
                    d1:a5:86:53:11:0d:ef:43:11:ec:10:30:0a:ae:e3:
                    11:2d
                Exponent: 65537 (0x10001)
        X509v3 extensions:
            X509v3 Basic Constraints: 
                CA:FALSE
            X509v3 Subject Key Identifier: 
                28:EB:83:37:6F:AA:A5:14:8C:55:42:CC:63:BC:CB:3C:0E:7D:8D:90
            X509v3 Authority Key Identifier: 
                keyid:DD:A8:FD:05:E5:10:55:4F:9B:B4:61:76:03:3F:AA:03:7D:BA:5B:05
                DirName:/CN=team3-net
                serial:5F:DA:89:2B:DC:8D:37:39:BF:E6:03:86:88:B3:75:F2:A4:C1:E0:0D

            X509v3 Extended Key Usage: 
                TLS Web Server Authentication
            X509v3 Key Usage: 
                Digital Signature, Key Encipherment
            X509v3 Subject Alternative Name: 
                DNS:team3-server
    Signature Algorithm: sha256WithRSAEncryption
         ea:6e:0a:cc:2f:46:5b:0d:be:67:6b:bc:45:c3:a2:cc:47:24:
         15:e2:81:20:12:5e:08:40:ad:2f:95:a0:00:f0:9f:d1:b5:93:
         b6:66:09:c3:31:1c:76:d4:9c:ec:30:a1:6e:26:2d:f6:c4:bc:
         13:80:e3:7c:6f:13:da:d2:e1:87:03:bd:08:54:b6:7c:e9:6b:
         be:da:5b:16:73:0f:b3:56:3c:c7:75:90:e0:dc:8b:1d:d8:8e:
         17:9e:07:02:28:07:e9:e5:cc:eb:d9:7a:cc:e7:f4:38:12:bd:
         61:b6:80:9e:b0:ca:39:7b:69:c8:ef:88:df:1d:c1:e7:33:ca:
         ff:ee:5d:a3:0f:a8:48:66:0e:51:ea:d7:5f:94:1c:e6:0e:a3:
         08:5a:cc:3c:3c:cc:1e:36:1e:a1:c8:d0:5b:78:27:1d:67:7a:
         ed:d3:e0:07:cc:ea:01:73:8b:bf:9b:72:a2:33:b2:9d:74:13:
         96:a9:85:5d:6c:12:53:d0:bd:c9:7a:2f:81:09:a8:47:fd:a9:
         ef:1e:56:02:68:d1:c8:c8:be:9d:04:e2:ca:d6:e4:ea:2f:0d:
         5a:16:93:8e:87:70:3b:e6:da:00:bb:15:3b:07:f7:a1:8c:8f:
         f5:e8:f1:35:00:58:44:f3:88:29:aa:41:5c:ac:a4:7a:3b:98:
         0c:c5:b8:db
-----BEGIN CERTIFICATE-----
MIIDbzCCAlegAwIBAgIQAXqo8JmrYqpGFg9npVwxKTANBgkqhkiG9w0BAQsFADAU
MRIwEAYDVQQDDAl0ZWFtMy1uZXQwHhcNMjMwODE0MTQyMjA2WhcNMjYwNzI5MTQy
MjA2WjAXMRUwEwYDVQQDDAx0ZWFtMy1zZXJ2ZXIwggEiMA0GCSqGSIb3DQEBAQUA
A4IBDwAwggEKAoIBAQDV9gwOMTov9AxqIaXbmr9LWkA7fTW4mv/CgrmY7z2u+7Mx
7Y1Gt5bMpQtcekMIvBoTWkFCyv6TVu6vpIbZwTOImEFq2mKtVoxoTi/MAXWSfIJO
NOIHnPX76i4FIiRe7qPetoWi6fyC+q8/DwGcRMuUAGVy/BFn+VmBfCIjhtbjDl2y
0Afcrn/QQLnitYqLYcDwK7Jhgnon+NBaos8T3GnL+Jb7Me21qRkg+j4b2KrFXlv7
xI7pU7EJadpZRBTFDlUihRi2Bc++y/5nwTRgeT14IHBSJPr2Z/6/f/B/4JgY1C+Y
HF5ldtMaLQXZXoYRgNGlhlMRDe9DEewQMAqu4xEtAgMBAAGjgbkwgbYwCQYDVR0T
BAIwADAdBgNVHQ4EFgQUKOuDN2+qpRSMVULMY7zLPA59jZAwTwYDVR0jBEgwRoAU
3aj9BeUQVU+btGF2Az+qA326WwWhGKQWMBQxEjAQBgNVBAMMCXRlYW0zLW5ldIIU
X9qJK9yNNzm/5gOGiLN18qTB4A0wEwYDVR0lBAwwCgYIKwYBBQUHAwEwCwYDVR0P
BAQDAgWgMBcGA1UdEQQQMA6CDHRlYW0zLXNlcnZlcjANBgkqhkiG9w0BAQsFAAOC
AQEA6m4KzC9GWw2+Z2u8RcOizEckFeKBIBJeCECtL5WgAPCf0bWTtmYJwzEcdtSc
7DChbiYt9sS8E4DjfG8T2tLhhwO9CFS2fOlrvtpbFnMPs1Y8x3WQ4NyLHdiOF54H
AigH6eXM69l6zOf0OBK9YbaAnrDKOXtpyO+I3x3B5zPK/+5dow+oSGYOUerXX5Qc
5g6jCFrMPDzMHjYeocjQW3gnHWd67dPgB8zqAXOLv5tyojOynXQTlqmFXWwSU9C9
yXovgQmoR/2p7x5WAmjRyMi+nQTiytbk6i8NWhaTjodwO+baALsVOwf3oYyP9ejx
NQBYRPOIKapBXKykejuYDMW42w==
-----END CERTIFICATE-----
