Certificate:
    Data:
        Version: 3 (0x2)
        Serial Number:
            c4:42:a2:b8:05:cf:35:38:d0:9e:f3:99:c5:f2:cb:78
        Signature Algorithm: sha256WithRSAEncryption
        Issuer: CN=team3-net
        Validity
            Not Before: Aug 14 14:22:06 2023 GMT
            Not After : Jul 29 14:22:06 2026 GMT
        Subject: CN=team3-client
        Subject Public Key Info:
            Public Key Algorithm: rsaEncryption
                RSA Public-Key: (2048 bit)
                Modulus:
                    00:b4:8d:f3:07:13:33:4d:f1:38:d1:fb:6d:14:3d:
                    a8:2a:de:f1:8e:c9:9c:da:1c:79:0a:b3:6f:63:6c:
                    90:2c:f7:bb:5b:a4:44:c9:37:4f:d0:64:1b:bc:6a:
                    c2:29:5e:c7:33:9f:56:04:a4:f5:3c:fc:23:a9:1d:
                    09:ea:41:ab:66:84:49:16:4a:5e:43:79:50:71:63:
                    15:02:4a:b3:35:7c:f4:10:d7:77:e6:26:2f:65:10:
                    95:ae:59:56:94:97:86:44:ac:9f:6d:10:38:62:4f:
                    d8:d5:07:cf:6b:2c:9e:60:9e:c6:31:77:88:fe:03:
                    88:7d:d9:36:57:8b:7b:bc:4f:cc:5b:63:8a:cb:8d:
                    e8:be:05:1a:05:64:87:c1:85:1b:7c:81:93:b0:8c:
                    7c:a7:fa:96:ca:a5:ec:ca:d1:3d:51:dc:7b:93:ef:
                    0f:96:12:d1:a4:b8:2f:da:ab:58:9d:0c:0b:ad:a0:
                    f9:75:68:82:68:4e:6b:11:c6:a7:d6:e5:cf:19:b9:
                    38:40:12:dc:09:ed:af:47:f9:f5:7f:7e:9c:6a:87:
                    29:52:e9:a2:f4:0c:40:ef:8d:a9:81:93:f4:57:73:
                    a8:01:b8:00:70:8e:89:61:ba:a3:a5:0f:29:22:cd:
                    3f:9f:87:15:c8:13:ea:f7:2f:93:b3:84:73:9e:76:
                    c8:23
                Exponent: 65537 (0x10001)
        X509v3 extensions:
            X509v3 Basic Constraints: 
                CA:FALSE
            X509v3 Subject Key Identifier: 
                C6:17:27:6A:F9:6A:89:87:02:FE:E9:59:C1:31:05:1A:E1:16:61:EC
            X509v3 Authority Key Identifier: 
                keyid:DD:A8:FD:05:E5:10:55:4F:9B:B4:61:76:03:3F:AA:03:7D:BA:5B:05
                DirName:/CN=team3-net
                serial:5F:DA:89:2B:DC:8D:37:39:BF:E6:03:86:88:B3:75:F2:A4:C1:E0:0D

            X509v3 Extended Key Usage: 
                TLS Web Client Authentication
            X509v3 Key Usage: 
                Digital Signature
    Signature Algorithm: sha256WithRSAEncryption
         a5:3f:23:8e:eb:5e:bd:80:a0:15:05:d6:8a:4d:dc:97:e5:59:
         60:28:3f:14:c7:15:7f:9d:bf:7d:ef:b1:a5:63:b5:a2:8e:22:
         e5:48:60:b0:c0:85:58:e1:c1:1c:50:c0:62:26:82:08:89:78:
         d9:49:88:ab:0a:0d:c1:6e:15:a8:21:e6:00:d7:41:55:01:81:
         e1:42:cc:45:e6:40:05:43:5b:a0:d8:9d:0f:72:5a:7a:8b:70:
         e9:b4:83:0d:a2:11:5e:e6:53:b6:9d:e0:46:cb:db:0c:8a:cb:
         2e:fe:90:55:70:b0:5f:a5:9c:75:a5:8f:a5:c2:c9:cc:7b:83:
         80:74:5d:ec:67:45:8c:03:a9:19:01:e3:d8:ce:73:c7:77:10:
         22:8f:77:47:ff:70:f3:55:ae:d0:74:25:76:e0:70:9d:c9:c6:
         11:f8:5c:4f:e6:bf:d6:a7:60:c3:a4:89:30:03:de:f6:02:e9:
         03:22:ca:54:c9:33:af:e8:14:22:ef:2e:8e:21:d7:c7:c2:bf:
         3a:93:4f:00:27:b4:66:60:09:a1:58:04:b9:a3:cf:f3:e0:0d:
         74:e4:a6:a6:54:c3:08:1b:ec:3b:38:5d:80:52:3e:6f:d1:ff:
         0f:fd:41:ba:60:26:bf:69:da:5a:de:c8:fa:06:6d:cd:2d:22:
         33:05:20:95
-----BEGIN CERTIFICATE-----
MIIDVzCCAj+gAwIBAgIRAMRCorgFzzU40J7zmcXyy3gwDQYJKoZIhvcNAQELBQAw
FDESMBAGA1UEAwwJdGVhbTMtbmV0MB4XDTIzMDgxNDE0MjIwNloXDTI2MDcyOTE0
MjIwNlowFzEVMBMGA1UEAwwMdGVhbTMtY2xpZW50MIIBIjANBgkqhkiG9w0BAQEF
AAOCAQ8AMIIBCgKCAQEAtI3zBxMzTfE40fttFD2oKt7xjsmc2hx5CrNvY2yQLPe7
W6REyTdP0GQbvGrCKV7HM59WBKT1PPwjqR0J6kGrZoRJFkpeQ3lQcWMVAkqzNXz0
ENd35iYvZRCVrllWlJeGRKyfbRA4Yk/Y1QfPayyeYJ7GMXeI/gOIfdk2V4t7vE/M
W2OKy43ovgUaBWSHwYUbfIGTsIx8p/qWyqXsytE9Udx7k+8PlhLRpLgv2qtYnQwL
raD5dWiCaE5rEcan1uXPGbk4QBLcCe2vR/n1f36caocpUumi9AxA742pgZP0V3Oo
AbgAcI6JYbqjpQ8pIs0/n4cVyBPq9y+Ts4RznnbIIwIDAQABo4GgMIGdMAkGA1Ud
EwQCMAAwHQYDVR0OBBYEFMYXJ2r5aomHAv7pWcExBRrhFmHsME8GA1UdIwRIMEaA
FN2o/QXlEFVPm7RhdgM/qgN9ulsFoRikFjAUMRIwEAYDVQQDDAl0ZWFtMy1uZXSC
FF/aiSvcjTc5v+YDhoizdfKkweANMBMGA1UdJQQMMAoGCCsGAQUFBwMCMAsGA1Ud
DwQEAwIHgDANBgkqhkiG9w0BAQsFAAOCAQEApT8jjutevYCgFQXWik3cl+VZYCg/
FMcVf52/fe+xpWO1oo4i5UhgsMCFWOHBHFDAYiaCCIl42UmIqwoNwW4VqCHmANdB
VQGB4ULMReZABUNboNidD3Jaeotw6bSDDaIRXuZTtp3gRsvbDIrLLv6QVXCwX6Wc
daWPpcLJzHuDgHRd7GdFjAOpGQHj2M5zx3cQIo93R/9w81Wu0HQlduBwncnGEfhc
T+a/1qdgw6SJMAPe9gLpAyLKVMkzr+gUIu8ujiHXx8K/OpNPACe0ZmAJoVgEuaPP
8+ANdOSmplTDCBvsOzhdgFI+b9H/D/1BumAmv2naWt7I+gZtzS0iMwUglQ==
-----END CERTIFICATE-----
