Certificate:
    Data:
        Version: 3 (0x2)
        Serial Number:
            36:ab:7b:87:24:96:4e:73:e5:a9:e8:f1:18:c0:8b:9f
        Signature Algorithm: sha256WithRSAEncryption
        Issuer: CN=team210-net
        Validity
            Not Before: Aug 14 14:26:31 2023 GMT
            Not After : Jul 29 14:26:31 2026 GMT
        Subject: CN=team210-server
        Subject Public Key Info:
            Public Key Algorithm: rsaEncryption
                RSA Public-Key: (2048 bit)
                Modulus:
                    00:cc:30:83:93:98:95:5d:64:c0:5c:e7:de:b1:30:
                    4b:30:9a:d3:61:02:d6:58:e7:d9:a0:7d:f8:b9:09:
                    30:a2:0a:11:3d:91:9a:af:97:e0:bc:28:68:d6:6f:
                    8f:fc:f3:15:75:8a:2a:e2:cd:53:b0:77:a0:f3:17:
                    5d:62:fe:2b:bd:ac:54:c1:73:d9:9c:c2:c2:de:aa:
                    53:a0:4a:a6:0b:0a:2a:5e:56:8d:80:3d:45:b2:36:
                    2b:a1:9f:82:15:f1:82:61:3b:3e:41:98:80:bc:6c:
                    3b:19:57:9a:3d:6d:50:eb:a4:1e:c6:95:59:ba:33:
                    74:49:b3:3a:5d:94:1c:6e:35:44:d9:56:f5:35:4b:
                    1e:b6:0f:6c:9c:98:30:3a:f9:82:d9:cc:13:a4:b2:
                    93:54:86:20:8d:a6:f2:b2:2e:0a:b2:85:33:7d:ce:
                    c3:e5:5c:ba:e6:42:df:3f:f4:0f:27:47:3d:87:18:
                    02:75:73:79:8f:0a:32:13:9b:40:d4:20:f8:c0:e5:
                    71:1d:21:7d:d5:8d:30:07:28:1e:ec:99:39:02:62:
                    af:b9:e6:d9:52:8b:4f:d8:6d:b9:b5:d0:cf:14:c2:
                    4d:5a:85:fb:a2:83:2f:37:e6:5e:34:34:21:c7:2b:
                    64:6a:33:9f:77:f7:e0:7d:14:06:2f:4d:40:a9:5d:
                    86:9d
                Exponent: 65537 (0x10001)
        X509v3 extensions:
            X509v3 Basic Constraints: 
                CA:FALSE
            X509v3 Subject Key Identifier: 
                81:63:BE:0B:E7:7C:14:AA:F7:FB:5E:DC:C4:DD:95:DF:0B:40:5A:D3
            X509v3 Authority Key Identifier: 
                keyid:29:FA:12:CA:DA:B5:EE:09:5B:C3:76:05:4C:EE:24:38:BB:1F:E5:D5
                DirName:/CN=team210-net
                serial:2C:44:A6:1C:7A:80:BE:D0:18:16:25:BD:AE:FD:B1:A3:8F:27:8B:3D

            X509v3 Extended Key Usage: 
                TLS Web Server Authentication
            X509v3 Key Usage: 
                Digital Signature, Key Encipherment
            X509v3 Subject Alternative Name: 
                DNS:team210-server
    Signature Algorithm: sha256WithRSAEncryption
         63:bc:ce:f1:62:5a:98:96:f6:13:05:9f:5a:18:2e:79:db:15:
         ac:52:c3:88:6c:df:21:98:50:05:8e:d4:82:4a:5b:b3:dd:2d:
         57:6c:08:44:04:ed:98:3b:74:e1:13:17:82:8b:b7:1b:97:47:
         80:d1:35:16:41:33:e4:3e:45:60:1b:14:35:61:17:d6:1e:e6:
         c5:a3:a0:6e:a8:7a:16:3e:25:b7:a9:04:92:46:82:bd:f9:a9:
         57:3e:74:01:a3:9f:57:61:93:20:80:4f:77:72:5e:ec:db:96:
         e8:83:5a:df:5a:71:65:fe:91:ec:94:af:23:d2:8a:d2:01:65:
         ed:1a:aa:c3:15:cc:b5:a1:ef:fe:cc:6b:37:f3:8d:63:e6:8b:
         53:21:97:6e:57:a5:00:8f:00:10:b0:65:d2:07:39:8a:f9:62:
         19:95:2a:8e:5e:30:9f:da:24:25:6b:de:6d:af:cb:b4:bc:aa:
         df:2c:f9:69:4e:c6:eb:e1:0b:d4:56:fc:40:fe:18:c5:c4:9a:
         1c:04:3d:21:c7:03:cd:ef:25:49:a2:83:66:a4:ff:d6:50:07:
         73:17:c4:e5:dd:45:b9:b4:29:45:28:50:0e:f4:ae:c2:1c:e1:
         0d:7d:f4:2c:01:4f:07:2b:1b:11:a1:36:54:c8:8b:a8:07:92:
         aa:54:5e:d6
-----BEGIN CERTIFICATE-----
MIIDdzCCAl+gAwIBAgIQNqt7hySWTnPlqejxGMCLnzANBgkqhkiG9w0BAQsFADAW
MRQwEgYDVQQDDAt0ZWFtMjEwLW5ldDAeFw0yMzA4MTQxNDI2MzFaFw0yNjA3Mjkx
NDI2MzFaMBkxFzAVBgNVBAMMDnRlYW0yMTAtc2VydmVyMIIBIjANBgkqhkiG9w0B
AQEFAAOCAQ8AMIIBCgKCAQEAzDCDk5iVXWTAXOfesTBLMJrTYQLWWOfZoH34uQkw
ogoRPZGar5fgvCho1m+P/PMVdYoq4s1TsHeg8xddYv4rvaxUwXPZnMLC3qpToEqm
CwoqXlaNgD1FsjYroZ+CFfGCYTs+QZiAvGw7GVeaPW1Q66QexpVZujN0SbM6XZQc
bjVE2Vb1NUsetg9snJgwOvmC2cwTpLKTVIYgjabysi4KsoUzfc7D5Vy65kLfP/QP
J0c9hxgCdXN5jwoyE5tA1CD4wOVxHSF91Y0wByge7Jk5AmKvuebZUotP2G25tdDP
FMJNWoX7ooMvN+ZeNDQhxytkajOfd/fgfRQGL01AqV2GnQIDAQABo4G9MIG6MAkG
A1UdEwQCMAAwHQYDVR0OBBYEFIFjvgvnfBSq9/te3MTdld8LQFrTMFEGA1UdIwRK
MEiAFCn6Esrate4JW8N2BUzuJDi7H+XVoRqkGDAWMRQwEgYDVQQDDAt0ZWFtMjEw
LW5ldIIULESmHHqAvtAYFiW9rv2xo48niz0wEwYDVR0lBAwwCgYIKwYBBQUHAwEw
CwYDVR0PBAQDAgWgMBkGA1UdEQQSMBCCDnRlYW0yMTAtc2VydmVyMA0GCSqGSIb3
DQEBCwUAA4IBAQBjvM7xYlqYlvYTBZ9aGC552xWsUsOIbN8hmFAFjtSCSluz3S1X
bAhEBO2YO3ThExeCi7cbl0eA0TUWQTPkPkVgGxQ1YRfWHubFo6BuqHoWPiW3qQSS
RoK9+alXPnQBo59XYZMggE93cl7s25bog1rfWnFl/pHslK8j0orSAWXtGqrDFcy1
oe/+zGs3841j5otTIZduV6UAjwAQsGXSBzmK+WIZlSqOXjCf2iQla95tr8u0vKrf
LPlpTsbr4QvUVvxA/hjFxJocBD0hxwPN7yVJooNmpP/WUAdzF8Tl3UW5tClFKFAO
9K7CHOENffQsAU8HKxsRoTZUyIuoB5KqVF7W
-----END CERTIFICATE-----
