Certificate:
    Data:
        Version: 3 (0x2)
        Serial Number:
            57:7b:e4:b9:b1:d0:fd:ea:e2:18:81:1d:5e:1f:39:e7
        Signature Algorithm: sha256WithRSAEncryption
        Issuer: CN=team56-net
        Validity
            Not Before: Aug 14 14:23:22 2023 GMT
            Not After : Jul 29 14:23:22 2026 GMT
        Subject: CN=team56-client
        Subject Public Key Info:
            Public Key Algorithm: rsaEncryption
                RSA Public-Key: (2048 bit)
                Modulus:
                    00:be:59:38:35:6b:8b:97:91:63:56:04:91:d8:e4:
                    60:24:97:40:e9:89:12:9e:5f:99:ab:4d:d1:31:84:
                    96:fe:de:d2:20:0f:e7:cb:59:84:59:f4:5f:51:5c:
                    86:59:74:90:94:0c:ce:0c:fc:b5:e4:e8:5d:a5:0b:
                    f1:e1:dd:0a:97:3f:1f:58:2d:fb:46:da:21:8b:01:
                    56:fe:3c:98:47:e4:ae:7d:76:3b:18:9a:e1:33:4b:
                    88:e2:89:ce:56:53:de:b5:2b:20:00:bd:be:1d:94:
                    ef:26:21:15:56:bb:f6:fb:b2:9a:22:91:01:bb:bc:
                    96:32:25:ea:75:d2:7d:ea:a0:0c:39:39:5e:a2:13:
                    f6:e7:7b:52:3a:d5:da:55:ed:54:29:ca:30:9f:2a:
                    c4:32:99:f6:37:1b:50:55:67:7e:ca:06:82:9e:e7:
                    6c:3a:81:5a:89:76:ce:d5:fe:43:56:88:83:b5:6d:
                    c6:72:f6:76:8d:ab:67:10:17:94:a3:1e:e4:0e:b8:
                    dc:cb:fb:03:e4:a2:56:60:2d:b1:03:77:98:9a:e7:
                    7a:1b:cb:99:2f:28:1e:ea:9d:90:1d:1d:3c:b6:87:
                    aa:60:c0:42:6a:6a:11:f3:28:af:36:fe:e3:ef:c0:
                    73:fd:c4:bb:6f:4f:0c:07:e4:28:84:60:cb:6f:70:
                    e3:d7
                Exponent: 65537 (0x10001)
        X509v3 extensions:
            X509v3 Basic Constraints: 
                CA:FALSE
            X509v3 Subject Key Identifier: 
                B3:29:2B:7D:2C:B6:BA:F4:F7:B0:CF:F9:AE:A6:43:17:70:B8:04:E4
            X509v3 Authority Key Identifier: 
                keyid:0B:D7:43:C6:9B:7E:0A:2F:BD:C2:E3:66:29:D0:B7:7C:0A:D9:F4:FE
                DirName:/CN=team56-net
                serial:6C:F9:49:61:88:12:47:32:AA:07:7C:63:7C:D9:42:79:4A:DD:C2:76

            X509v3 Extended Key Usage: 
                TLS Web Client Authentication
            X509v3 Key Usage: 
                Digital Signature
    Signature Algorithm: sha256WithRSAEncryption
         a9:e2:bf:cc:6c:56:90:49:33:65:b5:d7:c9:a8:07:13:bc:2b:
         64:07:5e:50:f2:e9:16:c3:fc:9e:29:0b:52:24:77:0e:c3:c9:
         e7:5b:89:7b:08:bc:a3:d7:96:d8:f6:14:a8:8d:5b:aa:74:b0:
         6f:4b:6d:c4:08:a1:ec:bf:5d:2a:5b:40:27:17:18:b9:19:ae:
         28:2c:98:19:05:21:18:85:d6:ef:75:e0:22:b4:6c:a9:be:5b:
         e1:c2:3f:94:1b:b3:d7:55:10:4b:24:2e:58:16:fe:41:eb:7c:
         24:bf:9b:ac:03:77:a7:4e:f4:18:3c:75:47:15:2c:da:cd:e2:
         8f:64:9f:db:11:c7:eb:30:5c:59:97:b4:be:79:64:94:72:d4:
         dc:e6:0a:17:03:a9:b8:21:c6:f7:ff:b1:0d:3e:c0:44:39:2b:
         c8:90:85:29:df:aa:7e:0d:21:f6:cc:7b:60:03:fd:09:ba:bf:
         72:7a:fd:07:1a:66:c3:ce:b1:5c:17:66:b3:6d:7c:4b:da:3f:
         1c:a7:59:4e:05:a2:74:f5:6d:f7:38:aa:ea:4b:81:12:b6:17:
         9f:9d:69:71:11:ae:15:13:77:e7:a5:36:c1:f7:d2:36:66:4e:
         52:94:c0:81:4e:80:1d:0d:c1:6a:ed:38:f2:44:00:c3:0b:70:
         26:04:d1:0d
-----BEGIN CERTIFICATE-----
MIIDWTCCAkGgAwIBAgIQV3vkubHQ/eriGIEdXh855zANBgkqhkiG9w0BAQsFADAV
MRMwEQYDVQQDDAp0ZWFtNTYtbmV0MB4XDTIzMDgxNDE0MjMyMloXDTI2MDcyOTE0
MjMyMlowGDEWMBQGA1UEAwwNdGVhbTU2LWNsaWVudDCCASIwDQYJKoZIhvcNAQEB
BQADggEPADCCAQoCggEBAL5ZODVri5eRY1YEkdjkYCSXQOmJEp5fmatN0TGElv7e
0iAP58tZhFn0X1Fchll0kJQMzgz8teToXaUL8eHdCpc/H1gt+0baIYsBVv48mEfk
rn12Oxia4TNLiOKJzlZT3rUrIAC9vh2U7yYhFVa79vuymiKRAbu8ljIl6nXSfeqg
DDk5XqIT9ud7UjrV2lXtVCnKMJ8qxDKZ9jcbUFVnfsoGgp7nbDqBWol2ztX+Q1aI
g7VtxnL2do2rZxAXlKMe5A643Mv7A+SiVmAtsQN3mJrnehvLmS8oHuqdkB0dPLaH
qmDAQmpqEfMorzb+4+/Ac/3Eu29PDAfkKIRgy29w49cCAwEAAaOBoTCBnjAJBgNV
HRMEAjAAMB0GA1UdDgQWBBSzKSt9LLa69Pewz/mupkMXcLgE5DBQBgNVHSMESTBH
gBQL10PGm34KL73C42Yp0Ld8Ctn0/qEZpBcwFTETMBEGA1UEAwwKdGVhbTU2LW5l
dIIUbPlJYYgSRzKqB3xjfNlCeUrdwnYwEwYDVR0lBAwwCgYIKwYBBQUHAwIwCwYD
VR0PBAQDAgeAMA0GCSqGSIb3DQEBCwUAA4IBAQCp4r/MbFaQSTNltdfJqAcTvCtk
B15Q8ukWw/yeKQtSJHcOw8nnW4l7CLyj15bY9hSojVuqdLBvS23ECKHsv10qW0An
Fxi5Ga4oLJgZBSEYhdbvdeAitGypvlvhwj+UG7PXVRBLJC5YFv5B63wkv5usA3en
TvQYPHVHFSzazeKPZJ/bEcfrMFxZl7S+eWSUctTc5goXA6m4Icb3/7ENPsBEOSvI
kIUp36p+DSH2zHtgA/0Jur9yev0HGmbDzrFcF2azbXxL2j8cp1lOBaJ09W33OKrq
S4ESthefnWlxEa4VE3fnpTbB99I2Zk5SlMCBToAdDcFq7TjyRADDC3AmBNEN
-----END CERTIFICATE-----
