Certificate:
    Data:
        Version: 3 (0x2)
        Serial Number:
            f3:ec:95:87:44:ac:0c:89:bf:40:16:6e:be:9c:7d:fa
        Signature Algorithm: sha256WithRSAEncryption
        Issuer: CN=team56-net
        Validity
            Not Before: Aug 14 14:23:22 2023 GMT
            Not After : Jul 29 14:23:22 2026 GMT
        Subject: CN=team56-server
        Subject Public Key Info:
            Public Key Algorithm: rsaEncryption
                RSA Public-Key: (2048 bit)
                Modulus:
                    00:cf:ea:93:05:6b:3b:ed:41:34:31:f3:ad:56:af:
                    e7:c0:88:6d:34:dc:20:98:83:1d:84:0b:f1:60:f9:
                    c6:3c:07:bc:7b:6a:62:6d:a4:e6:58:c5:8f:33:e7:
                    1c:41:88:4c:e8:79:09:8c:f6:c0:c4:91:d7:a5:a9:
                    de:86:a7:a2:55:5e:b3:d0:02:86:cd:99:6c:8a:0f:
                    83:e1:c7:fa:dd:eb:3d:af:a5:41:a0:77:ab:f1:1a:
                    a8:3e:ce:09:5b:30:ae:fa:4a:f5:5f:9c:70:45:0c:
                    bc:d7:7c:3d:7e:11:02:95:de:c2:e8:4e:52:a7:19:
                    87:70:3a:0f:85:dc:03:0a:62:5e:3c:c3:9f:20:4c:
                    66:4e:a5:6e:c3:fd:df:cd:5a:51:ec:2b:9c:60:af:
                    65:3e:92:0f:41:06:a8:83:e3:46:63:b8:ea:8c:00:
                    09:d5:2c:77:d5:31:e2:4d:5e:1c:5d:de:90:e9:cd:
                    a7:6d:7e:4e:ba:f8:bb:a3:0d:79:cc:f9:87:ef:46:
                    ff:fe:67:57:97:70:10:bb:5f:5a:b4:b7:bf:d6:a4:
                    97:29:59:e6:bd:2d:ce:97:a8:c6:6b:b0:57:cc:ce:
                    2b:d9:1d:46:75:ed:42:9b:4b:d9:14:f6:f5:bc:e5:
                    4c:25:2a:0a:9c:7f:63:fa:47:1e:b4:b8:93:dc:d3:
                    b0:31
                Exponent: 65537 (0x10001)
        X509v3 extensions:
            X509v3 Basic Constraints: 
                CA:FALSE
            X509v3 Subject Key Identifier: 
                BB:9C:FC:2F:4F:B3:7F:2B:E8:7C:46:2F:89:81:2E:EB:55:25:AC:1E
            X509v3 Authority Key Identifier: 
                keyid:0B:D7:43:C6:9B:7E:0A:2F:BD:C2:E3:66:29:D0:B7:7C:0A:D9:F4:FE
                DirName:/CN=team56-net
                serial:6C:F9:49:61:88:12:47:32:AA:07:7C:63:7C:D9:42:79:4A:DD:C2:76

            X509v3 Extended Key Usage: 
                TLS Web Server Authentication
            X509v3 Key Usage: 
                Digital Signature, Key Encipherment
            X509v3 Subject Alternative Name: 
                DNS:team56-server
    Signature Algorithm: sha256WithRSAEncryption
         ce:ba:6d:5d:6a:c7:52:9f:9a:96:59:54:1d:c9:d5:e0:c7:3c:
         f0:4b:bb:4e:17:c0:e6:a8:79:dc:38:45:2d:da:9a:a7:aa:49:
         91:18:87:fe:b0:7d:53:92:bd:3c:46:94:d0:3a:88:86:96:c0:
         91:ef:62:5b:f9:8d:ba:46:19:1d:e3:1d:6d:cb:32:ad:13:04:
         d8:20:e1:5d:e1:b5:a2:ab:5f:eb:91:3b:10:c3:83:7a:b9:7c:
         b2:44:a4:ef:9c:f1:63:f7:5b:64:21:d8:af:d7:03:db:0c:e3:
         a1:9a:82:04:24:9d:7f:68:e8:7b:67:fa:59:9d:6b:5b:09:64:
         f6:d3:f4:88:a2:c5:3a:05:53:23:86:54:4a:dd:5d:10:41:5c:
         ac:76:a8:b4:8e:ce:b5:d0:de:cb:0c:af:5e:fd:dd:03:68:83:
         73:e5:bc:4b:6a:c6:82:36:67:c9:26:34:88:cc:6c:84:59:b6:
         a8:4f:6f:3b:9b:60:fa:24:45:14:4e:f2:dc:d9:23:d6:db:72:
         1d:a1:fd:82:9f:49:57:9d:32:e1:83:4b:b5:76:ad:cf:2a:a4:
         58:26:5a:5f:98:2a:93:ab:78:30:b8:6d:bb:13:1b:03:50:31:
         8b:6e:f5:8f:d9:7b:ab:70:c5:62:85:c1:a8:66:df:06:af:db:
         44:7a:5f:a9
-----BEGIN CERTIFICATE-----
MIIDdDCCAlygAwIBAgIRAPPslYdErAyJv0AWbr6cffowDQYJKoZIhvcNAQELBQAw
FTETMBEGA1UEAwwKdGVhbTU2LW5ldDAeFw0yMzA4MTQxNDIzMjJaFw0yNjA3Mjkx
NDIzMjJaMBgxFjAUBgNVBAMMDXRlYW01Ni1zZXJ2ZXIwggEiMA0GCSqGSIb3DQEB
AQUAA4IBDwAwggEKAoIBAQDP6pMFazvtQTQx861Wr+fAiG003CCYgx2EC/Fg+cY8
B7x7amJtpOZYxY8z5xxBiEzoeQmM9sDEkdelqd6Gp6JVXrPQAobNmWyKD4Phx/rd
6z2vpUGgd6vxGqg+zglbMK76SvVfnHBFDLzXfD1+EQKV3sLoTlKnGYdwOg+F3AMK
Yl48w58gTGZOpW7D/d/NWlHsK5xgr2U+kg9BBqiD40ZjuOqMAAnVLHfVMeJNXhxd
3pDpzadtfk66+LujDXnM+YfvRv/+Z1eXcBC7X1q0t7/WpJcpWea9Lc6XqMZrsFfM
zivZHUZ17UKbS9kU9vW85UwlKgqcf2P6Rx60uJPc07AxAgMBAAGjgbswgbgwCQYD
VR0TBAIwADAdBgNVHQ4EFgQUu5z8L0+zfyvofEYviYEu61UlrB4wUAYDVR0jBEkw
R4AUC9dDxpt+Ci+9wuNmKdC3fArZ9P6hGaQXMBUxEzARBgNVBAMMCnRlYW01Ni1u
ZXSCFGz5SWGIEkcyqgd8Y3zZQnlK3cJ2MBMGA1UdJQQMMAoGCCsGAQUFBwMBMAsG
A1UdDwQEAwIFoDAYBgNVHREEETAPgg10ZWFtNTYtc2VydmVyMA0GCSqGSIb3DQEB
CwUAA4IBAQDOum1dasdSn5qWWVQdydXgxzzwS7tOF8DmqHncOEUt2pqnqkmRGIf+
sH1Tkr08RpTQOoiGlsCR72Jb+Y26Rhkd4x1tyzKtEwTYIOFd4bWiq1/rkTsQw4N6
uXyyRKTvnPFj91tkIdiv1wPbDOOhmoIEJJ1/aOh7Z/pZnWtbCWT20/SIosU6BVMj
hlRK3V0QQVysdqi0js610N7LDK9e/d0DaINz5bxLasaCNmfJJjSIzGyEWbaoT287
m2D6JEUUTvLc2SPW23Idof2Cn0lXnTLhg0u1dq3PKqRYJlpfmCqTq3gwuG27ExsD
UDGLbvWP2XurcMVihcGoZt8Gr9tEel+p
-----END CERTIFICATE-----
