Certificate:
    Data:
        Version: 3 (0x2)
        Serial Number:
            db:56:27:bd:71:b4:76:96:37:ab:fd:13:f9:4c:0e:ef
        Signature Algorithm: sha256WithRSAEncryption
        Issuer: CN=team191-net
        Validity
            Not Before: Aug 14 14:26:10 2023 GMT
            Not After : Jul 29 14:26:10 2026 GMT
        Subject: CN=team191-server
        Subject Public Key Info:
            Public Key Algorithm: rsaEncryption
                RSA Public-Key: (2048 bit)
                Modulus:
                    00:a9:99:5e:c5:19:b8:98:19:cb:63:94:7f:c6:d8:
                    0a:b8:20:2a:a2:11:2e:38:8c:86:ae:8e:d4:d5:9f:
                    71:80:5b:7e:92:8f:16:c1:12:8b:c7:5a:50:67:b7:
                    23:4a:ff:67:c2:b9:a5:fb:a4:ca:0c:72:ed:9f:97:
                    28:c9:03:24:af:d7:36:73:e1:4f:7a:24:28:61:1b:
                    86:29:7e:80:fa:6a:d4:98:5f:07:e5:0f:cb:c4:ce:
                    ca:c2:fb:87:e5:e8:f5:50:05:f5:90:b4:6c:12:6f:
                    36:4a:e8:29:80:1e:c4:63:54:f4:92:4f:f3:d1:e3:
                    49:f1:57:51:6d:b4:65:18:a3:3d:64:9c:1a:ce:9d:
                    ab:bf:e1:63:45:18:ca:2b:ff:22:98:ac:67:c9:84:
                    10:9f:c4:9a:07:c4:ca:94:bd:00:79:8b:9b:ff:71:
                    99:15:fe:05:3e:d0:c0:83:ce:77:e2:9b:7d:54:dc:
                    87:bf:cb:67:b9:c7:91:3e:5a:7e:b9:ed:27:36:cf:
                    65:52:e6:b0:96:3c:c6:3e:28:d9:f2:e6:6d:56:3c:
                    ef:7c:c5:b9:bb:0d:96:0c:68:2b:8f:f4:d7:6e:7e:
                    28:18:1f:5b:a1:97:42:5d:b9:3a:f8:ed:8c:a7:73:
                    93:83:fd:93:ca:3c:a4:c2:5f:c5:fd:09:91:be:e9:
                    7d:df
                Exponent: 65537 (0x10001)
        X509v3 extensions:
            X509v3 Basic Constraints: 
                CA:FALSE
            X509v3 Subject Key Identifier: 
                7C:4A:6F:0A:9E:DA:05:E5:B0:C6:BE:CE:8A:9A:E0:26:24:A4:EA:D4
            X509v3 Authority Key Identifier: 
                keyid:DE:75:4C:07:72:B0:95:B1:12:71:AA:87:83:17:4D:C9:9D:01:EF:20
                DirName:/CN=team191-net
                serial:32:3F:A1:FC:0E:2F:60:F8:41:F6:78:7A:5C:D0:2D:8D:63:1F:BD:6C

            X509v3 Extended Key Usage: 
                TLS Web Server Authentication
            X509v3 Key Usage: 
                Digital Signature, Key Encipherment
            X509v3 Subject Alternative Name: 
                DNS:team191-server
    Signature Algorithm: sha256WithRSAEncryption
         0a:33:b6:85:17:c5:7b:a0:21:b2:8d:fb:00:e9:75:46:e3:eb:
         27:70:4b:36:80:08:67:8c:8d:b8:17:f5:12:16:3f:e8:f5:36:
         de:f0:24:9a:61:66:10:32:75:98:5c:6e:53:6a:49:70:f2:98:
         45:f5:e1:46:b4:b1:69:8f:89:2c:77:3c:5f:d7:c3:9b:6c:78:
         33:b1:42:62:7f:73:50:6b:8b:47:6b:50:42:da:d8:f8:e0:bb:
         6a:a8:e2:53:69:f4:e1:e3:37:c7:21:57:a2:1e:a5:13:dd:48:
         37:7c:1b:2b:b7:35:25:a2:0e:d6:6b:d8:b6:6a:16:fb:31:f0:
         0c:2d:b0:1d:7c:56:41:dc:ce:ca:d2:55:dd:4e:c7:74:fe:f6:
         9c:43:0a:bd:ca:2d:b5:26:7b:8a:ef:1b:21:8d:53:af:f6:9c:
         9b:68:b7:7c:9d:82:66:e2:d2:09:92:ea:e7:86:13:49:95:6b:
         5d:b1:9a:03:96:a5:63:0d:c6:51:d6:f6:8c:58:e0:16:77:f0:
         36:ca:00:95:36:08:3f:10:00:7a:0f:3d:37:90:0e:fa:41:51:
         94:d4:47:fb:82:3c:d5:a6:47:93:fd:60:c8:39:43:b3:35:72:
         81:29:2e:25:ba:58:5c:d3:50:6f:65:c8:4a:bc:2f:67:c5:22:
         53:6a:1b:ad
-----BEGIN CERTIFICATE-----
MIIDeDCCAmCgAwIBAgIRANtWJ71xtHaWN6v9E/lMDu8wDQYJKoZIhvcNAQELBQAw
FjEUMBIGA1UEAwwLdGVhbTE5MS1uZXQwHhcNMjMwODE0MTQyNjEwWhcNMjYwNzI5
MTQyNjEwWjAZMRcwFQYDVQQDDA50ZWFtMTkxLXNlcnZlcjCCASIwDQYJKoZIhvcN
AQEBBQADggEPADCCAQoCggEBAKmZXsUZuJgZy2OUf8bYCrggKqIRLjiMhq6O1NWf
cYBbfpKPFsESi8daUGe3I0r/Z8K5pfukygxy7Z+XKMkDJK/XNnPhT3okKGEbhil+
gPpq1JhfB+UPy8TOysL7h+Xo9VAF9ZC0bBJvNkroKYAexGNU9JJP89HjSfFXUW20
ZRijPWScGs6dq7/hY0UYyiv/IpisZ8mEEJ/EmgfEypS9AHmLm/9xmRX+BT7QwIPO
d+KbfVTch7/LZ7nHkT5afrntJzbPZVLmsJY8xj4o2fLmbVY873zFubsNlgxoK4/0
125+KBgfW6GXQl25OvjtjKdzk4P9k8o8pMJfxf0Jkb7pfd8CAwEAAaOBvTCBujAJ
BgNVHRMEAjAAMB0GA1UdDgQWBBR8Sm8KntoF5bDGvs6KmuAmJKTq1DBRBgNVHSME
SjBIgBTedUwHcrCVsRJxqoeDF03JnQHvIKEapBgwFjEUMBIGA1UEAwwLdGVhbTE5
MS1uZXSCFDI/ofwOL2D4QfZ4elzQLY1jH71sMBMGA1UdJQQMMAoGCCsGAQUFBwMB
MAsGA1UdDwQEAwIFoDAZBgNVHREEEjAQgg50ZWFtMTkxLXNlcnZlcjANBgkqhkiG
9w0BAQsFAAOCAQEACjO2hRfFe6Ahso37AOl1RuPrJ3BLNoAIZ4yNuBf1EhY/6PU2
3vAkmmFmEDJ1mFxuU2pJcPKYRfXhRrSxaY+JLHc8X9fDm2x4M7FCYn9zUGuLR2tQ
QtrY+OC7aqjiU2n04eM3xyFXoh6lE91IN3wbK7c1JaIO1mvYtmoW+zHwDC2wHXxW
QdzOytJV3U7HdP72nEMKvcottSZ7iu8bIY1Tr/acm2i3fJ2CZuLSCZLq54YTSZVr
XbGaA5alYw3GUdb2jFjgFnfwNsoAlTYIPxAAeg89N5AO+kFRlNRH+4I81aZHk/1g
yDlDszVygSkuJbpYXNNQb2XISrwvZ8UiU2obrQ==
-----END CERTIFICATE-----
