Certificate:
    Data:
        Version: 3 (0x2)
        Serial Number:
            bb:5a:c5:ea:c1:e3:fb:21:15:e5:95:59:21:89:68:cf
        Signature Algorithm: sha256WithRSAEncryption
        Issuer: CN=team121-net
        Validity
            Not Before: Aug 14 14:24:46 2023 GMT
            Not After : Jul 29 14:24:46 2026 GMT
        Subject: CN=team121-client
        Subject Public Key Info:
            Public Key Algorithm: rsaEncryption
                RSA Public-Key: (2048 bit)
                Modulus:
                    00:d6:5f:bb:88:95:f7:f2:45:c0:6b:8b:a4:05:b8:
                    e4:3c:6d:37:89:66:94:f1:16:12:cd:88:f7:b0:c5:
                    f7:03:a1:b2:aa:78:08:b8:08:48:06:98:f9:1e:d0:
                    43:38:de:f0:f8:4c:76:43:17:e7:c6:c1:63:c7:b8:
                    0f:e5:36:47:9e:4c:76:35:19:41:41:2b:2d:4d:8b:
                    86:75:e5:0a:24:cf:b9:f4:64:c2:4d:ee:f7:bf:27:
                    64:f1:5e:95:9d:8c:0c:b5:a7:32:3f:3c:bf:17:10:
                    58:03:6a:a1:b8:94:4b:0e:20:61:89:18:ca:ce:94:
                    75:7a:19:0f:fe:9d:73:46:5e:16:f9:29:a7:e0:69:
                    2a:0a:e0:ec:a8:66:34:56:62:7d:71:c5:4a:fa:df:
                    d0:8e:18:0c:a9:e9:e4:8d:b0:07:57:18:92:9a:d6:
                    d1:ec:eb:23:69:7a:3b:ef:03:df:16:c5:f2:dc:c6:
                    69:df:8f:86:ba:cd:18:51:3e:19:47:83:d5:1e:78:
                    ee:08:4f:b4:17:60:2a:61:8f:f4:5e:91:b9:f2:88:
                    64:ec:bc:98:b2:ad:19:5b:35:82:95:ab:20:ed:83:
                    56:9e:d5:2f:5e:d9:03:78:49:96:d3:8e:8e:18:ce:
                    65:3f:5b:9d:ac:09:98:e4:30:95:95:91:7d:42:0e:
                    54:21
                Exponent: 65537 (0x10001)
        X509v3 extensions:
            X509v3 Basic Constraints: 
                CA:FALSE
            X509v3 Subject Key Identifier: 
                48:F8:AA:12:51:41:BC:39:A8:26:AB:B3:5A:0D:20:E2:84:73:78:1A
            X509v3 Authority Key Identifier: 
                keyid:2B:DF:9E:02:4A:00:3F:74:D2:E0:5E:3D:C4:06:02:9D:18:15:58:9F
                DirName:/CN=team121-net
                serial:A1:F1:13:61:D7:49:F8:9E:A2:4A:AD:05:A9:54:74:F2:C5:B7:30

            X509v3 Extended Key Usage: 
                TLS Web Client Authentication
            X509v3 Key Usage: 
                Digital Signature
    Signature Algorithm: sha256WithRSAEncryption
         94:2b:ba:fc:05:5c:6e:f6:df:81:e1:96:84:cf:5b:8a:93:2e:
         fe:53:ee:f9:ae:26:ee:75:37:d0:6c:b5:cf:8f:6a:d8:a3:a6:
         63:67:cd:fd:57:32:bd:fe:39:3c:52:75:bb:86:68:b2:c7:73:
         04:54:e2:43:28:44:8c:65:d2:e4:9a:54:33:5f:78:09:10:0b:
         1e:12:1e:30:bb:c8:53:9f:46:9f:be:74:d3:eb:e2:f6:88:1e:
         4e:77:21:ae:61:b5:8a:2b:b7:e5:f2:f2:85:16:d7:06:13:e4:
         c3:37:8c:59:91:17:fa:3b:45:c9:f2:14:8e:07:62:88:74:70:
         cc:e3:36:78:46:7e:61:fd:67:44:6a:f3:6b:02:7f:d6:d6:83:
         6b:67:af:bb:4a:f6:07:9f:ec:53:7c:05:26:22:96:42:f0:e6:
         e2:5f:2d:71:f5:fc:53:46:8f:59:83:20:e6:ec:09:34:ee:01:
         8f:5a:39:e4:98:1d:54:4b:c4:d0:08:cd:d7:b8:44:3f:01:8c:
         3f:2a:f7:b1:37:73:21:5c:d5:bc:24:a3:43:22:cd:9f:59:e2:
         3a:1a:39:e6:20:fb:96:52:2b:e0:02:64:5f:8e:fd:d9:73:d3:
         a3:06:25:6f:71:9b:9a:4b:39:52:9c:64:ca:2e:8e:fb:c7:0e:
         9e:fc:e4:66
-----BEGIN CERTIFICATE-----
MIIDXTCCAkWgAwIBAgIRALtaxerB4/shFeWVWSGJaM8wDQYJKoZIhvcNAQELBQAw
FjEUMBIGA1UEAwwLdGVhbTEyMS1uZXQwHhcNMjMwODE0MTQyNDQ2WhcNMjYwNzI5
MTQyNDQ2WjAZMRcwFQYDVQQDDA50ZWFtMTIxLWNsaWVudDCCASIwDQYJKoZIhvcN
AQEBBQADggEPADCCAQoCggEBANZfu4iV9/JFwGuLpAW45DxtN4lmlPEWEs2I97DF
9wOhsqp4CLgISAaY+R7QQzje8PhMdkMX58bBY8e4D+U2R55MdjUZQUErLU2LhnXl
CiTPufRkwk3u978nZPFelZ2MDLWnMj88vxcQWANqobiUSw4gYYkYys6UdXoZD/6d
c0ZeFvkpp+BpKgrg7KhmNFZifXHFSvrf0I4YDKnp5I2wB1cYkprW0ezrI2l6O+8D
3xbF8tzGad+PhrrNGFE+GUeD1R547ghPtBdgKmGP9F6RufKIZOy8mLKtGVs1gpWr
IO2DVp7VL17ZA3hJltOOjhjOZT9bnawJmOQwlZWRfUIOVCECAwEAAaOBojCBnzAJ
BgNVHRMEAjAAMB0GA1UdDgQWBBRI+KoSUUG8Oagmq7NaDSDihHN4GjBRBgNVHSME
SjBIgBQr354CSgA/dNLgXj3EBgKdGBVYn6EapBgwFjEUMBIGA1UEAwwLdGVhbTEy
MS1uZXSCFACh8RNh10n4nqJKrQWpVHTyxbcwMBMGA1UdJQQMMAoGCCsGAQUFBwMC
MAsGA1UdDwQEAwIHgDANBgkqhkiG9w0BAQsFAAOCAQEAlCu6/AVcbvbfgeGWhM9b
ipMu/lPu+a4m7nU30Gy1z49q2KOmY2fN/Vcyvf45PFJ1u4ZossdzBFTiQyhEjGXS
5JpUM194CRALHhIeMLvIU59Gn7500+vi9ogeTnchrmG1iiu35fLyhRbXBhPkwzeM
WZEX+jtFyfIUjgdiiHRwzOM2eEZ+Yf1nRGrzawJ/1taDa2evu0r2B5/sU3wFJiKW
QvDm4l8tcfX8U0aPWYMg5uwJNO4Bj1o55JgdVEvE0AjN17hEPwGMPyr3sTdzIVzV
vCSjQyLNn1niOho55iD7llIr4AJkX4792XPTowYlb3Gbmks5Upxkyi6O+8cOnvzk
Zg==
-----END CERTIFICATE-----
