Certificate:
    Data:
        Version: 3 (0x2)
        Serial Number:
            e1:5b:8e:d0:88:a4:f0:d1:cd:11:b5:46:1d:ce:10:23
        Signature Algorithm: sha256WithRSAEncryption
        Issuer: CN=team121-net
        Validity
            Not Before: Aug 14 14:24:46 2023 GMT
            Not After : Jul 29 14:24:46 2026 GMT
        Subject: CN=team121-server
        Subject Public Key Info:
            Public Key Algorithm: rsaEncryption
                RSA Public-Key: (2048 bit)
                Modulus:
                    00:cb:65:13:a0:10:bb:a7:e7:12:90:59:27:b6:18:
                    ef:cb:f0:44:da:da:7b:37:1c:e0:c1:10:cc:f7:55:
                    ce:0e:69:82:3d:dd:1a:d4:8a:b4:50:aa:a6:a3:08:
                    77:0a:df:26:da:be:0b:a1:55:42:0b:54:0e:07:f7:
                    d3:bb:10:11:28:ed:07:2a:b7:b9:9b:f7:6e:46:72:
                    60:bd:92:8d:c8:5d:7c:7a:30:19:f0:fe:bb:c7:09:
                    80:f4:4e:7c:eb:59:81:25:50:1a:90:4d:1f:6b:20:
                    61:47:8d:7c:ca:52:13:a4:a5:c5:d7:c1:0a:80:67:
                    dc:26:cc:7a:95:17:d8:fe:b8:ad:ca:f7:3e:4f:ba:
                    fc:78:19:3e:d6:b0:34:83:09:ef:f1:ec:3d:7e:27:
                    93:d5:02:33:37:8a:7c:d8:0f:5b:13:56:f9:96:d3:
                    7a:ec:fd:2c:4c:47:cb:b4:dc:a1:8f:b1:32:fc:92:
                    61:c4:d6:2b:b2:50:e0:f0:65:88:7a:5c:95:b2:ea:
                    6f:fd:e5:28:33:14:40:a9:79:7c:96:10:d9:b7:80:
                    99:5e:47:f9:53:57:81:e8:53:0d:bd:ec:c0:07:13:
                    f0:87:80:a6:72:d1:a8:44:77:8d:c0:7b:d6:b8:35:
                    62:8b:10:51:7f:2a:7b:8d:71:a7:e0:59:23:ff:64:
                    63:31
                Exponent: 65537 (0x10001)
        X509v3 extensions:
            X509v3 Basic Constraints: 
                CA:FALSE
            X509v3 Subject Key Identifier: 
                42:0E:03:01:66:9D:1B:CD:36:3D:47:80:DC:9A:69:47:D6:31:43:90
            X509v3 Authority Key Identifier: 
                keyid:2B:DF:9E:02:4A:00:3F:74:D2:E0:5E:3D:C4:06:02:9D:18:15:58:9F
                DirName:/CN=team121-net
                serial:A1:F1:13:61:D7:49:F8:9E:A2:4A:AD:05:A9:54:74:F2:C5:B7:30

            X509v3 Extended Key Usage: 
                TLS Web Server Authentication
            X509v3 Key Usage: 
                Digital Signature, Key Encipherment
            X509v3 Subject Alternative Name: 
                DNS:team121-server
    Signature Algorithm: sha256WithRSAEncryption
         be:4c:09:13:23:a6:4c:97:3d:8a:77:d8:ff:cf:8b:6d:5f:b5:
         47:df:9a:22:52:da:14:6c:18:46:06:be:c6:05:85:be:45:69:
         1d:98:01:23:0a:e9:01:e3:b2:15:c8:be:f9:5b:1d:5a:f8:5b:
         39:62:61:f7:42:7c:61:67:e6:53:90:b3:de:9a:97:87:d0:3c:
         ac:cf:11:59:d8:6e:8c:01:bb:e2:f1:b2:f9:6d:d5:10:86:42:
         03:cb:5b:6b:c0:8e:26:cd:de:df:7d:b8:8b:45:b4:2f:4d:d1:
         d2:04:a0:aa:fd:d5:2b:00:0b:6e:64:3c:d2:91:03:b9:b5:76:
         fe:b5:97:c1:72:f0:82:89:b7:9f:7c:09:09:59:f0:ba:e5:8b:
         16:64:ae:13:fb:2a:7a:08:c1:ad:12:10:67:13:fd:04:47:0d:
         b1:bb:9d:84:22:a3:7a:c8:1c:9d:fa:f0:1d:ed:86:20:b5:d1:
         3e:4a:6d:b0:83:75:84:19:f0:fa:37:1e:f9:c3:7b:d1:52:31:
         11:eb:5d:dc:c5:83:60:24:d9:63:d9:07:3f:65:89:7e:36:6b:
         be:e6:97:25:43:1b:73:42:eb:e6:28:11:ea:e1:31:3b:28:ce:
         7c:ac:30:87:c6:b3:54:92:04:17:77:fa:62:55:62:a7:9b:a2:
         d8:88:b0:80
-----BEGIN CERTIFICATE-----
MIIDeDCCAmCgAwIBAgIRAOFbjtCIpPDRzRG1Rh3OECMwDQYJKoZIhvcNAQELBQAw
FjEUMBIGA1UEAwwLdGVhbTEyMS1uZXQwHhcNMjMwODE0MTQyNDQ2WhcNMjYwNzI5
MTQyNDQ2WjAZMRcwFQYDVQQDDA50ZWFtMTIxLXNlcnZlcjCCASIwDQYJKoZIhvcN
AQEBBQADggEPADCCAQoCggEBAMtlE6AQu6fnEpBZJ7YY78vwRNraezcc4MEQzPdV
zg5pgj3dGtSKtFCqpqMIdwrfJtq+C6FVQgtUDgf307sQESjtByq3uZv3bkZyYL2S
jchdfHowGfD+u8cJgPROfOtZgSVQGpBNH2sgYUeNfMpSE6SlxdfBCoBn3CbMepUX
2P64rcr3Pk+6/HgZPtawNIMJ7/HsPX4nk9UCMzeKfNgPWxNW+ZbTeuz9LExHy7Tc
oY+xMvySYcTWK7JQ4PBliHpclbLqb/3lKDMUQKl5fJYQ2beAmV5H+VNXgehTDb3s
wAcT8IeApnLRqER3jcB71rg1YosQUX8qe41xp+BZI/9kYzECAwEAAaOBvTCBujAJ
BgNVHRMEAjAAMB0GA1UdDgQWBBRCDgMBZp0bzTY9R4DcmmlH1jFDkDBRBgNVHSME
SjBIgBQr354CSgA/dNLgXj3EBgKdGBVYn6EapBgwFjEUMBIGA1UEAwwLdGVhbTEy
MS1uZXSCFACh8RNh10n4nqJKrQWpVHTyxbcwMBMGA1UdJQQMMAoGCCsGAQUFBwMB
MAsGA1UdDwQEAwIFoDAZBgNVHREEEjAQgg50ZWFtMTIxLXNlcnZlcjANBgkqhkiG
9w0BAQsFAAOCAQEAvkwJEyOmTJc9infY/8+LbV+1R9+aIlLaFGwYRga+xgWFvkVp
HZgBIwrpAeOyFci++VsdWvhbOWJh90J8YWfmU5Cz3pqXh9A8rM8RWdhujAG74vGy
+W3VEIZCA8tba8COJs3e3324i0W0L03R0gSgqv3VKwALbmQ80pEDubV2/rWXwXLw
gom3n3wJCVnwuuWLFmSuE/sqegjBrRIQZxP9BEcNsbudhCKjesgcnfrwHe2GILXR
PkptsIN1hBnw+jce+cN70VIxEetd3MWDYCTZY9kHP2WJfjZrvuaXJUMbc0Lr5igR
6uExOyjOfKwwh8azVJIEF3f6YlVip5ui2IiwgA==
-----END CERTIFICATE-----
