Certificate:
    Data:
        Version: 3 (0x2)
        Serial Number:
            89:c9:c7:6e:24:5c:66:12:63:cb:26:48:c9:13:ea:98
        Signature Algorithm: sha256WithRSAEncryption
        Issuer: CN=team131-net
        Validity
            Not Before: Aug 14 14:24:58 2023 GMT
            Not After : Jul 29 14:24:58 2026 GMT
        Subject: CN=team131-client
        Subject Public Key Info:
            Public Key Algorithm: rsaEncryption
                RSA Public-Key: (2048 bit)
                Modulus:
                    00:b1:77:64:83:95:81:93:ef:2c:91:16:ea:84:70:
                    b3:ce:d2:05:9e:ca:b7:64:55:dd:41:49:cb:c1:dd:
                    e9:b0:09:ea:4c:ab:65:c7:47:31:a2:85:9f:31:5a:
                    9e:e2:99:1b:b1:e6:d9:f0:e5:37:00:71:4d:34:5b:
                    5a:ee:3a:94:76:3d:37:4c:d3:9b:20:64:19:6f:53:
                    8f:ed:ad:8a:f6:c0:a8:68:a3:29:29:f0:ef:58:0d:
                    d7:e8:f9:3c:b7:ad:98:a5:1a:a2:66:48:47:5f:66:
                    dc:10:b0:b7:47:f7:9b:79:ac:3f:0a:13:fd:f6:e3:
                    59:47:64:fe:62:e7:fd:08:1a:dd:6a:35:7a:61:17:
                    4f:e0:0f:c0:44:bb:55:0e:17:0c:cb:5f:0d:e5:77:
                    c7:01:af:5a:68:b9:2b:6b:49:91:ce:06:3c:f4:00:
                    0c:77:4d:68:f3:50:c3:df:f4:a0:9d:07:98:d8:88:
                    df:a2:8c:85:56:19:b6:bf:c9:4a:ab:b4:d6:06:7e:
                    3a:74:86:d5:24:81:67:99:3d:d6:9e:35:60:e1:75:
                    07:8d:5c:87:2f:ca:6a:03:f0:ec:ea:fc:dd:9e:7a:
                    ff:5e:d5:a1:c6:44:d6:84:d4:7b:24:05:49:4f:f3:
                    bc:30:d3:da:6f:bd:48:8c:d6:2f:43:89:7a:44:76:
                    19:85
                Exponent: 65537 (0x10001)
        X509v3 extensions:
            X509v3 Basic Constraints: 
                CA:FALSE
            X509v3 Subject Key Identifier: 
                1E:70:3A:05:48:D6:E5:E2:74:32:BC:A5:4A:21:C4:29:86:A9:9E:93
            X509v3 Authority Key Identifier: 
                keyid:D1:B2:E5:45:76:FA:AA:ED:B6:06:45:A1:AA:AC:8A:42:AA:8C:B4:89
                DirName:/CN=team131-net
                serial:03:93:0C:32:A8:FA:F5:B5:9A:7F:9A:21:89:A1:10:23:37:2A:37:E5

            X509v3 Extended Key Usage: 
                TLS Web Client Authentication
            X509v3 Key Usage: 
                Digital Signature
    Signature Algorithm: sha256WithRSAEncryption
         a3:db:34:c4:be:0b:c6:9b:6d:36:99:14:c3:b0:b6:6d:2d:45:
         e3:5c:b7:b6:05:cd:8b:c7:8b:f3:63:b5:dc:0c:0a:84:cc:0b:
         17:e7:e7:13:f9:e0:c6:9b:67:de:c4:11:77:e3:f7:e6:88:1d:
         ed:09:eb:9e:82:9c:62:9a:ad:c5:8e:b9:73:98:91:36:96:81:
         ad:75:91:1a:9c:4b:bf:b4:96:7d:f1:7c:f2:28:13:b8:18:fe:
         7c:f9:a9:98:4e:26:e4:57:a7:1b:8e:39:f9:2a:14:a7:7d:91:
         f0:64:09:9e:25:46:d6:4f:58:a2:38:a3:71:7c:d4:c2:41:27:
         68:ca:6f:96:c8:8c:a9:55:bd:53:ab:e8:9c:51:26:3e:76:b2:
         09:b6:62:de:26:ef:4b:e3:bb:72:f9:6d:b2:15:53:d8:83:79:
         99:a7:ee:78:de:65:4a:f4:01:9e:ec:e6:a3:f1:da:00:28:a9:
         23:a1:87:2f:1d:f2:94:8e:27:f8:57:39:6e:50:4c:59:8b:d1:
         01:b4:64:cf:10:4f:eb:53:9b:bb:3d:af:1d:02:b3:bc:5d:b9:
         99:13:1e:0a:35:6a:9b:d9:4b:c5:e1:6f:79:ab:ca:11:30:af:
         71:68:9d:e9:87:85:3b:86:6c:31:dc:33:1a:83:ee:7c:eb:ff:
         0e:26:80:03
-----BEGIN CERTIFICATE-----
MIIDXTCCAkWgAwIBAgIRAInJx24kXGYSY8smSMkT6pgwDQYJKoZIhvcNAQELBQAw
FjEUMBIGA1UEAwwLdGVhbTEzMS1uZXQwHhcNMjMwODE0MTQyNDU4WhcNMjYwNzI5
MTQyNDU4WjAZMRcwFQYDVQQDDA50ZWFtMTMxLWNsaWVudDCCASIwDQYJKoZIhvcN
AQEBBQADggEPADCCAQoCggEBALF3ZIOVgZPvLJEW6oRws87SBZ7Kt2RV3UFJy8Hd
6bAJ6kyrZcdHMaKFnzFanuKZG7Hm2fDlNwBxTTRbWu46lHY9N0zTmyBkGW9Tj+2t
ivbAqGijKSnw71gN1+j5PLetmKUaomZIR19m3BCwt0f3m3msPwoT/fbjWUdk/mLn
/Qga3Wo1emEXT+APwES7VQ4XDMtfDeV3xwGvWmi5K2tJkc4GPPQADHdNaPNQw9/0
oJ0HmNiI36KMhVYZtr/JSqu01gZ+OnSG1SSBZ5k91p41YOF1B41chy/KagPw7Or8
3Z56/17VocZE1oTUeyQFSU/zvDDT2m+9SIzWL0OJekR2GYUCAwEAAaOBojCBnzAJ
BgNVHRMEAjAAMB0GA1UdDgQWBBQecDoFSNbl4nQyvKVKIcQphqmekzBRBgNVHSME
SjBIgBTRsuVFdvqq7bYGRaGqrIpCqoy0iaEapBgwFjEUMBIGA1UEAwwLdGVhbTEz
MS1uZXSCFAOTDDKo+vW1mn+aIYmhECM3KjflMBMGA1UdJQQMMAoGCCsGAQUFBwMC
MAsGA1UdDwQEAwIHgDANBgkqhkiG9w0BAQsFAAOCAQEAo9s0xL4LxpttNpkUw7C2
bS1F41y3tgXNi8eL82O13AwKhMwLF+fnE/ngxptn3sQRd+P35ogd7QnrnoKcYpqt
xY65c5iRNpaBrXWRGpxLv7SWffF88igTuBj+fPmpmE4m5FenG445+SoUp32R8GQJ
niVG1k9YojijcXzUwkEnaMpvlsiMqVW9U6vonFEmPnayCbZi3ibvS+O7cvltshVT
2IN5mafueN5lSvQBnuzmo/HaACipI6GHLx3ylI4n+Fc5blBMWYvRAbRkzxBP61Ob
uz2vHQKzvF25mRMeCjVqm9lLxeFveavKETCvcWid6YeFO4ZsMdwzGoPufOv/DiaA
Aw==
-----END CERTIFICATE-----
