Certificate:
    Data:
        Version: 3 (0x2)
        Serial Number:
            c5:4d:53:52:82:b3:33:63:a5:e0:07:ff:62:22:24:ad
        Signature Algorithm: sha256WithRSAEncryption
        Issuer: CN=team292-net
        Validity
            Not Before: Aug 14 14:28:14 2023 GMT
            Not After : Jul 29 14:28:14 2026 GMT
        Subject: CN=team292-client
        Subject Public Key Info:
            Public Key Algorithm: rsaEncryption
                RSA Public-Key: (2048 bit)
                Modulus:
                    00:b8:a4:f7:7a:d5:3e:69:c4:1f:2f:69:65:a6:e8:
                    f7:ce:e2:08:8f:ab:96:e4:21:0c:b6:ba:9b:be:6c:
                    bf:13:ea:4b:6c:48:53:89:63:75:86:f1:cc:b4:b0:
                    ef:e8:ab:33:d7:56:ee:59:eb:28:ff:db:9f:58:90:
                    2d:58:2a:56:f2:28:3e:cf:eb:16:f0:3a:5f:ae:d5:
                    ef:0d:cc:e8:7e:9e:29:aa:6c:61:c5:00:dd:8c:0a:
                    bd:ac:c4:f1:4f:60:2e:c6:9a:08:4a:36:4e:66:89:
                    65:74:b8:10:f2:f0:cb:ad:2b:36:dc:fe:a9:e3:72:
                    2d:9d:92:b3:c6:c5:01:12:d3:16:bd:77:69:d3:9c:
                    50:6a:6a:01:37:50:17:16:62:ee:b3:a4:46:d7:57:
                    a8:38:06:6b:1f:a0:f5:99:ca:eb:26:86:dc:09:98:
                    2c:09:4d:92:44:7f:56:d9:6a:60:05:1e:bf:2c:1e:
                    3f:fb:92:62:6c:0f:48:c1:e8:d2:0c:d2:89:5a:98:
                    90:fb:35:56:ee:25:8f:7f:65:de:db:0a:93:b9:fe:
                    1d:77:b4:4e:a7:fa:d7:ed:63:a4:3d:52:2e:db:8a:
                    8b:e5:c6:02:64:a7:2e:35:49:36:0d:f5:4e:69:87:
                    21:6e:3d:c0:06:9e:15:f4:0f:ba:a4:a0:41:bd:cf:
                    c7:99
                Exponent: 65537 (0x10001)
        X509v3 extensions:
            X509v3 Basic Constraints: 
                CA:FALSE
            X509v3 Subject Key Identifier: 
                71:31:57:41:46:B6:D2:10:9E:7A:95:85:6C:C5:F1:3E:4C:A6:DF:B8
            X509v3 Authority Key Identifier: 
                keyid:74:19:B7:E2:BC:C8:D4:D4:1C:4F:4A:FC:12:C9:42:63:2D:37:CF:89
                DirName:/CN=team292-net
                serial:23:4A:EE:1B:2D:EB:68:DD:72:05:3E:B9:DF:9D:0D:46:CC:0B:5A:CB

            X509v3 Extended Key Usage: 
                TLS Web Client Authentication
            X509v3 Key Usage: 
                Digital Signature
    Signature Algorithm: sha256WithRSAEncryption
         5f:d7:5a:d9:63:68:5f:47:ca:40:ac:76:85:e9:51:86:4b:31:
         6b:25:a8:d7:80:38:bc:a7:93:db:c3:4b:24:26:8a:5c:19:45:
         c8:62:bb:bc:48:34:5b:50:d7:ef:26:5b:f8:21:d8:8d:41:73:
         d3:aa:5b:33:3c:e1:ec:b8:99:59:cd:00:65:9a:ca:cc:80:84:
         4f:1d:ad:e3:6f:79:77:ff:e0:23:2a:2d:df:bd:e4:d5:d5:e2:
         9b:ef:16:32:5b:82:ee:64:6d:cf:88:02:53:77:90:34:46:49:
         57:2a:fa:17:f8:42:dd:d4:92:80:e4:8d:ca:88:c0:45:a1:9b:
         8f:f8:28:03:44:86:8d:f2:8c:e8:86:62:2a:e8:7a:d0:a9:cb:
         f1:7d:f0:39:f2:59:99:9d:01:d9:d0:c0:20:ca:d2:df:cc:79:
         4a:81:cf:c4:e1:9a:36:dd:a2:ec:e5:a6:1a:f5:11:87:59:e0:
         4e:5d:4e:db:65:59:f6:f2:9e:67:aa:ba:d1:df:5c:c9:da:a9:
         22:ec:ea:77:40:be:15:92:45:ca:da:61:64:a7:c9:ca:c8:e0:
         57:7a:aa:56:71:c5:c5:dc:1b:f0:a0:9e:0b:5b:67:d5:9d:48:
         01:7d:06:fc:32:6a:33:2b:8d:9e:3e:55:dd:f5:b4:0a:05:5e:
         c4:8b:39:dd
-----BEGIN CERTIFICATE-----
MIIDXTCCAkWgAwIBAgIRAMVNU1KCszNjpeAH/2IiJK0wDQYJKoZIhvcNAQELBQAw
FjEUMBIGA1UEAwwLdGVhbTI5Mi1uZXQwHhcNMjMwODE0MTQyODE0WhcNMjYwNzI5
MTQyODE0WjAZMRcwFQYDVQQDDA50ZWFtMjkyLWNsaWVudDCCASIwDQYJKoZIhvcN
AQEBBQADggEPADCCAQoCggEBALik93rVPmnEHy9pZabo987iCI+rluQhDLa6m75s
vxPqS2xIU4ljdYbxzLSw7+irM9dW7lnrKP/bn1iQLVgqVvIoPs/rFvA6X67V7w3M
6H6eKapsYcUA3YwKvazE8U9gLsaaCEo2TmaJZXS4EPLwy60rNtz+qeNyLZ2Ss8bF
ARLTFr13adOcUGpqATdQFxZi7rOkRtdXqDgGax+g9ZnK6yaG3AmYLAlNkkR/Vtlq
YAUevyweP/uSYmwPSMHo0gzSiVqYkPs1Vu4lj39l3tsKk7n+HXe0Tqf61+1jpD1S
LtuKi+XGAmSnLjVJNg31TmmHIW49wAaeFfQPuqSgQb3Px5kCAwEAAaOBojCBnzAJ
BgNVHRMEAjAAMB0GA1UdDgQWBBRxMVdBRrbSEJ56lYVsxfE+TKbfuDBRBgNVHSME
SjBIgBR0GbfivMjU1BxPSvwSyUJjLTfPiaEapBgwFjEUMBIGA1UEAwwLdGVhbTI5
Mi1uZXSCFCNK7hst62jdcgU+ud+dDUbMC1rLMBMGA1UdJQQMMAoGCCsGAQUFBwMC
MAsGA1UdDwQEAwIHgDANBgkqhkiG9w0BAQsFAAOCAQEAX9da2WNoX0fKQKx2helR
hksxayWo14A4vKeT28NLJCaKXBlFyGK7vEg0W1DX7yZb+CHYjUFz06pbMzzh7LiZ
Wc0AZZrKzICETx2t4295d//gIyot373k1dXim+8WMluC7mRtz4gCU3eQNEZJVyr6
F/hC3dSSgOSNyojARaGbj/goA0SGjfKM6IZiKuh60KnL8X3wOfJZmZ0B2dDAIMrS
38x5SoHPxOGaNt2i7OWmGvURh1ngTl1O22VZ9vKeZ6q60d9cydqpIuzqd0C+FZJF
ytphZKfJysjgV3qqVnHFxdwb8KCeC1tn1Z1IAX0G/DJqMyuNnj5V3fW0CgVexIs5
3Q==
-----END CERTIFICATE-----
