Certificate:
    Data:
        Version: 3 (0x2)
        Serial Number:
            57:79:eb:1f:94:63:0e:4a:af:df:10:23:f1:c9:d9:6c
        Signature Algorithm: sha256WithRSAEncryption
        Issuer: CN=team143-net
        Validity
            Not Before: Aug 14 14:25:13 2023 GMT
            Not After : Jul 29 14:25:13 2026 GMT
        Subject: CN=team143-server
        Subject Public Key Info:
            Public Key Algorithm: rsaEncryption
                RSA Public-Key: (2048 bit)
                Modulus:
                    00:ba:79:91:d4:0a:16:07:64:2c:51:32:35:2b:f5:
                    16:b8:5f:02:e1:fe:4e:47:6f:25:59:aa:c1:de:80:
                    92:40:1c:8f:c4:91:85:b9:db:cc:95:74:2f:a2:80:
                    40:e9:9b:ec:73:3c:06:1e:ae:4e:f8:46:f9:2e:9d:
                    92:f9:d4:a6:1c:a5:e1:6a:ce:17:06:60:fb:3e:2c:
                    63:0c:f8:fc:29:ec:b6:d6:70:a2:f2:86:d4:1d:25:
                    29:79:71:c5:7d:79:81:5d:09:d2:2d:86:79:a6:0d:
                    f3:d7:25:bc:40:23:0c:64:50:f5:47:7c:bf:aa:d5:
                    c1:24:ce:13:1b:62:65:6b:b8:8a:e4:2b:3b:97:a7:
                    cf:7a:b4:20:73:31:52:a9:06:40:e1:bb:8e:ba:bf:
                    dd:6a:15:fa:45:b7:79:29:b6:b4:a8:dc:57:24:18:
                    66:13:cd:bd:33:2c:62:49:5e:9e:a8:03:e6:0f:26:
                    86:7e:98:9d:0e:7e:41:4d:81:3b:c1:00:92:1d:95:
                    4d:fc:d9:1c:2e:0d:39:43:06:dc:74:ee:8f:0b:db:
                    cb:14:2b:59:af:df:0a:d1:80:56:33:18:cd:19:2a:
                    83:f0:c5:55:b7:7e:9c:f2:cc:c6:ba:8d:58:6f:b0:
                    2b:11:23:fe:1d:5b:14:c5:20:1c:7b:c5:a1:37:a7:
                    30:35
                Exponent: 65537 (0x10001)
        X509v3 extensions:
            X509v3 Basic Constraints: 
                CA:FALSE
            X509v3 Subject Key Identifier: 
                67:ED:6A:0E:C7:E7:C8:9A:86:B5:CE:51:65:2E:7F:A2:AD:29:53:73
            X509v3 Authority Key Identifier: 
                keyid:B2:26:A7:69:32:FC:51:34:CB:E0:DD:B7:5C:8E:54:A7:47:75:01:6A
                DirName:/CN=team143-net
                serial:13:5F:60:97:5C:65:2E:AF:2B:CC:36:49:AA:1F:F6:A2:E6:9A:33:6F

            X509v3 Extended Key Usage: 
                TLS Web Server Authentication
            X509v3 Key Usage: 
                Digital Signature, Key Encipherment
            X509v3 Subject Alternative Name: 
                DNS:team143-server
    Signature Algorithm: sha256WithRSAEncryption
         27:91:84:d4:0c:ae:9d:d9:27:ae:12:32:6b:1c:1d:7b:c8:66:
         f0:6b:40:22:9b:7a:0b:c3:da:38:33:29:b5:be:12:a0:8e:eb:
         5c:53:e4:12:bc:78:d8:a7:48:d8:d1:47:33:38:74:76:e9:23:
         5d:be:fb:21:19:7f:46:f2:1c:4c:e3:49:c1:a9:6d:05:7a:fd:
         53:69:26:dd:b1:93:60:f0:1e:65:1d:2b:e6:cb:d0:1e:57:dc:
         ae:e1:3c:bb:f6:9a:3c:0c:ff:64:d7:27:fd:d4:cc:86:2c:07:
         aa:73:fc:a3:5e:ca:8e:7d:4b:21:5e:e8:e0:19:7a:19:6e:28:
         a0:2d:db:13:ee:fe:35:eb:11:f1:97:08:37:8b:9f:ee:9b:6c:
         3e:4e:84:da:ae:68:77:15:a1:8a:e6:7d:99:36:55:8c:50:45:
         fe:05:7e:f7:9d:c8:f9:77:4c:af:f3:87:c1:ce:17:65:b9:6c:
         f3:b4:21:54:cc:55:50:b5:21:4f:a3:13:67:ff:e7:51:2e:61:
         c4:c6:e2:04:26:81:3c:65:7b:79:e8:05:a1:b4:e6:a9:30:d8:
         c9:0e:65:a3:06:21:79:d2:79:14:ec:cb:34:16:94:ef:18:ae:
         78:40:2d:48:a9:0d:78:ef:98:01:b5:3e:1d:16:9a:58:2b:db:
         cd:c3:79:9e
-----BEGIN CERTIFICATE-----
MIIDdzCCAl+gAwIBAgIQV3nrH5RjDkqv3xAj8cnZbDANBgkqhkiG9w0BAQsFADAW
MRQwEgYDVQQDDAt0ZWFtMTQzLW5ldDAeFw0yMzA4MTQxNDI1MTNaFw0yNjA3Mjkx
NDI1MTNaMBkxFzAVBgNVBAMMDnRlYW0xNDMtc2VydmVyMIIBIjANBgkqhkiG9w0B
AQEFAAOCAQ8AMIIBCgKCAQEAunmR1AoWB2QsUTI1K/UWuF8C4f5OR28lWarB3oCS
QByPxJGFudvMlXQvooBA6ZvsczwGHq5O+Eb5Lp2S+dSmHKXhas4XBmD7PixjDPj8
Key21nCi8obUHSUpeXHFfXmBXQnSLYZ5pg3z1yW8QCMMZFD1R3y/qtXBJM4TG2Jl
a7iK5Cs7l6fPerQgczFSqQZA4buOur/dahX6Rbd5Kba0qNxXJBhmE829MyxiSV6e
qAPmDyaGfpidDn5BTYE7wQCSHZVN/NkcLg05QwbcdO6PC9vLFCtZr98K0YBWMxjN
GSqD8MVVt36c8szGuo1Yb7ArESP+HVsUxSAce8WhN6cwNQIDAQABo4G9MIG6MAkG
A1UdEwQCMAAwHQYDVR0OBBYEFGftag7H58iahrXOUWUuf6KtKVNzMFEGA1UdIwRK
MEiAFLImp2ky/FE0y+Ddt1yOVKdHdQFqoRqkGDAWMRQwEgYDVQQDDAt0ZWFtMTQz
LW5ldIIUE19gl1xlLq8rzDZJqh/2ouaaM28wEwYDVR0lBAwwCgYIKwYBBQUHAwEw
CwYDVR0PBAQDAgWgMBkGA1UdEQQSMBCCDnRlYW0xNDMtc2VydmVyMA0GCSqGSIb3
DQEBCwUAA4IBAQAnkYTUDK6d2SeuEjJrHB17yGbwa0Aim3oLw9o4Mym1vhKgjutc
U+QSvHjYp0jY0UczOHR26SNdvvshGX9G8hxM40nBqW0Fev1TaSbdsZNg8B5lHSvm
y9AeV9yu4Ty79po8DP9k1yf91MyGLAeqc/yjXsqOfUshXujgGXoZbiigLdsT7v41
6xHxlwg3i5/um2w+ToTarmh3FaGK5n2ZNlWMUEX+BX73ncj5d0yv84fBzhdluWzz
tCFUzFVQtSFPoxNn/+dRLmHExuIEJoE8ZXt56AWhtOapMNjJDmWjBiF50nkU7Ms0
FpTvGK54QC1IqQ1475gBtT4dFppYK9vNw3me
-----END CERTIFICATE-----
