Certificate:
    Data:
        Version: 3 (0x2)
        Serial Number:
            5e:b3:3b:ba:14:82:88:c4:25:ea:ae:34:92:8c:12:5f
        Signature Algorithm: sha256WithRSAEncryption
        Issuer: CN=team187-net
        Validity
            Not Before: Aug 14 14:26:05 2023 GMT
            Not After : Jul 29 14:26:05 2026 GMT
        Subject: CN=team187-server
        Subject Public Key Info:
            Public Key Algorithm: rsaEncryption
                RSA Public-Key: (2048 bit)
                Modulus:
                    00:ed:99:1b:cd:f2:6d:b8:c1:67:d8:32:21:22:7b:
                    c2:f0:bc:e2:ec:c5:b6:b5:5a:53:c9:08:ec:ad:b5:
                    2b:88:e9:d3:3a:67:7e:7e:18:b4:2c:f5:5b:65:94:
                    e3:d0:8b:50:2a:59:da:78:81:0e:3f:24:79:e4:a3:
                    8c:d1:2b:e8:6d:28:86:bf:64:22:6b:43:77:84:de:
                    29:65:02:dd:08:61:ac:25:87:9e:42:1b:48:50:15:
                    1f:c0:58:31:c4:25:72:33:e3:22:55:09:63:70:44:
                    90:f9:4d:ed:97:bd:72:0f:f0:7f:a1:6c:31:4f:a7:
                    27:7e:c9:b8:c7:56:19:bb:9a:1a:43:8b:e9:70:02:
                    dd:29:1e:3a:ea:3e:71:87:df:f5:73:2e:21:3c:ce:
                    af:da:9e:fe:52:62:4a:f1:b7:39:df:89:79:1d:b3:
                    93:9b:1f:d7:6f:0a:58:b9:ea:9d:97:f1:3e:9c:9a:
                    cf:ec:16:cf:30:36:82:3b:34:24:97:4e:d1:d0:cf:
                    d0:92:b0:74:0e:fb:8d:3d:2b:7d:9e:c8:4c:70:f3:
                    11:dc:d8:ae:1b:ae:e5:63:7d:52:ee:dc:b4:4d:1a:
                    c1:2b:54:db:4e:4b:cc:c5:5e:cc:4b:d8:4a:60:c4:
                    4d:cd:fc:39:a0:6f:3d:96:47:4e:53:1f:08:fb:30:
                    dc:e1
                Exponent: 65537 (0x10001)
        X509v3 extensions:
            X509v3 Basic Constraints: 
                CA:FALSE
            X509v3 Subject Key Identifier: 
                54:5F:E5:BE:CA:87:91:46:53:E0:D8:2A:1B:12:7B:36:24:74:A2:39
            X509v3 Authority Key Identifier: 
                keyid:75:90:BD:D2:4A:9E:EC:FA:CE:44:41:66:84:15:2E:10:9A:62:6D:E5
                DirName:/CN=team187-net
                serial:4D:15:52:EC:09:A8:94:81:07:ED:4E:C0:B0:8A:87:FF:36:26:CF:D8

            X509v3 Extended Key Usage: 
                TLS Web Server Authentication
            X509v3 Key Usage: 
                Digital Signature, Key Encipherment
            X509v3 Subject Alternative Name: 
                DNS:team187-server
    Signature Algorithm: sha256WithRSAEncryption
         c2:f2:d7:66:ab:77:76:23:57:af:fc:92:1f:50:17:f1:cb:8c:
         cf:1e:54:3b:31:06:a4:56:e6:3d:d8:b0:53:44:7b:51:4f:01:
         56:54:d3:5f:6d:86:80:67:8c:df:ad:34:af:63:e3:53:a8:4a:
         ca:43:60:05:6f:d8:0d:73:78:ea:f9:a9:e7:f5:20:57:a2:e3:
         bd:2f:7e:54:59:f3:52:1e:6c:42:6f:48:a2:5c:cc:8a:f1:7e:
         0f:00:62:7b:94:fe:50:25:85:1b:21:4c:b3:d0:37:6d:28:d2:
         28:21:4c:69:99:19:1b:a9:b4:ea:b4:4d:8b:9a:a7:9b:50:39:
         4d:38:c7:55:a3:0f:7b:52:53:e6:f5:76:ad:37:5a:c5:69:eb:
         33:d0:e4:69:c3:82:8f:4b:f9:76:d4:bc:41:00:7e:7b:d1:13:
         16:9a:e8:11:55:ac:98:d4:1e:9f:55:f1:4b:53:d2:a3:32:f2:
         70:ec:3e:26:82:83:33:79:e0:1f:74:05:31:50:2e:48:3d:43:
         d3:1a:ee:c9:68:cd:16:95:3c:60:06:03:dc:68:87:aa:4d:67:
         59:03:ac:e7:2f:ee:2d:67:b0:25:19:a3:7a:ec:94:ae:bc:dd:
         17:63:9a:2e:0c:54:fa:4e:6b:1f:ae:dc:b5:3b:e2:91:46:54:
         a1:b3:77:ad
-----BEGIN CERTIFICATE-----
MIIDdzCCAl+gAwIBAgIQXrM7uhSCiMQl6q40kowSXzANBgkqhkiG9w0BAQsFADAW
MRQwEgYDVQQDDAt0ZWFtMTg3LW5ldDAeFw0yMzA4MTQxNDI2MDVaFw0yNjA3Mjkx
NDI2MDVaMBkxFzAVBgNVBAMMDnRlYW0xODctc2VydmVyMIIBIjANBgkqhkiG9w0B
AQEFAAOCAQ8AMIIBCgKCAQEA7ZkbzfJtuMFn2DIhInvC8Lzi7MW2tVpTyQjsrbUr
iOnTOmd+fhi0LPVbZZTj0ItQKlnaeIEOPyR55KOM0SvobSiGv2Qia0N3hN4pZQLd
CGGsJYeeQhtIUBUfwFgxxCVyM+MiVQljcESQ+U3tl71yD/B/oWwxT6cnfsm4x1YZ
u5oaQ4vpcALdKR466j5xh9/1cy4hPM6v2p7+UmJK8bc534l5HbOTmx/XbwpYueqd
l/E+nJrP7BbPMDaCOzQkl07R0M/QkrB0DvuNPSt9nshMcPMR3NiuG67lY31S7ty0
TRrBK1TbTkvMxV7MS9hKYMRNzfw5oG89lkdOUx8I+zDc4QIDAQABo4G9MIG6MAkG
A1UdEwQCMAAwHQYDVR0OBBYEFFRf5b7Kh5FGU+DYKhsSezYkdKI5MFEGA1UdIwRK
MEiAFHWQvdJKnuz6zkRBZoQVLhCaYm3loRqkGDAWMRQwEgYDVQQDDAt0ZWFtMTg3
LW5ldIIUTRVS7AmolIEH7U7AsIqH/zYmz9gwEwYDVR0lBAwwCgYIKwYBBQUHAwEw
CwYDVR0PBAQDAgWgMBkGA1UdEQQSMBCCDnRlYW0xODctc2VydmVyMA0GCSqGSIb3
DQEBCwUAA4IBAQDC8tdmq3d2I1ev/JIfUBfxy4zPHlQ7MQakVuY92LBTRHtRTwFW
VNNfbYaAZ4zfrTSvY+NTqErKQ2AFb9gNc3jq+ann9SBXouO9L35UWfNSHmxCb0ii
XMyK8X4PAGJ7lP5QJYUbIUyz0DdtKNIoIUxpmRkbqbTqtE2LmqebUDlNOMdVow97
UlPm9XatN1rFaesz0ORpw4KPS/l21LxBAH570RMWmugRVayY1B6fVfFLU9KjMvJw
7D4mgoMzeeAfdAUxUC5IPUPTGu7JaM0WlTxgBgPcaIeqTWdZA6znL+4tZ7AlGaN6
7JSuvN0XY5ouDFT6Tmsfrty1O+KRRlShs3et
-----END CERTIFICATE-----
