Certificate:
    Data:
        Version: 3 (0x2)
        Serial Number:
            cb:11:35:97:da:96:9b:0c:17:61:c7:07:12:2f:29:8c
        Signature Algorithm: sha256WithRSAEncryption
        Issuer: CN=team187-net
        Validity
            Not Before: Aug 14 14:26:05 2023 GMT
            Not After : Jul 29 14:26:05 2026 GMT
        Subject: CN=team187-client
        Subject Public Key Info:
            Public Key Algorithm: rsaEncryption
                RSA Public-Key: (2048 bit)
                Modulus:
                    00:9c:6c:b9:90:1c:0c:b5:83:b9:9a:ae:9c:c7:38:
                    67:76:bf:6e:c1:77:89:ad:c6:84:55:9d:69:29:e1:
                    a0:9f:f4:c4:df:0a:02:67:ea:a2:ed:7b:c0:c4:21:
                    15:3d:b9:60:ec:68:7f:5d:41:a1:88:92:9c:47:40:
                    e6:a4:af:ce:10:79:c5:42:01:b3:0c:a2:f5:32:48:
                    9e:f0:83:18:44:ed:51:93:9c:27:a7:db:f1:0a:58:
                    4b:58:bd:28:32:7e:f3:f8:c1:65:84:a8:3d:5e:75:
                    e8:a5:d9:4c:4b:96:a1:63:81:6b:3a:49:c2:3a:eb:
                    ce:f3:dd:2d:3f:1d:51:6f:a1:7e:a8:a9:61:c5:c4:
                    c2:27:1b:73:62:21:fd:56:da:19:e4:78:b4:3f:2a:
                    55:21:f8:ac:e3:a2:3c:52:92:c5:4d:96:8f:83:37:
                    9a:8d:fc:85:81:2c:98:30:8b:87:fb:29:c0:d2:f2:
                    7e:df:4f:ec:15:42:d7:b9:cd:6a:46:13:63:62:b2:
                    a6:0a:08:f3:b2:77:89:e6:36:00:50:28:5f:32:e7:
                    f3:e9:93:53:23:cf:01:a3:32:8d:6c:1a:ab:aa:cb:
                    5e:a4:20:4b:4c:75:b4:9d:b5:68:ad:b6:9b:65:74:
                    40:9f:53:b3:15:16:8b:23:c9:9a:94:cf:55:cb:d9:
                    8d:a7
                Exponent: 65537 (0x10001)
        X509v3 extensions:
            X509v3 Basic Constraints: 
                CA:FALSE
            X509v3 Subject Key Identifier: 
                CC:EB:01:A5:A1:67:06:66:F8:80:E2:21:34:B1:5C:C6:91:A0:5B:44
            X509v3 Authority Key Identifier: 
                keyid:75:90:BD:D2:4A:9E:EC:FA:CE:44:41:66:84:15:2E:10:9A:62:6D:E5
                DirName:/CN=team187-net
                serial:4D:15:52:EC:09:A8:94:81:07:ED:4E:C0:B0:8A:87:FF:36:26:CF:D8

            X509v3 Extended Key Usage: 
                TLS Web Client Authentication
            X509v3 Key Usage: 
                Digital Signature
    Signature Algorithm: sha256WithRSAEncryption
         9a:b9:3f:3d:7c:61:f8:cd:e0:bf:3c:98:4f:08:64:2b:64:f2:
         05:26:e1:11:93:b7:bf:32:0d:32:61:65:bb:2b:73:59:41:1a:
         f1:29:84:3d:79:c5:e2:57:b7:c6:46:14:b0:10:5f:bc:8e:33:
         e3:e4:94:07:30:d4:f4:8b:89:c0:69:e7:73:8b:1c:c0:5d:18:
         a0:46:2c:84:9b:c5:56:8f:ef:25:e2:87:21:29:89:4c:4a:fd:
         bc:21:16:49:c0:e4:8f:9e:95:75:bd:b6:e0:d3:85:2b:7a:3e:
         b8:b7:4e:2c:ef:16:bf:08:91:eb:88:f1:a2:7a:a3:94:28:57:
         94:1a:81:2c:e0:66:13:05:64:56:07:c3:44:95:b8:68:aa:db:
         41:da:05:49:87:5a:50:b8:d1:15:3e:ef:7b:68:b4:c4:83:89:
         db:c3:f6:10:1b:e9:cf:83:3b:24:77:c6:9a:f8:6c:ea:ce:39:
         3d:0f:b2:82:01:93:9b:79:a9:d8:72:6f:59:d9:e6:b6:62:d2:
         da:0f:ad:cc:6e:1b:ba:4f:fd:02:59:e0:46:d8:6f:62:37:f4:
         06:b2:bd:84:f9:b9:cd:43:cd:34:09:94:03:6b:d5:b0:a5:d6:
         9b:0a:12:18:44:e8:79:63:e7:95:bb:13:65:af:5a:1a:bf:2e:
         b0:d3:97:ce
-----BEGIN CERTIFICATE-----
MIIDXTCCAkWgAwIBAgIRAMsRNZfalpsMF2HHBxIvKYwwDQYJKoZIhvcNAQELBQAw
FjEUMBIGA1UEAwwLdGVhbTE4Ny1uZXQwHhcNMjMwODE0MTQyNjA1WhcNMjYwNzI5
MTQyNjA1WjAZMRcwFQYDVQQDDA50ZWFtMTg3LWNsaWVudDCCASIwDQYJKoZIhvcN
AQEBBQADggEPADCCAQoCggEBAJxsuZAcDLWDuZqunMc4Z3a/bsF3ia3GhFWdaSnh
oJ/0xN8KAmfqou17wMQhFT25YOxof11BoYiSnEdA5qSvzhB5xUIBswyi9TJInvCD
GETtUZOcJ6fb8QpYS1i9KDJ+8/jBZYSoPV516KXZTEuWoWOBazpJwjrrzvPdLT8d
UW+hfqipYcXEwicbc2Ih/VbaGeR4tD8qVSH4rOOiPFKSxU2Wj4M3mo38hYEsmDCL
h/spwNLyft9P7BVC17nNakYTY2KypgoI87J3ieY2AFAoXzLn8+mTUyPPAaMyjWwa
q6rLXqQgS0x1tJ21aK22m2V0QJ9TsxUWiyPJmpTPVcvZjacCAwEAAaOBojCBnzAJ
BgNVHRMEAjAAMB0GA1UdDgQWBBTM6wGloWcGZviA4iE0sVzGkaBbRDBRBgNVHSME
SjBIgBR1kL3SSp7s+s5EQWaEFS4QmmJt5aEapBgwFjEUMBIGA1UEAwwLdGVhbTE4
Ny1uZXSCFE0VUuwJqJSBB+1OwLCKh/82Js/YMBMGA1UdJQQMMAoGCCsGAQUFBwMC
MAsGA1UdDwQEAwIHgDANBgkqhkiG9w0BAQsFAAOCAQEAmrk/PXxh+M3gvzyYTwhk
K2TyBSbhEZO3vzINMmFluytzWUEa8SmEPXnF4le3xkYUsBBfvI4z4+SUBzDU9IuJ
wGnnc4scwF0YoEYshJvFVo/vJeKHISmJTEr9vCEWScDkj56Vdb224NOFK3o+uLdO
LO8WvwiR64jxonqjlChXlBqBLOBmEwVkVgfDRJW4aKrbQdoFSYdaULjRFT7ve2i0
xIOJ28P2EBvpz4M7JHfGmvhs6s45PQ+yggGTm3mp2HJvWdnmtmLS2g+tzG4buk/9
AlngRthvYjf0BrK9hPm5zUPNNAmUA2vVsKXWmwoSGEToeWPnlbsTZa9aGr8usNOX
zg==
-----END CERTIFICATE-----
