Certificate:
    Data:
        Version: 3 (0x2)
        Serial Number:
            b0:25:6f:97:91:b6:c7:f8:0f:25:82:87:1b:cd:7d:3d
        Signature Algorithm: sha256WithRSAEncryption
        Issuer: CN=team297-net
        Validity
            Not Before: Aug 14 14:28:20 2023 GMT
            Not After : Jul 29 14:28:20 2026 GMT
        Subject: CN=team297-client
        Subject Public Key Info:
            Public Key Algorithm: rsaEncryption
                RSA Public-Key: (2048 bit)
                Modulus:
                    00:b4:a0:94:cd:48:e6:cf:dc:04:c4:f0:11:b0:1c:
                    5e:e4:fb:1e:d8:f5:80:29:87:aa:b8:88:07:dd:cd:
                    a0:19:bc:37:64:3b:9e:59:18:c9:e5:ea:94:f4:a2:
                    dd:15:80:86:3a:0b:3c:e3:de:c2:f6:ff:67:45:3e:
                    aa:ba:e8:ab:7d:0e:b1:38:02:46:f6:d9:4a:16:65:
                    74:ea:87:91:d4:c3:81:f9:0e:bd:11:e3:37:8c:1c:
                    94:f2:32:7d:36:3d:3d:12:6e:ed:74:5d:44:e8:cb:
                    dd:27:fc:27:01:78:af:c4:34:1f:25:18:01:ae:6d:
                    40:19:e5:78:0e:58:a5:92:32:97:44:1d:db:0f:84:
                    7c:71:ae:a5:bc:0a:71:b9:44:7b:09:af:77:dd:47:
                    eb:7f:2c:50:03:e8:40:f4:42:95:6a:1e:ac:ba:76:
                    05:8b:59:6f:e9:57:97:4c:d5:44:2f:0e:47:18:f6:
                    0a:e6:f8:05:cb:8e:dd:2f:34:46:c4:34:50:87:7c:
                    b2:b4:d8:1f:e6:6c:a9:3e:99:ed:b0:56:19:02:77:
                    9d:4a:ff:ce:5b:4d:05:bb:49:3a:84:68:89:d6:a9:
                    4b:40:18:3d:b2:0a:6e:4d:0d:91:e3:1f:79:c4:a1:
                    9b:5d:22:29:b9:3b:9f:19:c5:51:2b:b9:5d:83:93:
                    2c:25
                Exponent: 65537 (0x10001)
        X509v3 extensions:
            X509v3 Basic Constraints: 
                CA:FALSE
            X509v3 Subject Key Identifier: 
                AF:2A:EE:D4:86:AB:01:C2:AE:00:3D:3A:E9:62:19:49:31:4D:1F:A3
            X509v3 Authority Key Identifier: 
                keyid:70:08:F5:9C:DB:1B:48:CC:9E:C3:36:78:B1:69:DF:18:6B:8B:2F:EB
                DirName:/CN=team297-net
                serial:0B:DB:55:8B:34:C9:24:42:20:58:1A:FF:DD:4F:93:B7:87:19:10:FE

            X509v3 Extended Key Usage: 
                TLS Web Client Authentication
            X509v3 Key Usage: 
                Digital Signature
    Signature Algorithm: sha256WithRSAEncryption
         33:c7:a3:ca:e4:72:a9:dc:97:4f:fc:83:3b:a1:1c:1f:e5:9b:
         70:9e:3e:45:d6:94:01:a9:e3:1a:0d:02:e1:9d:05:af:45:c4:
         5d:db:bc:12:9d:f8:f8:82:0c:fd:bc:38:4f:c8:c4:f9:8e:0d:
         f2:9e:7c:73:fa:83:4f:36:da:98:bc:b0:04:76:f2:91:79:58:
         8c:32:b2:01:62:b7:13:04:df:fd:c4:84:a1:ce:31:a4:b6:de:
         d7:35:81:f6:46:f2:42:e8:7d:7e:6f:42:b3:97:d7:fa:bc:cb:
         b0:f7:20:4a:81:af:e6:d8:1a:e9:0c:7b:56:71:b3:dc:df:e9:
         0a:64:1b:bd:e2:03:85:40:4a:60:83:7c:ba:c7:22:e6:fa:59:
         d1:be:1a:25:68:0f:5d:cc:44:fd:88:c0:e1:f2:94:3b:ab:3c:
         9b:49:cc:9e:8c:66:80:12:8c:ea:d6:a3:e5:d0:5d:4a:0a:fe:
         b5:0d:8e:ac:98:8a:cd:d0:42:92:aa:62:d6:54:d2:fe:ff:19:
         bd:ae:cb:32:81:14:a0:e6:14:2a:bc:06:3d:92:27:f9:f7:83:
         b4:42:ed:a3:ff:07:ba:d0:7a:53:d2:de:8d:18:9c:7f:5f:a9:
         ee:d7:f6:33:75:f6:f5:8e:5c:b5:4a:d6:d2:23:17:75:4a:d3:
         a6:9c:d7:7d
-----BEGIN CERTIFICATE-----
MIIDXTCCAkWgAwIBAgIRALAlb5eRtsf4DyWChxvNfT0wDQYJKoZIhvcNAQELBQAw
FjEUMBIGA1UEAwwLdGVhbTI5Ny1uZXQwHhcNMjMwODE0MTQyODIwWhcNMjYwNzI5
MTQyODIwWjAZMRcwFQYDVQQDDA50ZWFtMjk3LWNsaWVudDCCASIwDQYJKoZIhvcN
AQEBBQADggEPADCCAQoCggEBALSglM1I5s/cBMTwEbAcXuT7Htj1gCmHqriIB93N
oBm8N2Q7nlkYyeXqlPSi3RWAhjoLPOPewvb/Z0U+qrroq30OsTgCRvbZShZldOqH
kdTDgfkOvRHjN4wclPIyfTY9PRJu7XRdROjL3Sf8JwF4r8Q0HyUYAa5tQBnleA5Y
pZIyl0Qd2w+EfHGupbwKcblEewmvd91H638sUAPoQPRClWoerLp2BYtZb+lXl0zV
RC8ORxj2Cub4BcuO3S80RsQ0UId8srTYH+ZsqT6Z7bBWGQJ3nUr/zltNBbtJOoRo
idapS0AYPbIKbk0NkeMfecShm10iKbk7nxnFUSu5XYOTLCUCAwEAAaOBojCBnzAJ
BgNVHRMEAjAAMB0GA1UdDgQWBBSvKu7UhqsBwq4APTrpYhlJMU0fozBRBgNVHSME
SjBIgBRwCPWc2xtIzJ7DNnixad8Ya4sv66EapBgwFjEUMBIGA1UEAwwLdGVhbTI5
Ny1uZXSCFAvbVYs0ySRCIFga/91Pk7eHGRD+MBMGA1UdJQQMMAoGCCsGAQUFBwMC
MAsGA1UdDwQEAwIHgDANBgkqhkiG9w0BAQsFAAOCAQEAM8ejyuRyqdyXT/yDO6Ec
H+WbcJ4+RdaUAanjGg0C4Z0Fr0XEXdu8Ep34+IIM/bw4T8jE+Y4N8p58c/qDTzba
mLywBHbykXlYjDKyAWK3EwTf/cSEoc4xpLbe1zWB9kbyQuh9fm9Cs5fX+rzLsPcg
SoGv5tga6Qx7VnGz3N/pCmQbveIDhUBKYIN8usci5vpZ0b4aJWgPXcxE/YjA4fKU
O6s8m0nMnoxmgBKM6taj5dBdSgr+tQ2OrJiKzdBCkqpi1lTS/v8Zva7LMoEUoOYU
KrwGPZIn+feDtELto/8HutB6U9LejRicf1+p7tf2M3X29Y5ctUrW0iMXdUrTppzX
fQ==
-----END CERTIFICATE-----
