Certificate:
    Data:
        Version: 3 (0x2)
        Serial Number:
            2f:90:8d:6e:2e:ea:c8:2c:05:05:44:d8:78:49:c3:41
        Signature Algorithm: sha256WithRSAEncryption
        Issuer: CN=team163-net
        Validity
            Not Before: Aug 14 14:25:39 2023 GMT
            Not After : Jul 29 14:25:39 2026 GMT
        Subject: CN=team163-server
        Subject Public Key Info:
            Public Key Algorithm: rsaEncryption
                RSA Public-Key: (2048 bit)
                Modulus:
                    00:d1:4c:77:c4:e8:83:ae:f9:af:02:11:ec:e3:74:
                    c4:03:86:7c:04:a6:91:80:25:a3:ed:ba:08:60:fb:
                    49:05:e9:b7:ca:4f:48:37:a5:6b:8d:c2:71:57:06:
                    58:8b:83:f0:61:bb:bc:c1:7e:43:e0:d5:81:7b:d3:
                    9f:3e:74:16:26:62:0e:2b:2a:4e:22:8a:5c:0a:7d:
                    19:cf:e7:26:b8:ed:89:a0:3d:cb:35:e9:ca:ca:f1:
                    0e:09:14:94:b3:0e:9a:5a:6f:2d:26:b4:78:ed:e0:
                    fd:55:6c:9a:c1:72:81:2e:18:18:12:30:86:e4:e8:
                    c3:e8:e5:6c:d9:2a:bd:0c:53:4a:f1:94:b1:94:61:
                    22:32:ed:92:f4:57:e0:a5:08:67:a3:7f:7f:08:b8:
                    1b:af:5b:7c:52:f9:6e:85:a1:a0:07:ae:f7:40:dc:
                    9a:98:13:6c:e4:e4:c2:73:a2:56:33:61:ae:48:0a:
                    b9:e6:26:26:64:5e:26:ad:78:fb:c4:39:52:2d:ee:
                    81:00:d5:05:fc:cd:e7:99:79:29:31:5f:0d:23:8b:
                    d6:04:11:2d:6b:1f:ce:21:b6:8e:b5:3c:51:0c:89:
                    10:c4:e7:48:b7:67:97:99:fa:b2:b2:6a:3d:2e:3b:
                    24:0c:cb:90:ff:91:f1:7b:d4:13:d3:1c:16:2c:4f:
                    0b:3d
                Exponent: 65537 (0x10001)
        X509v3 extensions:
            X509v3 Basic Constraints: 
                CA:FALSE
            X509v3 Subject Key Identifier: 
                95:95:45:95:C9:8C:C5:9A:CF:74:67:F7:A2:5F:97:7F:32:AC:77:47
            X509v3 Authority Key Identifier: 
                keyid:6F:06:FA:32:EA:AD:26:5A:C6:50:CE:E1:09:D4:74:C1:88:59:3D:FE
                DirName:/CN=team163-net
                serial:3F:C1:C1:24:54:70:0F:AF:8C:27:FD:E4:64:ED:D2:39:72:57:AD:33

            X509v3 Extended Key Usage: 
                TLS Web Server Authentication
            X509v3 Key Usage: 
                Digital Signature, Key Encipherment
            X509v3 Subject Alternative Name: 
                DNS:team163-server
    Signature Algorithm: sha256WithRSAEncryption
         9a:9b:1b:a7:13:e1:53:08:5b:db:8d:5e:5c:86:3d:e7:e5:9f:
         94:04:19:c9:70:52:7e:20:fd:90:74:1f:37:1b:e1:83:90:79:
         da:59:04:4d:bd:ff:a8:5a:2d:eb:85:9b:04:27:37:b4:d2:dc:
         47:87:f4:c9:a1:ec:8d:0b:6b:82:70:08:b1:50:2d:5a:5c:c0:
         17:77:77:ee:c9:66:2b:be:f0:9f:e7:c0:dd:f8:8b:a4:49:eb:
         45:e0:cf:21:b9:c4:78:44:99:8d:ac:b4:7b:cd:01:80:c0:c1:
         41:6d:26:f1:0f:ca:0d:31:15:74:ef:b1:73:7f:fb:36:5a:d1:
         c9:72:05:c1:2c:66:27:65:0c:b8:ba:2c:7b:77:3a:11:f6:fd:
         15:0a:61:b5:ba:4f:46:67:5c:60:79:45:63:82:5b:34:ff:75:
         2b:ae:44:6c:18:25:d7:26:13:d1:b9:38:5c:e6:0d:6a:c5:cb:
         a3:9b:bf:19:af:2d:7e:7a:95:9a:81:52:91:7c:45:9f:81:f6:
         30:5a:71:1b:b2:82:c1:ba:36:04:a3:fa:5c:b5:0b:7f:c6:d4:
         a9:a1:93:aa:1a:ca:00:10:73:3f:bb:84:c7:d9:3f:95:a5:55:
         11:13:c4:f2:f1:4f:d1:da:18:80:8c:ab:f7:2b:e7:1c:90:09:
         d9:63:ed:c1
-----BEGIN CERTIFICATE-----
MIIDdzCCAl+gAwIBAgIQL5CNbi7qyCwFBUTYeEnDQTANBgkqhkiG9w0BAQsFADAW
MRQwEgYDVQQDDAt0ZWFtMTYzLW5ldDAeFw0yMzA4MTQxNDI1MzlaFw0yNjA3Mjkx
NDI1MzlaMBkxFzAVBgNVBAMMDnRlYW0xNjMtc2VydmVyMIIBIjANBgkqhkiG9w0B
AQEFAAOCAQ8AMIIBCgKCAQEA0Ux3xOiDrvmvAhHs43TEA4Z8BKaRgCWj7boIYPtJ
Bem3yk9IN6VrjcJxVwZYi4PwYbu8wX5D4NWBe9OfPnQWJmIOKypOIopcCn0Zz+cm
uO2JoD3LNenKyvEOCRSUsw6aWm8tJrR47eD9VWyawXKBLhgYEjCG5OjD6OVs2Sq9
DFNK8ZSxlGEiMu2S9FfgpQhno39/CLgbr1t8UvluhaGgB673QNyamBNs5OTCc6JW
M2GuSAq55iYmZF4mrXj7xDlSLe6BANUF/M3nmXkpMV8NI4vWBBEtax/OIbaOtTxR
DIkQxOdIt2eXmfqysmo9LjskDMuQ/5Hxe9QT0xwWLE8LPQIDAQABo4G9MIG6MAkG
A1UdEwQCMAAwHQYDVR0OBBYEFJWVRZXJjMWaz3Rn96Jfl38yrHdHMFEGA1UdIwRK
MEiAFG8G+jLqrSZaxlDO4QnUdMGIWT3+oRqkGDAWMRQwEgYDVQQDDAt0ZWFtMTYz
LW5ldIIUP8HBJFRwD6+MJ/3kZO3SOXJXrTMwEwYDVR0lBAwwCgYIKwYBBQUHAwEw
CwYDVR0PBAQDAgWgMBkGA1UdEQQSMBCCDnRlYW0xNjMtc2VydmVyMA0GCSqGSIb3
DQEBCwUAA4IBAQCamxunE+FTCFvbjV5chj3n5Z+UBBnJcFJ+IP2QdB83G+GDkHna
WQRNvf+oWi3rhZsEJze00txHh/TJoeyNC2uCcAixUC1aXMAXd3fuyWYrvvCf58Dd
+IukSetF4M8hucR4RJmNrLR7zQGAwMFBbSbxD8oNMRV077Fzf/s2WtHJcgXBLGYn
ZQy4uix7dzoR9v0VCmG1uk9GZ1xgeUVjgls0/3UrrkRsGCXXJhPRuThc5g1qxcuj
m78Zry1+epWagVKRfEWfgfYwWnEbsoLBujYEo/pctQt/xtSpoZOqGsoAEHM/u4TH
2T+VpVURE8Ty8U/R2hiAjKv3K+cckAnZY+3B
-----END CERTIFICATE-----
