Certificate:
    Data:
        Version: 3 (0x2)
        Serial Number:
            7f:7e:54:c8:3f:89:cb:9e:09:6e:8b:0a:45:bf:68:f8
        Signature Algorithm: sha256WithRSAEncryption
        Issuer: CN=team218-net
        Validity
            Not Before: Aug 14 14:26:41 2023 GMT
            Not After : Jul 29 14:26:41 2026 GMT
        Subject: CN=team218-server
        Subject Public Key Info:
            Public Key Algorithm: rsaEncryption
                RSA Public-Key: (2048 bit)
                Modulus:
                    00:e5:4f:72:76:69:c1:46:0a:32:f4:98:6b:b3:27:
                    14:f0:0d:bc:f6:63:f6:06:25:30:53:30:6b:a8:65:
                    9c:cc:10:98:f7:ae:0a:51:bb:28:85:8f:0f:5d:90:
                    10:37:d7:ec:34:6a:ac:85:33:8a:2c:23:0b:75:76:
                    a7:48:73:3f:31:a1:4d:5a:40:47:c0:cf:5e:fa:6f:
                    d5:22:18:21:5b:83:13:6d:26:97:e6:d6:7a:9d:51:
                    2b:0e:8b:f2:02:4b:02:21:44:eb:98:b0:b2:3d:55:
                    46:fa:d3:c6:06:6e:2e:92:f2:ef:87:a0:5a:63:0d:
                    8b:2f:2a:25:49:94:87:67:64:81:23:01:9e:5d:ce:
                    4d:03:db:2a:e1:0d:8f:b1:8c:f9:80:06:a5:64:f2:
                    4a:76:58:64:2b:1d:c9:fc:3a:63:1c:82:ba:9a:06:
                    5e:af:05:25:85:67:2f:e4:ed:cb:8e:19:d9:4d:7c:
                    50:62:87:4f:51:ab:50:23:1c:6c:33:77:af:8f:45:
                    77:6c:cc:b9:29:b0:14:17:2d:3b:7d:9f:50:70:eb:
                    e0:85:32:15:b7:9f:68:70:72:6d:d4:8c:64:1a:2a:
                    9b:aa:f0:87:e9:5d:a6:60:20:96:d2:a4:4f:4d:bd:
                    2f:b3:56:96:5a:d9:66:c6:c0:3b:9c:b7:9e:6a:4d:
                    c8:db
                Exponent: 65537 (0x10001)
        X509v3 extensions:
            X509v3 Basic Constraints: 
                CA:FALSE
            X509v3 Subject Key Identifier: 
                91:4C:B2:B4:81:23:D0:D5:99:4A:4F:6B:36:6E:8E:6C:B6:67:B9:3D
            X509v3 Authority Key Identifier: 
                keyid:B5:EF:52:D5:A9:A9:C4:13:C2:95:7A:2F:FE:57:BD:64:F4:2A:AF:3B
                DirName:/CN=team218-net
                serial:2A:53:53:56:33:25:9F:7B:50:FF:A9:EB:7E:FC:A4:72:3A:1F:07:B7

            X509v3 Extended Key Usage: 
                TLS Web Server Authentication
            X509v3 Key Usage: 
                Digital Signature, Key Encipherment
            X509v3 Subject Alternative Name: 
                DNS:team218-server
    Signature Algorithm: sha256WithRSAEncryption
         bd:c3:da:da:94:c3:bf:a9:2a:51:80:04:73:0e:06:27:e7:c2:
         a8:cc:89:9c:13:6f:c7:f4:2c:b1:3e:91:08:65:d5:43:50:d5:
         ff:45:4d:bb:30:35:3a:10:f1:12:39:e1:c4:1a:a9:db:5f:e6:
         2c:62:cf:e7:c0:f3:38:80:5e:16:17:df:06:9e:2b:67:b7:47:
         11:94:ba:9c:29:46:a2:3e:0e:aa:81:5c:50:7c:10:29:a2:f4:
         bc:77:d5:c1:ec:c5:d1:5a:9e:24:1f:d6:50:2e:69:30:9f:98:
         eb:66:3f:d4:9c:2b:a1:56:78:cc:c1:02:88:59:e8:fa:38:8c:
         74:70:5c:f0:ca:9b:2c:8f:cd:80:e7:4b:78:6f:81:60:07:1a:
         e0:03:cf:82:91:e9:0a:87:9e:6a:0f:27:c3:33:bb:bc:fa:61:
         72:83:87:fa:55:5c:10:37:46:08:98:e9:13:57:91:d9:bb:c5:
         d4:5a:b6:af:0c:d1:e6:47:57:a1:ef:2c:2c:f5:93:dc:e2:03:
         47:30:ee:55:ca:57:6e:db:be:e8:d3:22:86:b8:a1:3a:fc:5e:
         89:9c:ce:fa:6e:bf:25:fe:27:99:2c:20:de:c4:3a:15:00:62:
         cf:c0:7a:6b:88:a7:15:0d:6f:81:6c:ee:05:ff:df:b8:2b:a1:
         3a:de:ed:07
-----BEGIN CERTIFICATE-----
MIIDdzCCAl+gAwIBAgIQf35UyD+Jy54JbosKRb9o+DANBgkqhkiG9w0BAQsFADAW
MRQwEgYDVQQDDAt0ZWFtMjE4LW5ldDAeFw0yMzA4MTQxNDI2NDFaFw0yNjA3Mjkx
NDI2NDFaMBkxFzAVBgNVBAMMDnRlYW0yMTgtc2VydmVyMIIBIjANBgkqhkiG9w0B
AQEFAAOCAQ8AMIIBCgKCAQEA5U9ydmnBRgoy9JhrsycU8A289mP2BiUwUzBrqGWc
zBCY964KUbsohY8PXZAQN9fsNGqshTOKLCMLdXanSHM/MaFNWkBHwM9e+m/VIhgh
W4MTbSaX5tZ6nVErDovyAksCIUTrmLCyPVVG+tPGBm4ukvLvh6BaYw2LLyolSZSH
Z2SBIwGeXc5NA9sq4Q2PsYz5gAalZPJKdlhkKx3J/DpjHIK6mgZerwUlhWcv5O3L
jhnZTXxQYodPUatQIxxsM3evj0V3bMy5KbAUFy07fZ9QcOvghTIVt59ocHJt1Ixk
GiqbqvCH6V2mYCCW0qRPTb0vs1aWWtlmxsA7nLeeak3I2wIDAQABo4G9MIG6MAkG
A1UdEwQCMAAwHQYDVR0OBBYEFJFMsrSBI9DVmUpPazZujmy2Z7k9MFEGA1UdIwRK
MEiAFLXvUtWpqcQTwpV6L/5XvWT0Kq87oRqkGDAWMRQwEgYDVQQDDAt0ZWFtMjE4
LW5ldIIUKlNTVjMln3tQ/6nrfvykcjofB7cwEwYDVR0lBAwwCgYIKwYBBQUHAwEw
CwYDVR0PBAQDAgWgMBkGA1UdEQQSMBCCDnRlYW0yMTgtc2VydmVyMA0GCSqGSIb3
DQEBCwUAA4IBAQC9w9ralMO/qSpRgARzDgYn58KozImcE2/H9CyxPpEIZdVDUNX/
RU27MDU6EPESOeHEGqnbX+YsYs/nwPM4gF4WF98Gnitnt0cRlLqcKUaiPg6qgVxQ
fBApovS8d9XB7MXRWp4kH9ZQLmkwn5jrZj/UnCuhVnjMwQKIWej6OIx0cFzwypss
j82A50t4b4FgBxrgA8+CkekKh55qDyfDM7u8+mFyg4f6VVwQN0YImOkTV5HZu8XU
WravDNHmR1eh7yws9ZPc4gNHMO5Vyldu277o0yKGuKE6/F6JnM76br8l/ieZLCDe
xDoVAGLPwHpriKcVDW+BbO4F/9+4K6E63u0H
-----END CERTIFICATE-----
