Certificate:
    Data:
        Version: 3 (0x2)
        Serial Number:
            af:c3:5d:34:3f:94:55:18:b9:6c:41:9b:e3:dc:9e:60
        Signature Algorithm: sha256WithRSAEncryption
        Issuer: CN=team122-net
        Validity
            Not Before: Aug 14 14:24:47 2023 GMT
            Not After : Jul 29 14:24:47 2026 GMT
        Subject: CN=team122-client
        Subject Public Key Info:
            Public Key Algorithm: rsaEncryption
                RSA Public-Key: (2048 bit)
                Modulus:
                    00:c4:e8:c4:8f:4b:3c:0b:db:05:63:82:fd:8d:18:
                    b6:f9:1d:27:9a:eb:4d:5a:2e:d6:52:ac:79:6b:c4:
                    e6:07:61:cc:01:a1:0c:11:c9:da:3a:5a:52:09:16:
                    3e:e1:c5:d9:a7:6f:8b:8d:d2:76:1b:e2:fd:31:9f:
                    2e:85:d3:0c:78:c4:a4:99:bc:f0:b1:3e:b8:52:ca:
                    f1:00:41:ed:09:cd:8d:ca:f4:dd:21:b1:50:75:98:
                    c5:b4:65:5a:28:4b:2f:d9:2b:19:3f:6b:78:56:ba:
                    0a:d8:66:0e:16:ce:69:9c:b9:92:74:de:8f:9d:a4:
                    da:41:89:23:ad:36:3c:11:5f:cd:96:21:92:8a:56:
                    7f:16:d9:14:d8:56:25:f8:b1:d3:aa:2f:de:4c:05:
                    a5:20:ea:29:64:32:ad:7c:81:c9:f8:82:8d:8d:c5:
                    62:c6:d9:09:af:1b:10:93:a5:48:77:09:41:7b:98:
                    1a:0f:1f:ed:3f:ea:be:74:63:d5:63:9d:ce:64:f7:
                    30:fd:6d:7c:db:71:11:98:e7:55:20:0c:88:be:88:
                    18:83:28:f3:ff:65:f0:12:9e:ef:63:eb:64:73:81:
                    43:5e:1b:00:39:1a:44:5d:5c:e9:8a:43:92:31:1f:
                    be:11:8f:78:47:75:50:21:28:d0:05:4e:05:5b:2c:
                    85:6d
                Exponent: 65537 (0x10001)
        X509v3 extensions:
            X509v3 Basic Constraints: 
                CA:FALSE
            X509v3 Subject Key Identifier: 
                B6:DC:8E:E4:5F:34:D0:43:A8:9F:98:39:1E:44:93:EB:B8:D2:29:EE
            X509v3 Authority Key Identifier: 
                keyid:19:24:63:B6:FC:96:AC:C1:BD:E5:A4:90:28:B3:36:32:6C:C2:57:E7
                DirName:/CN=team122-net
                serial:77:42:EF:E3:E1:C0:D3:26:A4:0F:08:5A:DE:B5:8C:1C:04:DB:E2:1D

            X509v3 Extended Key Usage: 
                TLS Web Client Authentication
            X509v3 Key Usage: 
                Digital Signature
    Signature Algorithm: sha256WithRSAEncryption
         af:f5:86:df:87:f2:5c:be:3a:61:26:fb:6a:80:bc:ac:36:8d:
         2f:ad:b7:3e:05:f4:b5:f3:64:1c:0f:04:10:4d:c7:77:2d:64:
         96:fd:50:49:ed:57:34:42:0a:30:87:80:26:6e:66:a5:32:8d:
         6d:44:26:d1:01:75:d3:b0:40:56:78:15:68:66:43:1d:40:cf:
         b6:cf:2e:0f:61:49:27:a3:aa:87:ef:fd:aa:12:c1:6f:78:e5:
         6c:d9:35:d0:1c:9f:fc:48:b5:34:f7:6d:0d:77:c3:f7:ed:31:
         96:93:e9:f7:73:b6:0e:0b:c6:0d:6a:ff:06:ad:b5:b3:61:88:
         73:b5:0c:34:04:2c:1a:e6:9c:f7:94:48:d3:e4:0d:cb:09:65:
         fa:2b:6b:d2:08:c2:2d:74:bd:04:5e:82:67:ad:22:69:00:f3:
         db:47:74:aa:f4:c8:52:56:2c:cd:60:cb:f4:db:e2:8a:62:35:
         72:29:d9:b8:0b:f2:bd:5d:75:84:5c:5d:c2:bb:b6:83:94:81:
         c1:6b:88:4d:90:ee:08:8f:5a:24:46:7a:0d:03:ba:69:27:98:
         44:bb:11:8a:98:a4:ec:e1:e7:d3:67:db:15:ae:d2:42:39:bd:
         02:26:7b:d5:13:f4:61:d6:af:91:6f:4f:3d:76:90:62:7f:e6:
         8e:30:30:a5
-----BEGIN CERTIFICATE-----
MIIDXTCCAkWgAwIBAgIRAK/DXTQ/lFUYuWxBm+PcnmAwDQYJKoZIhvcNAQELBQAw
FjEUMBIGA1UEAwwLdGVhbTEyMi1uZXQwHhcNMjMwODE0MTQyNDQ3WhcNMjYwNzI5
MTQyNDQ3WjAZMRcwFQYDVQQDDA50ZWFtMTIyLWNsaWVudDCCASIwDQYJKoZIhvcN
AQEBBQADggEPADCCAQoCggEBAMToxI9LPAvbBWOC/Y0YtvkdJ5rrTVou1lKseWvE
5gdhzAGhDBHJ2jpaUgkWPuHF2advi43Sdhvi/TGfLoXTDHjEpJm88LE+uFLK8QBB
7QnNjcr03SGxUHWYxbRlWihLL9krGT9reFa6CthmDhbOaZy5knTej52k2kGJI602
PBFfzZYhkopWfxbZFNhWJfix06ov3kwFpSDqKWQyrXyByfiCjY3FYsbZCa8bEJOl
SHcJQXuYGg8f7T/qvnRj1WOdzmT3MP1tfNtxEZjnVSAMiL6IGIMo8/9l8BKe72Pr
ZHOBQ14bADkaRF1c6YpDkjEfvhGPeEd1UCEo0AVOBVsshW0CAwEAAaOBojCBnzAJ
BgNVHRMEAjAAMB0GA1UdDgQWBBS23I7kXzTQQ6ifmDkeRJPruNIp7jBRBgNVHSME
SjBIgBQZJGO2/Jaswb3lpJAoszYybMJX56EapBgwFjEUMBIGA1UEAwwLdGVhbTEy
Mi1uZXSCFHdC7+PhwNMmpA8IWt61jBwE2+IdMBMGA1UdJQQMMAoGCCsGAQUFBwMC
MAsGA1UdDwQEAwIHgDANBgkqhkiG9w0BAQsFAAOCAQEAr/WG34fyXL46YSb7aoC8
rDaNL623PgX0tfNkHA8EEE3Hdy1klv1QSe1XNEIKMIeAJm5mpTKNbUQm0QF107BA
VngVaGZDHUDPts8uD2FJJ6Oqh+/9qhLBb3jlbNk10Byf/Ei1NPdtDXfD9+0xlpPp
93O2DgvGDWr/Bq21s2GIc7UMNAQsGuac95RI0+QNywll+itr0gjCLXS9BF6CZ60i
aQDz20d0qvTIUlYszWDL9NviimI1cinZuAvyvV11hFxdwru2g5SBwWuITZDuCI9a
JEZ6DQO6aSeYRLsRipik7OHn02fbFa7SQjm9AiZ71RP0YdavkW9PPXaQYn/mjjAw
pQ==
-----END CERTIFICATE-----
