Certificate:
    Data:
        Version: 3 (0x2)
        Serial Number:
            3d:69:97:30:21:c8:46:d8:cb:7e:f4:b1:08:c8:f6:0c
        Signature Algorithm: sha256WithRSAEncryption
        Issuer: CN=team100-net
        Validity
            Not Before: Aug 14 14:24:16 2023 GMT
            Not After : Jul 29 14:24:16 2026 GMT
        Subject: CN=team100-client
        Subject Public Key Info:
            Public Key Algorithm: rsaEncryption
                RSA Public-Key: (2048 bit)
                Modulus:
                    00:af:34:62:0a:20:00:af:37:df:a5:65:9f:a9:43:
                    9a:ea:81:6c:06:63:0b:15:35:61:63:0d:6c:37:88:
                    39:b8:2c:3d:e1:4d:c6:73:63:6d:7f:20:4d:b3:b3:
                    24:e8:87:f5:bf:68:dc:b3:c9:b3:6f:1a:c3:38:70:
                    5c:58:ff:33:e5:83:a9:fa:d6:60:e4:4e:96:6a:0f:
                    97:4d:85:8f:61:c5:79:30:95:79:75:3e:c6:64:be:
                    2c:c9:0c:5b:50:01:d0:67:58:f9:28:26:62:8f:80:
                    ba:a7:84:ac:55:c7:10:ec:e9:10:a2:24:50:04:8c:
                    0f:03:c7:f0:27:1b:50:ff:90:84:a1:31:7b:eb:93:
                    20:b1:b7:5c:db:4a:ac:0e:0a:b9:fd:61:31:6a:3f:
                    19:6b:c8:7e:f6:c7:64:9a:e8:f4:48:16:66:92:50:
                    2a:2f:40:0f:9e:42:d0:5e:6f:71:f9:59:11:69:e2:
                    b9:cc:b8:eb:e0:7f:cb:5e:f5:e7:98:84:0c:35:f5:
                    24:0c:2b:4f:10:aa:1d:50:ac:bc:b7:37:05:f6:c8:
                    b9:3b:a0:1a:b9:38:b7:fc:ea:19:ca:d3:9a:f0:de:
                    53:32:db:fd:c1:97:66:0e:0c:21:a3:6d:a4:7e:84:
                    28:53:98:71:5a:80:d2:b5:e9:60:73:20:73:7a:91:
                    33:fb
                Exponent: 65537 (0x10001)
        X509v3 extensions:
            X509v3 Basic Constraints: 
                CA:FALSE
            X509v3 Subject Key Identifier: 
                63:C2:04:78:5E:C2:55:CF:7C:53:1C:BF:B1:05:64:73:37:09:4B:AF
            X509v3 Authority Key Identifier: 
                keyid:58:EA:56:85:66:5F:D1:E5:52:6B:08:7F:60:D2:73:6D:E7:E9:9B:96
                DirName:/CN=team100-net
                serial:57:88:4F:9F:C5:3B:5E:71:C0:28:F9:0B:DE:F7:3E:36:BE:2E:31:ED

            X509v3 Extended Key Usage: 
                TLS Web Client Authentication
            X509v3 Key Usage: 
                Digital Signature
    Signature Algorithm: sha256WithRSAEncryption
         0f:4b:b1:12:2b:ae:46:5b:82:ef:8e:eb:60:e7:98:95:3e:d6:
         5d:f0:9b:7d:a7:88:12:2c:d8:84:90:ee:01:86:e5:ff:1e:0f:
         ff:99:ea:dc:88:98:11:17:cc:df:e2:b1:d9:34:45:6d:b7:90:
         ea:c8:9f:69:8f:a1:07:55:ad:5a:b2:fd:af:77:f0:91:20:11:
         ce:39:54:bc:c6:7e:61:e9:29:e1:d6:69:75:38:81:33:87:87:
         fa:78:91:64:b7:35:a8:0c:0f:1b:83:58:3b:cc:14:92:3b:60:
         c5:b7:bb:b4:8d:5f:cd:4f:2e:21:c7:9e:76:45:5b:19:09:fc:
         36:9d:4d:98:13:68:8f:ab:43:49:ed:ea:a5:23:08:1d:1f:46:
         7e:c7:bf:65:6a:f5:f9:f6:be:01:36:a0:57:65:f7:ba:fd:8b:
         f4:75:2a:9e:24:60:81:65:2a:ed:a9:c2:b5:84:ed:55:67:03:
         52:6d:e1:d8:f5:dd:4b:b5:5b:c9:51:1c:bc:69:30:9d:9d:e3:
         64:3d:de:f6:ed:17:26:df:c2:27:fb:7d:2b:bf:62:83:71:3b:
         be:82:c1:c9:bf:8b:83:60:71:77:30:76:c4:99:78:21:01:b7:
         4f:53:cf:86:53:a4:44:f3:7d:de:ce:f3:ed:95:45:b6:ea:85:
         0c:d8:c2:f8
-----BEGIN CERTIFICATE-----
MIIDXDCCAkSgAwIBAgIQPWmXMCHIRtjLfvSxCMj2DDANBgkqhkiG9w0BAQsFADAW
MRQwEgYDVQQDDAt0ZWFtMTAwLW5ldDAeFw0yMzA4MTQxNDI0MTZaFw0yNjA3Mjkx
NDI0MTZaMBkxFzAVBgNVBAMMDnRlYW0xMDAtY2xpZW50MIIBIjANBgkqhkiG9w0B
AQEFAAOCAQ8AMIIBCgKCAQEArzRiCiAArzffpWWfqUOa6oFsBmMLFTVhYw1sN4g5
uCw94U3Gc2NtfyBNs7Mk6If1v2jcs8mzbxrDOHBcWP8z5YOp+tZg5E6Wag+XTYWP
YcV5MJV5dT7GZL4syQxbUAHQZ1j5KCZij4C6p4SsVccQ7OkQoiRQBIwPA8fwJxtQ
/5CEoTF765Mgsbdc20qsDgq5/WExaj8Za8h+9sdkmuj0SBZmklAqL0APnkLQXm9x
+VkRaeK5zLjr4H/LXvXnmIQMNfUkDCtPEKodUKy8tzcF9si5O6AauTi3/OoZytOa
8N5TMtv9wZdmDgwho22kfoQoU5hxWoDStelgcyBzepEz+wIDAQABo4GiMIGfMAkG
A1UdEwQCMAAwHQYDVR0OBBYEFGPCBHhewlXPfFMcv7EFZHM3CUuvMFEGA1UdIwRK
MEiAFFjqVoVmX9HlUmsIf2DSc23n6ZuWoRqkGDAWMRQwEgYDVQQDDAt0ZWFtMTAw
LW5ldIIUV4hPn8U7XnHAKPkL3vc+Nr4uMe0wEwYDVR0lBAwwCgYIKwYBBQUHAwIw
CwYDVR0PBAQDAgeAMA0GCSqGSIb3DQEBCwUAA4IBAQAPS7ESK65GW4Lvjutg55iV
PtZd8Jt9p4gSLNiEkO4BhuX/Hg//merciJgRF8zf4rHZNEVtt5DqyJ9pj6EHVa1a
sv2vd/CRIBHOOVS8xn5h6Snh1ml1OIEzh4f6eJFktzWoDA8bg1g7zBSSO2DFt7u0
jV/NTy4hx552RVsZCfw2nU2YE2iPq0NJ7eqlIwgdH0Z+x79lavX59r4BNqBXZfe6
/Yv0dSqeJGCBZSrtqcK1hO1VZwNSbeHY9d1LtVvJURy8aTCdneNkPd727Rcm38In
+30rv2KDcTu+gsHJv4uDYHF3MHbEmXghAbdPU8+GU6RE833ezvPtlUW26oUM2ML4
-----END CERTIFICATE-----
