Certificate:
    Data:
        Version: 3 (0x2)
        Serial Number:
            6c:2e:bc:47:c9:1f:51:d3:10:9e:2a:e5:d2:cc:9f:1b
        Signature Algorithm: sha256WithRSAEncryption
        Issuer: CN=team100-net
        Validity
            Not Before: Aug 14 14:24:16 2023 GMT
            Not After : Jul 29 14:24:16 2026 GMT
        Subject: CN=team100-server
        Subject Public Key Info:
            Public Key Algorithm: rsaEncryption
                RSA Public-Key: (2048 bit)
                Modulus:
                    00:bd:d5:93:0e:07:6c:8e:48:f8:a1:55:95:e7:94:
                    ac:f1:4c:49:82:20:af:3c:81:05:45:fe:f4:90:2a:
                    bf:5b:e5:c8:02:f4:4a:8e:e1:cb:0c:cb:f8:4b:09:
                    af:67:6a:3f:81:e5:d8:0c:8e:a0:ae:cf:4f:7a:6b:
                    80:04:24:2b:93:c7:a6:f7:a8:8d:82:dc:5a:83:d8:
                    9b:77:aa:8d:13:cb:b6:92:c4:5e:42:31:9b:09:6d:
                    6d:40:93:26:53:6c:9d:f3:17:bb:ca:e8:9c:91:ff:
                    9a:1f:f4:88:76:b9:5d:92:83:c2:6f:c8:c9:51:95:
                    aa:f9:d3:f4:e2:d0:3c:30:65:74:01:45:2c:5f:84:
                    21:32:b1:9a:f8:6e:bc:f0:4c:90:4b:fa:aa:38:df:
                    b8:07:ef:5d:34:49:15:93:31:e0:d1:6d:21:31:18:
                    14:26:b4:09:d7:83:87:b3:ec:ad:6a:15:4c:7e:b7:
                    93:1e:78:41:91:37:a8:03:f6:9e:96:e4:01:cd:99:
                    34:3b:db:c8:b2:bb:72:60:72:89:6e:d6:c5:cd:ad:
                    d6:46:ff:4c:95:3a:49:99:ae:f6:4a:d5:19:df:d8:
                    e5:09:d4:d8:c0:7a:1d:cf:f2:1a:9c:b8:4d:03:4a:
                    ae:02:93:e6:b1:9c:af:e2:9c:99:67:ce:58:c2:01:
                    8f:63
                Exponent: 65537 (0x10001)
        X509v3 extensions:
            X509v3 Basic Constraints: 
                CA:FALSE
            X509v3 Subject Key Identifier: 
                9D:5A:B2:B5:BA:98:50:59:B5:87:C9:60:2D:BB:C3:80:3E:8E:32:F6
            X509v3 Authority Key Identifier: 
                keyid:58:EA:56:85:66:5F:D1:E5:52:6B:08:7F:60:D2:73:6D:E7:E9:9B:96
                DirName:/CN=team100-net
                serial:57:88:4F:9F:C5:3B:5E:71:C0:28:F9:0B:DE:F7:3E:36:BE:2E:31:ED

            X509v3 Extended Key Usage: 
                TLS Web Server Authentication
            X509v3 Key Usage: 
                Digital Signature, Key Encipherment
            X509v3 Subject Alternative Name: 
                DNS:team100-server
    Signature Algorithm: sha256WithRSAEncryption
         61:db:6c:e2:df:1c:a6:5e:e6:23:00:aa:41:0d:82:6a:6b:d7:
         33:a8:ec:c1:96:fd:a3:d8:a4:42:5c:d3:2c:56:04:cb:a1:ac:
         97:a9:e4:6e:5b:21:89:f7:01:4e:6a:41:7a:2a:77:fd:7e:74:
         be:3c:ba:ba:e5:0d:40:e4:0a:1c:b1:c9:d8:3a:ce:62:48:59:
         cf:7d:20:e3:03:02:de:5e:63:33:7f:c4:75:f5:3d:30:2e:7e:
         a7:a1:24:26:33:ce:84:59:1f:fa:82:f1:c4:0a:02:68:df:e5:
         f9:95:e8:7c:a1:ab:5d:0a:fc:17:d3:1b:f8:ac:d9:1c:55:de:
         2a:fc:0f:c7:57:fa:94:88:41:d1:6d:bd:cb:39:c6:b3:8a:d2:
         5e:ea:a0:f5:af:7c:7e:5f:16:8c:0f:30:0b:e6:39:83:81:56:
         80:90:18:31:00:0a:4e:ac:b4:ce:b1:5a:8a:e4:63:74:0f:97:
         87:38:e5:15:7f:5f:e5:c3:b6:f0:4c:0b:97:a5:f7:14:06:38:
         2a:41:f5:39:0b:ce:d1:07:5e:19:99:e0:81:2e:55:11:b8:a0:
         01:8a:ba:7d:a1:40:28:0f:af:a4:f0:6c:bd:80:ce:b1:8e:96:
         09:13:0a:45:88:92:eb:19:df:9f:24:ba:15:f8:0c:2c:18:2c:
         f2:66:9e:b0
-----BEGIN CERTIFICATE-----
MIIDdzCCAl+gAwIBAgIQbC68R8kfUdMQnirl0syfGzANBgkqhkiG9w0BAQsFADAW
MRQwEgYDVQQDDAt0ZWFtMTAwLW5ldDAeFw0yMzA4MTQxNDI0MTZaFw0yNjA3Mjkx
NDI0MTZaMBkxFzAVBgNVBAMMDnRlYW0xMDAtc2VydmVyMIIBIjANBgkqhkiG9w0B
AQEFAAOCAQ8AMIIBCgKCAQEAvdWTDgdsjkj4oVWV55Ss8UxJgiCvPIEFRf70kCq/
W+XIAvRKjuHLDMv4SwmvZ2o/geXYDI6grs9PemuABCQrk8em96iNgtxag9ibd6qN
E8u2ksReQjGbCW1tQJMmU2yd8xe7yuickf+aH/SIdrldkoPCb8jJUZWq+dP04tA8
MGV0AUUsX4QhMrGa+G688EyQS/qqON+4B+9dNEkVkzHg0W0hMRgUJrQJ14OHs+yt
ahVMfreTHnhBkTeoA/aeluQBzZk0O9vIsrtyYHKJbtbFza3WRv9MlTpJma72StUZ
39jlCdTYwHodz/IanLhNA0quApPmsZyv4pyZZ85YwgGPYwIDAQABo4G9MIG6MAkG
A1UdEwQCMAAwHQYDVR0OBBYEFJ1asrW6mFBZtYfJYC27w4A+jjL2MFEGA1UdIwRK
MEiAFFjqVoVmX9HlUmsIf2DSc23n6ZuWoRqkGDAWMRQwEgYDVQQDDAt0ZWFtMTAw
LW5ldIIUV4hPn8U7XnHAKPkL3vc+Nr4uMe0wEwYDVR0lBAwwCgYIKwYBBQUHAwEw
CwYDVR0PBAQDAgWgMBkGA1UdEQQSMBCCDnRlYW0xMDAtc2VydmVyMA0GCSqGSIb3
DQEBCwUAA4IBAQBh22zi3xymXuYjAKpBDYJqa9czqOzBlv2j2KRCXNMsVgTLoayX
qeRuWyGJ9wFOakF6Knf9fnS+PLq65Q1A5AocscnYOs5iSFnPfSDjAwLeXmMzf8R1
9T0wLn6noSQmM86EWR/6gvHECgJo3+X5leh8oatdCvwX0xv4rNkcVd4q/A/HV/qU
iEHRbb3LOcazitJe6qD1r3x+XxaMDzAL5jmDgVaAkBgxAApOrLTOsVqK5GN0D5eH
OOUVf1/lw7bwTAuXpfcUBjgqQfU5C87RB14ZmeCBLlURuKABirp9oUAoD6+k8Gy9
gM6xjpYJEwpFiJLrGd+fJLoV+AwsGCzyZp6w
-----END CERTIFICATE-----
