Certificate:
    Data:
        Version: 3 (0x2)
        Serial Number:
            7f:e3:6a:5d:82:99:7b:e3:f7:e4:94:3c:8f:58:e2:c6
        Signature Algorithm: sha256WithRSAEncryption
        Issuer: CN=team77-net
        Validity
            Not Before: Aug 14 14:23:46 2023 GMT
            Not After : Jul 29 14:23:46 2026 GMT
        Subject: CN=team77-client
        Subject Public Key Info:
            Public Key Algorithm: rsaEncryption
                RSA Public-Key: (2048 bit)
                Modulus:
                    00:ea:42:06:9e:07:d6:2b:5c:3b:e2:5a:cb:e0:3f:
                    df:a9:60:2b:85:df:17:c4:18:0e:c2:b4:91:1d:19:
                    20:54:83:5e:2c:26:e0:8c:03:17:9e:b4:b9:01:e5:
                    fb:1c:9a:d6:d6:dd:30:00:86:61:8c:26:f3:b5:40:
                    62:be:98:7f:2a:4b:da:24:84:93:76:0b:8f:48:26:
                    39:58:b1:99:6e:cc:d3:29:b5:81:2b:c9:a8:bd:36:
                    c4:ea:63:18:bd:a8:e9:da:68:b9:ea:97:61:12:44:
                    c7:5d:2e:30:77:13:e3:b4:e8:cd:ad:95:ec:ad:dc:
                    ee:07:61:ff:41:34:a6:84:84:2e:3c:8e:94:a7:54:
                    a3:71:84:35:16:56:39:4f:ed:21:49:3a:a8:7b:a8:
                    01:b1:33:09:43:d5:61:46:39:d5:ff:24:f3:84:e3:
                    a4:56:24:6f:bd:c1:f2:72:15:ea:79:e4:4b:96:f5:
                    a6:60:42:18:3d:5b:4b:6b:20:54:7f:1f:38:98:af:
                    1e:f4:6c:12:84:8d:9f:59:66:00:48:4d:60:09:2d:
                    ef:50:67:78:f9:9e:21:cb:19:72:5d:38:b4:5b:d0:
                    bf:9c:27:25:e6:62:d4:33:3c:68:30:86:e1:2c:a0:
                    98:8f:8a:97:1c:d3:79:f3:a2:f5:95:e3:b0:db:16:
                    fc:ab
                Exponent: 65537 (0x10001)
        X509v3 extensions:
            X509v3 Basic Constraints: 
                CA:FALSE
            X509v3 Subject Key Identifier: 
                96:5A:00:19:E7:CC:6C:28:2A:B4:4F:6B:BE:0E:69:0D:15:BC:B5:CF
            X509v3 Authority Key Identifier: 
                keyid:37:CF:6A:26:6F:CF:91:B3:72:FC:E7:45:D2:93:4B:F7:02:94:56:6C
                DirName:/CN=team77-net
                serial:60:14:6C:C4:32:44:C9:4E:C3:5C:83:8D:03:0E:4A:74:B1:47:67:3E

            X509v3 Extended Key Usage: 
                TLS Web Client Authentication
            X509v3 Key Usage: 
                Digital Signature
    Signature Algorithm: sha256WithRSAEncryption
         36:13:56:2b:37:69:7d:d8:24:6e:51:6a:dd:af:18:d0:b4:81:
         40:62:2b:1e:e4:3f:aa:40:e0:3c:55:4d:7c:84:44:43:c1:16:
         90:b2:91:89:d5:01:73:83:27:56:3c:99:4b:02:5a:d6:21:ea:
         29:1b:05:70:fe:d6:3e:40:3d:6b:40:cc:b1:78:04:cb:e8:e6:
         60:ad:6e:bd:16:63:b9:49:4c:d3:d1:91:7d:19:39:65:a7:b1:
         fe:a4:82:cb:f1:3c:c6:30:f7:d3:34:92:ed:ad:b6:4b:7d:9e:
         0a:b3:d6:4e:02:ac:25:a9:e8:29:ac:26:75:4b:98:b6:a4:32:
         81:4c:25:ca:3a:13:ff:26:d4:aa:c9:d5:69:bd:a2:4e:a4:e3:
         a5:f1:20:ad:49:06:c2:8d:fd:ad:86:bc:6a:1b:ee:d6:a3:e7:
         09:d1:45:7a:7d:5c:ea:de:29:3b:18:ab:92:9a:38:1b:6b:da:
         d2:bb:49:5b:d2:47:f1:71:e5:63:44:2e:04:87:26:32:55:11:
         40:1e:c7:cb:9c:01:c1:f3:fb:1a:88:25:c3:3e:ea:c3:f0:eb:
         d5:20:4a:76:ef:5b:53:dc:02:b1:c0:a9:f6:09:d9:46:1e:52:
         72:46:b3:ca:70:88:5d:65:4a:64:ea:bf:5e:3f:60:33:f8:31:
         b3:7c:c3:63
-----BEGIN CERTIFICATE-----
MIIDWTCCAkGgAwIBAgIQf+NqXYKZe+P35JQ8j1jixjANBgkqhkiG9w0BAQsFADAV
MRMwEQYDVQQDDAp0ZWFtNzctbmV0MB4XDTIzMDgxNDE0MjM0NloXDTI2MDcyOTE0
MjM0NlowGDEWMBQGA1UEAwwNdGVhbTc3LWNsaWVudDCCASIwDQYJKoZIhvcNAQEB
BQADggEPADCCAQoCggEBAOpCBp4H1itcO+Jay+A/36lgK4XfF8QYDsK0kR0ZIFSD
Xiwm4IwDF560uQHl+xya1tbdMACGYYwm87VAYr6YfypL2iSEk3YLj0gmOVixmW7M
0ym1gSvJqL02xOpjGL2o6dpoueqXYRJEx10uMHcT47Toza2V7K3c7gdh/0E0poSE
LjyOlKdUo3GENRZWOU/tIUk6qHuoAbEzCUPVYUY51f8k84TjpFYkb73B8nIV6nnk
S5b1pmBCGD1bS2sgVH8fOJivHvRsEoSNn1lmAEhNYAkt71BnePmeIcsZcl04tFvQ
v5wnJeZi1DM8aDCG4SygmI+KlxzTefOi9ZXjsNsW/KsCAwEAAaOBoTCBnjAJBgNV
HRMEAjAAMB0GA1UdDgQWBBSWWgAZ58xsKCq0T2u+DmkNFby1zzBQBgNVHSMESTBH
gBQ3z2omb8+Rs3L850XSk0v3ApRWbKEZpBcwFTETMBEGA1UEAwwKdGVhbTc3LW5l
dIIUYBRsxDJEyU7DXIONAw5KdLFHZz4wEwYDVR0lBAwwCgYIKwYBBQUHAwIwCwYD
VR0PBAQDAgeAMA0GCSqGSIb3DQEBCwUAA4IBAQA2E1YrN2l92CRuUWrdrxjQtIFA
Yise5D+qQOA8VU18hERDwRaQspGJ1QFzgydWPJlLAlrWIeopGwVw/tY+QD1rQMyx
eATL6OZgrW69FmO5SUzT0ZF9GTllp7H+pILL8TzGMPfTNJLtrbZLfZ4Ks9ZOAqwl
qegprCZ1S5i2pDKBTCXKOhP/JtSqydVpvaJOpOOl8SCtSQbCjf2thrxqG+7Wo+cJ
0UV6fVzq3ik7GKuSmjgba9rSu0lb0kfxceVjRC4EhyYyVRFAHsfLnAHB8/saiCXD
PurD8OvVIEp271tT3AKxwKn2CdlGHlJyRrPKcIhdZUpk6r9eP2Az+DGzfMNj
-----END CERTIFICATE-----
