Certificate:
    Data:
        Version: 3 (0x2)
        Serial Number:
            24:ea:53:98:18:26:bd:5b:75:0f:7b:93:aa:65:80:ad
        Signature Algorithm: sha256WithRSAEncryption
        Issuer: CN=team206-net
        Validity
            Not Before: Aug 14 14:26:27 2023 GMT
            Not After : Jul 29 14:26:27 2026 GMT
        Subject: CN=team206-client
        Subject Public Key Info:
            Public Key Algorithm: rsaEncryption
                RSA Public-Key: (2048 bit)
                Modulus:
                    00:cf:71:d0:ab:be:be:3e:51:1d:f6:1d:2d:e1:b1:
                    97:77:97:4f:9c:5f:9e:3c:1f:70:81:d0:b6:08:52:
                    be:93:10:72:51:ad:bc:74:5d:f9:33:94:f1:6c:ab:
                    40:f7:7f:1d:5c:04:f4:ca:08:63:4c:89:bd:18:4b:
                    21:8e:47:f8:47:ed:84:d9:f1:0a:4f:55:97:42:b4:
                    df:12:3e:c1:a0:ef:2a:41:b1:14:b1:bf:d4:11:11:
                    47:cc:ab:ac:79:a9:de:47:3d:e5:0b:8f:31:d0:6f:
                    0a:bd:4c:5e:d8:e8:21:ce:59:99:64:fc:4a:a1:db:
                    57:c7:e5:f8:3a:37:2e:8f:fa:13:d6:3b:2c:cf:8e:
                    79:4a:40:e1:89:58:22:30:0e:1a:54:0a:cd:b5:57:
                    30:e4:61:93:43:d6:3c:f6:58:f7:2a:a9:1b:f6:48:
                    18:03:22:77:b0:86:01:2c:15:40:39:b9:22:f7:1a:
                    96:af:63:07:96:2b:d1:12:d4:41:c9:bf:5a:d0:90:
                    8c:96:c5:69:9f:20:b1:35:77:56:28:f7:40:33:e4:
                    0e:d1:58:8d:f5:a2:c2:c0:41:ed:8a:b5:77:5e:1a:
                    be:65:38:5b:84:83:20:00:40:8a:32:9b:64:a5:fe:
                    50:e7:9c:2e:4e:ab:d9:56:81:0d:10:08:62:60:0e:
                    89:d1
                Exponent: 65537 (0x10001)
        X509v3 extensions:
            X509v3 Basic Constraints: 
                CA:FALSE
            X509v3 Subject Key Identifier: 
                64:5D:57:16:C3:7A:F8:3F:A5:A2:23:B0:23:66:46:72:79:C9:39:10
            X509v3 Authority Key Identifier: 
                keyid:17:87:64:DA:36:CF:30:DE:03:25:2B:B2:00:97:44:85:1B:E6:28:9B
                DirName:/CN=team206-net
                serial:71:32:20:45:41:EA:43:CD:0A:00:52:6D:B6:32:29:AB:A7:60:1A:13

            X509v3 Extended Key Usage: 
                TLS Web Client Authentication
            X509v3 Key Usage: 
                Digital Signature
    Signature Algorithm: sha256WithRSAEncryption
         43:59:3c:15:29:fa:8b:0f:9a:6d:30:41:61:d0:02:ad:74:e6:
         5b:48:ad:47:5e:47:56:37:3e:75:7c:df:40:b9:9b:8a:f7:45:
         6b:4a:88:6f:7c:be:93:a6:0d:f8:9f:82:67:2f:07:03:fe:69:
         b1:44:1e:ca:0a:b1:78:2f:c8:bb:8e:10:e6:96:f2:02:3b:29:
         95:f3:db:76:70:d8:c8:73:c1:1e:a9:94:26:6a:47:f4:ad:74:
         94:1b:a9:53:5d:89:cb:f6:d4:8f:f8:ef:60:95:55:2e:f1:c3:
         74:62:a9:85:45:fa:97:26:30:d6:84:f3:4d:0d:20:4b:6d:6b:
         bb:10:64:d1:97:6d:99:c7:e7:5c:74:e1:73:2d:86:54:97:2d:
         c5:a1:fe:d5:dd:03:e1:b2:d3:43:42:25:2c:69:0a:78:80:51:
         01:7b:33:c5:1b:18:1d:84:c8:d1:29:4d:8b:8c:6b:39:74:3c:
         00:8a:80:9e:0a:c2:f0:a6:54:7e:1b:ac:3e:e2:22:19:76:bb:
         61:fe:1b:b8:72:4d:ce:8c:96:89:de:1a:a8:eb:42:28:ce:06:
         39:ce:19:87:26:3d:39:30:76:61:7d:47:f1:1b:a3:be:05:13:
         d0:d1:2f:ac:28:ea:e4:83:05:1a:1d:17:67:5c:05:06:82:09:
         53:eb:3b:a9
-----BEGIN CERTIFICATE-----
MIIDXDCCAkSgAwIBAgIQJOpTmBgmvVt1D3uTqmWArTANBgkqhkiG9w0BAQsFADAW
MRQwEgYDVQQDDAt0ZWFtMjA2LW5ldDAeFw0yMzA4MTQxNDI2MjdaFw0yNjA3Mjkx
NDI2MjdaMBkxFzAVBgNVBAMMDnRlYW0yMDYtY2xpZW50MIIBIjANBgkqhkiG9w0B
AQEFAAOCAQ8AMIIBCgKCAQEAz3HQq76+PlEd9h0t4bGXd5dPnF+ePB9wgdC2CFK+
kxByUa28dF35M5TxbKtA938dXAT0yghjTIm9GEshjkf4R+2E2fEKT1WXQrTfEj7B
oO8qQbEUsb/UERFHzKuseaneRz3lC48x0G8KvUxe2OghzlmZZPxKodtXx+X4Ojcu
j/oT1jssz455SkDhiVgiMA4aVArNtVcw5GGTQ9Y89lj3Kqkb9kgYAyJ3sIYBLBVA
Obki9xqWr2MHlivREtRByb9a0JCMlsVpnyCxNXdWKPdAM+QO0ViN9aLCwEHtirV3
Xhq+ZThbhIMgAECKMptkpf5Q55wuTqvZVoENEAhiYA6J0QIDAQABo4GiMIGfMAkG
A1UdEwQCMAAwHQYDVR0OBBYEFGRdVxbDevg/paIjsCNmRnJ5yTkQMFEGA1UdIwRK
MEiAFBeHZNo2zzDeAyUrsgCXRIUb5iiboRqkGDAWMRQwEgYDVQQDDAt0ZWFtMjA2
LW5ldIIUcTIgRUHqQ80KAFJttjIpq6dgGhMwEwYDVR0lBAwwCgYIKwYBBQUHAwIw
CwYDVR0PBAQDAgeAMA0GCSqGSIb3DQEBCwUAA4IBAQBDWTwVKfqLD5ptMEFh0AKt
dOZbSK1HXkdWNz51fN9AuZuK90VrSohvfL6Tpg34n4JnLwcD/mmxRB7KCrF4L8i7
jhDmlvICOymV89t2cNjIc8EeqZQmakf0rXSUG6lTXYnL9tSP+O9glVUu8cN0YqmF
RfqXJjDWhPNNDSBLbWu7EGTRl22Zx+dcdOFzLYZUly3Fof7V3QPhstNDQiUsaQp4
gFEBezPFGxgdhMjRKU2LjGs5dDwAioCeCsLwplR+G6w+4iIZdrth/hu4ck3OjJaJ
3hqo60IozgY5zhmHJj05MHZhfUfxG6O+BRPQ0S+sKOrkgwUaHRdnXAUGgglT6zup
-----END CERTIFICATE-----
