Certificate:
    Data:
        Version: 3 (0x2)
        Serial Number:
            5b:ec:0f:70:c2:c7:8d:be:77:e0:f0:ed:7d:67:80
        Signature Algorithm: sha256WithRSAEncryption
        Issuer: CN=team206-net
        Validity
            Not Before: Aug 14 14:26:27 2023 GMT
            Not After : Jul 29 14:26:27 2026 GMT
        Subject: CN=team206-server
        Subject Public Key Info:
            Public Key Algorithm: rsaEncryption
                RSA Public-Key: (2048 bit)
                Modulus:
                    00:c7:d4:ae:69:9c:92:d5:4f:90:82:9c:be:d6:f7:
                    75:48:b2:61:94:ab:a9:44:37:ba:b5:82:d1:84:cc:
                    58:0c:49:05:1b:75:d3:75:ef:08:41:17:78:99:50:
                    2c:d3:16:47:52:67:9c:87:cc:7e:f1:a1:10:be:ae:
                    e6:2b:69:f9:d3:99:97:cd:00:67:9b:2c:7c:44:9c:
                    51:07:24:7a:ad:ea:ed:a1:94:a3:32:ec:d7:b4:51:
                    c3:c2:06:fd:75:6b:64:ec:85:c7:a9:8d:a5:37:0e:
                    6d:ef:b1:42:96:a3:da:f8:e9:a6:d3:be:eb:65:eb:
                    4f:12:96:24:8c:13:0a:ed:7a:ce:ce:3e:a7:f4:c9:
                    80:e0:5c:40:f7:20:40:d1:ec:a0:90:9a:dd:4b:9d:
                    de:8e:84:35:97:c5:59:7b:47:0c:21:87:42:b4:61:
                    ae:7c:29:d5:d3:09:7e:51:6d:c6:90:b9:a2:e5:24:
                    55:8a:8b:1c:cd:98:13:23:53:e4:5f:46:00:78:68:
                    17:23:a4:7d:2a:0d:37:f8:d3:c5:00:a4:b7:90:d9:
                    dc:b6:f7:47:86:f6:0d:df:42:a4:de:5f:83:13:6e:
                    bd:28:f4:b8:0d:2f:d8:ae:0b:d8:52:1c:62:cb:73:
                    70:75:bc:2d:74:2c:7a:95:57:a2:2b:fd:c6:5f:7a:
                    40:d5
                Exponent: 65537 (0x10001)
        X509v3 extensions:
            X509v3 Basic Constraints: 
                CA:FALSE
            X509v3 Subject Key Identifier: 
                A9:D4:0A:7D:69:28:3E:77:09:74:67:F4:7F:55:F5:8B:C9:3E:36:11
            X509v3 Authority Key Identifier: 
                keyid:17:87:64:DA:36:CF:30:DE:03:25:2B:B2:00:97:44:85:1B:E6:28:9B
                DirName:/CN=team206-net
                serial:71:32:20:45:41:EA:43:CD:0A:00:52:6D:B6:32:29:AB:A7:60:1A:13

            X509v3 Extended Key Usage: 
                TLS Web Server Authentication
            X509v3 Key Usage: 
                Digital Signature, Key Encipherment
            X509v3 Subject Alternative Name: 
                DNS:team206-server
    Signature Algorithm: sha256WithRSAEncryption
         30:04:72:0b:a2:9c:f8:2e:1b:84:ea:0f:7e:8d:a5:8b:f5:cb:
         1e:ea:65:87:30:bf:1b:b8:64:56:b7:5c:78:70:aa:96:97:a4:
         e5:e2:ca:c2:f0:bc:0b:10:10:39:f6:97:7e:a8:30:cd:1c:c3:
         dd:1c:8b:bd:16:70:87:7b:52:9e:fd:46:7b:6b:3c:bc:9f:69:
         16:c1:c0:e7:14:42:bf:3e:77:9e:48:95:67:17:33:c6:4c:3b:
         a8:fc:d8:14:4a:71:cf:50:41:ce:57:3e:12:2d:86:af:4e:04:
         79:16:43:d8:da:af:66:82:1c:0c:53:01:3a:32:f8:96:26:87:
         56:ef:8f:05:fd:62:43:09:cc:3b:bf:40:fa:69:ac:b5:13:eb:
         1f:8a:fe:9f:55:09:b0:0d:da:1e:4b:9f:9d:2a:36:7f:ef:e2:
         53:8b:81:cf:93:8f:4e:59:20:f5:c6:24:ef:d0:19:1a:b5:ba:
         30:87:2e:44:c5:6e:de:3c:c4:f7:b7:9b:1f:db:5a:44:c0:27:
         94:ef:2d:4c:91:d0:ae:d2:27:ca:7e:4f:b2:cf:36:d7:8c:ac:
         0f:ed:d7:35:de:1b:ef:a5:f2:e0:03:ee:f1:58:ab:34:e5:ce:
         2a:3b:32:6a:8c:f4:35:aa:f6:5b:c4:bc:7e:88:65:c4:e9:07:
         a8:1a:6d:5d
-----BEGIN CERTIFICATE-----
MIIDdjCCAl6gAwIBAgIPW+wPcMLHjb534PDtfWeAMA0GCSqGSIb3DQEBCwUAMBYx
FDASBgNVBAMMC3RlYW0yMDYtbmV0MB4XDTIzMDgxNDE0MjYyN1oXDTI2MDcyOTE0
MjYyN1owGTEXMBUGA1UEAwwOdGVhbTIwNi1zZXJ2ZXIwggEiMA0GCSqGSIb3DQEB
AQUAA4IBDwAwggEKAoIBAQDH1K5pnJLVT5CCnL7W93VIsmGUq6lEN7q1gtGEzFgM
SQUbddN17whBF3iZUCzTFkdSZ5yHzH7xoRC+ruYrafnTmZfNAGebLHxEnFEHJHqt
6u2hlKMy7Ne0UcPCBv11a2TshcepjaU3Dm3vsUKWo9r46abTvutl608SliSMEwrt
es7OPqf0yYDgXED3IEDR7KCQmt1Lnd6OhDWXxVl7Rwwhh0K0Ya58KdXTCX5RbcaQ
uaLlJFWKixzNmBMjU+RfRgB4aBcjpH0qDTf408UApLeQ2dy290eG9g3fQqTeX4MT
br0o9LgNL9iuC9hSHGLLc3B1vC10LHqVV6Ir/cZfekDVAgMBAAGjgb0wgbowCQYD
VR0TBAIwADAdBgNVHQ4EFgQUqdQKfWkoPncJdGf0f1X1i8k+NhEwUQYDVR0jBEow
SIAUF4dk2jbPMN4DJSuyAJdEhRvmKJuhGqQYMBYxFDASBgNVBAMMC3RlYW0yMDYt
bmV0ghRxMiBFQepDzQoAUm22Mimrp2AaEzATBgNVHSUEDDAKBggrBgEFBQcDATAL
BgNVHQ8EBAMCBaAwGQYDVR0RBBIwEIIOdGVhbTIwNi1zZXJ2ZXIwDQYJKoZIhvcN
AQELBQADggEBADAEcguinPguG4TqD36NpYv1yx7qZYcwvxu4ZFa3XHhwqpaXpOXi
ysLwvAsQEDn2l36oMM0cw90ci70WcId7Up79RntrPLyfaRbBwOcUQr8+d55IlWcX
M8ZMO6j82BRKcc9QQc5XPhIthq9OBHkWQ9jar2aCHAxTAToy+JYmh1bvjwX9YkMJ
zDu/QPpprLUT6x+K/p9VCbAN2h5Ln50qNn/v4lOLgc+Tj05ZIPXGJO/QGRq1ujCH
LkTFbt48xPe3mx/bWkTAJ5TvLUyR0K7SJ8p+T7LPNteMrA/t1zXeG++l8uAD7vFY
qzTlzio7MmqM9DWq9lvEvH6IZcTpB6gabV0=
-----END CERTIFICATE-----
