Certificate:
    Data:
        Version: 3 (0x2)
        Serial Number:
            c5:5e:65:2e:27:da:51:25:82:2b:bd:02:78:37:a6:f7
        Signature Algorithm: sha256WithRSAEncryption
        Issuer: CN=team99-net
        Validity
            Not Before: Aug 14 14:24:15 2023 GMT
            Not After : Jul 29 14:24:15 2026 GMT
        Subject: CN=team99-client
        Subject Public Key Info:
            Public Key Algorithm: rsaEncryption
                RSA Public-Key: (2048 bit)
                Modulus:
                    00:ec:0d:34:5e:72:a5:57:26:70:58:3b:2c:ce:04:
                    ad:eb:78:b8:04:de:da:a8:c3:30:0c:aa:de:2b:ec:
                    23:59:43:39:a1:a3:72:6e:60:77:9f:90:53:90:cf:
                    35:a7:97:d8:6c:22:13:09:01:c0:74:1b:46:59:4a:
                    e7:e0:92:81:82:8b:b6:a4:1e:9a:34:69:f3:e2:20:
                    1f:f1:95:6d:75:74:6f:4e:6a:b6:dc:bc:2f:28:18:
                    1e:19:56:61:55:38:e0:8a:59:ef:f3:c7:63:0a:b7:
                    31:ab:bf:0d:20:b8:e6:86:93:6d:46:2a:21:b2:f6:
                    9c:c1:86:2b:3f:1c:81:68:c1:76:c5:ee:9c:c2:3e:
                    3e:c1:13:71:f4:9b:0e:fd:b6:1e:f0:5b:c8:af:28:
                    10:37:6d:d5:bc:c6:b7:6f:56:0f:48:7c:c9:d4:e7:
                    c3:4f:c2:30:8b:9c:d0:fd:6d:3c:87:d3:db:7b:c5:
                    6e:36:51:0e:f0:53:88:4d:ab:cf:ea:78:56:fb:f4:
                    d7:57:8d:9c:35:3b:99:ca:3b:8b:44:3f:42:eb:bc:
                    df:bd:eb:0b:9a:4d:47:d0:38:a2:72:68:36:07:bb:
                    86:df:82:cb:28:35:aa:d5:78:60:96:69:c4:28:15:
                    ba:1b:62:13:99:57:ea:85:6e:28:14:10:7e:83:d6:
                    7a:9f
                Exponent: 65537 (0x10001)
        X509v3 extensions:
            X509v3 Basic Constraints: 
                CA:FALSE
            X509v3 Subject Key Identifier: 
                28:B7:32:6E:31:CD:24:AB:83:BE:E4:07:B0:60:A2:C9:CD:60:B1:7D
            X509v3 Authority Key Identifier: 
                keyid:11:83:EF:5B:0E:C4:03:26:30:DA:7E:DE:58:D0:64:59:7A:83:7E:0D
                DirName:/CN=team99-net
                serial:73:AE:54:7E:52:9F:D5:8F:7E:98:38:8C:A4:F4:B8:5D:1B:19:07:D9

            X509v3 Extended Key Usage: 
                TLS Web Client Authentication
            X509v3 Key Usage: 
                Digital Signature
    Signature Algorithm: sha256WithRSAEncryption
         6a:c7:ab:4d:d5:35:52:51:b6:ef:d4:57:49:a9:ae:6c:ef:27:
         91:2e:e7:6d:38:98:b1:1f:5e:c2:79:09:8c:39:86:d1:fa:8e:
         99:0f:5e:07:45:df:f2:37:96:47:06:28:82:fb:34:ab:4c:4a:
         dd:53:2d:c3:fc:e9:02:a8:7f:04:4e:0f:8e:d6:20:a9:2f:fe:
         e7:22:6f:94:ed:9a:66:04:c3:6f:b9:2a:e4:24:1d:15:a8:b7:
         cc:ef:05:c9:1a:bc:cc:72:f2:e5:d0:f7:98:8f:38:d1:f1:20:
         3d:2d:de:e6:e1:bc:3a:ab:2e:f7:f1:ab:8d:bc:78:f4:58:0d:
         25:9a:b7:a4:a1:32:17:f0:d3:7d:26:e1:85:9c:b2:df:b7:b3:
         8e:c3:32:ec:09:e7:72:ea:d2:e7:db:12:0a:f8:32:e7:82:7c:
         9f:1c:11:06:c2:43:d0:46:40:3e:b0:a9:98:7d:4c:44:fc:3d:
         81:6c:fe:c2:2f:f6:62:e9:ae:71:91:8a:ab:19:34:ea:eb:3c:
         3b:61:cb:35:1a:e8:49:fd:2e:1e:1d:2d:fd:38:64:94:e0:a9:
         67:15:9f:e9:eb:2f:6a:eb:31:4e:92:17:ed:89:87:3a:c2:1d:
         c7:ae:2f:60:8a:cb:be:0c:ab:be:11:e0:20:98:74:8b:ec:43:
         a7:30:17:1d
-----BEGIN CERTIFICATE-----
MIIDWjCCAkKgAwIBAgIRAMVeZS4n2lElgiu9Ang3pvcwDQYJKoZIhvcNAQELBQAw
FTETMBEGA1UEAwwKdGVhbTk5LW5ldDAeFw0yMzA4MTQxNDI0MTVaFw0yNjA3Mjkx
NDI0MTVaMBgxFjAUBgNVBAMMDXRlYW05OS1jbGllbnQwggEiMA0GCSqGSIb3DQEB
AQUAA4IBDwAwggEKAoIBAQDsDTRecqVXJnBYOyzOBK3reLgE3tqowzAMqt4r7CNZ
Qzmho3JuYHefkFOQzzWnl9hsIhMJAcB0G0ZZSufgkoGCi7akHpo0afPiIB/xlW11
dG9OarbcvC8oGB4ZVmFVOOCKWe/zx2MKtzGrvw0guOaGk21GKiGy9pzBhis/HIFo
wXbF7pzCPj7BE3H0mw79th7wW8ivKBA3bdW8xrdvVg9IfMnU58NPwjCLnND9bTyH
09t7xW42UQ7wU4hNq8/qeFb79NdXjZw1O5nKO4tEP0LrvN+96wuaTUfQOKJyaDYH
u4bfgssoNarVeGCWacQoFbobYhOZV+qFbigUEH6D1nqfAgMBAAGjgaEwgZ4wCQYD
VR0TBAIwADAdBgNVHQ4EFgQUKLcybjHNJKuDvuQHsGCiyc1gsX0wUAYDVR0jBEkw
R4AUEYPvWw7EAyYw2n7eWNBkWXqDfg2hGaQXMBUxEzARBgNVBAMMCnRlYW05OS1u
ZXSCFHOuVH5Sn9WPfpg4jKT0uF0bGQfZMBMGA1UdJQQMMAoGCCsGAQUFBwMCMAsG
A1UdDwQEAwIHgDANBgkqhkiG9w0BAQsFAAOCAQEAaserTdU1UlG279RXSamubO8n
kS7nbTiYsR9ewnkJjDmG0fqOmQ9eB0Xf8jeWRwYogvs0q0xK3VMtw/zpAqh/BE4P
jtYgqS/+5yJvlO2aZgTDb7kq5CQdFai3zO8FyRq8zHLy5dD3mI840fEgPS3e5uG8
Oqsu9/Grjbx49FgNJZq3pKEyF/DTfSbhhZyy37ezjsMy7AnncurS59sSCvgy54J8
nxwRBsJD0EZAPrCpmH1MRPw9gWz+wi/2YumucZGKqxk06us8O2HLNRroSf0uHh0t
/ThklOCpZxWf6esvausxTpIX7YmHOsIdx64vYIrLvgyrvhHgIJh0i+xDpzAXHQ==
-----END CERTIFICATE-----
