Certificate:
    Data:
        Version: 3 (0x2)
        Serial Number:
            c9:00:62:00:52:da:34:0b:91:e9:31:56:be:1b:77:74
        Signature Algorithm: sha256WithRSAEncryption
        Issuer: CN=team115-net
        Validity
            Not Before: Aug 14 14:24:37 2023 GMT
            Not After : Jul 29 14:24:37 2026 GMT
        Subject: CN=team115-client
        Subject Public Key Info:
            Public Key Algorithm: rsaEncryption
                RSA Public-Key: (2048 bit)
                Modulus:
                    00:e4:8b:e5:13:1f:cb:c2:57:8e:9d:69:1f:35:09:
                    3e:c3:8e:56:37:44:3e:6d:b5:8b:5b:75:a0:dc:76:
                    19:cc:21:94:3a:47:ba:f1:10:5c:97:fa:a6:ec:ef:
                    7f:a2:5e:5c:f5:df:85:cb:05:23:16:6b:d8:be:30:
                    9c:65:64:ed:f5:40:0d:cb:be:64:3e:26:1a:cd:4b:
                    70:74:85:63:07:26:af:c5:cf:a2:ee:21:81:23:2e:
                    04:e5:43:a5:eb:1d:1e:92:de:be:5f:4c:fb:48:e6:
                    e0:2a:17:98:59:32:a9:98:60:23:b7:99:aa:78:6d:
                    86:a1:cc:69:aa:75:67:60:78:5b:2e:ed:94:dd:30:
                    df:16:ed:2b:48:e7:48:bd:5b:fa:b7:44:d1:79:fb:
                    ed:08:47:92:35:e6:55:94:03:e6:f4:d9:61:da:a6:
                    d1:38:eb:3f:21:b4:d2:59:47:4b:f4:1a:16:c0:14:
                    44:67:db:b4:90:10:0f:25:53:0d:0a:83:e5:0c:0f:
                    c8:6d:d7:25:76:71:b7:c4:d8:c5:9e:aa:40:95:de:
                    77:8f:6f:8e:dc:e7:92:7b:25:e5:26:21:d6:c5:b1:
                    36:fa:17:72:3d:48:82:8b:87:33:82:41:98:d5:df:
                    21:c3:c5:5f:7c:cd:cf:d4:61:8b:4e:58:cd:2a:d9:
                    b3:13
                Exponent: 65537 (0x10001)
        X509v3 extensions:
            X509v3 Basic Constraints: 
                CA:FALSE
            X509v3 Subject Key Identifier: 
                49:BD:5A:67:A3:4A:D2:10:C4:FF:B9:70:F7:4C:74:3F:97:C0:68:ED
            X509v3 Authority Key Identifier: 
                keyid:3F:FB:CC:76:C7:7A:9F:C4:3F:57:B7:48:DD:08:E6:D5:4F:D5:78:12
                DirName:/CN=team115-net
                serial:74:C2:6B:30:97:96:75:FE:05:4F:C3:18:02:BE:42:2E:B7:0A:3E:6E

            X509v3 Extended Key Usage: 
                TLS Web Client Authentication
            X509v3 Key Usage: 
                Digital Signature
    Signature Algorithm: sha256WithRSAEncryption
         46:da:85:3c:ec:80:98:ef:da:db:00:58:7b:20:12:60:8d:92:
         1b:8a:7c:14:68:12:3f:3c:b8:2d:b0:60:8f:71:ec:51:7f:b3:
         b5:2c:4a:f4:99:3d:75:91:e7:f4:91:66:8d:a3:b8:d7:3b:f9:
         d8:e8:94:6b:de:75:47:6f:80:40:4c:5a:5f:62:f5:b8:d1:1c:
         8a:1b:d2:3b:9c:4c:1e:00:2f:2b:ac:73:3f:c1:31:cb:a9:2d:
         77:ca:8b:f0:3a:ee:2c:fe:66:71:b6:d0:a6:1f:d6:76:ca:69:
         a3:4e:4f:14:cf:2f:03:5c:08:ff:f7:b1:d0:42:1c:d4:20:c6:
         87:f0:91:a1:4c:e3:c8:d6:ab:f2:10:b8:9d:b4:b8:cd:63:61:
         f3:36:75:a8:3d:55:bb:0b:fa:42:56:62:3b:30:9a:fc:c1:50:
         51:0c:43:f4:7d:1d:be:37:c5:24:45:93:82:8b:63:32:55:0e:
         8b:ae:35:ab:b6:a0:7a:ad:02:88:91:2e:35:8e:9b:83:63:a0:
         10:75:1c:0c:c6:f4:05:20:02:75:a8:55:fe:42:40:54:e5:cf:
         40:7c:b7:7e:43:0a:aa:8a:c9:a2:43:ce:3f:8e:0b:9e:3a:36:
         82:a0:a3:5c:60:60:7c:e1:a5:58:66:6f:b1:3a:1b:1a:61:d0:
         24:51:dd:3e
-----BEGIN CERTIFICATE-----
MIIDXTCCAkWgAwIBAgIRAMkAYgBS2jQLkekxVr4bd3QwDQYJKoZIhvcNAQELBQAw
FjEUMBIGA1UEAwwLdGVhbTExNS1uZXQwHhcNMjMwODE0MTQyNDM3WhcNMjYwNzI5
MTQyNDM3WjAZMRcwFQYDVQQDDA50ZWFtMTE1LWNsaWVudDCCASIwDQYJKoZIhvcN
AQEBBQADggEPADCCAQoCggEBAOSL5RMfy8JXjp1pHzUJPsOOVjdEPm21i1t1oNx2
GcwhlDpHuvEQXJf6puzvf6JeXPXfhcsFIxZr2L4wnGVk7fVADcu+ZD4mGs1LcHSF
Ywcmr8XPou4hgSMuBOVDpesdHpLevl9M+0jm4CoXmFkyqZhgI7eZqnhthqHMaap1
Z2B4Wy7tlN0w3xbtK0jnSL1b+rdE0Xn77QhHkjXmVZQD5vTZYdqm0TjrPyG00llH
S/QaFsAURGfbtJAQDyVTDQqD5QwPyG3XJXZxt8TYxZ6qQJXed49vjtznknsl5SYh
1sWxNvoXcj1IgouHM4JBmNXfIcPFX3zNz9Rhi05YzSrZsxMCAwEAAaOBojCBnzAJ
BgNVHRMEAjAAMB0GA1UdDgQWBBRJvVpno0rSEMT/uXD3THQ/l8Bo7TBRBgNVHSME
SjBIgBQ/+8x2x3qfxD9Xt0jdCObVT9V4EqEapBgwFjEUMBIGA1UEAwwLdGVhbTEx
NS1uZXSCFHTCazCXlnX+BU/DGAK+Qi63Cj5uMBMGA1UdJQQMMAoGCCsGAQUFBwMC
MAsGA1UdDwQEAwIHgDANBgkqhkiG9w0BAQsFAAOCAQEARtqFPOyAmO/a2wBYeyAS
YI2SG4p8FGgSPzy4LbBgj3HsUX+ztSxK9Jk9dZHn9JFmjaO41zv52OiUa951R2+A
QExaX2L1uNEcihvSO5xMHgAvK6xzP8Exy6ktd8qL8DruLP5mcbbQph/Wdsppo05P
FM8vA1wI//ex0EIc1CDGh/CRoUzjyNar8hC4nbS4zWNh8zZ1qD1Vuwv6QlZiOzCa
/MFQUQxD9H0dvjfFJEWTgotjMlUOi641q7ageq0CiJEuNY6bg2OgEHUcDMb0BSAC
dahV/kJAVOXPQHy3fkMKqorJokPOP44Lnjo2gqCjXGBgfOGlWGZvsTobGmHQJFHd
Pg==
-----END CERTIFICATE-----
