Certificate:
    Data:
        Version: 3 (0x2)
        Serial Number:
            f3:c5:7f:88:76:07:bb:65:14:b4:93:af:fb:1b:31:35
        Signature Algorithm: sha256WithRSAEncryption
        Issuer: CN=team290-net
        Validity
            Not Before: Aug 14 14:28:12 2023 GMT
            Not After : Jul 29 14:28:12 2026 GMT
        Subject: CN=team290-client
        Subject Public Key Info:
            Public Key Algorithm: rsaEncryption
                RSA Public-Key: (2048 bit)
                Modulus:
                    00:f0:10:c1:fa:d0:62:fb:14:71:b6:db:f4:f6:b6:
                    80:20:db:ea:b4:06:c5:22:f1:34:b2:5c:49:9b:ec:
                    46:ba:f7:0c:bc:f5:fc:21:33:14:1e:d3:10:fc:12:
                    0a:ab:78:81:5b:40:66:5b:68:75:de:74:87:05:c9:
                    73:85:d8:55:d3:f4:e9:b8:65:09:d8:a0:95:ef:c7:
                    80:83:ee:36:87:4c:6f:b4:ae:dd:41:28:63:96:04:
                    2c:f9:6c:48:3d:5c:02:e5:e3:a9:c1:b8:20:fc:b3:
                    d4:11:9a:bc:8e:ad:a0:b0:d2:e3:96:28:92:ac:89:
                    c4:72:16:96:03:07:af:a8:4d:aa:82:cb:04:16:9b:
                    3d:f0:a9:c0:4b:9a:77:99:fd:81:59:61:26:dc:3f:
                    fb:6e:6d:f8:16:e0:90:c5:d2:97:fc:e6:0c:99:d5:
                    49:e3:ec:83:97:7b:16:f7:82:59:39:bf:3b:1b:88:
                    ff:a3:82:e1:25:da:da:20:84:aa:04:68:12:6b:fd:
                    42:3d:2b:83:57:18:cc:23:4c:e5:c1:6c:ca:68:0c:
                    19:21:2e:9f:14:cc:be:9a:4b:be:d1:48:40:c2:bf:
                    d4:9e:79:77:31:cc:81:1a:9a:38:86:4b:3b:9d:53:
                    2d:74:07:71:06:ef:4b:99:0a:6e:a1:d4:0c:c9:a6:
                    ce:d7
                Exponent: 65537 (0x10001)
        X509v3 extensions:
            X509v3 Basic Constraints: 
                CA:FALSE
            X509v3 Subject Key Identifier: 
                63:16:A9:61:27:32:F1:1F:11:EA:CE:E1:69:C3:3A:2C:FF:A7:67:71
            X509v3 Authority Key Identifier: 
                keyid:44:98:1E:0F:FB:19:4B:A8:BB:64:88:25:A0:54:C0:4F:28:E6:2A:74
                DirName:/CN=team290-net
                serial:4D:D7:2A:42:47:FE:1E:5D:92:02:54:A7:8E:00:3E:99:85:29:5C:93

            X509v3 Extended Key Usage: 
                TLS Web Client Authentication
            X509v3 Key Usage: 
                Digital Signature
    Signature Algorithm: sha256WithRSAEncryption
         1f:c8:a1:df:6f:33:35:ce:b9:84:96:20:67:9f:4a:76:d5:10:
         ee:26:14:8b:e3:8e:15:56:2f:37:83:15:15:ad:76:3d:3c:c9:
         92:cc:de:4b:ed:2b:6e:70:66:32:4a:39:66:64:9e:cc:e0:dd:
         1d:e7:ab:aa:e1:e4:33:f7:d9:2b:e6:8d:76:0f:26:5c:3c:75:
         4a:fa:be:dd:e2:ef:d9:85:c7:ee:66:57:a0:4a:b2:f7:5d:1c:
         f2:a1:41:79:eb:75:c6:a5:03:72:38:e7:d0:69:93:72:d6:9d:
         ef:1f:8d:46:6f:48:26:5c:91:bb:fe:a4:02:ba:de:d7:06:ed:
         98:07:04:6f:90:24:1d:30:95:4d:71:22:b9:f5:d7:d8:b8:84:
         16:30:27:4c:97:3d:5f:fc:68:de:d3:68:fe:58:59:27:04:e5:
         14:c4:fa:ed:d3:53:0e:cb:ed:ec:84:af:96:9a:d6:bf:64:a0:
         75:ac:a1:a7:f5:8b:da:6a:c4:ef:de:28:67:f8:08:7e:59:20:
         ef:03:78:39:a1:cf:6d:9c:85:d1:7a:ca:b6:83:28:c5:e9:04:
         a2:24:2b:74:a6:c7:c4:b5:89:59:49:7e:0e:67:f0:55:c8:e3:
         f3:c1:30:a1:84:35:eb:22:de:1e:31:31:0b:ac:c1:80:f6:da:
         69:86:b8:a1
-----BEGIN CERTIFICATE-----
MIIDXTCCAkWgAwIBAgIRAPPFf4h2B7tlFLSTr/sbMTUwDQYJKoZIhvcNAQELBQAw
FjEUMBIGA1UEAwwLdGVhbTI5MC1uZXQwHhcNMjMwODE0MTQyODEyWhcNMjYwNzI5
MTQyODEyWjAZMRcwFQYDVQQDDA50ZWFtMjkwLWNsaWVudDCCASIwDQYJKoZIhvcN
AQEBBQADggEPADCCAQoCggEBAPAQwfrQYvsUcbbb9Pa2gCDb6rQGxSLxNLJcSZvs
Rrr3DLz1/CEzFB7TEPwSCqt4gVtAZltodd50hwXJc4XYVdP06bhlCdigle/HgIPu
NodMb7Su3UEoY5YELPlsSD1cAuXjqcG4IPyz1BGavI6toLDS45YokqyJxHIWlgMH
r6hNqoLLBBabPfCpwEuad5n9gVlhJtw/+25t+BbgkMXSl/zmDJnVSePsg5d7FveC
WTm/OxuI/6OC4SXa2iCEqgRoEmv9Qj0rg1cYzCNM5cFsymgMGSEunxTMvppLvtFI
QMK/1J55dzHMgRqaOIZLO51TLXQHcQbvS5kKbqHUDMmmztcCAwEAAaOBojCBnzAJ
BgNVHRMEAjAAMB0GA1UdDgQWBBRjFqlhJzLxHxHqzuFpwzos/6dncTBRBgNVHSME
SjBIgBREmB4P+xlLqLtkiCWgVMBPKOYqdKEapBgwFjEUMBIGA1UEAwwLdGVhbTI5
MC1uZXSCFE3XKkJH/h5dkgJUp44APpmFKVyTMBMGA1UdJQQMMAoGCCsGAQUFBwMC
MAsGA1UdDwQEAwIHgDANBgkqhkiG9w0BAQsFAAOCAQEAH8ih328zNc65hJYgZ59K
dtUQ7iYUi+OOFVYvN4MVFa12PTzJkszeS+0rbnBmMko5ZmSezODdHeerquHkM/fZ
K+aNdg8mXDx1Svq+3eLv2YXH7mZXoEqy910c8qFBeet1xqUDcjjn0GmTctad7x+N
Rm9IJlyRu/6kArre1wbtmAcEb5AkHTCVTXEiufXX2LiEFjAnTJc9X/xo3tNo/lhZ
JwTlFMT67dNTDsvt7ISvlprWv2Sgdayhp/WL2mrE794oZ/gIflkg7wN4OaHPbZyF
0XrKtoMoxekEoiQrdKbHxLWJWUl+DmfwVcjj88EwoYQ16yLeHjExC6zBgPbaaYa4
oQ==
-----END CERTIFICATE-----
