Certificate:
    Data:
        Version: 3 (0x2)
        Serial Number:
            8c:00:e2:c2:7d:55:bd:ca:5a:a3:95:88:24:7e:36:67
        Signature Algorithm: sha256WithRSAEncryption
        Issuer: CN=team183-net
        Validity
            Not Before: Aug 14 14:26:01 2023 GMT
            Not After : Jul 29 14:26:01 2026 GMT
        Subject: CN=team183-client
        Subject Public Key Info:
            Public Key Algorithm: rsaEncryption
                RSA Public-Key: (2048 bit)
                Modulus:
                    00:bc:85:dc:fb:f0:a3:df:47:63:25:e3:9c:31:01:
                    8e:27:44:e9:da:58:57:a6:e0:5d:fd:a5:a8:22:45:
                    67:26:70:bb:39:4e:a3:a1:ec:8b:fb:ea:6b:17:b0:
                    fe:e6:9c:78:d4:97:ae:30:0e:b1:e8:06:4c:36:2b:
                    ac:18:d4:5b:1e:ef:ae:20:03:dd:b7:42:2f:22:ba:
                    9e:9f:bf:c9:b9:11:82:e9:f4:bc:ac:bc:00:d2:6a:
                    15:d1:83:3b:7d:19:25:8b:a4:96:4a:22:9c:db:8d:
                    88:98:41:1c:7d:48:b8:29:cf:19:56:a1:cd:df:62:
                    94:08:42:b5:6a:fb:af:3d:b7:68:93:3e:f1:81:41:
                    9e:d7:6a:50:30:14:ef:58:cb:4e:de:ec:32:43:a5:
                    66:ee:33:12:8f:89:34:4f:cc:86:4b:48:49:6c:ef:
                    a8:3f:2a:5c:15:a4:16:1a:f2:a2:e9:d7:34:71:1e:
                    99:d1:3a:6f:41:ba:24:88:0a:e7:8a:01:c8:a6:75:
                    5c:5f:55:9f:d2:ca:b5:c0:ba:98:b3:62:8d:bd:8f:
                    72:5d:af:33:17:87:02:f1:7e:80:f3:49:56:3b:17:
                    bc:83:0b:7b:3e:5d:c2:bf:45:18:bb:6e:c0:30:ba:
                    e8:cd:03:ee:ed:8a:76:7c:df:a2:39:0c:75:a7:9c:
                    5f:d1
                Exponent: 65537 (0x10001)
        X509v3 extensions:
            X509v3 Basic Constraints: 
                CA:FALSE
            X509v3 Subject Key Identifier: 
                2F:1E:DD:69:A8:B7:78:43:C1:4E:8F:0F:75:E5:3C:23:CA:FC:96:00
            X509v3 Authority Key Identifier: 
                keyid:6F:40:B2:B2:1D:3C:01:D3:C2:2B:70:FF:31:E8:D7:C3:FF:7D:24:60
                DirName:/CN=team183-net
                serial:17:C0:3B:E0:9F:E2:7A:D2:CB:58:A5:9D:A7:1F:F4:3C:12:E1:BB:36

            X509v3 Extended Key Usage: 
                TLS Web Client Authentication
            X509v3 Key Usage: 
                Digital Signature
    Signature Algorithm: sha256WithRSAEncryption
         54:29:ba:b9:1b:71:53:c1:87:85:b3:e3:7a:ca:22:65:a1:79:
         f2:aa:6f:64:cd:88:1a:62:7d:a6:68:e2:47:fe:bd:0b:44:dc:
         a9:c6:54:d9:d4:ae:06:87:1d:0d:96:4d:3b:7a:81:78:db:2e:
         8f:a2:3d:c4:ed:15:b4:81:46:24:5c:e6:6c:9d:0a:37:63:c3:
         1f:1f:1a:69:b8:fc:f9:fa:6f:72:fa:f6:e5:4b:24:f1:8d:4c:
         90:04:2d:42:33:20:98:a6:fc:e5:b3:9b:2f:53:04:15:f6:5a:
         7c:a6:12:ba:ee:8b:ad:c7:f2:d4:b4:95:7e:c1:a1:af:e1:36:
         64:e6:ec:18:ae:bc:c2:e0:29:8d:4f:d4:ac:1e:b1:64:73:e7:
         9e:65:42:22:6b:1c:3c:37:a8:14:9a:9d:c2:09:5c:6c:59:4e:
         97:af:6f:70:f7:24:6c:e0:fe:e5:83:28:2f:ee:47:62:03:85:
         a8:71:6a:dc:26:7d:c9:cc:19:cd:04:60:1c:f0:92:0d:99:de:
         66:10:dc:cf:bd:2d:49:f5:da:9b:ad:f5:dd:58:91:43:9f:01:
         94:4b:be:89:e1:71:ac:a9:d9:ae:bd:07:7a:2b:10:cf:93:c5:
         95:fc:45:9f:ba:69:a9:76:76:77:f1:cb:f0:87:60:cc:48:a0:
         d7:cd:1b:03
-----BEGIN CERTIFICATE-----
MIIDXTCCAkWgAwIBAgIRAIwA4sJ9Vb3KWqOViCR+NmcwDQYJKoZIhvcNAQELBQAw
FjEUMBIGA1UEAwwLdGVhbTE4My1uZXQwHhcNMjMwODE0MTQyNjAxWhcNMjYwNzI5
MTQyNjAxWjAZMRcwFQYDVQQDDA50ZWFtMTgzLWNsaWVudDCCASIwDQYJKoZIhvcN
AQEBBQADggEPADCCAQoCggEBALyF3Pvwo99HYyXjnDEBjidE6dpYV6bgXf2lqCJF
ZyZwuzlOo6Hsi/vqaxew/uaceNSXrjAOsegGTDYrrBjUWx7vriAD3bdCLyK6np+/
ybkRgun0vKy8ANJqFdGDO30ZJYuklkoinNuNiJhBHH1IuCnPGVahzd9ilAhCtWr7
rz23aJM+8YFBntdqUDAU71jLTt7sMkOlZu4zEo+JNE/MhktISWzvqD8qXBWkFhry
ounXNHEemdE6b0G6JIgK54oByKZ1XF9Vn9LKtcC6mLNijb2Pcl2vMxeHAvF+gPNJ
VjsXvIMLez5dwr9FGLtuwDC66M0D7u2KdnzfojkMdaecX9ECAwEAAaOBojCBnzAJ
BgNVHRMEAjAAMB0GA1UdDgQWBBQvHt1pqLd4Q8FOjw915TwjyvyWADBRBgNVHSME
SjBIgBRvQLKyHTwB08IrcP8x6NfD/30kYKEapBgwFjEUMBIGA1UEAwwLdGVhbTE4
My1uZXSCFBfAO+Cf4nrSy1ilnacf9DwS4bs2MBMGA1UdJQQMMAoGCCsGAQUFBwMC
MAsGA1UdDwQEAwIHgDANBgkqhkiG9w0BAQsFAAOCAQEAVCm6uRtxU8GHhbPjesoi
ZaF58qpvZM2IGmJ9pmjiR/69C0TcqcZU2dSuBocdDZZNO3qBeNsuj6I9xO0VtIFG
JFzmbJ0KN2PDHx8aabj8+fpvcvr25Usk8Y1MkAQtQjMgmKb85bObL1MEFfZafKYS
uu6Lrcfy1LSVfsGhr+E2ZObsGK68wuApjU/UrB6xZHPnnmVCImscPDeoFJqdwglc
bFlOl69vcPckbOD+5YMoL+5HYgOFqHFq3CZ9ycwZzQRgHPCSDZneZhDcz70tSfXa
m6313ViRQ58BlEu+ieFxrKnZrr0HeisQz5PFlfxFn7ppqXZ2d/HL8IdgzEig180b
Aw==
-----END CERTIFICATE-----
