Certificate:
    Data:
        Version: 3 (0x2)
        Serial Number:
            e0:5f:0f:bf:f4:e9:0d:30:a8:d6:fe:b8:e9:25:db:3f
        Signature Algorithm: sha256WithRSAEncryption
        Issuer: CN=team120-net
        Validity
            Not Before: Aug 14 14:24:44 2023 GMT
            Not After : Jul 29 14:24:44 2026 GMT
        Subject: CN=team120-client
        Subject Public Key Info:
            Public Key Algorithm: rsaEncryption
                RSA Public-Key: (2048 bit)
                Modulus:
                    00:e4:41:0a:ce:ad:db:9c:04:e2:b9:e3:b9:09:ae:
                    a9:4b:ca:54:eb:e1:13:ca:74:ab:8c:72:e5:4e:b5:
                    05:20:91:09:1a:0f:c8:dd:ee:fa:03:6e:3d:8d:64:
                    1d:54:1b:f8:f2:19:69:31:0c:98:91:fe:e5:51:00:
                    0a:5c:09:35:f5:57:8e:17:02:5d:53:27:b3:c2:06:
                    b1:a2:7a:28:34:a8:fb:44:1e:6b:e1:79:9a:66:63:
                    61:b3:51:3d:17:4a:0d:51:41:19:17:38:9e:c8:6a:
                    8f:3a:a2:43:51:67:2f:2c:4f:cd:b9:57:20:1a:1f:
                    01:8e:68:9f:2e:60:1f:66:ff:68:00:5b:65:83:be:
                    be:a9:ec:98:1e:a6:56:04:e6:31:a8:29:50:bd:22:
                    5f:ff:96:81:d1:64:1a:c8:eb:e2:3b:0f:6d:d0:81:
                    5f:80:96:a3:d4:f4:4d:9d:5f:c7:6a:7d:34:96:d0:
                    1f:5d:9c:da:8c:39:ee:b2:60:a7:ed:3a:f5:44:03:
                    8b:e9:12:69:6a:08:4f:ac:54:95:1b:ce:ab:95:f2:
                    32:2e:36:d9:c4:85:5f:aa:c5:eb:04:64:e4:40:ed:
                    29:76:67:82:ba:4d:6f:13:28:3a:f4:44:48:6d:1a:
                    1f:ae:93:6e:b3:7c:e7:4b:7f:be:bf:5c:92:ec:ae:
                    42:07
                Exponent: 65537 (0x10001)
        X509v3 extensions:
            X509v3 Basic Constraints: 
                CA:FALSE
            X509v3 Subject Key Identifier: 
                16:6A:32:D2:D3:A5:E3:73:4B:21:9C:BB:54:E5:58:05:DA:3B:EC:A3
            X509v3 Authority Key Identifier: 
                keyid:B5:F4:2C:F8:77:29:C4:6F:67:17:AC:D1:6D:F9:D2:CC:E5:B8:E7:42
                DirName:/CN=team120-net
                serial:50:A2:4C:F4:38:C4:C6:29:10:DB:F8:62:4E:C0:5F:B3:49:2E:AD:80

            X509v3 Extended Key Usage: 
                TLS Web Client Authentication
            X509v3 Key Usage: 
                Digital Signature
    Signature Algorithm: sha256WithRSAEncryption
         a5:6d:8a:2c:ed:cc:ed:de:62:80:b0:93:50:19:be:25:c2:9f:
         67:8b:20:04:8f:2d:34:82:17:aa:05:2e:b2:36:a7:30:30:0f:
         b3:b0:bd:91:8e:98:d9:9c:d0:1f:39:bc:14:1e:73:fc:c2:3b:
         d8:06:ea:c7:dc:f9:bc:ae:95:44:09:57:c9:33:27:0b:57:d3:
         d5:e9:f4:5a:0c:f0:c5:c1:3e:fc:b1:7c:17:69:e9:42:15:27:
         8a:81:da:f6:18:06:a4:8a:87:11:12:42:3e:15:7e:55:f3:e6:
         57:0b:b7:91:c1:53:ae:0d:48:cb:34:70:e3:12:26:4c:f3:ff:
         1f:c7:da:b1:b3:29:27:2a:5d:83:e5:88:6d:b3:09:d6:2e:57:
         32:62:2e:a5:54:c8:cf:f4:a3:f9:bd:4e:f4:be:57:9d:5c:f1:
         af:58:62:5a:dd:73:18:16:2c:48:b5:de:03:91:d2:e9:49:6c:
         0c:0c:8c:35:51:98:0b:6f:1c:c1:e2:23:53:9b:ea:78:f8:14:
         2f:74:52:52:77:ed:c6:e9:af:bf:5c:d8:e9:d7:c0:53:db:2d:
         38:97:d5:b7:62:a8:b8:ec:17:48:98:2d:37:27:df:96:7d:b3:
         08:c2:6e:cf:34:50:03:5b:99:7b:f5:de:1e:41:e2:6b:ea:c6:
         25:a8:6b:73
-----BEGIN CERTIFICATE-----
MIIDXTCCAkWgAwIBAgIRAOBfD7/06Q0wqNb+uOkl2z8wDQYJKoZIhvcNAQELBQAw
FjEUMBIGA1UEAwwLdGVhbTEyMC1uZXQwHhcNMjMwODE0MTQyNDQ0WhcNMjYwNzI5
MTQyNDQ0WjAZMRcwFQYDVQQDDA50ZWFtMTIwLWNsaWVudDCCASIwDQYJKoZIhvcN
AQEBBQADggEPADCCAQoCggEBAORBCs6t25wE4rnjuQmuqUvKVOvhE8p0q4xy5U61
BSCRCRoPyN3u+gNuPY1kHVQb+PIZaTEMmJH+5VEAClwJNfVXjhcCXVMns8IGsaJ6
KDSo+0Qea+F5mmZjYbNRPRdKDVFBGRc4nshqjzqiQ1FnLyxPzblXIBofAY5ony5g
H2b/aABbZYO+vqnsmB6mVgTmMagpUL0iX/+WgdFkGsjr4jsPbdCBX4CWo9T0TZ1f
x2p9NJbQH12c2ow57rJgp+069UQDi+kSaWoIT6xUlRvOq5XyMi422cSFX6rF6wRk
5EDtKXZngrpNbxMoOvRESG0aH66TbrN850t/vr9ckuyuQgcCAwEAAaOBojCBnzAJ
BgNVHRMEAjAAMB0GA1UdDgQWBBQWajLS06Xjc0shnLtU5VgF2jvsozBRBgNVHSME
SjBIgBS19Cz4dynEb2cXrNFt+dLM5bjnQqEapBgwFjEUMBIGA1UEAwwLdGVhbTEy
MC1uZXSCFFCiTPQ4xMYpENv4Yk7AX7NJLq2AMBMGA1UdJQQMMAoGCCsGAQUFBwMC
MAsGA1UdDwQEAwIHgDANBgkqhkiG9w0BAQsFAAOCAQEApW2KLO3M7d5igLCTUBm+
JcKfZ4sgBI8tNIIXqgUusjanMDAPs7C9kY6Y2ZzQHzm8FB5z/MI72Abqx9z5vK6V
RAlXyTMnC1fT1en0WgzwxcE+/LF8F2npQhUnioHa9hgGpIqHERJCPhV+VfPmVwu3
kcFTrg1IyzRw4xImTPP/H8fasbMpJypdg+WIbbMJ1i5XMmIupVTIz/Sj+b1O9L5X
nVzxr1hiWt1zGBYsSLXeA5HS6UlsDAyMNVGYC28cweIjU5vqePgUL3RSUnftxumv
v1zY6dfAU9stOJfVt2KouOwXSJgtNyffln2zCMJuzzRQA1uZe/XeHkHia+rGJahr
cw==
-----END CERTIFICATE-----
