Certificate:
    Data:
        Version: 3 (0x2)
        Serial Number:
            e7:f1:a8:2d:5e:71:f8:b8:32:c5:2e:60:27:00:89:29
        Signature Algorithm: sha256WithRSAEncryption
        Issuer: CN=team84-net
        Validity
            Not Before: Aug 14 14:23:56 2023 GMT
            Not After : Jul 29 14:23:56 2026 GMT
        Subject: CN=team84-server
        Subject Public Key Info:
            Public Key Algorithm: rsaEncryption
                RSA Public-Key: (2048 bit)
                Modulus:
                    00:ce:19:70:b1:38:10:f5:04:64:3b:ee:7b:19:9e:
                    17:89:6c:0d:fb:21:82:61:07:3f:8c:0d:48:73:1e:
                    9d:0e:e8:3d:5b:fa:1c:e8:38:d2:29:9d:33:91:c7:
                    b9:e9:81:98:6a:2c:a7:a7:98:c0:31:53:b3:be:29:
                    2c:7e:51:91:33:9f:c7:ff:5c:8c:45:66:35:6f:3c:
                    dd:dd:da:d5:2b:4c:39:c8:ca:9e:a6:8d:cb:a7:78:
                    73:b5:35:0c:6e:ae:7e:f6:8a:9d:18:37:f6:38:55:
                    99:41:54:3f:c6:07:05:4d:12:40:c4:75:35:9c:d8:
                    f6:1d:b1:81:3f:6a:1f:41:21:e7:1e:dc:68:fc:e7:
                    4e:86:d0:c8:88:f4:ad:00:15:3c:c6:cd:26:7f:6e:
                    f9:37:7d:6a:6e:79:37:b1:a1:21:cd:c4:45:e4:e6:
                    76:65:e8:f1:85:9b:48:99:4f:f6:4d:d2:0f:36:96:
                    0e:f9:a8:03:ff:80:1a:1f:df:bf:fa:3c:4c:61:61:
                    41:fe:13:b8:64:fe:a9:db:8b:f5:0c:b0:c3:a3:9f:
                    78:cb:bf:f2:f6:0f:a7:25:3c:5d:33:81:16:8a:bd:
                    b2:4c:09:25:bf:bb:f4:71:fa:b4:13:68:8f:32:36:
                    79:81:3f:89:9f:35:26:0e:d6:c4:dd:4f:f1:47:ab:
                    87:b5
                Exponent: 65537 (0x10001)
        X509v3 extensions:
            X509v3 Basic Constraints: 
                CA:FALSE
            X509v3 Subject Key Identifier: 
                BC:69:9C:8E:C1:0E:D7:57:8B:3A:65:01:18:F8:35:AD:FD:D2:6B:E7
            X509v3 Authority Key Identifier: 
                keyid:B4:34:ED:FD:0D:19:D3:B7:BD:1A:0B:03:BD:71:96:98:25:99:8E:E3
                DirName:/CN=team84-net
                serial:27:A6:C3:38:7D:39:E7:3C:C5:71:EC:CA:07:AE:F1:43:27:36:C9:3C

            X509v3 Extended Key Usage: 
                TLS Web Server Authentication
            X509v3 Key Usage: 
                Digital Signature, Key Encipherment
            X509v3 Subject Alternative Name: 
                DNS:team84-server
    Signature Algorithm: sha256WithRSAEncryption
         59:f8:48:1b:da:72:7a:c4:dc:23:d3:64:1e:36:42:fa:56:b9:
         84:a1:28:f0:21:8d:13:80:63:02:d4:87:43:d9:68:42:63:d1:
         ed:24:b7:48:f2:eb:fa:51:ae:53:82:9a:18:64:62:99:43:6c:
         cf:47:c8:bf:54:85:f9:89:d8:39:4e:8f:6a:9d:de:7a:c1:89:
         12:f4:b0:26:dc:b8:07:22:42:2e:db:2a:2c:4d:35:2b:42:c0:
         53:ef:30:39:c4:f6:46:d4:21:66:2e:78:ac:c8:a9:06:18:ce:
         2a:20:1e:a5:5b:74:26:2a:d7:f0:07:14:dc:4d:5e:4b:dd:07:
         be:28:2b:34:2f:b9:8e:4d:9d:16:72:c4:99:e4:ae:2e:08:b3:
         2f:0b:6a:8f:c6:5e:f9:87:1f:a4:3c:87:5e:96:96:7c:e1:b7:
         be:c4:94:bd:e9:a4:7d:c4:b2:db:02:59:71:66:4b:1d:2e:aa:
         ce:f0:f9:56:95:f1:3b:40:15:53:9c:4a:33:30:1c:2f:6c:99:
         40:a1:ee:b9:8e:71:25:c6:94:bb:b4:99:c5:d6:bd:a6:6d:6a:
         9e:77:90:dd:5d:fb:1c:08:e1:91:cd:c6:07:30:f9:9f:1f:01:
         f6:fa:5f:e3:df:5f:d2:59:7f:ee:a8:7f:cc:2d:f4:fc:ea:2c:
         17:9d:11:9d
-----BEGIN CERTIFICATE-----
MIIDdDCCAlygAwIBAgIRAOfxqC1ecfi4MsUuYCcAiSkwDQYJKoZIhvcNAQELBQAw
FTETMBEGA1UEAwwKdGVhbTg0LW5ldDAeFw0yMzA4MTQxNDIzNTZaFw0yNjA3Mjkx
NDIzNTZaMBgxFjAUBgNVBAMMDXRlYW04NC1zZXJ2ZXIwggEiMA0GCSqGSIb3DQEB
AQUAA4IBDwAwggEKAoIBAQDOGXCxOBD1BGQ77nsZnheJbA37IYJhBz+MDUhzHp0O
6D1b+hzoONIpnTORx7npgZhqLKenmMAxU7O+KSx+UZEzn8f/XIxFZjVvPN3d2tUr
TDnIyp6mjcuneHO1NQxurn72ip0YN/Y4VZlBVD/GBwVNEkDEdTWc2PYdsYE/ah9B
Iece3Gj8506G0MiI9K0AFTzGzSZ/bvk3fWpueTexoSHNxEXk5nZl6PGFm0iZT/ZN
0g82lg75qAP/gBof37/6PExhYUH+E7hk/qnbi/UMsMOjn3jLv/L2D6clPF0zgRaK
vbJMCSW/u/Rx+rQTaI8yNnmBP4mfNSYO1sTdT/FHq4e1AgMBAAGjgbswgbgwCQYD
VR0TBAIwADAdBgNVHQ4EFgQUvGmcjsEO11eLOmUBGPg1rf3Sa+cwUAYDVR0jBEkw
R4AUtDTt/Q0Z07e9GgsDvXGWmCWZjuOhGaQXMBUxEzARBgNVBAMMCnRlYW04NC1u
ZXSCFCemwzh9Oec8xXHsygeu8UMnNsk8MBMGA1UdJQQMMAoGCCsGAQUFBwMBMAsG
A1UdDwQEAwIFoDAYBgNVHREEETAPgg10ZWFtODQtc2VydmVyMA0GCSqGSIb3DQEB
CwUAA4IBAQBZ+Egb2nJ6xNwj02QeNkL6VrmEoSjwIY0TgGMC1IdD2WhCY9HtJLdI
8uv6Ua5TgpoYZGKZQ2zPR8i/VIX5idg5To9qnd56wYkS9LAm3LgHIkIu2yosTTUr
QsBT7zA5xPZG1CFmLnisyKkGGM4qIB6lW3QmKtfwBxTcTV5L3Qe+KCs0L7mOTZ0W
csSZ5K4uCLMvC2qPxl75hx+kPIdelpZ84be+xJS96aR9xLLbAllxZksdLqrO8PlW
lfE7QBVTnEozMBwvbJlAoe65jnElxpS7tJnF1r2mbWqed5DdXfscCOGRzcYHMPmf
HwH2+l/j31/SWX/uqH/MLfT86iwXnRGd
-----END CERTIFICATE-----
