Certificate:
    Data:
        Version: 3 (0x2)
        Serial Number:
            58:22:21:a4:fe:34:05:32:bc:ab:c9:23:3e:12:88:b6
        Signature Algorithm: sha256WithRSAEncryption
        Issuer: CN=team251-net
        Validity
            Not Before: Aug 14 14:27:21 2023 GMT
            Not After : Jul 29 14:27:21 2026 GMT
        Subject: CN=team251-client
        Subject Public Key Info:
            Public Key Algorithm: rsaEncryption
                RSA Public-Key: (2048 bit)
                Modulus:
                    00:cd:7e:96:bb:63:67:74:8f:93:43:6f:b6:29:d9:
                    16:e7:9d:b4:62:f5:ec:ae:f5:19:c7:25:f1:3a:27:
                    27:31:f2:2a:bf:d7:87:6d:4d:a5:01:26:e1:a8:0c:
                    46:6b:bb:27:15:dd:8e:12:29:eb:c1:4b:01:39:df:
                    fc:72:a2:63:59:88:f5:0f:02:1b:1f:09:b8:59:05:
                    b2:1e:aa:fe:47:99:b6:6a:30:7b:34:00:1d:36:20:
                    45:54:e8:b8:67:9d:73:c5:c4:9a:f8:21:a3:6e:76:
                    51:a4:77:46:eb:27:22:97:20:aa:63:41:ed:c9:05:
                    cb:1e:e9:33:b2:0b:f2:ef:b8:1f:5c:de:55:57:1b:
                    95:4d:82:8b:67:8c:29:24:61:de:e7:5c:bd:6b:2f:
                    41:98:a2:f5:b6:c5:9d:cf:2d:81:a1:74:77:91:61:
                    ae:83:85:0a:49:c1:fe:0a:0f:de:bd:92:4c:e2:a7:
                    2d:0d:89:df:1f:6f:d0:f3:30:76:f4:fd:a2:8a:2d:
                    f9:9d:12:55:02:06:6f:7f:fd:f2:a3:74:33:4c:80:
                    d8:6d:43:90:ee:2a:82:c3:8d:19:8f:77:b9:73:d8:
                    7a:26:79:2a:66:1e:17:d9:e5:55:76:b9:ee:79:85:
                    8d:8c:04:0d:59:81:ca:d4:80:65:38:c7:de:5a:45:
                    65:d5
                Exponent: 65537 (0x10001)
        X509v3 extensions:
            X509v3 Basic Constraints: 
                CA:FALSE
            X509v3 Subject Key Identifier: 
                05:D3:26:97:97:F8:9B:10:16:72:4C:53:DE:93:BD:97:62:74:26:AC
            X509v3 Authority Key Identifier: 
                keyid:62:53:D2:C5:6E:0E:8E:B4:F2:62:7B:00:A0:D8:1A:2F:5E:32:55:E0
                DirName:/CN=team251-net
                serial:26:BD:BA:99:A3:CD:E3:51:54:2C:4B:A1:46:EF:D6:28:59:9C:16:0D

            X509v3 Extended Key Usage: 
                TLS Web Client Authentication
            X509v3 Key Usage: 
                Digital Signature
    Signature Algorithm: sha256WithRSAEncryption
         ba:a0:6a:7c:a2:23:c0:ad:60:9e:f7:a7:a8:da:b9:f6:3e:fc:
         17:a7:c2:94:9c:b0:3c:1e:73:f3:42:50:15:28:f7:2c:c6:ae:
         63:fe:0c:ed:eb:40:8b:0f:16:e6:36:2f:a8:63:36:4e:6e:be:
         6e:1f:f6:60:e8:2a:80:a2:ef:ce:7d:b5:7c:38:48:c0:be:93:
         38:f9:11:07:1e:62:92:86:32:e8:7b:ce:72:95:2a:07:e6:eb:
         8d:df:c5:bb:d9:83:e4:1a:96:f5:69:7e:59:d4:65:dd:2b:0b:
         25:ae:60:63:61:bc:a0:75:58:8d:b0:52:91:53:f2:58:04:c0:
         03:09:d4:d8:0a:88:91:c7:7d:03:03:3b:da:c4:a5:b1:5a:35:
         cb:62:22:79:09:75:c6:d7:52:50:72:08:9f:d8:7e:6b:7b:84:
         23:45:3d:d4:59:19:25:f8:c8:a4:56:c8:ba:8f:3e:c2:2a:30:
         25:ec:2d:26:8a:1f:ad:78:b4:5f:a9:2a:59:13:83:e5:cf:b9:
         3d:a8:72:a5:c6:ed:ad:7a:59:9b:72:77:0a:c2:55:e0:42:45:
         46:4e:d1:10:b0:95:b4:1e:d1:f2:51:f9:3c:31:f6:e3:bd:ef:
         3e:68:06:08:0d:cd:06:38:8d:eb:a3:7a:55:7a:84:19:ed:fb:
         72:df:74:9d
-----BEGIN CERTIFICATE-----
MIIDXDCCAkSgAwIBAgIQWCIhpP40BTK8q8kjPhKItjANBgkqhkiG9w0BAQsFADAW
MRQwEgYDVQQDDAt0ZWFtMjUxLW5ldDAeFw0yMzA4MTQxNDI3MjFaFw0yNjA3Mjkx
NDI3MjFaMBkxFzAVBgNVBAMMDnRlYW0yNTEtY2xpZW50MIIBIjANBgkqhkiG9w0B
AQEFAAOCAQ8AMIIBCgKCAQEAzX6Wu2NndI+TQ2+2KdkW5520YvXsrvUZxyXxOicn
MfIqv9eHbU2lASbhqAxGa7snFd2OEinrwUsBOd/8cqJjWYj1DwIbHwm4WQWyHqr+
R5m2ajB7NAAdNiBFVOi4Z51zxcSa+CGjbnZRpHdG6ycilyCqY0HtyQXLHukzsgvy
77gfXN5VVxuVTYKLZ4wpJGHe51y9ay9BmKL1tsWdzy2BoXR3kWGug4UKScH+Cg/e
vZJM4qctDYnfH2/Q8zB29P2iii35nRJVAgZvf/3yo3QzTIDYbUOQ7iqCw40Zj3e5
c9h6JnkqZh4X2eVVdrnueYWNjAQNWYHK1IBlOMfeWkVl1QIDAQABo4GiMIGfMAkG
A1UdEwQCMAAwHQYDVR0OBBYEFAXTJpeX+JsQFnJMU96TvZdidCasMFEGA1UdIwRK
MEiAFGJT0sVuDo608mJ7AKDYGi9eMlXgoRqkGDAWMRQwEgYDVQQDDAt0ZWFtMjUx
LW5ldIIUJr26maPN41FULEuhRu/WKFmcFg0wEwYDVR0lBAwwCgYIKwYBBQUHAwIw
CwYDVR0PBAQDAgeAMA0GCSqGSIb3DQEBCwUAA4IBAQC6oGp8oiPArWCe96eo2rn2
PvwXp8KUnLA8HnPzQlAVKPcsxq5j/gzt60CLDxbmNi+oYzZObr5uH/Zg6CqAou/O
fbV8OEjAvpM4+REHHmKShjLoe85ylSoH5uuN38W72YPkGpb1aX5Z1GXdKwslrmBj
YbygdViNsFKRU/JYBMADCdTYCoiRx30DAzvaxKWxWjXLYiJ5CXXG11JQcgif2H5r
e4QjRT3UWRkl+MikVsi6jz7CKjAl7C0mih+teLRfqSpZE4Plz7k9qHKlxu2telmb
cncKwlXgQkVGTtEQsJW0HtHyUfk8Mfbjve8+aAYIDc0GOI3ro3pVeoQZ7fty33Sd
-----END CERTIFICATE-----
