Certificate:
    Data:
        Version: 3 (0x2)
        Serial Number:
            30:28:70:76:de:dc:7b:c0:4b:7b:0b:95:a4:98:eb:6f
        Signature Algorithm: sha256WithRSAEncryption
        Issuer: CN=team141-net
        Validity
            Not Before: Aug 14 14:25:10 2023 GMT
            Not After : Jul 29 14:25:10 2026 GMT
        Subject: CN=team141-client
        Subject Public Key Info:
            Public Key Algorithm: rsaEncryption
                RSA Public-Key: (2048 bit)
                Modulus:
                    00:b7:12:c0:fc:46:3a:75:4a:42:02:84:35:a9:00:
                    5e:d3:c2:de:d2:ac:05:44:bc:32:bb:a5:3e:88:71:
                    ee:ac:e5:e0:ac:aa:f7:8e:32:97:02:22:72:8b:24:
                    0a:b5:12:56:82:db:9b:09:95:3d:58:72:b2:3f:85:
                    5e:8d:0f:8e:87:a6:c1:28:e2:c1:e1:66:9f:89:9e:
                    33:fb:98:25:b6:63:b2:42:f9:f1:bc:09:5b:46:58:
                    fd:f3:24:4f:46:b2:96:cf:a8:35:05:4f:65:7e:03:
                    ff:33:88:3d:42:9c:78:85:28:45:65:e8:b5:08:ca:
                    54:83:21:a2:2c:e3:b0:d8:d8:e5:01:36:f4:18:eb:
                    64:39:fe:5e:aa:cf:45:06:5e:df:19:01:5f:ce:44:
                    29:21:7f:e7:76:f7:02:25:1a:49:2c:78:d5:cf:4f:
                    bc:3e:7f:fb:67:44:83:62:b1:33:88:96:68:23:3c:
                    fd:7d:3f:a2:e3:e7:78:67:74:08:85:20:d3:81:8e:
                    dd:1e:15:3e:99:ba:31:5a:ec:4d:c7:a5:10:6c:3e:
                    ac:5b:d7:5c:81:c6:66:30:68:2a:25:7a:59:d2:0f:
                    a4:2a:68:e4:2b:d0:ff:92:5d:95:81:19:fb:51:5a:
                    af:37:b0:84:9f:16:08:7f:2e:e4:b6:e8:26:c0:d3:
                    ca:39
                Exponent: 65537 (0x10001)
        X509v3 extensions:
            X509v3 Basic Constraints: 
                CA:FALSE
            X509v3 Subject Key Identifier: 
                08:BF:BB:14:C4:71:DC:91:DE:FB:00:77:92:ED:F2:53:53:FF:59:A7
            X509v3 Authority Key Identifier: 
                keyid:8D:2E:99:88:35:A4:2F:A1:0E:9A:9C:9B:00:F3:5C:17:C2:94:99:2F
                DirName:/CN=team141-net
                serial:7C:00:91:B8:44:AB:FC:DA:06:8E:70:A3:86:C8:79:06:75:3E:6E:C6

            X509v3 Extended Key Usage: 
                TLS Web Client Authentication
            X509v3 Key Usage: 
                Digital Signature
    Signature Algorithm: sha256WithRSAEncryption
         09:17:bd:73:55:33:6e:0a:22:d8:a1:5f:24:fd:e7:76:c3:35:
         5c:f8:7b:94:59:57:9d:d6:f2:04:26:59:12:8b:f6:af:d3:0c:
         c8:ac:1b:c9:32:9d:19:79:35:d7:d2:b1:47:bd:dd:28:ba:6a:
         9e:64:5c:bc:87:60:3a:ae:a9:57:17:fa:61:8b:cb:8f:5a:fb:
         8f:d7:4a:37:05:e3:c9:43:45:3a:84:41:6b:0a:4a:95:b7:7a:
         65:ad:4a:0b:b5:a3:65:bd:b4:5f:66:9f:17:1f:c2:c7:6a:6a:
         a1:f5:db:2c:cf:80:46:58:e8:63:86:cb:83:3a:87:d1:49:02:
         34:59:60:8e:81:ed:9f:a9:d9:fd:d4:57:e8:ee:2d:77:f7:c6:
         33:c7:d6:38:d4:b8:2c:6d:82:00:4b:0b:92:c8:79:f0:75:9d:
         c0:44:fa:62:8c:ce:5b:9a:a5:0f:7d:b7:40:c1:42:3f:4f:87:
         b9:0d:34:c9:67:b0:66:db:2b:34:a6:a0:5c:04:2b:6d:fc:bc:
         9a:e4:ba:fa:d1:f2:9c:ed:15:e8:3d:9e:82:51:b8:4f:44:0f:
         12:db:cd:e4:4f:8b:e7:89:09:d0:0f:c0:ae:d2:e6:bb:58:c9:
         f6:e1:bc:c6:64:8e:6d:30:99:38:21:5f:9e:d2:41:d9:0c:06:
         93:58:2f:ea
-----BEGIN CERTIFICATE-----
MIIDXDCCAkSgAwIBAgIQMChwdt7ce8BLewuVpJjrbzANBgkqhkiG9w0BAQsFADAW
MRQwEgYDVQQDDAt0ZWFtMTQxLW5ldDAeFw0yMzA4MTQxNDI1MTBaFw0yNjA3Mjkx
NDI1MTBaMBkxFzAVBgNVBAMMDnRlYW0xNDEtY2xpZW50MIIBIjANBgkqhkiG9w0B
AQEFAAOCAQ8AMIIBCgKCAQEAtxLA/EY6dUpCAoQ1qQBe08Le0qwFRLwyu6U+iHHu
rOXgrKr3jjKXAiJyiyQKtRJWgtubCZU9WHKyP4VejQ+Oh6bBKOLB4WafiZ4z+5gl
tmOyQvnxvAlbRlj98yRPRrKWz6g1BU9lfgP/M4g9Qpx4hShFZei1CMpUgyGiLOOw
2NjlATb0GOtkOf5eqs9FBl7fGQFfzkQpIX/ndvcCJRpJLHjVz0+8Pn/7Z0SDYrEz
iJZoIzz9fT+i4+d4Z3QIhSDTgY7dHhU+mboxWuxNx6UQbD6sW9dcgcZmMGgqJXpZ
0g+kKmjkK9D/kl2VgRn7UVqvN7CEnxYIfy7ktugmwNPKOQIDAQABo4GiMIGfMAkG
A1UdEwQCMAAwHQYDVR0OBBYEFAi/uxTEcdyR3vsAd5Lt8lNT/1mnMFEGA1UdIwRK
MEiAFI0umYg1pC+hDpqcmwDzXBfClJkvoRqkGDAWMRQwEgYDVQQDDAt0ZWFtMTQx
LW5ldIIUfACRuESr/NoGjnCjhsh5BnU+bsYwEwYDVR0lBAwwCgYIKwYBBQUHAwIw
CwYDVR0PBAQDAgeAMA0GCSqGSIb3DQEBCwUAA4IBAQAJF71zVTNuCiLYoV8k/ed2
wzVc+HuUWVed1vIEJlkSi/av0wzIrBvJMp0ZeTXX0rFHvd0oumqeZFy8h2A6rqlX
F/phi8uPWvuP10o3BePJQ0U6hEFrCkqVt3plrUoLtaNlvbRfZp8XH8LHamqh9dss
z4BGWOhjhsuDOofRSQI0WWCOge2fqdn91Ffo7i1398Yzx9Y41LgsbYIASwuSyHnw
dZ3ARPpijM5bmqUPfbdAwUI/T4e5DTTJZ7Bm2ys0pqBcBCtt/Lya5Lr60fKc7RXo
PZ6CUbhPRA8S283kT4vniQnQD8Cu0ua7WMn24bzGZI5tMJk4IV+e0kHZDAaTWC/q
-----END CERTIFICATE-----
