Certificate:
    Data:
        Version: 3 (0x2)
        Serial Number:
            35:ab:84:d4:33:40:05:42:18:23:31:28:0f:33:2d:90
        Signature Algorithm: sha256WithRSAEncryption
        Issuer: CN=team88-net
        Validity
            Not Before: Aug 14 14:24:01 2023 GMT
            Not After : Jul 29 14:24:01 2026 GMT
        Subject: CN=team88-server
        Subject Public Key Info:
            Public Key Algorithm: rsaEncryption
                RSA Public-Key: (2048 bit)
                Modulus:
                    00:a1:8a:5e:0a:23:68:4f:31:fa:85:e8:36:47:39:
                    33:8f:71:1f:f8:90:71:18:47:24:59:f2:f5:5c:eb:
                    60:37:c0:36:a6:8c:38:4e:ec:5f:15:08:38:27:7c:
                    a5:41:5d:fe:2a:15:32:df:f1:15:e7:20:ae:2a:17:
                    e9:7c:5d:a1:94:41:06:9d:76:5e:f0:7e:e2:21:64:
                    12:95:ed:7e:15:c9:ae:03:93:75:20:36:aa:4a:ca:
                    c5:fc:6c:66:17:f4:e9:04:7e:52:43:56:1f:9d:bc:
                    c2:d0:1b:5b:9e:f1:f4:a2:7c:02:bb:9a:12:07:e2:
                    bb:34:2e:74:6a:65:4e:d2:25:95:87:e6:a7:29:cd:
                    f2:b0:2d:30:3c:7f:56:1b:2b:6d:f7:eb:41:fd:1c:
                    90:5c:f7:b7:7f:75:2e:0a:68:06:51:04:3a:43:b8:
                    92:3e:31:e1:d4:13:0e:98:53:34:3f:10:ec:ce:db:
                    b8:9d:f7:ed:62:49:ec:fa:38:10:7f:45:a5:73:ef:
                    79:f9:9b:15:10:02:e0:96:5a:df:8b:9d:16:74:43:
                    fa:42:49:bf:7a:9b:5a:d4:c2:44:49:77:b3:8e:39:
                    76:18:26:41:25:e0:31:9f:42:ac:b1:ac:df:c5:40:
                    29:a1:e2:6e:91:d7:e0:09:a4:f9:14:4f:ef:3a:7d:
                    d3:33
                Exponent: 65537 (0x10001)
        X509v3 extensions:
            X509v3 Basic Constraints: 
                CA:FALSE
            X509v3 Subject Key Identifier: 
                4D:01:51:D6:AC:69:10:15:F4:7E:16:D0:14:AF:BD:1C:D8:40:5B:60
            X509v3 Authority Key Identifier: 
                keyid:F5:9B:91:6D:D0:AD:E7:72:B5:BB:38:B5:65:57:75:92:01:49:30:5A
                DirName:/CN=team88-net
                serial:45:56:29:57:37:72:39:E5:CC:22:3A:EC:B2:7A:AF:79:63:DD:E3:7F

            X509v3 Extended Key Usage: 
                TLS Web Server Authentication
            X509v3 Key Usage: 
                Digital Signature, Key Encipherment
            X509v3 Subject Alternative Name: 
                DNS:team88-server
    Signature Algorithm: sha256WithRSAEncryption
         23:0c:a9:eb:b7:4c:d5:cb:f1:9d:ad:67:a8:e4:0d:44:da:89:
         63:f9:bd:13:aa:8d:89:86:1f:09:b0:00:a8:d6:9a:20:fe:13:
         22:6a:15:ef:20:72:bc:48:57:c8:6d:b4:b0:01:c5:ba:0f:82:
         bc:e8:8a:64:fa:93:64:33:c2:d6:92:7c:0e:ed:5d:ec:1e:cf:
         f1:d3:74:6c:c0:e6:c7:81:56:48:9d:92:3f:91:d8:27:fc:a0:
         1e:9a:de:a1:38:70:70:20:79:87:ff:59:e7:07:16:1a:67:9f:
         b8:e6:67:0c:b6:32:5d:bd:a6:b4:86:d9:97:31:bb:5b:84:39:
         77:63:88:d1:fc:bc:18:c1:02:0c:d0:51:ea:c8:21:d6:70:ef:
         af:99:65:08:a4:42:5a:ce:e6:b4:ad:2c:54:74:f6:0f:ec:36:
         7c:27:07:9d:c5:e8:4d:90:c4:3e:dd:65:27:4f:0c:66:f8:58:
         e6:6d:92:a3:6b:32:0d:c2:10:56:70:69:6d:ff:09:49:af:53:
         36:03:5b:cd:26:67:94:16:9b:ec:e7:ee:c5:9b:d3:12:6c:59:
         db:04:e4:42:87:03:0e:8c:70:88:31:5b:f7:f9:31:2c:f1:98:
         44:24:e5:04:e0:ee:35:e4:28:3b:45:31:fd:87:1d:71:42:47:
         d4:3a:b0:c2
-----BEGIN CERTIFICATE-----
MIIDczCCAlugAwIBAgIQNauE1DNABUIYIzEoDzMtkDANBgkqhkiG9w0BAQsFADAV
MRMwEQYDVQQDDAp0ZWFtODgtbmV0MB4XDTIzMDgxNDE0MjQwMVoXDTI2MDcyOTE0
MjQwMVowGDEWMBQGA1UEAwwNdGVhbTg4LXNlcnZlcjCCASIwDQYJKoZIhvcNAQEB
BQADggEPADCCAQoCggEBAKGKXgojaE8x+oXoNkc5M49xH/iQcRhHJFny9VzrYDfA
NqaMOE7sXxUIOCd8pUFd/ioVMt/xFecgrioX6XxdoZRBBp12XvB+4iFkEpXtfhXJ
rgOTdSA2qkrKxfxsZhf06QR+UkNWH528wtAbW57x9KJ8AruaEgfiuzQudGplTtIl
lYfmpynN8rAtMDx/VhsrbffrQf0ckFz3t391LgpoBlEEOkO4kj4x4dQTDphTND8Q
7M7buJ337WJJ7Po4EH9FpXPvefmbFRAC4JZa34udFnRD+kJJv3qbWtTCREl3s445
dhgmQSXgMZ9CrLGs38VAKaHibpHX4Amk+RRP7zp90zMCAwEAAaOBuzCBuDAJBgNV
HRMEAjAAMB0GA1UdDgQWBBRNAVHWrGkQFfR+FtAUr70c2EBbYDBQBgNVHSMESTBH
gBT1m5Ft0K3ncrW7OLVlV3WSAUkwWqEZpBcwFTETMBEGA1UEAwwKdGVhbTg4LW5l
dIIURVYpVzdyOeXMIjrssnqveWPd438wEwYDVR0lBAwwCgYIKwYBBQUHAwEwCwYD
VR0PBAQDAgWgMBgGA1UdEQQRMA+CDXRlYW04OC1zZXJ2ZXIwDQYJKoZIhvcNAQEL
BQADggEBACMMqeu3TNXL8Z2tZ6jkDUTaiWP5vROqjYmGHwmwAKjWmiD+EyJqFe8g
crxIV8httLABxboPgrzoimT6k2QzwtaSfA7tXewez/HTdGzA5seBVkidkj+R2Cf8
oB6a3qE4cHAgeYf/WecHFhpnn7jmZwy2Ml29prSG2Zcxu1uEOXdjiNH8vBjBAgzQ
UerIIdZw76+ZZQikQlrO5rStLFR09g/sNnwnB53F6E2QxD7dZSdPDGb4WOZtkqNr
Mg3CEFZwaW3/CUmvUzYDW80mZ5QWm+zn7sWb0xJsWdsE5EKHAw6McIgxW/f5MSzx
mEQk5QTg7jXkKDtFMf2HHXFCR9Q6sMI=
-----END CERTIFICATE-----
