Certificate:
    Data:
        Version: 3 (0x2)
        Serial Number:
            5e:81:2c:30:7e:00:2a:d8:43:42:3b:02:55:03:bf:85
        Signature Algorithm: sha256WithRSAEncryption
        Issuer: CN=team288-net
        Validity
            Not Before: Aug 14 14:28:10 2023 GMT
            Not After : Jul 29 14:28:10 2026 GMT
        Subject: CN=team288-server
        Subject Public Key Info:
            Public Key Algorithm: rsaEncryption
                RSA Public-Key: (2048 bit)
                Modulus:
                    00:bc:8a:4f:41:30:94:e0:df:e1:98:7c:30:a4:92:
                    49:88:79:35:15:d5:cf:82:30:2e:ab:74:db:e8:51:
                    4c:86:c0:37:5e:24:87:02:2e:ae:e8:81:fb:4b:8f:
                    82:8d:5b:d7:85:81:d4:fb:1b:f0:2a:f5:c2:07:62:
                    b7:1a:67:24:09:12:05:ac:b5:d0:f2:b3:40:23:e2:
                    d3:d7:38:b5:0a:e6:6c:0b:45:1c:84:f0:0d:15:43:
                    0f:c5:77:55:85:d0:64:65:69:47:07:eb:3b:b7:d2:
                    35:1c:47:46:c8:62:07:1f:72:f8:ee:87:08:c2:18:
                    27:07:e9:13:f5:36:fc:89:8e:2d:d6:75:be:47:28:
                    eb:95:c8:ae:25:29:df:6d:74:ac:a1:55:b4:2a:60:
                    1c:50:12:be:f4:13:cc:ee:b7:33:0f:f9:6e:33:1a:
                    2a:3e:da:e0:ee:bb:ce:1b:b1:b9:ad:db:6e:c5:0f:
                    7e:15:39:04:f3:70:d4:e0:0a:9d:49:64:06:90:3b:
                    ef:d5:97:0d:6a:de:e1:81:96:c2:3a:08:62:39:a5:
                    48:20:eb:f0:3a:68:70:3f:df:78:58:6f:6e:6b:65:
                    8f:27:1d:ce:0e:c8:03:62:4a:9d:9d:45:8f:c6:66:
                    0c:d8:eb:aa:5b:96:46:c7:61:08:77:7a:39:32:25:
                    43:45
                Exponent: 65537 (0x10001)
        X509v3 extensions:
            X509v3 Basic Constraints: 
                CA:FALSE
            X509v3 Subject Key Identifier: 
                06:99:C7:88:FF:E2:85:32:D2:D9:1F:4B:7E:0E:D4:E3:33:20:12:73
            X509v3 Authority Key Identifier: 
                keyid:9F:00:4C:FD:C0:10:0D:97:60:A8:E6:E8:13:0F:88:0D:F4:FA:C3:11
                DirName:/CN=team288-net
                serial:6C:13:5E:32:82:07:FC:FA:9E:C4:C3:4E:A6:45:7C:6B:32:49:9B:5B

            X509v3 Extended Key Usage: 
                TLS Web Server Authentication
            X509v3 Key Usage: 
                Digital Signature, Key Encipherment
            X509v3 Subject Alternative Name: 
                DNS:team288-server
    Signature Algorithm: sha256WithRSAEncryption
         9f:91:f8:0e:cd:a1:8d:e6:c4:4a:af:7a:53:02:53:cc:5b:e7:
         e4:46:15:6d:df:99:90:42:07:21:ea:77:67:30:34:2e:ca:88:
         2c:81:e6:4a:11:16:7d:07:60:01:7b:02:f2:b0:e5:9c:91:ab:
         c6:3d:e0:6e:b9:af:75:fb:34:89:4d:03:c8:79:da:ab:58:83:
         d3:2d:88:e6:a2:35:ca:98:33:2d:2a:37:7f:6b:e9:2f:90:6a:
         e2:03:fe:21:b7:d1:a2:9d:6d:a8:94:fe:8f:44:54:ff:40:89:
         bd:14:3b:e3:7a:a9:75:17:ad:a3:35:b7:6f:be:52:51:9a:0a:
         cc:28:32:d0:f6:c0:62:18:23:db:af:61:0a:ae:d9:37:08:b8:
         31:3b:02:99:75:03:b2:5d:48:b7:11:2a:f1:e0:ea:42:f9:c3:
         3f:91:d7:7c:d6:de:da:70:e2:d8:93:ea:c0:ff:ac:52:fb:07:
         9c:36:fd:7f:18:ae:d4:91:55:a1:ea:db:18:e8:3b:73:f5:20:
         77:34:80:78:cf:9f:23:e9:a7:b3:84:78:07:f3:b9:a7:0d:8a:
         a8:ad:28:90:e9:aa:f3:d5:57:e7:29:98:bc:92:69:12:b5:77:
         70:8a:85:39:14:12:95:f8:f0:4c:ae:7b:38:03:79:62:f1:a2:
         e4:7b:5f:0b
-----BEGIN CERTIFICATE-----
MIIDdzCCAl+gAwIBAgIQXoEsMH4AKthDQjsCVQO/hTANBgkqhkiG9w0BAQsFADAW
MRQwEgYDVQQDDAt0ZWFtMjg4LW5ldDAeFw0yMzA4MTQxNDI4MTBaFw0yNjA3Mjkx
NDI4MTBaMBkxFzAVBgNVBAMMDnRlYW0yODgtc2VydmVyMIIBIjANBgkqhkiG9w0B
AQEFAAOCAQ8AMIIBCgKCAQEAvIpPQTCU4N/hmHwwpJJJiHk1FdXPgjAuq3Tb6FFM
hsA3XiSHAi6u6IH7S4+CjVvXhYHU+xvwKvXCB2K3GmckCRIFrLXQ8rNAI+LT1zi1
CuZsC0UchPANFUMPxXdVhdBkZWlHB+s7t9I1HEdGyGIHH3L47ocIwhgnB+kT9Tb8
iY4t1nW+RyjrlciuJSnfbXSsoVW0KmAcUBK+9BPM7rczD/luMxoqPtrg7rvOG7G5
rdtuxQ9+FTkE83DU4AqdSWQGkDvv1ZcNat7hgZbCOghiOaVIIOvwOmhwP994WG9u
a2WPJx3ODsgDYkqdnUWPxmYM2OuqW5ZGx2EId3o5MiVDRQIDAQABo4G9MIG6MAkG
A1UdEwQCMAAwHQYDVR0OBBYEFAaZx4j/4oUy0tkfS34O1OMzIBJzMFEGA1UdIwRK
MEiAFJ8ATP3AEA2XYKjm6BMPiA30+sMRoRqkGDAWMRQwEgYDVQQDDAt0ZWFtMjg4
LW5ldIIUbBNeMoIH/PqexMNOpkV8azJJm1swEwYDVR0lBAwwCgYIKwYBBQUHAwEw
CwYDVR0PBAQDAgWgMBkGA1UdEQQSMBCCDnRlYW0yODgtc2VydmVyMA0GCSqGSIb3
DQEBCwUAA4IBAQCfkfgOzaGN5sRKr3pTAlPMW+fkRhVt35mQQgch6ndnMDQuyogs
geZKERZ9B2ABewLysOWckavGPeBuua91+zSJTQPIedqrWIPTLYjmojXKmDMtKjd/
a+kvkGriA/4ht9GinW2olP6PRFT/QIm9FDvjeql1F62jNbdvvlJRmgrMKDLQ9sBi
GCPbr2EKrtk3CLgxOwKZdQOyXUi3ESrx4OpC+cM/kdd81t7acOLYk+rA/6xS+wec
Nv1/GK7UkVWh6tsY6Dtz9SB3NIB4z58j6aezhHgH87mnDYqorSiQ6arz1VfnKZi8
kmkStXdwioU5FBKV+PBMrns4A3li8aLke18L
-----END CERTIFICATE-----
