Certificate:
    Data:
        Version: 3 (0x2)
        Serial Number:
            08:26:31:c4:98:e6:c0:77:54:ab:bf:e8:68:e0:39:9b
        Signature Algorithm: sha256WithRSAEncryption
        Issuer: CN=team194-net
        Validity
            Not Before: Aug 14 14:26:13 2023 GMT
            Not After : Jul 29 14:26:13 2026 GMT
        Subject: CN=team194-client
        Subject Public Key Info:
            Public Key Algorithm: rsaEncryption
                RSA Public-Key: (2048 bit)
                Modulus:
                    00:b3:08:1d:90:c2:5a:4a:5b:ef:9d:b0:df:7d:94:
                    8d:2f:e4:df:55:47:c7:38:cd:29:c5:a8:9f:51:3f:
                    02:46:7e:a8:c9:88:3a:42:e3:bc:0f:7f:6c:f1:ea:
                    ed:0f:22:32:39:ad:9a:55:fe:bc:c0:d4:3b:a9:f4:
                    dd:69:4f:55:95:f1:1b:eb:3a:b7:3f:36:ee:20:75:
                    3b:73:c3:fc:39:7c:29:f2:38:b6:c2:a7:3c:b5:17:
                    f5:8c:3d:2a:4c:9b:ba:a0:ff:eb:8a:d9:a5:54:75:
                    d2:89:b4:a2:97:52:79:47:0b:2d:3f:03:a5:1c:19:
                    8c:7c:62:d3:f5:16:e1:60:a1:ae:3b:91:44:d8:0f:
                    3b:4d:bf:72:a3:22:c0:88:b3:ec:14:33:67:bf:fe:
                    32:88:17:65:1a:6b:51:0c:ce:99:35:36:2d:b3:4f:
                    e6:ea:fb:d6:a7:8c:ad:f5:b0:3b:5e:93:b5:e3:e0:
                    9f:1f:08:f3:ed:81:ee:4c:0f:8b:0f:bb:85:fa:50:
                    8b:02:7c:8c:2e:8a:b4:f7:fc:24:9f:a0:85:e4:a9:
                    3c:e2:74:4a:54:5b:81:11:2e:49:c1:6f:9f:89:80:
                    c3:c5:2a:6c:05:5c:65:9f:94:ed:1c:dd:26:46:91:
                    1d:81:04:db:56:23:11:54:01:72:1c:28:36:81:c5:
                    97:1d
                Exponent: 65537 (0x10001)
        X509v3 extensions:
            X509v3 Basic Constraints: 
                CA:FALSE
            X509v3 Subject Key Identifier: 
                CC:F7:71:83:37:40:B7:F6:62:62:87:87:AC:BC:BB:74:F6:C3:1D:5F
            X509v3 Authority Key Identifier: 
                keyid:DE:6B:F9:F4:93:30:C8:4B:FF:F5:CD:9B:D5:15:9D:1E:01:B5:3D:AB
                DirName:/CN=team194-net
                serial:3F:B4:B4:CC:32:A8:F4:73:77:41:97:C7:E2:20:E2:D9:FB:AC:85:2C

            X509v3 Extended Key Usage: 
                TLS Web Client Authentication
            X509v3 Key Usage: 
                Digital Signature
    Signature Algorithm: sha256WithRSAEncryption
         2d:96:9d:be:4b:a0:19:01:ae:d2:44:e4:3d:70:60:b4:7f:1f:
         f2:25:67:4f:b0:a6:ee:7d:a7:3e:59:a8:1e:38:cb:aa:8b:d9:
         0f:28:bd:37:4e:6b:c8:be:f8:26:25:be:1d:69:17:24:3c:56:
         55:93:ab:bc:f9:8d:84:30:a5:af:28:94:bf:59:7f:a0:57:f2:
         a9:14:e0:aa:0e:26:81:e3:ec:0c:8e:67:7a:4e:dd:fe:6b:4b:
         54:e5:a7:4e:48:35:9f:ff:47:57:5b:0f:62:93:62:39:91:8b:
         9d:d4:d7:a4:41:be:25:2a:76:02:ce:a1:15:65:fd:c6:c1:72:
         df:eb:a5:90:f5:a1:e6:90:d0:96:b0:d3:3e:12:23:45:07:28:
         b0:08:5b:11:8e:80:d7:96:30:a3:38:e6:bc:4b:f8:49:24:38:
         aa:4c:5b:69:37:2d:d2:35:74:74:7e:fe:7d:c8:16:d5:f0:86:
         a4:eb:67:c0:ca:80:c3:cf:8e:72:4f:e0:00:e8:3e:1d:4d:71:
         03:ac:23:75:b6:54:8a:56:95:53:44:43:81:27:16:51:83:c8:
         92:aa:56:bf:a1:63:87:5b:7a:e9:34:c2:31:06:31:c0:af:2b:
         e0:26:5f:5b:00:d4:16:b6:45:32:19:35:c7:9d:66:ce:f7:95:
         76:5a:d7:b4
-----BEGIN CERTIFICATE-----
MIIDXDCCAkSgAwIBAgIQCCYxxJjmwHdUq7/oaOA5mzANBgkqhkiG9w0BAQsFADAW
MRQwEgYDVQQDDAt0ZWFtMTk0LW5ldDAeFw0yMzA4MTQxNDI2MTNaFw0yNjA3Mjkx
NDI2MTNaMBkxFzAVBgNVBAMMDnRlYW0xOTQtY2xpZW50MIIBIjANBgkqhkiG9w0B
AQEFAAOCAQ8AMIIBCgKCAQEAswgdkMJaSlvvnbDffZSNL+TfVUfHOM0pxaifUT8C
Rn6oyYg6QuO8D39s8ertDyIyOa2aVf68wNQ7qfTdaU9VlfEb6zq3PzbuIHU7c8P8
OXwp8ji2wqc8tRf1jD0qTJu6oP/ritmlVHXSibSil1J5RwstPwOlHBmMfGLT9Rbh
YKGuO5FE2A87Tb9yoyLAiLPsFDNnv/4yiBdlGmtRDM6ZNTYts0/m6vvWp4yt9bA7
XpO14+CfHwjz7YHuTA+LD7uF+lCLAnyMLoq09/wkn6CF5Kk84nRKVFuBES5JwW+f
iYDDxSpsBVxln5TtHN0mRpEdgQTbViMRVAFyHCg2gcWXHQIDAQABo4GiMIGfMAkG
A1UdEwQCMAAwHQYDVR0OBBYEFMz3cYM3QLf2YmKHh6y8u3T2wx1fMFEGA1UdIwRK
MEiAFN5r+fSTMMhL//XNm9UVnR4BtT2roRqkGDAWMRQwEgYDVQQDDAt0ZWFtMTk0
LW5ldIIUP7S0zDKo9HN3QZfH4iDi2fushSwwEwYDVR0lBAwwCgYIKwYBBQUHAwIw
CwYDVR0PBAQDAgeAMA0GCSqGSIb3DQEBCwUAA4IBAQAtlp2+S6AZAa7SROQ9cGC0
fx/yJWdPsKbufac+WageOMuqi9kPKL03TmvIvvgmJb4daRckPFZVk6u8+Y2EMKWv
KJS/WX+gV/KpFOCqDiaB4+wMjmd6Tt3+a0tU5adOSDWf/0dXWw9ik2I5kYud1Nek
Qb4lKnYCzqEVZf3GwXLf66WQ9aHmkNCWsNM+EiNFByiwCFsRjoDXljCjOOa8S/hJ
JDiqTFtpNy3SNXR0fv59yBbV8Iak62fAyoDDz45yT+AA6D4dTXEDrCN1tlSKVpVT
REOBJxZRg8iSqla/oWOHW3rpNMIxBjHAryvgJl9bANQWtkUyGTXHnWbO95V2Wte0
-----END CERTIFICATE-----
