Certificate:
    Data:
        Version: 3 (0x2)
        Serial Number:
            e8:d6:31:2f:3a:7c:f3:93:8b:e9:1f:4c:f6:1f:f7:e0
        Signature Algorithm: sha256WithRSAEncryption
        Issuer: CN=team220-net
        Validity
            Not Before: Aug 14 14:26:43 2023 GMT
            Not After : Jul 29 14:26:43 2026 GMT
        Subject: CN=team220-client
        Subject Public Key Info:
            Public Key Algorithm: rsaEncryption
                RSA Public-Key: (2048 bit)
                Modulus:
                    00:cf:4b:6e:4a:24:62:d6:58:66:09:85:71:b7:75:
                    1a:50:c2:1a:de:18:18:e0:41:36:73:a4:9a:0e:bd:
                    22:d9:f4:bb:9c:d9:78:45:49:80:a0:42:c4:55:11:
                    2e:27:0c:11:62:9c:e0:86:0c:10:f9:1a:70:2e:8d:
                    42:f4:ee:94:fa:44:7a:1c:8b:bf:e2:30:65:65:9f:
                    1d:62:b7:e3:65:8f:f2:bb:60:50:d3:21:9a:2f:09:
                    e2:fd:44:97:03:cc:48:22:cf:19:9e:0a:db:8a:8e:
                    c3:ae:29:24:9b:3e:7c:6e:60:68:cb:36:bc:de:ee:
                    25:26:04:ef:f6:f4:26:67:13:07:f6:43:3a:16:0d:
                    fd:71:a6:b5:20:35:f2:04:08:b4:b2:ff:7f:00:e4:
                    bd:1f:8d:40:b1:0c:d3:d1:1c:6b:fc:2a:0b:bc:1b:
                    15:43:e0:4f:36:e1:5c:b7:46:66:a3:9a:38:c6:07:
                    25:12:a3:f7:53:5f:85:1e:ed:1a:fb:d3:83:80:6e:
                    7c:cc:2e:3b:02:d5:fc:3d:c5:d9:72:08:9f:93:30:
                    53:3f:8d:f1:84:a1:bb:5c:fd:45:ea:b0:23:6f:9b:
                    61:a6:e8:8d:9a:8b:d4:18:da:73:d4:56:d9:07:75:
                    a8:5c:45:90:0a:71:38:39:1e:bb:ee:f7:04:b3:46:
                    56:73
                Exponent: 65537 (0x10001)
        X509v3 extensions:
            X509v3 Basic Constraints: 
                CA:FALSE
            X509v3 Subject Key Identifier: 
                5D:DA:9C:44:A6:29:99:57:CB:6C:43:0C:D9:57:2B:15:76:B8:3D:A9
            X509v3 Authority Key Identifier: 
                keyid:70:AA:26:70:6F:E2:7A:7D:8A:C3:91:F8:74:4C:A1:0A:9E:6F:4E:81
                DirName:/CN=team220-net
                serial:04:C4:A8:4A:F3:3E:30:90:BB:61:BF:7A:6D:01:64:E5:9C:48:81:0E

            X509v3 Extended Key Usage: 
                TLS Web Client Authentication
            X509v3 Key Usage: 
                Digital Signature
    Signature Algorithm: sha256WithRSAEncryption
         53:1e:72:28:2b:31:bc:90:e1:54:86:cf:7f:8c:05:6d:7a:c0:
         cc:5a:cf:08:82:27:94:b3:b6:b1:87:40:91:8b:d2:70:f8:82:
         39:35:7d:78:86:5a:76:51:04:0b:b5:de:95:d9:b5:a4:14:1e:
         13:0a:47:79:f3:10:6b:36:26:c6:38:4c:ac:6a:e9:0c:28:14:
         1e:72:5c:1d:94:07:28:2a:f1:2f:19:d8:a2:70:0f:43:f8:e1:
         ba:09:6a:f0:35:66:28:6c:f0:ce:64:2b:05:aa:78:f6:16:df:
         09:9b:d6:eb:9e:34:36:17:b9:03:4b:2a:ef:30:e0:5e:56:b1:
         69:a4:74:94:7f:b7:7b:0e:b3:5d:3a:13:7f:1a:36:41:14:b9:
         9e:75:75:eb:7e:2b:24:69:32:31:40:ee:06:a0:0e:a0:08:36:
         8f:bc:8a:ea:19:20:08:be:7f:f3:e1:38:2b:e1:86:d0:3d:44:
         61:1b:c0:60:ab:95:04:90:5f:60:2f:bb:fd:e4:a6:86:74:77:
         2e:07:06:dd:52:b8:78:f8:c4:a2:47:fc:5d:05:ce:2e:fc:2f:
         b0:c4:3b:3d:38:43:7a:78:10:86:42:15:e7:05:4f:a1:bf:c9:
         f4:6c:2c:e7:51:c0:a0:cf:50:a0:60:fb:d2:12:5d:cb:47:d7:
         cd:52:25:eb
-----BEGIN CERTIFICATE-----
MIIDXTCCAkWgAwIBAgIRAOjWMS86fPOTi+kfTPYf9+AwDQYJKoZIhvcNAQELBQAw
FjEUMBIGA1UEAwwLdGVhbTIyMC1uZXQwHhcNMjMwODE0MTQyNjQzWhcNMjYwNzI5
MTQyNjQzWjAZMRcwFQYDVQQDDA50ZWFtMjIwLWNsaWVudDCCASIwDQYJKoZIhvcN
AQEBBQADggEPADCCAQoCggEBAM9LbkokYtZYZgmFcbd1GlDCGt4YGOBBNnOkmg69
Itn0u5zZeEVJgKBCxFURLicMEWKc4IYMEPkacC6NQvTulPpEehyLv+IwZWWfHWK3
42WP8rtgUNMhmi8J4v1ElwPMSCLPGZ4K24qOw64pJJs+fG5gaMs2vN7uJSYE7/b0
JmcTB/ZDOhYN/XGmtSA18gQItLL/fwDkvR+NQLEM09Eca/wqC7wbFUPgTzbhXLdG
ZqOaOMYHJRKj91NfhR7tGvvTg4BufMwuOwLV/D3F2XIIn5MwUz+N8YShu1z9Reqw
I2+bYabojZqL1Bjac9RW2Qd1qFxFkApxODkeu+73BLNGVnMCAwEAAaOBojCBnzAJ
BgNVHRMEAjAAMB0GA1UdDgQWBBRd2pxEpimZV8tsQwzZVysVdrg9qTBRBgNVHSME
SjBIgBRwqiZwb+J6fYrDkfh0TKEKnm9OgaEapBgwFjEUMBIGA1UEAwwLdGVhbTIy
MC1uZXSCFATEqErzPjCQu2G/em0BZOWcSIEOMBMGA1UdJQQMMAoGCCsGAQUFBwMC
MAsGA1UdDwQEAwIHgDANBgkqhkiG9w0BAQsFAAOCAQEAUx5yKCsxvJDhVIbPf4wF
bXrAzFrPCIInlLO2sYdAkYvScPiCOTV9eIZadlEEC7Xeldm1pBQeEwpHefMQazYm
xjhMrGrpDCgUHnJcHZQHKCrxLxnYonAPQ/jhuglq8DVmKGzwzmQrBap49hbfCZvW
6540Nhe5A0sq7zDgXlaxaaR0lH+3ew6zXToTfxo2QRS5nnV1634rJGkyMUDuBqAO
oAg2j7yK6hkgCL5/8+E4K+GG0D1EYRvAYKuVBJBfYC+7/eSmhnR3LgcG3VK4ePjE
okf8XQXOLvwvsMQ7PThDengQhkIV5wVPob/J9Gws51HAoM9QoGD70hJdy0fXzVIl
6w==
-----END CERTIFICATE-----
