Certificate:
    Data:
        Version: 3 (0x2)
        Serial Number:
            d8:cb:40:7e:b8:16:4d:ef:a0:24:53:1b:c8:a9:ec:40
        Signature Algorithm: sha256WithRSAEncryption
        Issuer: CN=team195-net
        Validity
            Not Before: Aug 14 14:26:14 2023 GMT
            Not After : Jul 29 14:26:14 2026 GMT
        Subject: CN=team195-client
        Subject Public Key Info:
            Public Key Algorithm: rsaEncryption
                RSA Public-Key: (2048 bit)
                Modulus:
                    00:d6:1c:30:86:00:b3:03:73:fd:92:c3:b1:68:b4:
                    dc:ef:89:ce:ae:8c:96:5f:58:b2:03:a7:e6:8a:d4:
                    37:00:ad:2c:5b:17:0f:e0:f0:20:fc:b3:4e:67:46:
                    47:65:af:a3:b0:dc:d8:a9:9e:69:db:87:8e:c7:a2:
                    54:dc:d3:20:fe:68:1e:ae:3a:dd:71:f2:37:e4:68:
                    92:64:fd:49:93:49:4f:bb:5c:2d:b3:0d:be:43:a1:
                    db:9e:ef:56:b3:44:bf:85:32:fd:df:71:d9:2c:01:
                    c0:b2:30:5e:b4:11:51:6d:81:d9:ff:a6:66:79:c5:
                    61:b4:4c:4e:42:42:10:26:29:ad:13:e6:81:c9:b5:
                    06:80:bf:80:f4:03:96:7e:2e:bb:41:64:27:99:4c:
                    8b:b0:3d:ea:5d:bc:84:be:14:cf:1a:aa:82:7c:c7:
                    97:36:55:3b:01:0b:27:e8:0c:36:86:e3:b6:c4:f4:
                    ae:80:7a:d5:3b:30:6f:b8:f2:e9:4b:3b:7c:f1:10:
                    1c:6a:c3:2a:25:3a:89:9d:54:51:f5:0b:bd:21:ab:
                    f0:c2:12:c9:4c:90:0d:65:65:33:33:8e:28:39:4b:
                    5a:f8:3f:d5:bb:21:28:dc:d7:40:a5:50:fa:2d:90:
                    01:a8:b8:36:53:17:c9:1e:69:5a:c5:1a:84:7c:cb:
                    6b:4f
                Exponent: 65537 (0x10001)
        X509v3 extensions:
            X509v3 Basic Constraints: 
                CA:FALSE
            X509v3 Subject Key Identifier: 
                E3:9E:A6:C9:5B:CC:CA:13:80:68:48:A4:51:23:40:B7:8A:69:65:6D
            X509v3 Authority Key Identifier: 
                keyid:97:C8:9C:FD:3A:90:48:53:DE:B8:DC:11:21:3D:B6:C6:79:EA:B8:8A
                DirName:/CN=team195-net
                serial:2E:BC:16:E3:35:FD:DA:30:61:76:73:F9:35:40:22:45:1C:63:61:F1

            X509v3 Extended Key Usage: 
                TLS Web Client Authentication
            X509v3 Key Usage: 
                Digital Signature
    Signature Algorithm: sha256WithRSAEncryption
         14:ff:64:82:2a:e2:2b:55:87:4d:9e:36:3d:ce:28:ad:30:1c:
         09:1e:33:ca:89:ed:ea:6d:1f:87:55:e2:2f:89:c1:7c:4a:ca:
         16:ae:5d:96:3c:5f:72:04:9b:72:e7:de:b2:ac:26:5d:72:ef:
         79:b3:06:b6:43:1b:9f:f7:c8:f5:f5:a8:79:d0:24:16:77:b8:
         5a:77:c4:56:55:36:4b:c8:f5:49:f0:fb:5d:a1:d4:e0:b2:91:
         25:4e:fd:34:cf:f0:53:05:9b:4a:33:1b:6c:60:51:9a:a2:8f:
         c5:04:c9:c9:90:d9:ee:02:25:8a:b8:12:f0:a5:66:3b:e8:a5:
         b3:dd:81:11:ee:48:32:79:88:9f:11:8d:13:1a:08:ab:b3:a9:
         12:cd:20:aa:f8:7c:f7:b6:f2:b1:3a:d6:30:60:ff:5d:9c:e3:
         16:08:d1:de:50:13:d6:a0:2a:b6:08:f4:ec:77:86:f1:f0:2f:
         17:a1:89:75:85:dd:6c:b1:9f:e2:97:6a:ec:88:32:1e:b5:86:
         b1:ae:61:84:fc:d2:79:d2:97:e8:86:2f:17:38:38:b0:85:69:
         cb:03:1b:22:7d:a3:c6:9d:ab:45:24:6c:e2:f4:b8:4d:f7:9f:
         a6:da:54:cd:58:01:8e:85:0b:8d:4b:19:0f:ec:66:73:3e:bc:
         f9:d2:31:06
-----BEGIN CERTIFICATE-----
MIIDXTCCAkWgAwIBAgIRANjLQH64Fk3voCRTG8ip7EAwDQYJKoZIhvcNAQELBQAw
FjEUMBIGA1UEAwwLdGVhbTE5NS1uZXQwHhcNMjMwODE0MTQyNjE0WhcNMjYwNzI5
MTQyNjE0WjAZMRcwFQYDVQQDDA50ZWFtMTk1LWNsaWVudDCCASIwDQYJKoZIhvcN
AQEBBQADggEPADCCAQoCggEBANYcMIYAswNz/ZLDsWi03O+Jzq6Mll9YsgOn5orU
NwCtLFsXD+DwIPyzTmdGR2Wvo7Dc2KmeaduHjseiVNzTIP5oHq463XHyN+RokmT9
SZNJT7tcLbMNvkOh257vVrNEv4Uy/d9x2SwBwLIwXrQRUW2B2f+mZnnFYbRMTkJC
ECYprRPmgcm1BoC/gPQDln4uu0FkJ5lMi7A96l28hL4UzxqqgnzHlzZVOwELJ+gM
NobjtsT0roB61Tswb7jy6Us7fPEQHGrDKiU6iZ1UUfULvSGr8MISyUyQDWVlMzOO
KDlLWvg/1bshKNzXQKVQ+i2QAai4NlMXyR5pWsUahHzLa08CAwEAAaOBojCBnzAJ
BgNVHRMEAjAAMB0GA1UdDgQWBBTjnqbJW8zKE4BoSKRRI0C3imllbTBRBgNVHSME
SjBIgBSXyJz9OpBIU9643BEhPbbGeeq4iqEapBgwFjEUMBIGA1UEAwwLdGVhbTE5
NS1uZXSCFC68FuM1/dowYXZz+TVAIkUcY2HxMBMGA1UdJQQMMAoGCCsGAQUFBwMC
MAsGA1UdDwQEAwIHgDANBgkqhkiG9w0BAQsFAAOCAQEAFP9kgiriK1WHTZ42Pc4o
rTAcCR4zyont6m0fh1XiL4nBfErKFq5dljxfcgSbcufesqwmXXLvebMGtkMbn/fI
9fWoedAkFne4WnfEVlU2S8j1SfD7XaHU4LKRJU79NM/wUwWbSjMbbGBRmqKPxQTJ
yZDZ7gIlirgS8KVmO+ils92BEe5IMnmInxGNExoIq7OpEs0gqvh897bysTrWMGD/
XZzjFgjR3lAT1qAqtgj07HeG8fAvF6GJdYXdbLGf4pdq7IgyHrWGsa5hhPzSedKX
6IYvFzg4sIVpywMbIn2jxp2rRSRs4vS4TfefptpUzVgBjoULjUsZD+xmcz68+dIx
Bg==
-----END CERTIFICATE-----
