Certificate:
    Data:
        Version: 3 (0x2)
        Serial Number:
            7f:c7:97:a1:32:c6:81:cc:8c:a9:d3:94:46:a5:eb:63
        Signature Algorithm: sha256WithRSAEncryption
        Issuer: CN=team36-net
        Validity
            Not Before: Aug 14 14:22:50 2023 GMT
            Not After : Jul 29 14:22:50 2026 GMT
        Subject: CN=team36-server
        Subject Public Key Info:
            Public Key Algorithm: rsaEncryption
                RSA Public-Key: (2048 bit)
                Modulus:
                    00:d0:b1:39:14:4e:28:6e:f0:01:b5:3b:27:bf:b7:
                    c5:18:f3:45:6e:dd:1c:ba:6b:64:35:b7:55:f6:d5:
                    63:65:ae:c4:d5:9d:df:a3:9b:34:96:22:ab:26:3e:
                    12:dd:c2:93:bb:fd:db:35:41:3b:70:51:2f:0c:9a:
                    d1:a1:64:49:d9:ba:29:19:79:a0:9d:ef:e2:11:a3:
                    d7:6f:48:94:57:35:26:04:a2:d6:97:ac:28:41:9b:
                    99:1c:db:f8:e2:be:58:ad:4c:cc:6a:f8:b2:b3:fc:
                    6f:0e:15:23:de:81:fe:22:d2:d8:e7:a8:c2:c6:08:
                    4e:ba:c1:7d:89:ea:af:0e:35:c7:5c:6b:ee:22:88:
                    dd:eb:98:71:b0:68:ba:50:ef:db:99:0b:92:52:30:
                    05:72:ed:44:e5:dc:27:c4:a4:ca:e3:aa:9e:0d:1d:
                    c3:46:2b:ca:e5:98:e8:1f:5b:4e:17:8e:b0:35:9f:
                    11:0f:8b:aa:2d:60:dd:f2:d7:6e:b9:51:76:93:54:
                    11:c9:00:1f:dd:4c:6b:a6:a1:b7:45:6d:b7:5b:1d:
                    d9:46:84:ee:e5:dd:35:68:42:cc:e9:aa:ca:a3:51:
                    9e:40:8b:d2:d5:7e:9a:00:17:83:32:04:a8:b1:ea:
                    87:64:2e:92:68:21:fa:4c:97:09:17:27:d7:69:9f:
                    b4:cd
                Exponent: 65537 (0x10001)
        X509v3 extensions:
            X509v3 Basic Constraints: 
                CA:FALSE
            X509v3 Subject Key Identifier: 
                18:98:5E:4E:2D:FD:7E:B4:1F:98:58:28:5A:CD:02:F5:5C:44:60:D6
            X509v3 Authority Key Identifier: 
                keyid:93:82:A2:60:70:83:51:79:EB:C5:EE:8C:E8:40:70:0F:66:BD:8A:BD
                DirName:/CN=team36-net
                serial:51:F5:18:15:C1:2C:EC:F6:55:72:6A:0D:FF:FD:F0:6C:25:FF:8E:C3

            X509v3 Extended Key Usage: 
                TLS Web Server Authentication
            X509v3 Key Usage: 
                Digital Signature, Key Encipherment
            X509v3 Subject Alternative Name: 
                DNS:team36-server
    Signature Algorithm: sha256WithRSAEncryption
         7b:14:80:19:9a:ce:aa:ef:fa:31:c8:ae:12:1c:31:09:b9:73:
         f0:9c:7e:8c:99:29:47:43:40:5b:10:c1:45:de:b5:ff:ec:49:
         92:a3:ff:9f:2a:b4:16:35:ab:ef:d2:75:49:fa:80:93:4f:d1:
         a6:de:ca:0d:cf:a2:6b:7a:17:fb:d9:a2:67:04:57:cb:06:46:
         1c:45:e3:47:c1:6a:23:44:d5:d0:6a:b4:6c:6a:85:54:44:e0:
         5f:43:a4:02:b9:3f:c0:cc:5b:d2:0f:06:42:c5:be:73:8e:63:
         91:92:94:38:49:e5:d9:19:3c:57:62:46:2c:e9:33:ee:66:df:
         4c:57:36:25:dc:1f:5f:db:01:34:96:d9:28:74:37:36:4b:11:
         0c:5f:e2:c4:00:d0:8c:20:52:ce:50:a6:ff:5f:43:e3:7a:79:
         a0:1c:11:fe:90:dd:d7:aa:0b:a0:b3:36:c6:55:94:7d:9a:2e:
         33:59:88:02:8c:d8:a6:b8:46:90:08:ff:5c:0a:a9:7a:fa:62:
         c0:6a:10:eb:60:df:46:79:06:70:62:a0:42:34:a1:c8:92:6e:
         5a:79:6d:d5:ff:3a:e3:16:a4:d8:32:32:1c:d6:c8:d4:f9:1c:
         d3:10:f1:ff:62:44:21:1f:c9:97:4e:11:55:1e:af:70:60:d2:
         82:3f:3b:ee
-----BEGIN CERTIFICATE-----
MIIDczCCAlugAwIBAgIQf8eXoTLGgcyMqdOURqXrYzANBgkqhkiG9w0BAQsFADAV
MRMwEQYDVQQDDAp0ZWFtMzYtbmV0MB4XDTIzMDgxNDE0MjI1MFoXDTI2MDcyOTE0
MjI1MFowGDEWMBQGA1UEAwwNdGVhbTM2LXNlcnZlcjCCASIwDQYJKoZIhvcNAQEB
BQADggEPADCCAQoCggEBANCxORROKG7wAbU7J7+3xRjzRW7dHLprZDW3VfbVY2Wu
xNWd36ObNJYiqyY+Et3Ck7v92zVBO3BRLwya0aFkSdm6KRl5oJ3v4hGj129IlFc1
JgSi1pesKEGbmRzb+OK+WK1MzGr4srP8bw4VI96B/iLS2OeowsYITrrBfYnqrw41
x1xr7iKI3euYcbBoulDv25kLklIwBXLtROXcJ8SkyuOqng0dw0YryuWY6B9bTheO
sDWfEQ+Lqi1g3fLXbrlRdpNUEckAH91Ma6aht0Vtt1sd2UaE7uXdNWhCzOmqyqNR
nkCL0tV+mgAXgzIEqLHqh2Qukmgh+kyXCRcn12mftM0CAwEAAaOBuzCBuDAJBgNV
HRMEAjAAMB0GA1UdDgQWBBQYmF5OLf1+tB+YWChazQL1XERg1jBQBgNVHSMESTBH
gBSTgqJgcINReevF7ozoQHAPZr2KvaEZpBcwFTETMBEGA1UEAwwKdGVhbTM2LW5l
dIIUUfUYFcEs7PZVcmoN//3wbCX/jsMwEwYDVR0lBAwwCgYIKwYBBQUHAwEwCwYD
VR0PBAQDAgWgMBgGA1UdEQQRMA+CDXRlYW0zNi1zZXJ2ZXIwDQYJKoZIhvcNAQEL
BQADggEBAHsUgBmazqrv+jHIrhIcMQm5c/CcfoyZKUdDQFsQwUXetf/sSZKj/58q
tBY1q+/SdUn6gJNP0abeyg3Pomt6F/vZomcEV8sGRhxF40fBaiNE1dBqtGxqhVRE
4F9DpAK5P8DMW9IPBkLFvnOOY5GSlDhJ5dkZPFdiRizpM+5m30xXNiXcH1/bATSW
2Sh0NzZLEQxf4sQA0IwgUs5Qpv9fQ+N6eaAcEf6Q3deqC6CzNsZVlH2aLjNZiAKM
2Ka4RpAI/1wKqXr6YsBqEOtg30Z5BnBioEI0ociSblp5bdX/OuMWpNgyMhzWyNT5
HNMQ8f9iRCEfyZdOEVUer3Bg0oI/O+4=
-----END CERTIFICATE-----
