Certificate:
    Data:
        Version: 3 (0x2)
        Serial Number:
            e3:45:f7:52:ec:3c:7e:d6:bd:99:30:d4:1b:3c:a8:1b
        Signature Algorithm: sha256WithRSAEncryption
        Issuer: CN=team36-net
        Validity
            Not Before: Aug 14 14:22:49 2023 GMT
            Not After : Jul 29 14:22:49 2026 GMT
        Subject: CN=team36-client
        Subject Public Key Info:
            Public Key Algorithm: rsaEncryption
                RSA Public-Key: (2048 bit)
                Modulus:
                    00:ad:da:dc:e8:ba:c1:d3:b7:2b:e5:ad:81:e1:9c:
                    ef:75:f2:99:89:ba:6f:62:78:3a:bf:38:a7:fe:fd:
                    88:30:14:30:84:1b:82:6f:99:43:df:66:f3:2b:2a:
                    73:d5:56:9b:2a:96:20:ba:31:d5:ea:a7:44:0a:cc:
                    0c:e5:2b:d1:9a:72:12:a7:8e:39:35:5c:78:d9:df:
                    91:cb:d8:3c:ed:95:46:a0:d7:1b:a7:df:1f:b4:d6:
                    82:85:97:a1:6d:12:d6:fb:38:c7:60:5c:9d:94:3e:
                    57:97:72:87:fc:e5:f4:bf:20:5a:6e:c6:42:9a:5a:
                    f8:e0:95:06:d2:e0:25:94:8b:d6:71:d8:a7:ac:88:
                    29:98:8d:3e:da:13:8e:d5:ef:4e:f7:22:3a:db:08:
                    af:3c:ce:b3:7f:ce:a5:cc:33:e9:4d:29:be:fe:11:
                    4a:36:eb:cc:eb:f0:ac:c8:a1:50:d3:20:d0:8f:e8:
                    c5:5c:fa:23:51:e2:29:89:60:f2:c2:05:ef:66:1c:
                    8e:d8:68:71:7e:ee:50:6a:fe:16:c9:c6:3a:a2:f3:
                    b4:21:b4:35:13:4a:11:1f:19:be:5a:86:e0:b2:e9:
                    c6:78:71:5c:87:dc:2d:a5:ac:bb:61:2f:e5:fc:50:
                    ba:58:af:ae:f8:3a:02:d5:55:94:16:f4:33:4e:05:
                    30:4d
                Exponent: 65537 (0x10001)
        X509v3 extensions:
            X509v3 Basic Constraints: 
                CA:FALSE
            X509v3 Subject Key Identifier: 
                FF:94:86:E3:4B:0D:B4:B4:09:0A:96:04:58:15:0E:3A:01:D8:01:96
            X509v3 Authority Key Identifier: 
                keyid:93:82:A2:60:70:83:51:79:EB:C5:EE:8C:E8:40:70:0F:66:BD:8A:BD
                DirName:/CN=team36-net
                serial:51:F5:18:15:C1:2C:EC:F6:55:72:6A:0D:FF:FD:F0:6C:25:FF:8E:C3

            X509v3 Extended Key Usage: 
                TLS Web Client Authentication
            X509v3 Key Usage: 
                Digital Signature
    Signature Algorithm: sha256WithRSAEncryption
         c3:86:15:19:ef:6b:68:c1:1e:8f:bc:64:0d:96:40:76:38:7a:
         5f:ce:74:30:76:66:1b:9a:90:68:c6:db:ca:a3:e7:00:aa:ed:
         15:c4:a2:29:84:68:96:5b:b0:d7:63:56:6b:2c:01:c1:d3:5f:
         ce:fa:31:fc:97:71:2e:0c:f7:90:da:3f:c6:5b:61:b1:bd:fc:
         e7:c8:e0:dc:d1:b7:0c:a4:44:91:32:fd:11:85:1e:47:64:81:
         b7:ad:68:4b:a0:7d:9a:80:4f:94:6a:1e:56:92:28:3d:a7:59:
         b5:46:62:99:80:dc:9c:bd:51:e5:51:ff:cc:ca:2b:8c:4e:9a:
         6e:94:5a:b7:f8:9b:27:e1:de:76:69:09:da:44:a3:75:a0:fc:
         b5:d7:d4:80:0a:a9:81:63:82:07:41:a2:47:c9:36:6b:85:35:
         0b:8f:a3:bd:45:4d:7f:86:17:0b:96:1e:b1:0c:6b:65:18:2a:
         c0:ba:57:ec:7a:7c:a1:6c:00:5c:f6:3e:9d:d5:59:dc:37:98:
         38:1a:37:95:ce:f3:4e:e4:08:d7:6b:dd:a0:ce:2a:9e:a5:ee:
         57:01:dd:f2:7d:ae:84:6b:41:00:f7:69:db:11:3d:7f:ce:41:
         65:7d:7a:9b:eb:44:2d:81:6e:26:12:a9:b6:05:f0:52:ee:bc:
         a9:81:eb:15
-----BEGIN CERTIFICATE-----
MIIDWjCCAkKgAwIBAgIRAONF91LsPH7WvZkw1Bs8qBswDQYJKoZIhvcNAQELBQAw
FTETMBEGA1UEAwwKdGVhbTM2LW5ldDAeFw0yMzA4MTQxNDIyNDlaFw0yNjA3Mjkx
NDIyNDlaMBgxFjAUBgNVBAMMDXRlYW0zNi1jbGllbnQwggEiMA0GCSqGSIb3DQEB
AQUAA4IBDwAwggEKAoIBAQCt2tzousHTtyvlrYHhnO918pmJum9ieDq/OKf+/Ygw
FDCEG4JvmUPfZvMrKnPVVpsqliC6MdXqp0QKzAzlK9GachKnjjk1XHjZ35HL2Dzt
lUag1xun3x+01oKFl6FtEtb7OMdgXJ2UPleXcof85fS/IFpuxkKaWvjglQbS4CWU
i9Zx2KesiCmYjT7aE47V7073IjrbCK88zrN/zqXMM+lNKb7+EUo268zr8KzIoVDT
INCP6MVc+iNR4imJYPLCBe9mHI7YaHF+7lBq/hbJxjqi87QhtDUTShEfGb5ahuCy
6cZ4cVyH3C2lrLthL+X8ULpYr674OgLVVZQW9DNOBTBNAgMBAAGjgaEwgZ4wCQYD
VR0TBAIwADAdBgNVHQ4EFgQU/5SG40sNtLQJCpYEWBUOOgHYAZYwUAYDVR0jBEkw
R4AUk4KiYHCDUXnrxe6M6EBwD2a9ir2hGaQXMBUxEzARBgNVBAMMCnRlYW0zNi1u
ZXSCFFH1GBXBLOz2VXJqDf/98Gwl/47DMBMGA1UdJQQMMAoGCCsGAQUFBwMCMAsG
A1UdDwQEAwIHgDANBgkqhkiG9w0BAQsFAAOCAQEAw4YVGe9raMEej7xkDZZAdjh6
X850MHZmG5qQaMbbyqPnAKrtFcSiKYRolluw12NWaywBwdNfzvox/JdxLgz3kNo/
xlthsb3858jg3NG3DKREkTL9EYUeR2SBt61oS6B9moBPlGoeVpIoPadZtUZimYDc
nL1R5VH/zMorjE6abpRat/ibJ+HedmkJ2kSjdaD8tdfUgAqpgWOCB0GiR8k2a4U1
C4+jvUVNf4YXC5YesQxrZRgqwLpX7Hp8oWwAXPY+ndVZ3DeYOBo3lc7zTuQI12vd
oM4qnqXuVwHd8n2uhGtBAPdp2xE9f85BZX16m+tELYFuJhKptgXwUu68qYHrFQ==
-----END CERTIFICATE-----
