Certificate:
    Data:
        Version: 3 (0x2)
        Serial Number:
            17:52:cd:8e:b9:c8:02:5e:3e:38:a9:86:ae:bd:fc:97
        Signature Algorithm: sha256WithRSAEncryption
        Issuer: CN=team118-net
        Validity
            Not Before: Aug 14 14:24:42 2023 GMT
            Not After : Jul 29 14:24:42 2026 GMT
        Subject: CN=team118-server
        Subject Public Key Info:
            Public Key Algorithm: rsaEncryption
                RSA Public-Key: (2048 bit)
                Modulus:
                    00:d1:e3:65:a3:6d:e7:29:60:87:87:e1:4d:0c:a8:
                    01:b2:05:d3:75:71:b9:58:04:39:fb:f0:d4:9a:43:
                    92:55:af:5b:f8:b7:6a:9d:bc:f5:c5:44:df:d5:67:
                    c0:45:1a:10:d7:ee:00:88:b9:3f:a7:1c:8a:b7:6d:
                    1c:5c:36:cd:ca:df:02:1b:98:9d:98:e2:63:6c:2d:
                    13:be:f6:7a:09:ca:c8:fe:05:36:f5:37:e3:ad:60:
                    99:be:cc:bf:4d:60:72:0c:8d:f3:a1:57:b7:32:22:
                    3e:da:5f:50:29:87:f4:19:45:c2:48:50:66:1b:86:
                    b5:d6:72:2d:9a:93:d4:10:24:4b:e8:04:46:97:fe:
                    b7:8a:44:13:71:f1:9e:96:ae:ea:b3:ad:f9:75:a7:
                    67:7c:96:b0:75:ae:fd:d2:a1:8b:98:2c:82:41:d5:
                    94:b1:4e:51:56:a3:5d:29:a7:e1:b6:bf:e9:ce:dd:
                    93:c6:75:82:bb:c0:7f:29:39:ae:9f:b3:72:84:29:
                    c1:27:64:4d:a6:ca:c9:36:2e:a4:a3:75:af:dc:f5:
                    b4:68:76:e9:95:29:48:c6:ad:ac:35:bc:3f:6f:e2:
                    ae:b2:af:4b:33:98:07:90:f8:2c:c2:8a:03:26:60:
                    84:1b:7c:26:7a:9e:b7:6c:3a:01:cb:b9:22:fb:d0:
                    ca:ef
                Exponent: 65537 (0x10001)
        X509v3 extensions:
            X509v3 Basic Constraints: 
                CA:FALSE
            X509v3 Subject Key Identifier: 
                36:78:BB:74:48:CF:77:B1:03:C8:BA:62:2C:ED:07:3F:8D:F7:78:06
            X509v3 Authority Key Identifier: 
                keyid:8F:B6:07:88:D7:03:7B:3F:2E:25:A1:3E:DE:34:75:7E:32:F0:79:55
                DirName:/CN=team118-net
                serial:77:05:01:1D:4E:A7:52:F4:CD:35:5A:38:04:07:76:CB:7F:63:C0:B3

            X509v3 Extended Key Usage: 
                TLS Web Server Authentication
            X509v3 Key Usage: 
                Digital Signature, Key Encipherment
            X509v3 Subject Alternative Name: 
                DNS:team118-server
    Signature Algorithm: sha256WithRSAEncryption
         86:32:65:ca:e5:d0:75:ae:e7:d9:a2:00:b4:d3:16:2a:95:60:
         0c:49:0b:2a:79:dc:22:02:f6:78:b4:bc:e6:c7:a5:2d:bf:5c:
         54:d6:e6:4d:ba:a4:84:39:93:aa:47:96:6c:0a:4f:e5:ac:74:
         3a:40:a0:0f:7f:7f:55:45:7b:be:41:3b:9f:9a:5f:e3:7b:fa:
         ae:7a:99:91:b2:62:2f:21:e7:6c:39:f4:4f:06:ec:cd:72:82:
         69:e4:fc:3b:aa:a4:fb:db:07:ea:54:26:45:96:b8:b1:70:e3:
         43:c0:80:b1:51:57:f2:b1:c8:6a:0b:ea:54:55:44:4e:c6:5b:
         9a:ee:77:7f:8a:f9:ff:a9:02:e0:31:75:28:ef:35:a3:43:0c:
         c4:31:59:9e:91:69:27:30:fd:75:a7:36:ef:5f:2d:af:0c:3a:
         33:76:20:d1:55:a8:73:fa:8a:b3:48:bd:3e:61:14:b9:a7:0e:
         a3:98:67:c7:aa:e4:39:6c:a3:01:08:02:d1:e8:2e:82:ef:83:
         37:50:d5:88:db:77:79:96:52:c3:c3:d0:73:7d:16:a3:ef:d9:
         f2:ed:ed:56:34:4c:3b:43:1a:2f:6e:93:ab:5a:ca:a9:b3:6d:
         bd:5c:27:57:73:09:20:90:0c:32:64:bc:f6:81:bf:fd:ae:d7:
         0c:06:96:78
-----BEGIN CERTIFICATE-----
MIIDdzCCAl+gAwIBAgIQF1LNjrnIAl4+OKmGrr38lzANBgkqhkiG9w0BAQsFADAW
MRQwEgYDVQQDDAt0ZWFtMTE4LW5ldDAeFw0yMzA4MTQxNDI0NDJaFw0yNjA3Mjkx
NDI0NDJaMBkxFzAVBgNVBAMMDnRlYW0xMTgtc2VydmVyMIIBIjANBgkqhkiG9w0B
AQEFAAOCAQ8AMIIBCgKCAQEA0eNlo23nKWCHh+FNDKgBsgXTdXG5WAQ5+/DUmkOS
Va9b+Ldqnbz1xUTf1WfARRoQ1+4AiLk/pxyKt20cXDbNyt8CG5idmOJjbC0TvvZ6
CcrI/gU29TfjrWCZvsy/TWByDI3zoVe3MiI+2l9QKYf0GUXCSFBmG4a11nItmpPU
ECRL6ARGl/63ikQTcfGelq7qs635dadnfJawda790qGLmCyCQdWUsU5RVqNdKafh
tr/pzt2TxnWCu8B/KTmun7NyhCnBJ2RNpsrJNi6ko3Wv3PW0aHbplSlIxq2sNbw/
b+Kusq9LM5gHkPgswooDJmCEG3wmep63bDoBy7ki+9DK7wIDAQABo4G9MIG6MAkG
A1UdEwQCMAAwHQYDVR0OBBYEFDZ4u3RIz3exA8i6YiztBz+N93gGMFEGA1UdIwRK
MEiAFI+2B4jXA3s/LiWhPt40dX4y8HlVoRqkGDAWMRQwEgYDVQQDDAt0ZWFtMTE4
LW5ldIIUdwUBHU6nUvTNNVo4BAd2y39jwLMwEwYDVR0lBAwwCgYIKwYBBQUHAwEw
CwYDVR0PBAQDAgWgMBkGA1UdEQQSMBCCDnRlYW0xMTgtc2VydmVyMA0GCSqGSIb3
DQEBCwUAA4IBAQCGMmXK5dB1rufZogC00xYqlWAMSQsqedwiAvZ4tLzmx6Utv1xU
1uZNuqSEOZOqR5ZsCk/lrHQ6QKAPf39VRXu+QTufml/je/quepmRsmIvIedsOfRP
BuzNcoJp5Pw7qqT72wfqVCZFlrixcONDwICxUVfyschqC+pUVUROxlua7nd/ivn/
qQLgMXUo7zWjQwzEMVmekWknMP11pzbvXy2vDDozdiDRVahz+oqzSL0+YRS5pw6j
mGfHquQ5bKMBCALR6C6C74M3UNWI23d5llLDw9BzfRaj79ny7e1WNEw7QxovbpOr
Wsqps229XCdXcwkgkAwyZLz2gb/9rtcMBpZ4
-----END CERTIFICATE-----
