Certificate:
    Data:
        Version: 3 (0x2)
        Serial Number:
            47:20:fd:7d:df:e0:0e:f5:84:a5:7c:07:d1:05:b1:9c
        Signature Algorithm: sha256WithRSAEncryption
        Issuer: CN=team268-net
        Validity
            Not Before: Aug 14 14:27:44 2023 GMT
            Not After : Jul 29 14:27:44 2026 GMT
        Subject: CN=team268-client
        Subject Public Key Info:
            Public Key Algorithm: rsaEncryption
                RSA Public-Key: (2048 bit)
                Modulus:
                    00:bc:07:f4:43:d8:05:57:51:77:75:12:f1:1a:e2:
                    c1:f2:f9:c6:35:79:5d:63:d0:8e:d1:88:ca:3f:9d:
                    82:30:98:20:b0:39:5f:47:07:ca:c5:0c:0e:13:da:
                    1e:59:cb:88:50:65:41:d3:bb:31:e7:1d:50:bf:ad:
                    70:84:c8:ba:03:49:cb:7b:0f:6e:82:04:69:5e:c7:
                    f8:29:fa:b3:64:64:8f:cb:3d:14:2f:f9:6a:f4:16:
                    bf:b6:ff:a4:16:48:91:76:0d:71:a3:c1:9c:53:a2:
                    ac:42:3d:2b:d1:ad:2a:b3:77:01:f4:0a:5b:fc:f9:
                    db:72:76:26:d1:be:84:3e:c2:c1:ef:17:14:fd:ba:
                    5e:2c:51:c6:40:29:cc:94:96:6c:f7:e4:a9:d1:8e:
                    80:e7:6d:6d:5d:f6:50:81:36:94:11:c8:33:2e:5a:
                    2a:58:45:35:84:32:cf:fa:6a:35:df:57:5c:c6:da:
                    e9:35:ab:9e:de:20:70:b2:f6:4a:a3:ac:48:55:6b:
                    79:f5:64:c5:1e:4b:53:07:e7:19:1b:f0:81:56:81:
                    ba:9c:3d:a6:23:f2:49:33:a9:17:36:ce:fc:56:fd:
                    5a:61:97:30:8e:2a:83:83:61:07:fa:e8:3c:d0:3a:
                    b2:c3:7d:7d:a1:bf:30:cc:34:d6:bc:d0:43:53:87:
                    a7:f5
                Exponent: 65537 (0x10001)
        X509v3 extensions:
            X509v3 Basic Constraints: 
                CA:FALSE
            X509v3 Subject Key Identifier: 
                75:3E:23:86:A1:C7:A7:FE:BB:32:1C:C3:D5:B4:93:FE:BC:F3:4B:77
            X509v3 Authority Key Identifier: 
                keyid:3D:05:D1:DA:B3:05:40:93:75:0C:8D:55:0B:C9:1F:9A:7A:97:55:98
                DirName:/CN=team268-net
                serial:3C:D0:C4:D3:A5:5D:BA:B1:CC:29:C7:6C:7F:5A:0B:64:A0:D1:20:B3

            X509v3 Extended Key Usage: 
                TLS Web Client Authentication
            X509v3 Key Usage: 
                Digital Signature
    Signature Algorithm: sha256WithRSAEncryption
         cc:4b:bf:7a:bb:d2:ed:26:cd:b9:2d:18:b1:3e:7e:83:78:3d:
         7f:3e:aa:e2:fd:6d:1c:ec:31:00:4a:2d:af:3d:e5:73:16:60:
         28:36:61:40:c1:55:6c:e9:84:ae:05:28:fd:49:52:e3:db:9b:
         51:df:42:5d:88:b1:cd:6b:44:94:f5:f8:b5:85:bb:e3:87:79:
         e6:cb:75:0a:18:81:07:fa:eb:f9:2f:47:cc:be:4b:68:b7:d9:
         17:50:5d:90:bc:68:6b:0d:69:61:2b:21:e4:41:5b:c7:af:ba:
         4a:d2:43:32:eb:c7:72:6f:eb:8f:6d:e2:6b:c1:0e:91:51:dc:
         d2:41:6e:67:e1:76:a7:12:05:6a:8a:07:f6:c1:58:8f:2c:92:
         14:32:e7:cd:86:ba:5d:56:09:29:1c:d5:89:26:84:60:72:b0:
         4a:39:3a:3f:a1:3f:3d:34:3f:5c:fa:2a:96:b8:bc:d1:b7:d3:
         4e:cd:cd:b7:7d:47:62:1d:93:ac:e2:fa:a5:c3:b0:f5:3f:60:
         d1:a8:00:05:f8:93:05:ba:6b:24:69:7a:9f:29:04:01:43:bb:
         47:69:19:9b:5f:2c:87:a5:d0:7e:a8:c9:c8:03:e4:78:28:cc:
         c8:7c:8c:46:5f:90:f2:bb:52:d2:4d:4b:e1:4f:8e:ee:4c:3d:
         71:74:33:c3
-----BEGIN CERTIFICATE-----
MIIDXDCCAkSgAwIBAgIQRyD9fd/gDvWEpXwH0QWxnDANBgkqhkiG9w0BAQsFADAW
MRQwEgYDVQQDDAt0ZWFtMjY4LW5ldDAeFw0yMzA4MTQxNDI3NDRaFw0yNjA3Mjkx
NDI3NDRaMBkxFzAVBgNVBAMMDnRlYW0yNjgtY2xpZW50MIIBIjANBgkqhkiG9w0B
AQEFAAOCAQ8AMIIBCgKCAQEAvAf0Q9gFV1F3dRLxGuLB8vnGNXldY9CO0YjKP52C
MJggsDlfRwfKxQwOE9oeWcuIUGVB07sx5x1Qv61whMi6A0nLew9uggRpXsf4Kfqz
ZGSPyz0UL/lq9Ba/tv+kFkiRdg1xo8GcU6KsQj0r0a0qs3cB9Apb/PnbcnYm0b6E
PsLB7xcU/bpeLFHGQCnMlJZs9+Sp0Y6A521tXfZQgTaUEcgzLloqWEU1hDLP+mo1
31dcxtrpNaue3iBwsvZKo6xIVWt59WTFHktTB+cZG/CBVoG6nD2mI/JJM6kXNs78
Vv1aYZcwjiqDg2EH+ug80Dqyw319ob8wzDTWvNBDU4en9QIDAQABo4GiMIGfMAkG
A1UdEwQCMAAwHQYDVR0OBBYEFHU+I4ahx6f+uzIcw9W0k/6880t3MFEGA1UdIwRK
MEiAFD0F0dqzBUCTdQyNVQvJH5p6l1WYoRqkGDAWMRQwEgYDVQQDDAt0ZWFtMjY4
LW5ldIIUPNDE06VdurHMKcdsf1oLZKDRILMwEwYDVR0lBAwwCgYIKwYBBQUHAwIw
CwYDVR0PBAQDAgeAMA0GCSqGSIb3DQEBCwUAA4IBAQDMS796u9LtJs25LRixPn6D
eD1/Pqri/W0c7DEASi2vPeVzFmAoNmFAwVVs6YSuBSj9SVLj25tR30JdiLHNa0SU
9fi1hbvjh3nmy3UKGIEH+uv5L0fMvktot9kXUF2QvGhrDWlhKyHkQVvHr7pK0kMy
68dyb+uPbeJrwQ6RUdzSQW5n4XanEgVqigf2wViPLJIUMufNhrpdVgkpHNWJJoRg
crBKOTo/oT89ND9c+iqWuLzRt9NOzc23fUdiHZOs4vqlw7D1P2DRqAAF+JMFumsk
aXqfKQQBQ7tHaRmbXyyHpdB+qMnIA+R4KMzIfIxGX5Dyu1LSTUvhT47uTD1xdDPD
-----END CERTIFICATE-----
