Certificate:
    Data:
        Version: 3 (0x2)
        Serial Number:
            ca:fb:67:5a:db:c8:d7:01:4a:a7:1b:0d:d1:28:e1:cd
        Signature Algorithm: sha256WithRSAEncryption
        Issuer: CN=team125-net
        Validity
            Not Before: Aug 14 14:24:50 2023 GMT
            Not After : Jul 29 14:24:50 2026 GMT
        Subject: CN=team125-client
        Subject Public Key Info:
            Public Key Algorithm: rsaEncryption
                RSA Public-Key: (2048 bit)
                Modulus:
                    00:d4:86:b3:63:8f:3c:b8:10:4c:5f:f4:9d:84:4f:
                    a3:e4:08:6a:f8:f0:0b:f2:6e:dc:eb:f0:76:61:cd:
                    44:ef:c6:43:70:35:eb:8f:82:94:3e:fe:49:5d:1f:
                    80:eb:77:93:56:bf:8d:ab:51:c6:1b:8a:af:e1:f3:
                    e1:15:03:ba:7a:ca:6d:65:d0:80:a9:4c:e3:c0:c5:
                    dc:5e:f7:bd:d6:a3:52:bf:6a:d3:f3:6c:b1:ab:cf:
                    29:b5:d9:eb:da:4a:d6:f1:8f:32:10:ba:0c:cf:62:
                    10:da:d5:48:8c:90:f9:f5:03:93:b3:9f:ae:49:ff:
                    b3:a8:40:43:34:71:da:fe:77:56:84:d8:88:ea:d4:
                    0d:fc:79:7e:c0:f8:b2:d1:97:d6:d1:6f:f1:9f:2a:
                    0c:cb:9a:17:d6:c2:a0:7f:e7:85:6f:f8:4c:d3:c8:
                    f8:12:ca:01:a4:5c:0c:69:be:0e:29:e3:9c:44:db:
                    ba:c0:de:4f:8a:75:78:43:5d:51:da:81:92:3d:10:
                    41:85:7c:e9:1a:0c:fc:0b:f7:09:db:09:cf:e7:1b:
                    91:12:c7:f5:77:a0:ca:8e:87:a1:76:cc:ee:c0:d8:
                    24:f4:96:91:92:ee:1f:5d:11:df:ec:36:54:7a:43:
                    10:29:23:ce:f0:04:f4:d9:56:70:8a:4c:c4:c2:e4:
                    81:05
                Exponent: 65537 (0x10001)
        X509v3 extensions:
            X509v3 Basic Constraints: 
                CA:FALSE
            X509v3 Subject Key Identifier: 
                0E:A6:4A:09:8F:31:39:36:16:1C:43:7C:44:F1:39:8A:AF:55:0D:CF
            X509v3 Authority Key Identifier: 
                keyid:FB:0D:DB:DF:A6:9E:61:BE:88:BE:0B:72:7E:6C:62:B6:F3:EE:3F:4B
                DirName:/CN=team125-net
                serial:0A:02:53:BD:45:C6:6B:74:E0:9D:E3:85:F1:B2:78:A0:C6:1F:24:E1

            X509v3 Extended Key Usage: 
                TLS Web Client Authentication
            X509v3 Key Usage: 
                Digital Signature
    Signature Algorithm: sha256WithRSAEncryption
         48:21:05:22:d7:52:99:0e:f0:72:87:79:f5:df:56:52:a4:f5:
         a0:eb:9d:49:ec:d8:83:29:d9:b0:fc:68:b3:c2:ac:7f:f7:64:
         42:db:7b:da:4f:1d:16:aa:1a:c7:4e:d1:ce:2c:a4:45:d9:82:
         5d:4c:2c:81:29:4f:5d:eb:9d:d7:6c:4e:75:93:6f:3f:78:0e:
         63:02:9f:82:9f:31:c5:c1:f6:80:4b:75:7f:45:9d:f6:92:c8:
         c5:4c:be:b0:56:a7:1c:e8:92:57:23:c7:14:8a:46:38:cd:c7:
         6b:55:da:88:43:9a:c7:a4:79:48:3e:6c:3b:7c:8f:b4:4c:54:
         70:40:41:76:69:b0:fe:7c:40:ad:b1:2f:b5:9e:47:ef:ed:70:
         bf:c0:23:2e:c3:1e:ad:45:86:16:ad:c8:ac:69:c7:cb:94:a8:
         41:d3:83:95:18:31:f3:fd:d8:f1:96:3b:a4:7a:3c:f2:24:a0:
         ce:c4:e0:f1:85:e0:62:80:67:39:6b:4a:45:23:3a:db:07:c9:
         e0:61:51:9b:90:df:8b:ef:2a:23:48:2c:78:f5:b2:81:95:c7:
         36:b5:12:4e:68:1f:dc:fb:e3:b4:e5:96:fa:24:35:23:3b:43:
         2a:69:3d:7c:aa:9f:4c:58:e4:ad:58:a3:6c:3c:72:a8:6d:17:
         83:00:80:c2
-----BEGIN CERTIFICATE-----
MIIDXTCCAkWgAwIBAgIRAMr7Z1rbyNcBSqcbDdEo4c0wDQYJKoZIhvcNAQELBQAw
FjEUMBIGA1UEAwwLdGVhbTEyNS1uZXQwHhcNMjMwODE0MTQyNDUwWhcNMjYwNzI5
MTQyNDUwWjAZMRcwFQYDVQQDDA50ZWFtMTI1LWNsaWVudDCCASIwDQYJKoZIhvcN
AQEBBQADggEPADCCAQoCggEBANSGs2OPPLgQTF/0nYRPo+QIavjwC/Ju3OvwdmHN
RO/GQ3A164+ClD7+SV0fgOt3k1a/jatRxhuKr+Hz4RUDunrKbWXQgKlM48DF3F73
vdajUr9q0/NssavPKbXZ69pK1vGPMhC6DM9iENrVSIyQ+fUDk7Ofrkn/s6hAQzRx
2v53VoTYiOrUDfx5fsD4stGX1tFv8Z8qDMuaF9bCoH/nhW/4TNPI+BLKAaRcDGm+
DinjnETbusDeT4p1eENdUdqBkj0QQYV86RoM/Av3CdsJz+cbkRLH9Xegyo6HoXbM
7sDYJPSWkZLuH10R3+w2VHpDECkjzvAE9NlWcIpMxMLkgQUCAwEAAaOBojCBnzAJ
BgNVHRMEAjAAMB0GA1UdDgQWBBQOpkoJjzE5NhYcQ3xE8TmKr1UNzzBRBgNVHSME
SjBIgBT7Ddvfpp5hvoi+C3J+bGK28+4/S6EapBgwFjEUMBIGA1UEAwwLdGVhbTEy
NS1uZXSCFAoCU71Fxmt04J3jhfGyeKDGHyThMBMGA1UdJQQMMAoGCCsGAQUFBwMC
MAsGA1UdDwQEAwIHgDANBgkqhkiG9w0BAQsFAAOCAQEASCEFItdSmQ7wcod59d9W
UqT1oOudSezYgynZsPxos8Ksf/dkQtt72k8dFqoax07RziykRdmCXUwsgSlPXeud
12xOdZNvP3gOYwKfgp8xxcH2gEt1f0Wd9pLIxUy+sFanHOiSVyPHFIpGOM3Ha1Xa
iEOax6R5SD5sO3yPtExUcEBBdmmw/nxArbEvtZ5H7+1wv8AjLsMerUWGFq3IrGnH
y5SoQdODlRgx8/3Y8ZY7pHo88iSgzsTg8YXgYoBnOWtKRSM62wfJ4GFRm5Dfi+8q
I0gsePWygZXHNrUSTmgf3PvjtOWW+iQ1IztDKmk9fKqfTFjkrVijbDxyqG0XgwCA
wg==
-----END CERTIFICATE-----
