Certificate:
    Data:
        Version: 3 (0x2)
        Serial Number:
            0d:10:e5:ad:18:bb:f3:3f:97:c1:d1:49:c8:83:27:3a
        Signature Algorithm: sha256WithRSAEncryption
        Issuer: CN=team38-net
        Validity
            Not Before: Aug 14 14:22:53 2023 GMT
            Not After : Jul 29 14:22:53 2026 GMT
        Subject: CN=team38-client
        Subject Public Key Info:
            Public Key Algorithm: rsaEncryption
                RSA Public-Key: (2048 bit)
                Modulus:
                    00:c3:f1:e6:fb:9c:15:bf:44:59:67:16:17:28:3d:
                    d4:5b:a9:9a:70:d5:1d:98:bb:a5:a2:95:49:83:19:
                    f9:71:b9:60:d7:cb:d1:5d:14:de:23:c0:84:09:f9:
                    03:b6:72:04:2e:5c:aa:a7:c2:3b:15:33:fb:bb:a8:
                    81:d8:f6:44:18:1c:0e:23:52:ef:07:69:25:11:89:
                    40:78:d0:32:5f:aa:44:ce:fd:40:7a:48:54:e8:94:
                    aa:d6:81:2b:fe:65:10:6f:1e:c2:20:2f:3d:21:7e:
                    46:83:76:2b:ca:ed:b0:0f:0e:64:ea:b5:0b:73:5b:
                    13:d6:fd:b4:45:15:1b:87:4a:fd:8f:3d:18:bc:ce:
                    04:f0:ba:c5:70:8e:01:ec:ff:fd:4f:e1:46:8f:0e:
                    12:23:21:2e:54:33:03:05:a7:55:b1:23:75:6f:28:
                    bc:62:6a:5f:cc:97:37:32:a1:ff:35:b0:28:39:d9:
                    4f:96:fc:55:4f:4d:3a:69:ec:04:fd:50:5c:bd:cb:
                    23:f5:37:d5:dd:c0:87:06:a0:3a:a1:c0:51:89:29:
                    df:8e:f3:ba:b8:be:30:88:27:e4:b5:5c:a7:7b:d3:
                    a4:a0:63:3f:80:22:ff:d8:65:79:10:e9:a3:c6:72:
                    6c:9b:11:82:d4:de:25:a2:b1:8a:6d:16:21:39:ef:
                    e2:23
                Exponent: 65537 (0x10001)
        X509v3 extensions:
            X509v3 Basic Constraints: 
                CA:FALSE
            X509v3 Subject Key Identifier: 
                05:67:21:D6:31:8D:0F:20:4F:9E:6B:AC:D4:52:C0:C8:D8:2F:A1:12
            X509v3 Authority Key Identifier: 
                keyid:94:F1:F7:53:A4:9D:A5:68:64:9E:EC:94:E6:4B:A1:AC:52:2F:4B:A1
                DirName:/CN=team38-net
                serial:32:FD:70:B6:AC:76:4D:41:CF:BB:50:E2:89:C0:AA:B4:2D:CC:3F:63

            X509v3 Extended Key Usage: 
                TLS Web Client Authentication
            X509v3 Key Usage: 
                Digital Signature
    Signature Algorithm: sha256WithRSAEncryption
         3a:9c:17:06:2a:3d:0b:c7:fb:99:db:f7:4b:4e:67:ff:b4:e8:
         3b:67:5d:42:54:a3:16:fd:96:c9:3a:47:c8:27:b5:ce:f5:2d:
         a4:1e:64:b9:b5:61:86:0c:0a:d6:57:ea:6e:d6:eb:00:6f:06:
         2e:0b:f3:7e:96:7f:b4:99:9e:82:4b:89:df:0d:68:3b:ff:90:
         87:ec:8f:5a:3f:38:ad:cf:41:82:12:38:78:58:95:4c:38:f7:
         3e:75:95:c3:21:55:f9:59:51:2b:da:fe:39:55:eb:e2:90:87:
         6d:8f:7b:ac:18:d6:e4:c8:c3:f6:e5:02:33:8b:03:3d:02:0c:
         39:c0:b6:f4:3e:01:0f:9e:6f:51:06:91:5b:35:a9:43:7f:87:
         b4:16:e5:ac:66:a7:c5:15:62:cc:cf:bd:e5:2d:58:b7:22:f5:
         30:97:f5:38:66:2a:5c:dd:d5:d2:0d:82:6e:5c:ea:d9:d8:53:
         51:5f:d6:5e:fb:9c:ad:71:82:b8:0b:ac:31:84:b1:10:ce:8c:
         72:b4:a1:21:3f:c8:93:6f:c0:33:4a:f5:cf:d0:2e:fc:7f:62:
         d6:8a:38:b1:db:3f:ba:6f:44:bb:c1:4c:99:1e:49:c4:e3:75:
         8a:9e:89:72:81:41:c4:e0:1d:59:ef:48:d7:67:9a:b9:df:27:
         72:b7:18:76
-----BEGIN CERTIFICATE-----
MIIDWTCCAkGgAwIBAgIQDRDlrRi78z+XwdFJyIMnOjANBgkqhkiG9w0BAQsFADAV
MRMwEQYDVQQDDAp0ZWFtMzgtbmV0MB4XDTIzMDgxNDE0MjI1M1oXDTI2MDcyOTE0
MjI1M1owGDEWMBQGA1UEAwwNdGVhbTM4LWNsaWVudDCCASIwDQYJKoZIhvcNAQEB
BQADggEPADCCAQoCggEBAMPx5vucFb9EWWcWFyg91FupmnDVHZi7paKVSYMZ+XG5
YNfL0V0U3iPAhAn5A7ZyBC5cqqfCOxUz+7uogdj2RBgcDiNS7wdpJRGJQHjQMl+q
RM79QHpIVOiUqtaBK/5lEG8ewiAvPSF+RoN2K8rtsA8OZOq1C3NbE9b9tEUVG4dK
/Y89GLzOBPC6xXCOAez//U/hRo8OEiMhLlQzAwWnVbEjdW8ovGJqX8yXNzKh/zWw
KDnZT5b8VU9NOmnsBP1QXL3LI/U31d3AhwagOqHAUYkp347zuri+MIgn5LVcp3vT
pKBjP4Ai/9hleRDpo8ZybJsRgtTeJaKxim0WITnv4iMCAwEAAaOBoTCBnjAJBgNV
HRMEAjAAMB0GA1UdDgQWBBQFZyHWMY0PIE+ea6zUUsDI2C+hEjBQBgNVHSMESTBH
gBSU8fdTpJ2laGSe7JTmS6GsUi9LoaEZpBcwFTETMBEGA1UEAwwKdGVhbTM4LW5l
dIIUMv1wtqx2TUHPu1DiicCqtC3MP2MwEwYDVR0lBAwwCgYIKwYBBQUHAwIwCwYD
VR0PBAQDAgeAMA0GCSqGSIb3DQEBCwUAA4IBAQA6nBcGKj0Lx/uZ2/dLTmf/tOg7
Z11CVKMW/ZbJOkfIJ7XO9S2kHmS5tWGGDArWV+pu1usAbwYuC/N+ln+0mZ6CS4nf
DWg7/5CH7I9aPzitz0GCEjh4WJVMOPc+dZXDIVX5WVEr2v45VevikIdtj3usGNbk
yMP25QIziwM9Agw5wLb0PgEPnm9RBpFbNalDf4e0FuWsZqfFFWLMz73lLVi3IvUw
l/U4Zipc3dXSDYJuXOrZ2FNRX9Ze+5ytcYK4C6wxhLEQzoxytKEhP8iTb8AzSvXP
0C78f2LWijix2z+6b0S7wUyZHknE43WKnolygUHE4B1Z70jXZ5q53ydytxh2
-----END CERTIFICATE-----
