Certificate:
    Data:
        Version: 3 (0x2)
        Serial Number:
            86:4f:41:b5:89:0c:81:29:35:a2:9b:b1:74:9e:c7:2d
        Signature Algorithm: sha256WithRSAEncryption
        Issuer: CN=team38-net
        Validity
            Not Before: Aug 14 14:22:53 2023 GMT
            Not After : Jul 29 14:22:53 2026 GMT
        Subject: CN=team38-server
        Subject Public Key Info:
            Public Key Algorithm: rsaEncryption
                RSA Public-Key: (2048 bit)
                Modulus:
                    00:d7:0e:b2:fa:dc:5b:79:fc:59:13:00:76:a9:71:
                    6b:c6:0a:b5:ac:64:d5:f9:d1:c2:d4:32:8f:ed:93:
                    07:5c:a9:47:03:64:b0:ad:f3:b9:68:ec:9c:e7:d1:
                    0a:c6:c3:71:61:ea:b1:31:67:3a:cd:8b:ef:eb:cb:
                    ba:10:d6:89:e9:e5:af:d1:8a:d3:8c:af:f5:57:2e:
                    ca:6c:f3:f5:9b:cc:e9:e3:2e:02:71:02:4e:49:67:
                    8a:d0:ba:95:23:6e:c2:03:87:a3:3b:b1:7c:c6:b4:
                    f4:3e:de:0a:db:43:4d:ec:41:2e:93:72:3a:37:62:
                    fa:f9:e4:83:a8:1e:aa:ee:a5:6f:d2:56:d8:f7:20:
                    01:0a:6e:bf:09:bc:7a:ea:3f:a8:16:b8:73:55:fc:
                    06:f6:80:5e:d6:65:80:9a:21:a1:aa:35:67:3f:b6:
                    9a:4c:06:83:41:5e:f8:4c:76:7b:de:15:00:be:cf:
                    58:79:a6:39:73:12:99:82:f0:de:2e:2a:9d:f6:40:
                    23:34:b4:b5:46:a2:75:0c:cd:ca:41:f1:f3:a8:89:
                    3b:a9:e2:9f:57:c2:45:c4:ee:7f:59:c6:00:56:cf:
                    59:be:3c:8e:1e:82:f9:45:8c:8a:3e:d4:5a:91:4d:
                    76:eb:7b:75:ab:f7:7d:9c:44:d1:b0:c3:f2:d7:a6:
                    d3:bf
                Exponent: 65537 (0x10001)
        X509v3 extensions:
            X509v3 Basic Constraints: 
                CA:FALSE
            X509v3 Subject Key Identifier: 
                75:2E:5A:B1:A7:C1:D7:BD:BA:18:1A:F0:F2:FB:86:3A:D6:3D:B6:24
            X509v3 Authority Key Identifier: 
                keyid:94:F1:F7:53:A4:9D:A5:68:64:9E:EC:94:E6:4B:A1:AC:52:2F:4B:A1
                DirName:/CN=team38-net
                serial:32:FD:70:B6:AC:76:4D:41:CF:BB:50:E2:89:C0:AA:B4:2D:CC:3F:63

            X509v3 Extended Key Usage: 
                TLS Web Server Authentication
            X509v3 Key Usage: 
                Digital Signature, Key Encipherment
            X509v3 Subject Alternative Name: 
                DNS:team38-server
    Signature Algorithm: sha256WithRSAEncryption
         9d:1c:4a:0b:dd:80:3a:98:97:06:57:56:13:db:ca:b1:80:37:
         88:ba:52:4f:d4:15:11:28:0e:0c:16:a2:2f:b5:9c:58:b3:69:
         ab:3e:1e:09:54:a2:92:8d:03:03:ab:72:ee:67:e8:ea:30:bc:
         50:ae:e0:8d:86:31:ba:9d:0d:e2:dc:e5:98:29:53:f3:1e:1d:
         97:04:a6:be:d8:f6:08:4e:ad:2f:ba:2e:57:e7:3d:37:0d:e2:
         40:41:32:87:38:a1:7c:c5:d4:9a:01:4c:54:14:4b:78:7a:45:
         42:78:db:be:be:eb:18:3e:3b:bf:9b:e1:eb:41:03:fa:b6:ea:
         cf:43:e7:89:a8:d1:d0:81:c5:57:be:22:f1:ff:6f:a4:ad:23:
         bb:6d:63:29:77:e9:e9:d2:ef:ea:e2:c7:a6:45:eb:02:17:a0:
         19:22:7e:0b:73:81:7f:a8:09:c7:f8:df:8d:bd:d8:4a:d3:ce:
         89:91:85:5e:fd:ad:b5:ec:7b:42:76:69:e2:79:13:b7:ec:3e:
         60:6a:de:1c:7b:13:93:8c:d5:5a:02:27:13:89:08:c3:7d:7b:
         e0:99:91:41:26:81:c8:e4:65:9c:37:15:df:ad:74:05:91:11:
         a4:af:30:b2:05:da:1a:f9:6c:09:1f:10:2e:7c:0f:70:ec:8a:
         78:bc:77:10
-----BEGIN CERTIFICATE-----
MIIDdDCCAlygAwIBAgIRAIZPQbWJDIEpNaKbsXSexy0wDQYJKoZIhvcNAQELBQAw
FTETMBEGA1UEAwwKdGVhbTM4LW5ldDAeFw0yMzA4MTQxNDIyNTNaFw0yNjA3Mjkx
NDIyNTNaMBgxFjAUBgNVBAMMDXRlYW0zOC1zZXJ2ZXIwggEiMA0GCSqGSIb3DQEB
AQUAA4IBDwAwggEKAoIBAQDXDrL63Ft5/FkTAHapcWvGCrWsZNX50cLUMo/tkwdc
qUcDZLCt87lo7Jzn0QrGw3Fh6rExZzrNi+/ry7oQ1onp5a/RitOMr/VXLsps8/Wb
zOnjLgJxAk5JZ4rQupUjbsIDh6M7sXzGtPQ+3grbQ03sQS6Tcjo3Yvr55IOoHqru
pW/SVtj3IAEKbr8JvHrqP6gWuHNV/Ab2gF7WZYCaIaGqNWc/tppMBoNBXvhMdnve
FQC+z1h5pjlzEpmC8N4uKp32QCM0tLVGonUMzcpB8fOoiTup4p9XwkXE7n9ZxgBW
z1m+PI4egvlFjIo+1FqRTXbre3Wr932cRNGww/LXptO/AgMBAAGjgbswgbgwCQYD
VR0TBAIwADAdBgNVHQ4EFgQUdS5asafB1726GBrw8vuGOtY9tiQwUAYDVR0jBEkw
R4AUlPH3U6SdpWhknuyU5kuhrFIvS6GhGaQXMBUxEzARBgNVBAMMCnRlYW0zOC1u
ZXSCFDL9cLasdk1Bz7tQ4onAqrQtzD9jMBMGA1UdJQQMMAoGCCsGAQUFBwMBMAsG
A1UdDwQEAwIFoDAYBgNVHREEETAPgg10ZWFtMzgtc2VydmVyMA0GCSqGSIb3DQEB
CwUAA4IBAQCdHEoL3YA6mJcGV1YT28qxgDeIulJP1BURKA4MFqIvtZxYs2mrPh4J
VKKSjQMDq3LuZ+jqMLxQruCNhjG6nQ3i3OWYKVPzHh2XBKa+2PYITq0vui5X5z03
DeJAQTKHOKF8xdSaAUxUFEt4ekVCeNu+vusYPju/m+HrQQP6turPQ+eJqNHQgcVX
viLx/2+krSO7bWMpd+np0u/q4semResCF6AZIn4Lc4F/qAnH+N+NvdhK086JkYVe
/a217HtCdmnieRO37D5gat4cexOTjNVaAicTiQjDfXvgmZFBJoHI5GWcNxXfrXQF
kRGkrzCyBdoa+WwJHxAufA9w7Ip4vHcQ
-----END CERTIFICATE-----
