Certificate:
    Data:
        Version: 3 (0x2)
        Serial Number:
            f5:34:cf:ee:ba:65:c9:60:44:1e:3d:1b:0e:a2:42:61
        Signature Algorithm: sha256WithRSAEncryption
        Issuer: CN=team221-net
        Validity
            Not Before: Aug 14 14:26:44 2023 GMT
            Not After : Jul 29 14:26:44 2026 GMT
        Subject: CN=team221-server
        Subject Public Key Info:
            Public Key Algorithm: rsaEncryption
                RSA Public-Key: (2048 bit)
                Modulus:
                    00:bc:14:43:26:e4:ec:5b:eb:02:ad:b3:e9:0d:96:
                    54:f0:df:29:61:e6:64:2b:ec:41:3d:b4:0b:70:02:
                    44:0a:0a:64:bc:2e:f6:26:eb:1b:f0:f9:e1:c3:78:
                    b1:99:e1:fd:39:e9:af:c2:2d:e5:79:5a:1c:a9:5e:
                    bb:e9:b2:5a:90:5e:74:05:d5:4a:5b:25:21:9e:96:
                    68:8f:9d:75:ad:5f:19:6f:90:8e:8b:6f:06:75:c6:
                    05:70:73:b2:53:9f:1f:9c:21:e7:cc:b5:1a:1c:35:
                    94:1d:59:b7:b4:2d:1e:fa:b2:ff:09:54:ea:47:23:
                    bd:b1:23:07:8f:2a:26:a6:b4:15:b6:02:79:a6:7e:
                    54:93:d2:a9:eb:7a:40:6f:e6:14:1d:9e:40:fa:f0:
                    54:9e:eb:77:11:fa:f3:49:f6:3e:90:74:3c:97:ec:
                    57:45:0a:df:2d:30:0e:38:e9:d2:c6:f2:7a:fa:82:
                    c9:e5:9f:1d:44:c4:f1:8d:39:f8:53:ad:f8:2d:57:
                    dd:49:c9:33:4e:d5:44:b8:93:cd:61:e5:53:92:be:
                    d5:3a:87:ab:3c:03:88:2c:e5:8a:49:d7:1d:e1:ad:
                    45:30:6c:75:17:a4:a7:cd:15:98:59:09:4f:2c:43:
                    77:da:1c:14:1e:63:2d:91:38:41:ae:0d:96:31:e2:
                    da:61
                Exponent: 65537 (0x10001)
        X509v3 extensions:
            X509v3 Basic Constraints: 
                CA:FALSE
            X509v3 Subject Key Identifier: 
                F2:48:57:F3:68:9D:4D:74:CE:5E:C5:EE:F4:B3:A4:0E:36:6F:9F:51
            X509v3 Authority Key Identifier: 
                keyid:DA:EE:3D:5A:3A:EB:FA:C9:AD:D9:E5:F9:1B:8A:50:3B:D9:F2:BF:3F
                DirName:/CN=team221-net
                serial:5E:7B:A9:D6:25:EA:8E:FE:06:65:64:6C:6C:F0:11:BF:75:BA:38:42

            X509v3 Extended Key Usage: 
                TLS Web Server Authentication
            X509v3 Key Usage: 
                Digital Signature, Key Encipherment
            X509v3 Subject Alternative Name: 
                DNS:team221-server
    Signature Algorithm: sha256WithRSAEncryption
         53:b7:e9:f7:93:26:48:13:ba:c3:b7:7f:0a:e2:d2:3a:be:23:
         ca:b1:28:d7:18:b7:c4:60:24:1b:f1:0f:21:0f:b4:94:1d:b0:
         91:35:2c:e0:86:30:df:ba:7b:84:0c:80:66:66:9d:aa:e2:7e:
         a2:b9:9b:75:73:d4:5a:15:fb:6a:9b:69:b0:51:29:dd:c3:ca:
         f9:01:9d:da:09:9a:7d:2f:88:bf:52:61:b4:a3:c2:5c:3d:16:
         18:7f:a5:3a:38:96:8a:94:9c:60:f4:7b:0d:71:9c:d6:16:0f:
         bb:0a:de:c6:e9:d1:ce:51:3d:5a:31:7d:df:aa:bc:21:07:40:
         a6:8c:97:4a:38:1a:b9:7c:b9:e9:53:17:67:1a:b8:e8:aa:5e:
         d4:94:2a:0f:97:b1:db:89:de:97:a4:cd:f1:77:03:69:04:8a:
         97:79:45:c8:3c:63:da:61:34:d5:b1:fb:4d:91:f7:8b:11:78:
         ff:83:db:54:ea:66:cf:b9:f6:4e:4c:fb:e0:11:a3:61:68:94:
         11:5b:a7:3b:e0:72:0f:bc:32:4b:ac:75:55:e4:b4:91:56:1c:
         c6:24:2f:83:80:08:46:06:a0:fd:3d:5b:a3:4a:f0:2f:0c:d3:
         6b:32:ef:55:01:69:47:5d:2a:ca:0d:fc:1b:bd:52:32:53:12:
         0c:78:ea:6a
-----BEGIN CERTIFICATE-----
MIIDeDCCAmCgAwIBAgIRAPU0z+66ZclgRB49Gw6iQmEwDQYJKoZIhvcNAQELBQAw
FjEUMBIGA1UEAwwLdGVhbTIyMS1uZXQwHhcNMjMwODE0MTQyNjQ0WhcNMjYwNzI5
MTQyNjQ0WjAZMRcwFQYDVQQDDA50ZWFtMjIxLXNlcnZlcjCCASIwDQYJKoZIhvcN
AQEBBQADggEPADCCAQoCggEBALwUQybk7FvrAq2z6Q2WVPDfKWHmZCvsQT20C3AC
RAoKZLwu9ibrG/D54cN4sZnh/Tnpr8It5XlaHKleu+myWpBedAXVSlslIZ6WaI+d
da1fGW+QjotvBnXGBXBzslOfH5wh58y1Ghw1lB1Zt7QtHvqy/wlU6kcjvbEjB48q
Jqa0FbYCeaZ+VJPSqet6QG/mFB2eQPrwVJ7rdxH680n2PpB0PJfsV0UK3y0wDjjp
0sbyevqCyeWfHUTE8Y05+FOt+C1X3UnJM07VRLiTzWHlU5K+1TqHqzwDiCzliknX
HeGtRTBsdRekp80VmFkJTyxDd9ocFB5jLZE4Qa4NljHi2mECAwEAAaOBvTCBujAJ
BgNVHRMEAjAAMB0GA1UdDgQWBBTySFfzaJ1NdM5exe70s6QONm+fUTBRBgNVHSME
SjBIgBTa7j1aOuv6ya3Z5fkbilA72fK/P6EapBgwFjEUMBIGA1UEAwwLdGVhbTIy
MS1uZXSCFF57qdYl6o7+BmVkbGzwEb91ujhCMBMGA1UdJQQMMAoGCCsGAQUFBwMB
MAsGA1UdDwQEAwIFoDAZBgNVHREEEjAQgg50ZWFtMjIxLXNlcnZlcjANBgkqhkiG
9w0BAQsFAAOCAQEAU7fp95MmSBO6w7d/CuLSOr4jyrEo1xi3xGAkG/EPIQ+0lB2w
kTUs4IYw37p7hAyAZmadquJ+ormbdXPUWhX7aptpsFEp3cPK+QGd2gmafS+Iv1Jh
tKPCXD0WGH+lOjiWipScYPR7DXGc1hYPuwrexunRzlE9WjF936q8IQdApoyXSjga
uXy56VMXZxq46Kpe1JQqD5ex24nel6TN8XcDaQSKl3lFyDxj2mE01bH7TZH3ixF4
/4PbVOpmz7n2Tkz74BGjYWiUEVunO+ByD7wyS6x1VeS0kVYcxiQvg4AIRgag/T1b
o0rwLwzTazLvVQFpR10qyg38G71SMlMSDHjqag==
-----END CERTIFICATE-----
