Certificate:
    Data:
        Version: 3 (0x2)
        Serial Number:
            6d:3d:07:93:cf:6f:0d:a3:3d:b5:76:12:c0:33:ab:d8
        Signature Algorithm: sha256WithRSAEncryption
        Issuer: CN=team95-net
        Validity
            Not Before: Aug 14 14:24:09 2023 GMT
            Not After : Jul 29 14:24:09 2026 GMT
        Subject: CN=team95-server
        Subject Public Key Info:
            Public Key Algorithm: rsaEncryption
                RSA Public-Key: (2048 bit)
                Modulus:
                    00:aa:5c:d7:37:c5:47:3f:7a:1a:81:09:be:43:58:
                    8d:25:3d:9d:77:23:3f:52:ad:e3:34:c0:d8:c2:00:
                    1e:14:6f:b4:a5:62:a7:10:c3:93:eb:0f:c5:7c:96:
                    c0:54:ca:47:7c:27:84:7a:25:17:51:41:2c:cb:32:
                    ec:54:02:f4:17:4a:cb:98:bc:e7:bd:9c:b5:17:df:
                    5b:09:63:09:99:45:e5:55:b7:da:d5:70:14:8e:fb:
                    3a:2a:3d:1c:3a:7a:6c:28:84:63:0a:74:1b:ee:e7:
                    cd:79:d5:d5:6d:59:98:b9:56:2e:2c:e5:6d:6c:a4:
                    d3:ae:4a:d3:21:32:40:bb:c4:df:00:b0:a2:7f:34:
                    72:c3:e4:3d:cb:f5:91:62:c3:70:6f:63:b6:e0:56:
                    1e:a3:d7:61:12:8b:20:83:73:42:a3:cb:d1:d7:82:
                    7f:68:27:a7:34:37:4b:6f:ff:d8:7c:bb:aa:06:d7:
                    23:fe:3f:71:f5:f7:73:29:6b:a1:a0:16:87:b9:9c:
                    e8:80:61:62:30:56:19:4f:50:c1:6f:28:56:8e:35:
                    df:3f:b8:49:7d:c5:a1:0f:f8:3c:a7:cc:7e:fa:58:
                    33:2d:04:27:d3:42:eb:e8:0f:35:bd:e1:dc:3a:0a:
                    f7:41:5f:16:53:50:6c:fc:e2:f9:71:97:0b:dd:f2:
                    d3:d1
                Exponent: 65537 (0x10001)
        X509v3 extensions:
            X509v3 Basic Constraints: 
                CA:FALSE
            X509v3 Subject Key Identifier: 
                90:4B:55:C5:83:4D:94:FC:A1:6A:9F:6D:36:7F:A3:54:3C:1C:82:1B
            X509v3 Authority Key Identifier: 
                keyid:D4:43:7D:F8:1F:48:13:49:9D:A8:CA:3B:93:B8:A0:7B:31:1B:5E:F0
                DirName:/CN=team95-net
                serial:71:90:D1:24:8F:45:3D:6B:EE:DC:D2:F2:23:80:4D:B4:F6:6C:F9:BA

            X509v3 Extended Key Usage: 
                TLS Web Server Authentication
            X509v3 Key Usage: 
                Digital Signature, Key Encipherment
            X509v3 Subject Alternative Name: 
                DNS:team95-server
    Signature Algorithm: sha256WithRSAEncryption
         69:24:63:07:76:0a:f5:75:5c:92:a0:8b:32:77:17:17:0e:68:
         f2:32:7e:83:28:dd:c4:24:e7:13:02:40:08:e2:6b:f1:56:28:
         5b:84:9a:31:4a:6a:c5:df:d5:53:03:47:d2:de:23:54:4c:c3:
         03:37:f5:51:3a:00:cb:c9:30:04:4e:59:3f:af:54:a1:81:34:
         18:bf:9f:85:76:12:04:08:13:c8:90:3b:21:df:a5:f7:58:0b:
         13:ad:ca:1f:54:51:f0:f1:87:10:01:05:aa:35:5d:01:e8:44:
         8e:33:fe:96:fe:02:82:b6:d0:7d:2f:1c:61:5b:8a:f6:11:d3:
         dd:30:6d:69:44:dc:18:4a:27:cc:50:3c:44:d3:6b:9d:5e:dd:
         dd:37:7b:de:b2:f8:92:b7:ff:12:67:21:fc:17:af:8b:38:e3:
         a9:7b:46:8d:2f:92:24:cc:ba:d5:ca:ef:64:81:5e:ea:35:80:
         28:bb:d9:89:12:25:d8:0f:ca:98:65:13:11:db:8f:98:6c:df:
         0d:fd:d4:d3:98:7a:9a:75:33:a1:5f:f9:5a:28:22:8c:99:3c:
         ae:78:e9:05:88:3b:13:19:48:83:c9:a8:a0:e7:bf:9f:eb:f1:
         79:56:6b:f4:6e:3c:93:a0:71:2f:01:ca:cf:e7:da:ea:d5:80:
         fb:ef:a4:5f
-----BEGIN CERTIFICATE-----
MIIDczCCAlugAwIBAgIQbT0Hk89vDaM9tXYSwDOr2DANBgkqhkiG9w0BAQsFADAV
MRMwEQYDVQQDDAp0ZWFtOTUtbmV0MB4XDTIzMDgxNDE0MjQwOVoXDTI2MDcyOTE0
MjQwOVowGDEWMBQGA1UEAwwNdGVhbTk1LXNlcnZlcjCCASIwDQYJKoZIhvcNAQEB
BQADggEPADCCAQoCggEBAKpc1zfFRz96GoEJvkNYjSU9nXcjP1Kt4zTA2MIAHhRv
tKVipxDDk+sPxXyWwFTKR3wnhHolF1FBLMsy7FQC9BdKy5i8572ctRffWwljCZlF
5VW32tVwFI77Oio9HDp6bCiEYwp0G+7nzXnV1W1ZmLlWLizlbWyk065K0yEyQLvE
3wCwon80csPkPcv1kWLDcG9jtuBWHqPXYRKLIINzQqPL0deCf2gnpzQ3S2//2Hy7
qgbXI/4/cfX3cylroaAWh7mc6IBhYjBWGU9QwW8oVo413z+4SX3FoQ/4PKfMfvpY
My0EJ9NC6+gPNb3h3DoK90FfFlNQbPzi+XGXC93y09ECAwEAAaOBuzCBuDAJBgNV
HRMEAjAAMB0GA1UdDgQWBBSQS1XFg02U/KFqn202f6NUPByCGzBQBgNVHSMESTBH
gBTUQ334H0gTSZ2oyjuTuKB7MRte8KEZpBcwFTETMBEGA1UEAwwKdGVhbTk1LW5l
dIIUcZDRJI9FPWvu3NLyI4BNtPZs+bowEwYDVR0lBAwwCgYIKwYBBQUHAwEwCwYD
VR0PBAQDAgWgMBgGA1UdEQQRMA+CDXRlYW05NS1zZXJ2ZXIwDQYJKoZIhvcNAQEL
BQADggEBAGkkYwd2CvV1XJKgizJ3FxcOaPIyfoMo3cQk5xMCQAjia/FWKFuEmjFK
asXf1VMDR9LeI1RMwwM39VE6AMvJMAROWT+vVKGBNBi/n4V2EgQIE8iQOyHfpfdY
CxOtyh9UUfDxhxABBao1XQHoRI4z/pb+AoK20H0vHGFbivYR090wbWlE3BhKJ8xQ
PETTa51e3d03e96y+JK3/xJnIfwXr4s446l7Ro0vkiTMutXK72SBXuo1gCi72YkS
JdgPyphlExHbj5hs3w391NOYepp1M6Ff+VooIoyZPK546QWIOxMZSIPJqKDnv5/r
8XlWa/RuPJOgcS8Bys/n2urVgPvvpF8=
-----END CERTIFICATE-----
