Certificate:
    Data:
        Version: 3 (0x2)
        Serial Number:
            a5:b1:fa:b3:f8:5a:b4:94:25:6e:fc:22:97:2f:40:d4
        Signature Algorithm: sha256WithRSAEncryption
        Issuer: CN=team102-net
        Validity
            Not Before: Aug 14 14:24:18 2023 GMT
            Not After : Jul 29 14:24:18 2026 GMT
        Subject: CN=team102-client
        Subject Public Key Info:
            Public Key Algorithm: rsaEncryption
                RSA Public-Key: (2048 bit)
                Modulus:
                    00:ee:d5:5f:ba:16:1e:e2:b0:3d:20:3b:0c:56:43:
                    44:10:41:9c:16:f0:59:ed:55:ed:98:c8:27:73:28:
                    28:45:15:56:3f:3f:0c:fd:88:0a:30:48:3f:27:ed:
                    1b:e3:e6:dd:25:c2:98:3d:40:f4:da:87:c9:1c:39:
                    f1:da:ac:23:79:4a:c2:83:57:bf:6e:de:7c:31:b5:
                    92:46:7a:91:71:d6:9d:32:56:50:7f:b6:e2:3d:6d:
                    0a:0e:0e:55:3b:4c:7f:23:61:f1:70:0f:85:4c:d6:
                    16:e9:ca:4e:f7:31:b6:e1:0a:a3:6d:63:8a:80:e4:
                    e7:f9:40:5b:53:54:07:09:8e:55:60:24:8d:2d:3e:
                    0b:95:00:ce:2a:71:51:a7:9b:83:a4:16:a9:d4:2b:
                    5e:55:95:8c:9b:89:d6:96:6d:45:b8:b9:08:06:93:
                    03:fc:30:4e:7d:34:89:2b:9c:a0:df:d7:24:7d:b2:
                    a7:73:54:e7:47:7a:89:dc:e6:2d:ae:2d:7c:1d:19:
                    1b:66:be:a0:d8:4d:69:eb:89:42:42:38:59:b7:50:
                    1c:d3:fe:08:a5:d1:73:99:0f:98:a4:8f:1f:49:48:
                    bf:50:00:9a:36:3d:bd:c8:d2:ed:ea:b1:d1:b3:49:
                    d2:da:2c:a1:01:86:ab:d4:80:0d:9f:21:91:12:42:
                    34:55
                Exponent: 65537 (0x10001)
        X509v3 extensions:
            X509v3 Basic Constraints: 
                CA:FALSE
            X509v3 Subject Key Identifier: 
                25:D7:80:D8:28:7E:7A:02:E8:60:D6:5B:16:20:6C:22:88:FD:C8:6A
            X509v3 Authority Key Identifier: 
                keyid:4C:5A:DE:14:73:33:EA:BD:29:AD:93:A3:BA:9D:3D:77:65:16:7C:66
                DirName:/CN=team102-net
                serial:72:64:91:30:AF:05:40:34:4E:55:59:82:57:20:11:5A:9D:7C:FB:3C

            X509v3 Extended Key Usage: 
                TLS Web Client Authentication
            X509v3 Key Usage: 
                Digital Signature
    Signature Algorithm: sha256WithRSAEncryption
         88:9e:10:06:3a:3c:ab:8c:35:44:f2:9a:7d:ab:d3:c0:80:46:
         ed:83:07:a8:65:e4:10:fe:cf:35:b2:a3:16:8a:5a:fd:38:55:
         a8:ee:e1:c2:52:8f:af:1f:ac:0c:18:a8:62:89:be:65:99:4e:
         ec:a9:55:78:e4:c5:07:ab:47:4a:68:cf:c3:a7:5e:b4:ad:9f:
         99:08:41:6b:72:8a:ef:39:22:d8:32:a3:a0:0d:b1:ca:69:66:
         4d:07:96:20:68:92:1c:00:3b:08:6f:c4:3b:55:d8:47:8e:f9:
         c5:6c:50:45:e5:a5:3e:7b:ed:d5:f0:51:6a:44:94:92:06:26:
         f7:81:27:f1:0c:16:01:fe:e4:48:8b:1f:9d:90:51:7a:73:18:
         58:20:d4:af:59:cb:43:6b:27:fc:d4:00:57:a7:dd:54:cd:9c:
         b1:6f:13:56:35:2c:f2:c0:19:7d:24:6c:3b:62:b3:c1:a2:59:
         f0:ee:a0:77:a3:b4:da:8c:39:bf:86:d3:6e:49:47:52:f9:e6:
         28:c5:f5:53:61:cf:5a:49:13:57:98:89:e8:5b:13:39:e1:fe:
         82:44:b4:5b:4d:e1:aa:d1:ee:c2:0f:d2:10:4d:56:7c:b9:2a:
         fd:7f:34:c5:3f:f5:8d:2e:7f:6f:36:1b:a2:cd:84:93:4c:6e:
         23:1a:a4:5f
-----BEGIN CERTIFICATE-----
MIIDXTCCAkWgAwIBAgIRAKWx+rP4WrSUJW78IpcvQNQwDQYJKoZIhvcNAQELBQAw
FjEUMBIGA1UEAwwLdGVhbTEwMi1uZXQwHhcNMjMwODE0MTQyNDE4WhcNMjYwNzI5
MTQyNDE4WjAZMRcwFQYDVQQDDA50ZWFtMTAyLWNsaWVudDCCASIwDQYJKoZIhvcN
AQEBBQADggEPADCCAQoCggEBAO7VX7oWHuKwPSA7DFZDRBBBnBbwWe1V7ZjIJ3Mo
KEUVVj8/DP2ICjBIPyftG+Pm3SXCmD1A9NqHyRw58dqsI3lKwoNXv27efDG1kkZ6
kXHWnTJWUH+24j1tCg4OVTtMfyNh8XAPhUzWFunKTvcxtuEKo21jioDk5/lAW1NU
BwmOVWAkjS0+C5UAzipxUaebg6QWqdQrXlWVjJuJ1pZtRbi5CAaTA/wwTn00iSuc
oN/XJH2yp3NU50d6idzmLa4tfB0ZG2a+oNhNaeuJQkI4WbdQHNP+CKXRc5kPmKSP
H0lIv1AAmjY9vcjS7eqx0bNJ0tosoQGGq9SADZ8hkRJCNFUCAwEAAaOBojCBnzAJ
BgNVHRMEAjAAMB0GA1UdDgQWBBQl14DYKH56Auhg1lsWIGwiiP3IajBRBgNVHSME
SjBIgBRMWt4UczPqvSmtk6O6nT13ZRZ8ZqEapBgwFjEUMBIGA1UEAwwLdGVhbTEw
Mi1uZXSCFHJkkTCvBUA0TlVZglcgEVqdfPs8MBMGA1UdJQQMMAoGCCsGAQUFBwMC
MAsGA1UdDwQEAwIHgDANBgkqhkiG9w0BAQsFAAOCAQEAiJ4QBjo8q4w1RPKafavT
wIBG7YMHqGXkEP7PNbKjFopa/ThVqO7hwlKPrx+sDBioYom+ZZlO7KlVeOTFB6tH
SmjPw6detK2fmQhBa3KK7zki2DKjoA2xymlmTQeWIGiSHAA7CG/EO1XYR475xWxQ
ReWlPnvt1fBRakSUkgYm94En8QwWAf7kSIsfnZBRenMYWCDUr1nLQ2sn/NQAV6fd
VM2csW8TVjUs8sAZfSRsO2KzwaJZ8O6gd6O02ow5v4bTbklHUvnmKMX1U2HPWkkT
V5iJ6FsTOeH+gkS0W03hqtHuwg/SEE1WfLkq/X80xT/1jS5/bzYbos2Ek0xuIxqk
Xw==
-----END CERTIFICATE-----
