Certificate:
    Data:
        Version: 3 (0x2)
        Serial Number:
            e3:21:37:6f:6e:7a:60:20:ac:7e:61:7c:d8:ce:6d:ce
        Signature Algorithm: sha256WithRSAEncryption
        Issuer: CN=team102-net
        Validity
            Not Before: Aug 14 14:24:18 2023 GMT
            Not After : Jul 29 14:24:18 2026 GMT
        Subject: CN=team102-server
        Subject Public Key Info:
            Public Key Algorithm: rsaEncryption
                RSA Public-Key: (2048 bit)
                Modulus:
                    00:e0:72:0c:b6:d9:e4:8e:08:48:2b:48:65:a4:63:
                    7e:5d:15:6d:1a:b1:6c:23:ab:a1:f7:c7:4d:94:7c:
                    d8:4a:de:96:b5:bb:1f:38:f1:e0:3c:3b:8a:6f:b3:
                    f1:d2:23:ca:72:a6:44:dd:87:3a:9b:3f:e4:e5:03:
                    db:db:c7:17:30:4d:d9:0e:a7:25:40:91:6d:dd:e4:
                    6b:3d:11:69:9d:57:33:d2:d2:fc:76:1d:3a:2f:a5:
                    ed:c8:25:72:e5:8a:7f:09:43:60:6c:cf:d0:6a:a4:
                    3b:b8:32:c4:8d:8a:95:77:cf:50:f7:15:76:9b:95:
                    17:62:63:03:00:4f:54:ab:c7:f2:03:b6:58:45:8e:
                    4c:9a:d3:6d:d8:7a:7a:ec:e0:b5:2d:6a:18:82:5f:
                    ef:8d:ad:f5:59:3a:e1:f5:4b:00:97:90:60:a9:79:
                    41:eb:b8:8c:5e:32:4f:ac:5d:91:13:1d:cc:b0:1a:
                    c0:51:36:8c:02:c7:f5:4b:ce:e5:24:0f:06:be:69:
                    27:0c:2a:b4:81:79:25:4c:02:61:1a:52:f1:4b:60:
                    60:81:5a:5a:5d:a0:72:45:80:21:eb:51:16:8b:6c:
                    56:b3:01:3d:b8:1a:30:9f:2c:bc:63:70:d1:4f:53:
                    d8:5b:b8:fe:b2:ac:32:dd:68:8a:83:1c:8a:9e:26:
                    e2:61
                Exponent: 65537 (0x10001)
        X509v3 extensions:
            X509v3 Basic Constraints: 
                CA:FALSE
            X509v3 Subject Key Identifier: 
                13:64:3B:F6:6C:68:A2:83:C4:EA:F8:2A:3D:E5:DA:8A:31:6F:E5:44
            X509v3 Authority Key Identifier: 
                keyid:4C:5A:DE:14:73:33:EA:BD:29:AD:93:A3:BA:9D:3D:77:65:16:7C:66
                DirName:/CN=team102-net
                serial:72:64:91:30:AF:05:40:34:4E:55:59:82:57:20:11:5A:9D:7C:FB:3C

            X509v3 Extended Key Usage: 
                TLS Web Server Authentication
            X509v3 Key Usage: 
                Digital Signature, Key Encipherment
            X509v3 Subject Alternative Name: 
                DNS:team102-server
    Signature Algorithm: sha256WithRSAEncryption
         b4:cc:40:af:b7:f7:c8:6c:db:6e:91:39:01:cb:de:16:5c:8e:
         49:02:9c:48:f9:26:93:1c:bb:c3:47:b0:b2:c4:7e:43:2f:19:
         00:ba:8e:2e:f6:6c:92:4f:58:ae:fd:7e:75:38:e7:03:22:90:
         64:51:c9:65:7e:66:81:26:fa:c2:2c:8e:8a:84:b2:3c:07:24:
         80:e4:6b:16:65:ea:9a:ea:9a:45:c0:b1:b0:36:a7:fb:aa:35:
         87:66:b7:91:31:d3:20:64:06:ea:26:4e:7a:13:34:8b:37:e1:
         a7:96:3e:75:80:63:8f:30:8b:87:e5:25:07:e2:7a:27:5c:d5:
         c4:4a:ae:92:f2:2a:75:2d:d3:0e:12:1f:86:44:56:a0:23:a1:
         42:5a:77:73:03:80:23:96:52:4a:18:e0:b0:3c:18:4c:6d:34:
         be:3d:d7:de:00:30:67:ec:ad:fb:e8:49:be:2a:20:c6:ed:6e:
         40:d9:fc:1e:7c:07:a5:8c:57:7e:95:f9:57:d4:8f:ed:3e:24:
         06:d1:e0:77:24:1a:ce:cd:74:8f:44:3c:79:0e:f8:a0:04:e3:
         4a:61:7a:74:f5:16:59:9e:f2:d8:d5:db:f6:e9:4b:45:0f:4e:
         dd:9a:f7:56:2e:af:6b:51:c2:5c:ff:c5:6d:09:03:2c:4f:6e:
         3e:0b:d6:96
-----BEGIN CERTIFICATE-----
MIIDeDCCAmCgAwIBAgIRAOMhN29uemAgrH5hfNjObc4wDQYJKoZIhvcNAQELBQAw
FjEUMBIGA1UEAwwLdGVhbTEwMi1uZXQwHhcNMjMwODE0MTQyNDE4WhcNMjYwNzI5
MTQyNDE4WjAZMRcwFQYDVQQDDA50ZWFtMTAyLXNlcnZlcjCCASIwDQYJKoZIhvcN
AQEBBQADggEPADCCAQoCggEBAOByDLbZ5I4ISCtIZaRjfl0VbRqxbCOroffHTZR8
2ErelrW7Hzjx4Dw7im+z8dIjynKmRN2HOps/5OUD29vHFzBN2Q6nJUCRbd3kaz0R
aZ1XM9LS/HYdOi+l7cglcuWKfwlDYGzP0GqkO7gyxI2KlXfPUPcVdpuVF2JjAwBP
VKvH8gO2WEWOTJrTbdh6euzgtS1qGIJf742t9Vk64fVLAJeQYKl5Qeu4jF4yT6xd
kRMdzLAawFE2jALH9UvO5SQPBr5pJwwqtIF5JUwCYRpS8UtgYIFaWl2gckWAIetR
FotsVrMBPbgaMJ8svGNw0U9T2Fu4/rKsMt1oioMcip4m4mECAwEAAaOBvTCBujAJ
BgNVHRMEAjAAMB0GA1UdDgQWBBQTZDv2bGiig8Tq+Co95dqKMW/lRDBRBgNVHSME
SjBIgBRMWt4UczPqvSmtk6O6nT13ZRZ8ZqEapBgwFjEUMBIGA1UEAwwLdGVhbTEw
Mi1uZXSCFHJkkTCvBUA0TlVZglcgEVqdfPs8MBMGA1UdJQQMMAoGCCsGAQUFBwMB
MAsGA1UdDwQEAwIFoDAZBgNVHREEEjAQgg50ZWFtMTAyLXNlcnZlcjANBgkqhkiG
9w0BAQsFAAOCAQEAtMxAr7f3yGzbbpE5AcveFlyOSQKcSPkmkxy7w0ewssR+Qy8Z
ALqOLvZskk9Yrv1+dTjnAyKQZFHJZX5mgSb6wiyOioSyPAckgORrFmXqmuqaRcCx
sDan+6o1h2a3kTHTIGQG6iZOehM0izfhp5Y+dYBjjzCLh+UlB+J6J1zVxEqukvIq
dS3TDhIfhkRWoCOhQlp3cwOAI5ZSShjgsDwYTG00vj3X3gAwZ+yt++hJviogxu1u
QNn8HnwHpYxXfpX5V9SP7T4kBtHgdyQazs10j0Q8eQ74oATjSmF6dPUWWZ7y2NXb
9ulLRQ9O3Zr3Vi6va1HCXP/FbQkDLE9uPgvWlg==
-----END CERTIFICATE-----
