Certificate:
    Data:
        Version: 3 (0x2)
        Serial Number:
            08:cb:e7:24:05:45:12:0f:f4:67:c3:df:52:82:f5:3d
        Signature Algorithm: sha256WithRSAEncryption
        Issuer: CN=team204-net
        Validity
            Not Before: Aug 14 14:26:24 2023 GMT
            Not After : Jul 29 14:26:24 2026 GMT
        Subject: CN=team204-server
        Subject Public Key Info:
            Public Key Algorithm: rsaEncryption
                RSA Public-Key: (2048 bit)
                Modulus:
                    00:ef:12:43:dc:43:05:af:da:88:76:fe:e0:b3:f8:
                    48:94:55:eb:32:b1:85:2c:d0:45:cb:ab:cf:a1:b0:
                    7e:28:9f:89:28:66:58:4a:d1:0a:45:47:09:0a:37:
                    8d:2f:42:a7:34:38:57:34:e4:b6:b4:3f:ad:b5:e4:
                    6e:c3:8c:49:eb:56:de:44:f9:e2:9e:9a:fa:77:8c:
                    53:29:2f:89:e8:44:36:5e:d9:0e:52:e2:8c:b7:e3:
                    73:9e:ee:3d:57:9c:a0:6d:5c:14:73:a6:2e:68:f6:
                    e7:3c:65:e3:fc:56:2a:7b:91:73:13:24:1f:08:74:
                    e8:7c:b6:8b:78:3a:a3:c9:d5:7c:ba:d6:85:7d:8d:
                    89:c3:fc:e4:f0:a1:98:01:ba:2d:8b:f5:08:b0:8b:
                    57:c3:5d:02:ab:83:ea:66:3e:c2:38:2e:6b:5b:4d:
                    9a:d0:92:70:98:1a:6e:19:53:53:81:bc:76:a2:3f:
                    10:c9:e1:d0:29:b8:71:1b:ba:20:0b:33:3b:c9:72:
                    00:d4:56:cb:73:ec:73:69:71:42:56:5d:40:78:fa:
                    b7:62:3d:39:0f:ab:74:30:ca:ca:43:6f:f0:16:69:
                    94:8d:ee:11:7c:85:38:61:b3:ac:1b:18:77:68:7e:
                    f3:52:23:7c:1a:aa:fe:12:e2:fd:0c:67:e3:50:b5:
                    e4:5d
                Exponent: 65537 (0x10001)
        X509v3 extensions:
            X509v3 Basic Constraints: 
                CA:FALSE
            X509v3 Subject Key Identifier: 
                E6:C2:F7:0D:81:BD:B3:23:5D:EF:42:38:C7:42:91:89:99:C3:4B:73
            X509v3 Authority Key Identifier: 
                keyid:4E:8D:FB:3B:32:BA:E2:54:7E:5E:0D:E0:A5:01:83:E5:DE:FE:54:2E
                DirName:/CN=team204-net
                serial:22:9C:D4:47:94:37:FE:11:57:5C:E8:51:2A:6C:8B:DA:4F:43:AC:F7

            X509v3 Extended Key Usage: 
                TLS Web Server Authentication
            X509v3 Key Usage: 
                Digital Signature, Key Encipherment
            X509v3 Subject Alternative Name: 
                DNS:team204-server
    Signature Algorithm: sha256WithRSAEncryption
         96:ef:6c:f6:34:02:0b:35:0e:ef:36:de:dc:5c:7a:9c:64:25:
         49:a2:85:43:ab:da:20:1b:63:45:d4:43:f4:fb:9b:a8:af:25:
         ff:1b:28:72:11:0a:4e:55:2a:2c:9e:cd:72:34:9a:42:de:40:
         6e:94:4a:45:80:82:ed:6a:94:ca:e1:1b:bf:cf:e6:97:88:dc:
         5e:1c:e3:ca:6e:7b:4a:67:6e:1f:dc:bf:32:fb:3f:4e:91:f8:
         f0:b3:04:af:c2:66:c3:e4:4a:74:7d:c7:52:1d:af:98:55:36:
         fc:26:1a:f5:94:04:c0:14:90:d3:96:eb:48:72:14:0b:13:24:
         49:6b:92:97:99:98:b2:41:8e:e2:79:00:b5:4c:16:3e:04:0d:
         4f:57:13:86:44:61:31:6a:7a:8a:07:8b:59:57:cc:44:a8:8f:
         19:91:6a:cd:3e:53:54:7b:4c:0d:9e:82:ae:6a:8b:c3:49:84:
         db:cc:0a:c0:55:be:fb:73:14:e3:57:16:5f:04:f4:ad:07:7b:
         cc:d1:47:e5:da:96:36:55:72:3d:3f:d2:03:67:94:17:82:f4:
         90:b3:13:a2:37:c5:5f:c7:f0:61:4d:77:88:4d:40:5d:65:2b:
         c4:24:fb:0e:b9:b9:69:b1:01:bc:cb:a2:71:85:36:25:b7:45:
         02:3c:e7:06
-----BEGIN CERTIFICATE-----
MIIDdzCCAl+gAwIBAgIQCMvnJAVFEg/0Z8PfUoL1PTANBgkqhkiG9w0BAQsFADAW
MRQwEgYDVQQDDAt0ZWFtMjA0LW5ldDAeFw0yMzA4MTQxNDI2MjRaFw0yNjA3Mjkx
NDI2MjRaMBkxFzAVBgNVBAMMDnRlYW0yMDQtc2VydmVyMIIBIjANBgkqhkiG9w0B
AQEFAAOCAQ8AMIIBCgKCAQEA7xJD3EMFr9qIdv7gs/hIlFXrMrGFLNBFy6vPobB+
KJ+JKGZYStEKRUcJCjeNL0KnNDhXNOS2tD+tteRuw4xJ61beRPninpr6d4xTKS+J
6EQ2XtkOUuKMt+Nznu49V5ygbVwUc6YuaPbnPGXj/FYqe5FzEyQfCHTofLaLeDqj
ydV8utaFfY2Jw/zk8KGYAboti/UIsItXw10Cq4PqZj7COC5rW02a0JJwmBpuGVNT
gbx2oj8QyeHQKbhxG7ogCzM7yXIA1FbLc+xzaXFCVl1AePq3Yj05D6t0MMrKQ2/w
FmmUje4RfIU4YbOsGxh3aH7zUiN8Gqr+EuL9DGfjULXkXQIDAQABo4G9MIG6MAkG
A1UdEwQCMAAwHQYDVR0OBBYEFObC9w2BvbMjXe9COMdCkYmZw0tzMFEGA1UdIwRK
MEiAFE6N+zsyuuJUfl4N4KUBg+Xe/lQuoRqkGDAWMRQwEgYDVQQDDAt0ZWFtMjA0
LW5ldIIUIpzUR5Q3/hFXXOhRKmyL2k9DrPcwEwYDVR0lBAwwCgYIKwYBBQUHAwEw
CwYDVR0PBAQDAgWgMBkGA1UdEQQSMBCCDnRlYW0yMDQtc2VydmVyMA0GCSqGSIb3
DQEBCwUAA4IBAQCW72z2NAILNQ7vNt7cXHqcZCVJooVDq9ogG2NF1EP0+5uoryX/
GyhyEQpOVSosns1yNJpC3kBulEpFgILtapTK4Ru/z+aXiNxeHOPKbntKZ24f3L8y
+z9OkfjwswSvwmbD5Ep0fcdSHa+YVTb8Jhr1lATAFJDTlutIchQLEyRJa5KXmZiy
QY7ieQC1TBY+BA1PVxOGRGExanqKB4tZV8xEqI8ZkWrNPlNUe0wNnoKuaovDSYTb
zArAVb77cxTjVxZfBPStB3vM0Ufl2pY2VXI9P9IDZ5QXgvSQsxOiN8Vfx/BhTXeI
TUBdZSvEJPsOublpsQG8y6JxhTYlt0UCPOcG
-----END CERTIFICATE-----
