Certificate:
    Data:
        Version: 3 (0x2)
        Serial Number:
            67:1c:08:f8:4c:cb:58:6b:b3:f5:81:87:c6:0f:64:62
        Signature Algorithm: sha256WithRSAEncryption
        Issuer: CN=team292-net
        Validity
            Not Before: Aug 14 14:28:15 2023 GMT
            Not After : Jul 29 14:28:15 2026 GMT
        Subject: CN=team292-server
        Subject Public Key Info:
            Public Key Algorithm: rsaEncryption
                RSA Public-Key: (2048 bit)
                Modulus:
                    00:d5:8f:53:4c:b2:e5:30:e4:bf:e7:04:33:a5:7c:
                    c3:a3:0c:66:f0:43:4e:ac:fb:03:b5:b6:f1:8b:12:
                    f4:c3:a8:23:fe:3e:f9:5d:ab:f0:6d:43:c9:6f:04:
                    be:cc:65:e6:89:78:04:4a:99:39:d6:2e:c6:c2:9a:
                    ab:00:c9:04:f5:bd:73:ad:19:c1:f9:45:32:32:4c:
                    87:0c:da:73:cd:df:67:1d:5b:7a:2e:a2:d0:11:40:
                    cb:f0:97:60:7d:5b:87:01:4d:01:92:2c:cc:04:30:
                    b7:be:da:1e:f6:4f:b1:9e:da:24:92:b5:a4:46:43:
                    ef:41:24:b3:1c:86:92:43:04:e3:b8:28:0a:78:40:
                    9e:bd:9f:89:3a:1a:a7:01:69:c0:cd:35:22:b0:ba:
                    ce:0a:90:13:fc:44:10:96:33:f1:41:83:a5:67:b9:
                    e9:45:35:8d:d6:f7:bb:17:5d:7a:8b:e1:5f:3c:a9:
                    56:8b:b5:a3:fa:ec:32:77:89:5f:4f:53:25:70:cc:
                    f3:fa:e0:42:35:8f:79:2f:a9:bf:a2:9f:d9:8f:eb:
                    85:85:a7:f3:91:6f:2e:2e:9e:e8:f8:60:d4:b7:86:
                    21:2c:a1:e2:05:53:af:49:77:41:7f:5d:ef:77:5e:
                    91:24:7d:46:49:bf:fa:be:58:ab:c7:7c:86:c1:8c:
                    7d:f1
                Exponent: 65537 (0x10001)
        X509v3 extensions:
            X509v3 Basic Constraints: 
                CA:FALSE
            X509v3 Subject Key Identifier: 
                2A:0C:42:16:DC:EF:4C:BB:23:D3:FB:9F:27:95:4F:2C:B1:65:1F:DD
            X509v3 Authority Key Identifier: 
                keyid:74:19:B7:E2:BC:C8:D4:D4:1C:4F:4A:FC:12:C9:42:63:2D:37:CF:89
                DirName:/CN=team292-net
                serial:23:4A:EE:1B:2D:EB:68:DD:72:05:3E:B9:DF:9D:0D:46:CC:0B:5A:CB

            X509v3 Extended Key Usage: 
                TLS Web Server Authentication
            X509v3 Key Usage: 
                Digital Signature, Key Encipherment
            X509v3 Subject Alternative Name: 
                DNS:team292-server
    Signature Algorithm: sha256WithRSAEncryption
         9c:ed:59:d8:cb:f8:62:35:a9:72:8d:d9:46:39:c3:8d:c9:ce:
         9a:64:01:e6:f8:ae:7a:ef:c9:76:3f:f9:52:94:cf:33:90:b4:
         54:d0:49:6f:17:57:06:3b:95:45:85:d8:c3:f5:dc:ef:cb:35:
         a7:b2:b4:91:4d:95:77:be:f1:64:58:c6:56:87:55:47:be:4e:
         e9:07:37:6b:da:17:12:7d:8c:e8:aa:3a:e6:12:54:5d:01:52:
         46:0c:c8:43:7a:03:59:34:11:8e:93:4c:93:8f:ec:2a:a8:4d:
         ec:17:db:2b:de:6d:c9:37:97:bd:40:38:65:4e:a3:f7:ea:22:
         f1:83:e5:b0:c0:64:3e:9d:58:5b:4b:e8:20:98:01:fc:38:55:
         eb:42:3c:f2:42:19:72:dd:f6:f5:7a:1d:ff:df:e4:ba:c1:b8:
         93:1c:d4:3c:99:da:bc:e7:6d:ef:44:66:9b:69:48:66:df:75:
         cb:9d:fc:2b:97:2d:4a:2a:36:72:ba:1b:38:c3:8e:5c:0a:8f:
         06:ef:b9:89:d7:0c:c4:30:a1:a1:12:9d:19:58:ad:df:84:03:
         38:08:d8:3d:7d:80:f6:92:1f:7d:ea:aa:91:2f:9a:49:f9:e9:
         20:5f:ba:a1:76:22:1b:6a:e6:5a:19:5f:a0:28:fc:4c:d0:43:
         5f:22:b6:f6
-----BEGIN CERTIFICATE-----
MIIDdzCCAl+gAwIBAgIQZxwI+EzLWGuz9YGHxg9kYjANBgkqhkiG9w0BAQsFADAW
MRQwEgYDVQQDDAt0ZWFtMjkyLW5ldDAeFw0yMzA4MTQxNDI4MTVaFw0yNjA3Mjkx
NDI4MTVaMBkxFzAVBgNVBAMMDnRlYW0yOTItc2VydmVyMIIBIjANBgkqhkiG9w0B
AQEFAAOCAQ8AMIIBCgKCAQEA1Y9TTLLlMOS/5wQzpXzDowxm8ENOrPsDtbbxixL0
w6gj/j75XavwbUPJbwS+zGXmiXgESpk51i7GwpqrAMkE9b1zrRnB+UUyMkyHDNpz
zd9nHVt6LqLQEUDL8JdgfVuHAU0BkizMBDC3vtoe9k+xntokkrWkRkPvQSSzHIaS
QwTjuCgKeECevZ+JOhqnAWnAzTUisLrOCpAT/EQQljPxQYOlZ7npRTWN1ve7F116
i+FfPKlWi7Wj+uwyd4lfT1MlcMzz+uBCNY95L6m/op/Zj+uFhafzkW8uLp7o+GDU
t4YhLKHiBVOvSXdBf13vd16RJH1GSb/6vlirx3yGwYx98QIDAQABo4G9MIG6MAkG
A1UdEwQCMAAwHQYDVR0OBBYEFCoMQhbc70y7I9P7nyeVTyyxZR/dMFEGA1UdIwRK
MEiAFHQZt+K8yNTUHE9K/BLJQmMtN8+JoRqkGDAWMRQwEgYDVQQDDAt0ZWFtMjky
LW5ldIIUI0ruGy3raN1yBT65350NRswLWsswEwYDVR0lBAwwCgYIKwYBBQUHAwEw
CwYDVR0PBAQDAgWgMBkGA1UdEQQSMBCCDnRlYW0yOTItc2VydmVyMA0GCSqGSIb3
DQEBCwUAA4IBAQCc7VnYy/hiNalyjdlGOcONyc6aZAHm+K5678l2P/lSlM8zkLRU
0ElvF1cGO5VFhdjD9dzvyzWnsrSRTZV3vvFkWMZWh1VHvk7pBzdr2hcSfYzoqjrm
ElRdAVJGDMhDegNZNBGOk0yTj+wqqE3sF9sr3m3JN5e9QDhlTqP36iLxg+WwwGQ+
nVhbS+ggmAH8OFXrQjzyQhly3fb1eh3/3+S6wbiTHNQ8mdq8523vRGabaUhm33XL
nfwrly1KKjZyuhs4w45cCo8G77mJ1wzEMKGhEp0ZWK3fhAM4CNg9fYD2kh996qqR
L5pJ+ekgX7qhdiIbauZaGV+gKPxM0ENfIrb2
-----END CERTIFICATE-----
