Certificate:
    Data:
        Version: 3 (0x2)
        Serial Number:
            71:39:77:a0:c2:b4:03:b5:b9:c4:83:80:98:61:35:9d
        Signature Algorithm: sha256WithRSAEncryption
        Issuer: CN=team9-net
        Validity
            Not Before: Aug 14 14:22:14 2023 GMT
            Not After : Jul 29 14:22:14 2026 GMT
        Subject: CN=team9-server
        Subject Public Key Info:
            Public Key Algorithm: rsaEncryption
                RSA Public-Key: (2048 bit)
                Modulus:
                    00:ad:ed:88:2b:bc:91:db:c4:4f:bd:ca:a5:1f:45:
                    94:76:4d:a6:9d:0a:c5:6e:91:57:0e:cf:ba:89:b4:
                    50:f5:41:12:96:d8:60:65:2f:04:1a:93:0d:ac:64:
                    b9:11:f9:6a:24:a7:cb:2a:0d:dd:04:d0:2f:11:4c:
                    7c:13:d9:8f:fc:e6:cc:7f:48:d7:3f:59:89:d6:cf:
                    e7:48:58:88:85:1c:5a:b4:7c:84:0a:33:d7:b9:43:
                    d6:d9:3d:5e:aa:ba:68:37:ba:3d:6c:e0:0d:c5:bf:
                    ce:93:94:3d:a5:66:07:2d:ae:90:5e:e5:45:2a:b8:
                    cf:04:e4:93:a6:f7:ef:da:91:a5:3f:93:f1:23:33:
                    1d:9e:ce:a7:bc:ed:4c:47:a5:46:7f:6d:85:3e:c8:
                    2b:bf:94:cf:7f:3d:49:26:b8:95:54:9f:74:b2:6e:
                    1a:f0:e5:b9:1e:d2:9f:a3:cc:43:d3:78:00:8d:8c:
                    23:82:46:b9:ac:c1:ae:b0:6f:2c:54:f6:ae:fc:89:
                    a7:ab:f4:71:3a:e3:6e:64:62:c2:c5:e5:40:73:ff:
                    eb:95:db:80:d9:1c:bd:40:8b:3e:12:aa:55:e6:67:
                    84:56:3f:93:9f:40:a2:5b:70:73:bc:f7:fc:29:f5:
                    9f:c1:5a:77:3b:02:81:75:20:55:3c:7f:9d:4e:ff:
                    fd:d9
                Exponent: 65537 (0x10001)
        X509v3 extensions:
            X509v3 Basic Constraints: 
                CA:FALSE
            X509v3 Subject Key Identifier: 
                E9:72:88:3E:25:9B:45:15:03:26:26:BC:E1:2B:D1:32:88:B8:E8:B5
            X509v3 Authority Key Identifier: 
                keyid:41:29:C2:E1:FC:01:F3:7F:A8:C6:8A:16:F3:25:F4:7C:DC:9A:AB:BA
                DirName:/CN=team9-net
                serial:6A:CC:CF:25:ED:C2:1E:5A:DD:C1:B3:63:CF:9C:1F:44:8E:AF:D4:9D

            X509v3 Extended Key Usage: 
                TLS Web Server Authentication
            X509v3 Key Usage: 
                Digital Signature, Key Encipherment
            X509v3 Subject Alternative Name: 
                DNS:team9-server
    Signature Algorithm: sha256WithRSAEncryption
         82:fe:5c:73:e7:68:99:e7:38:1b:14:37:5c:3e:bf:e1:23:bd:
         fa:ee:b6:b1:46:72:7e:9e:b3:23:62:51:cd:aa:53:8a:78:d7:
         4c:de:96:18:88:e3:64:ac:fd:5a:9f:30:f5:8b:8a:78:b0:68:
         5b:ed:8f:ba:83:ef:21:96:76:b3:15:e5:42:f1:c4:29:eb:3d:
         d2:eb:38:f3:a0:97:eb:56:85:85:4c:86:74:79:32:0d:53:eb:
         54:76:67:fe:32:de:1c:f0:60:4e:52:ed:08:52:ec:60:15:0e:
         d1:07:05:c5:97:1e:78:b2:ed:03:ea:f4:80:8b:cc:86:6c:6c:
         cb:35:ca:a0:06:3e:a5:25:24:f7:ef:9a:6e:92:2c:e3:2d:b8:
         43:9d:43:4a:1c:c8:cb:60:b2:1a:fd:b4:19:3b:71:f7:e3:65:
         bc:05:1d:14:25:63:4f:47:1a:5a:93:72:aa:57:e5:0b:24:23:
         a3:79:8f:19:1f:eb:70:d3:fb:f7:c1:54:40:4d:92:63:e9:66:
         2f:58:54:27:01:c2:2e:6c:f3:82:32:ff:c8:23:de:c1:bf:5f:
         ef:ff:01:dd:7b:74:cb:ce:0b:83:47:85:2a:71:46:6b:e9:83:
         fa:dc:88:9d:22:4d:1c:5e:0d:32:95:b5:5e:05:6f:95:bf:cf:
         85:25:c0:1c
-----BEGIN CERTIFICATE-----
MIIDbzCCAlegAwIBAgIQcTl3oMK0A7W5xIOAmGE1nTANBgkqhkiG9w0BAQsFADAU
MRIwEAYDVQQDDAl0ZWFtOS1uZXQwHhcNMjMwODE0MTQyMjE0WhcNMjYwNzI5MTQy
MjE0WjAXMRUwEwYDVQQDDAx0ZWFtOS1zZXJ2ZXIwggEiMA0GCSqGSIb3DQEBAQUA
A4IBDwAwggEKAoIBAQCt7YgrvJHbxE+9yqUfRZR2TaadCsVukVcOz7qJtFD1QRKW
2GBlLwQakw2sZLkR+Wokp8sqDd0E0C8RTHwT2Y/85sx/SNc/WYnWz+dIWIiFHFq0
fIQKM9e5Q9bZPV6qumg3uj1s4A3Fv86TlD2lZgctrpBe5UUquM8E5JOm9+/akaU/
k/EjMx2ezqe87UxHpUZ/bYU+yCu/lM9/PUkmuJVUn3Sybhrw5bke0p+jzEPTeACN
jCOCRrmswa6wbyxU9q78iaer9HE6425kYsLF5UBz/+uV24DZHL1Aiz4SqlXmZ4RW
P5OfQKJbcHO89/wp9Z/BWnc7AoF1IFU8f51O//3ZAgMBAAGjgbkwgbYwCQYDVR0T
BAIwADAdBgNVHQ4EFgQU6XKIPiWbRRUDJia84SvRMoi46LUwTwYDVR0jBEgwRoAU
QSnC4fwB83+oxooW8yX0fNyaq7qhGKQWMBQxEjAQBgNVBAMMCXRlYW05LW5ldIIU
aszPJe3CHlrdwbNjz5wfRI6v1J0wEwYDVR0lBAwwCgYIKwYBBQUHAwEwCwYDVR0P
BAQDAgWgMBcGA1UdEQQQMA6CDHRlYW05LXNlcnZlcjANBgkqhkiG9w0BAQsFAAOC
AQEAgv5cc+domec4GxQ3XD6/4SO9+u62sUZyfp6zI2JRzapTinjXTN6WGIjjZKz9
Wp8w9YuKeLBoW+2PuoPvIZZ2sxXlQvHEKes90us486CX61aFhUyGdHkyDVPrVHZn
/jLeHPBgTlLtCFLsYBUO0QcFxZceeLLtA+r0gIvMhmxsyzXKoAY+pSUk9++abpIs
4y24Q51DShzIy2CyGv20GTtx9+NlvAUdFCVjT0caWpNyqlflCyQjo3mPGR/rcNP7
98FUQE2SY+lmL1hUJwHCLmzzgjL/yCPewb9f7/8B3Xt0y84Lg0eFKnFGa+mD+tyI
nSJNHF4NMpW1XgVvlb/PhSXAHA==
-----END CERTIFICATE-----
