Certificate:
    Data:
        Version: 3 (0x2)
        Serial Number:
            8d:57:f6:c8:94:00:76:3f:c2:9b:3a:e0:04:81:13:0a
        Signature Algorithm: sha256WithRSAEncryption
        Issuer: CN=team259-net
        Validity
            Not Before: Aug 14 14:27:31 2023 GMT
            Not After : Jul 29 14:27:31 2026 GMT
        Subject: CN=team259-server
        Subject Public Key Info:
            Public Key Algorithm: rsaEncryption
                RSA Public-Key: (2048 bit)
                Modulus:
                    00:c6:67:19:e1:6c:df:38:93:a3:ea:c3:e9:52:4d:
                    56:1a:7e:86:b6:24:3f:9a:b0:75:eb:ae:f9:1d:4c:
                    2c:0b:77:45:40:02:03:db:3d:d5:8f:02:96:34:66:
                    a0:8a:5a:43:ab:f2:f2:c2:21:c9:0e:d0:53:26:c6:
                    bd:75:af:bb:7b:92:9f:83:1a:c4:bd:77:51:81:06:
                    0e:f0:ef:c5:66:61:b6:50:9b:6d:5b:37:3c:94:5e:
                    d5:1c:d1:3c:e9:0b:ae:f4:9e:10:23:4a:2c:44:76:
                    d2:1a:38:d3:e7:49:db:67:b5:e3:c2:c2:64:c9:1b:
                    22:83:12:b8:42:5a:87:b3:22:55:24:45:5c:71:4f:
                    90:0f:a2:a6:27:8e:eb:b6:fb:36:8f:61:10:8f:8b:
                    ee:b8:74:c0:e6:1e:50:d2:41:63:b8:b5:e8:f2:1f:
                    57:df:34:ba:2e:c4:e6:b5:e2:5c:6c:ca:21:15:18:
                    27:1a:e3:a4:56:ff:e0:4e:bd:89:e4:9f:e3:6f:71:
                    be:2f:6b:af:84:04:7f:8e:26:96:e8:46:ca:46:35:
                    f1:ba:b5:fc:ac:59:c7:e3:f5:6f:ce:7e:09:69:b2:
                    1f:87:3c:c2:76:56:37:54:e1:eb:48:c0:e8:07:ce:
                    96:51:7b:46:fb:36:c1:16:ae:44:63:b0:ba:1a:63:
                    67:bd
                Exponent: 65537 (0x10001)
        X509v3 extensions:
            X509v3 Basic Constraints: 
                CA:FALSE
            X509v3 Subject Key Identifier: 
                6A:AD:5A:7A:18:DE:66:11:8B:A0:C2:98:C4:B9:08:3E:B4:FE:45:87
            X509v3 Authority Key Identifier: 
                keyid:F5:91:28:65:36:E9:60:61:9B:5F:B2:18:A4:41:F8:A8:D8:42:C3:62
                DirName:/CN=team259-net
                serial:5F:8B:29:3C:94:7C:97:E5:7C:05:73:5A:64:16:3E:1C:B2:32:B5:87

            X509v3 Extended Key Usage: 
                TLS Web Server Authentication
            X509v3 Key Usage: 
                Digital Signature, Key Encipherment
            X509v3 Subject Alternative Name: 
                DNS:team259-server
    Signature Algorithm: sha256WithRSAEncryption
         1d:53:c0:4d:c8:46:98:cd:17:6f:27:e8:44:30:5f:05:64:7f:
         eb:24:6a:4f:e4:82:ff:68:46:37:68:b1:5b:d5:65:58:bb:70:
         79:19:52:1a:c7:3d:a6:f6:06:3f:15:38:62:72:02:8f:c7:2c:
         e5:05:ea:da:82:f6:59:41:0e:80:49:a3:20:1f:a2:fd:0e:0f:
         c2:f5:93:b8:15:0f:cf:25:f9:5d:6f:da:f8:ee:bf:35:91:e0:
         a1:9b:fd:f4:76:b7:10:52:cc:ad:8f:a5:a6:3d:e8:89:0f:ef:
         ac:0e:e4:a5:68:2e:04:2b:99:79:a1:45:e9:b6:d4:d9:07:a8:
         d6:6e:ad:61:0a:d2:02:d5:cc:3a:bd:1c:ff:13:dc:a0:5f:39:
         d8:4e:e5:17:81:64:57:92:b7:be:02:d3:02:df:d1:82:90:4e:
         f7:d7:0b:39:02:ce:b6:5f:50:d4:fb:0a:e6:fc:a1:f1:8c:f1:
         a8:9f:4e:df:bd:63:da:62:3c:7e:68:42:0b:18:7e:2a:ad:d6:
         8d:b7:4f:30:c9:1a:0e:bc:db:b6:19:0f:b9:02:48:4a:6d:de:
         2d:35:8c:3a:bb:02:c8:89:6f:42:d8:97:ae:31:38:68:5b:84:
         d1:12:1a:e9:79:5c:9e:82:ab:91:0a:55:f4:3f:2f:c2:ca:ee:
         19:36:1a:7f
-----BEGIN CERTIFICATE-----
MIIDeDCCAmCgAwIBAgIRAI1X9siUAHY/wps64ASBEwowDQYJKoZIhvcNAQELBQAw
FjEUMBIGA1UEAwwLdGVhbTI1OS1uZXQwHhcNMjMwODE0MTQyNzMxWhcNMjYwNzI5
MTQyNzMxWjAZMRcwFQYDVQQDDA50ZWFtMjU5LXNlcnZlcjCCASIwDQYJKoZIhvcN
AQEBBQADggEPADCCAQoCggEBAMZnGeFs3ziTo+rD6VJNVhp+hrYkP5qwdeuu+R1M
LAt3RUACA9s91Y8CljRmoIpaQ6vy8sIhyQ7QUybGvXWvu3uSn4MaxL13UYEGDvDv
xWZhtlCbbVs3PJRe1RzRPOkLrvSeECNKLER20ho40+dJ22e148LCZMkbIoMSuEJa
h7MiVSRFXHFPkA+ipieO67b7No9hEI+L7rh0wOYeUNJBY7i16PIfV980ui7E5rXi
XGzKIRUYJxrjpFb/4E69ieSf429xvi9rr4QEf44mluhGykY18bq1/KxZx+P1b85+
CWmyH4c8wnZWN1Th60jA6AfOllF7Rvs2wRauRGOwuhpjZ70CAwEAAaOBvTCBujAJ
BgNVHRMEAjAAMB0GA1UdDgQWBBRqrVp6GN5mEYugwpjEuQg+tP5FhzBRBgNVHSME
SjBIgBT1kShlNulgYZtfshikQfio2ELDYqEapBgwFjEUMBIGA1UEAwwLdGVhbTI1
OS1uZXSCFF+LKTyUfJflfAVzWmQWPhyyMrWHMBMGA1UdJQQMMAoGCCsGAQUFBwMB
MAsGA1UdDwQEAwIFoDAZBgNVHREEEjAQgg50ZWFtMjU5LXNlcnZlcjANBgkqhkiG
9w0BAQsFAAOCAQEAHVPATchGmM0XbyfoRDBfBWR/6yRqT+SC/2hGN2ixW9VlWLtw
eRlSGsc9pvYGPxU4YnICj8cs5QXq2oL2WUEOgEmjIB+i/Q4PwvWTuBUPzyX5XW/a
+O6/NZHgoZv99Ha3EFLMrY+lpj3oiQ/vrA7kpWguBCuZeaFF6bbU2Qeo1m6tYQrS
AtXMOr0c/xPcoF852E7lF4FkV5K3vgLTAt/RgpBO99cLOQLOtl9Q1PsK5vyh8Yzx
qJ9O371j2mI8fmhCCxh+Kq3WjbdPMMkaDrzbthkPuQJISm3eLTWMOrsCyIlvQtiX
rjE4aFuE0RIa6XlcnoKrkQpV9D8vwsruGTYafw==
-----END CERTIFICATE-----
