Certificate:
    Data:
        Version: 3 (0x2)
        Serial Number:
            dd:d1:5f:24:ac:72:d5:9b:d5:d2:76:42:17:f4:83:b8
        Signature Algorithm: sha256WithRSAEncryption
        Issuer: CN=team154-net
        Validity
            Not Before: Aug 14 14:25:28 2023 GMT
            Not After : Jul 29 14:25:28 2026 GMT
        Subject: CN=team154-client
        Subject Public Key Info:
            Public Key Algorithm: rsaEncryption
                RSA Public-Key: (2048 bit)
                Modulus:
                    00:de:a5:4d:d7:20:66:fa:c8:ab:81:4a:3c:d4:fb:
                    82:b0:94:01:34:53:85:06:e2:1a:97:00:3f:d0:a8:
                    06:ab:82:7c:16:1a:41:b1:f1:33:9a:7f:ec:5e:50:
                    b7:25:c5:42:81:a5:d6:b1:82:19:5b:2e:b7:b8:c8:
                    38:fa:1e:1b:03:b2:dc:92:26:29:c2:d5:71:49:a1:
                    8c:89:d4:10:e3:c7:d5:6c:af:5a:2b:13:2c:8a:a1:
                    ef:17:80:9c:20:fc:92:a6:17:e1:d4:40:d4:b8:7e:
                    53:91:41:81:96:ac:e0:8a:79:0a:48:1c:04:4d:9c:
                    d3:a5:e7:25:50:eb:ba:53:fe:2b:c7:ef:d6:81:cf:
                    98:74:81:3e:06:0c:04:66:83:85:0e:e9:31:be:87:
                    53:18:81:c5:85:b2:9a:5b:15:aa:08:13:81:f2:0e:
                    31:68:f6:08:45:01:a1:79:b4:d7:24:8b:f2:20:1b:
                    42:08:53:ae:fb:39:41:38:d6:df:9e:6f:1f:04:0b:
                    c8:6e:c9:b3:4f:6d:cc:55:6b:af:6c:71:14:36:fb:
                    11:6c:55:1e:cb:f0:27:f5:f7:20:43:38:7c:73:0e:
                    8b:31:37:9d:be:fb:6e:9e:05:7e:82:10:f0:4b:7f:
                    e1:c9:02:26:4d:f9:9d:27:e7:5e:fb:d3:95:a7:52:
                    29:47
                Exponent: 65537 (0x10001)
        X509v3 extensions:
            X509v3 Basic Constraints: 
                CA:FALSE
            X509v3 Subject Key Identifier: 
                91:69:E3:0F:AF:84:4C:30:45:2A:B5:87:7F:7B:0D:59:52:F9:FF:69
            X509v3 Authority Key Identifier: 
                keyid:FD:F2:B1:31:EA:2F:B9:34:55:BC:4B:10:69:A9:47:C0:F1:78:D0:06
                DirName:/CN=team154-net
                serial:28:B1:13:9A:93:70:A9:1F:DB:31:12:4F:75:D0:D9:7E:29:FF:35:C5

            X509v3 Extended Key Usage: 
                TLS Web Client Authentication
            X509v3 Key Usage: 
                Digital Signature
    Signature Algorithm: sha256WithRSAEncryption
         87:95:dd:bc:37:f2:be:09:39:83:77:f4:be:dc:36:a4:1c:37:
         10:db:ae:e9:fa:1f:4e:ff:7a:2a:38:dc:5e:b3:2c:ec:78:73:
         8a:aa:7f:60:d7:14:57:36:2e:2d:de:fc:bf:a4:22:77:2c:ee:
         02:47:41:e9:44:9e:a6:19:b3:66:c3:13:d9:2d:db:d2:2c:56:
         38:d4:a3:a1:8b:3f:02:d4:a1:1e:07:99:3e:65:b9:2e:8f:d8:
         be:88:ef:27:ae:ca:f6:92:0a:d1:b9:d7:dc:a3:5c:bf:5a:42:
         99:65:60:13:c0:e8:41:28:05:1e:c4:ea:ae:ec:3d:b1:a9:98:
         6a:6a:b7:25:f7:b6:ba:66:ab:21:a3:99:c3:0e:53:b3:1f:1c:
         7c:71:bd:e1:92:87:de:43:de:26:2d:7b:88:98:da:7c:a1:76:
         98:ea:f9:97:2a:53:23:e7:c7:48:ef:55:6d:30:8e:c3:d4:2b:
         1b:fd:23:77:8e:36:c0:ed:fb:72:51:e9:1c:dd:22:6e:fc:54:
         40:3c:82:a6:d9:a8:d6:7e:7d:af:65:43:2b:dd:cf:0a:2d:75:
         87:f7:cc:d5:a6:2a:84:5e:51:94:74:64:79:ea:4a:08:12:5b:
         e5:89:a7:b2:6c:62:18:ae:6c:53:95:c6:ad:f8:65:2a:55:f7:
         fe:68:c1:49
-----BEGIN CERTIFICATE-----
MIIDXTCCAkWgAwIBAgIRAN3RXySsctWb1dJ2Qhf0g7gwDQYJKoZIhvcNAQELBQAw
FjEUMBIGA1UEAwwLdGVhbTE1NC1uZXQwHhcNMjMwODE0MTQyNTI4WhcNMjYwNzI5
MTQyNTI4WjAZMRcwFQYDVQQDDA50ZWFtMTU0LWNsaWVudDCCASIwDQYJKoZIhvcN
AQEBBQADggEPADCCAQoCggEBAN6lTdcgZvrIq4FKPNT7grCUATRThQbiGpcAP9Co
BquCfBYaQbHxM5p/7F5QtyXFQoGl1rGCGVsut7jIOPoeGwOy3JImKcLVcUmhjInU
EOPH1WyvWisTLIqh7xeAnCD8kqYX4dRA1Lh+U5FBgZas4Ip5CkgcBE2c06XnJVDr
ulP+K8fv1oHPmHSBPgYMBGaDhQ7pMb6HUxiBxYWymlsVqggTgfIOMWj2CEUBoXm0
1ySL8iAbQghTrvs5QTjW355vHwQLyG7Js09tzFVrr2xxFDb7EWxVHsvwJ/X3IEM4
fHMOizE3nb77bp4FfoIQ8Et/4ckCJk35nSfnXvvTladSKUcCAwEAAaOBojCBnzAJ
BgNVHRMEAjAAMB0GA1UdDgQWBBSRaeMPr4RMMEUqtYd/ew1ZUvn/aTBRBgNVHSME
SjBIgBT98rEx6i+5NFW8SxBpqUfA8XjQBqEapBgwFjEUMBIGA1UEAwwLdGVhbTE1
NC1uZXSCFCixE5qTcKkf2zEST3XQ2X4p/zXFMBMGA1UdJQQMMAoGCCsGAQUFBwMC
MAsGA1UdDwQEAwIHgDANBgkqhkiG9w0BAQsFAAOCAQEAh5XdvDfyvgk5g3f0vtw2
pBw3ENuu6fofTv96KjjcXrMs7Hhziqp/YNcUVzYuLd78v6QidyzuAkdB6USephmz
ZsMT2S3b0ixWONSjoYs/AtShHgeZPmW5Lo/YvojvJ67K9pIK0bnX3KNcv1pCmWVg
E8DoQSgFHsTqruw9samYamq3Jfe2umarIaOZww5Tsx8cfHG94ZKH3kPeJi17iJja
fKF2mOr5lypTI+fHSO9VbTCOw9QrG/0jd442wO37clHpHN0ibvxUQDyCptmo1n59
r2VDK93PCi11h/fM1aYqhF5RlHRkeepKCBJb5YmnsmxiGK5sU5XGrfhlKlX3/mjB
SQ==
-----END CERTIFICATE-----
