Certificate:
    Data:
        Version: 3 (0x2)
        Serial Number:
            ae:22:4a:61:5f:9b:40:a2:ad:d9:f4:44:61:1c:9c:a3
        Signature Algorithm: sha256WithRSAEncryption
        Issuer: CN=team237-net
        Validity
            Not Before: Aug 14 14:27:05 2023 GMT
            Not After : Jul 29 14:27:05 2026 GMT
        Subject: CN=team237-server
        Subject Public Key Info:
            Public Key Algorithm: rsaEncryption
                RSA Public-Key: (2048 bit)
                Modulus:
                    00:be:1a:a7:ba:e3:18:2b:ee:d0:f4:aa:ea:e4:0f:
                    36:e4:a3:19:23:8a:8b:93:50:35:fb:29:3e:c2:5d:
                    ef:e1:b2:78:9b:68:dd:8e:c3:a3:ac:52:24:79:37:
                    6b:c9:ab:13:69:d5:6b:24:06:2c:2e:22:12:31:48:
                    e4:19:d1:83:c4:ee:a3:39:1f:fa:e4:06:00:73:8b:
                    14:04:0d:60:6a:27:a9:25:43:5b:93:d0:d7:f4:fa:
                    f7:12:5e:22:81:5a:45:70:21:9f:db:fa:28:8c:ff:
                    12:82:26:b2:ba:70:1f:8d:6f:b5:a6:5c:89:47:5f:
                    db:1e:a6:5f:4b:62:40:4d:a5:47:eb:7a:1f:33:79:
                    9a:a6:d0:16:dc:2d:a3:05:b7:db:2f:02:1c:f8:6a:
                    a9:19:cd:de:b4:a4:4d:3c:4c:7e:b0:10:8d:77:b5:
                    6a:9d:a4:d2:39:8b:31:5e:56:e9:47:18:33:c9:7b:
                    e0:09:dd:93:cd:ad:31:c9:fa:6c:0c:88:30:34:a0:
                    ed:e7:9f:66:28:e2:20:d4:7c:7f:bd:00:99:24:9b:
                    62:db:37:8e:96:1c:fe:8b:64:da:66:71:02:b6:e0:
                    82:35:31:47:26:da:c2:f3:6b:c1:32:65:ba:2a:18:
                    6b:c1:ac:3e:85:5c:b2:d2:d4:b3:c5:62:19:97:c2:
                    51:29
                Exponent: 65537 (0x10001)
        X509v3 extensions:
            X509v3 Basic Constraints: 
                CA:FALSE
            X509v3 Subject Key Identifier: 
                10:9A:2D:CC:26:91:E5:FA:20:B1:DF:4C:92:EE:CF:FF:EE:2B:B2:B1
            X509v3 Authority Key Identifier: 
                keyid:B2:85:76:0C:A3:60:A2:EE:7F:1F:05:4D:4B:F2:EA:2C:EB:00:78:C4
                DirName:/CN=team237-net
                serial:1F:7F:84:EF:0F:00:8E:E4:E1:E0:62:50:DB:E2:53:A4:CB:F1:7F:6D

            X509v3 Extended Key Usage: 
                TLS Web Server Authentication
            X509v3 Key Usage: 
                Digital Signature, Key Encipherment
            X509v3 Subject Alternative Name: 
                DNS:team237-server
    Signature Algorithm: sha256WithRSAEncryption
         bd:fc:69:f4:8b:34:93:f4:f3:07:f6:19:fb:1a:da:a9:90:fc:
         c6:fa:b0:1d:9a:e9:87:4a:d2:9f:a1:f7:8c:7c:a8:b9:ee:17:
         4a:dd:2b:11:e8:65:3f:45:dc:0b:03:b0:c3:d3:5d:46:c4:6b:
         7a:18:bb:65:73:68:2c:60:ad:55:14:5a:44:9c:70:57:e0:01:
         cc:e9:5d:13:96:31:05:df:2d:24:7c:7e:ba:0e:b9:db:01:de:
         7d:3c:70:21:f9:39:a4:a8:0b:df:65:96:fd:c9:75:af:d9:c9:
         64:c0:b1:71:e8:ec:74:b7:60:c4:00:2a:1f:47:f6:19:1d:bf:
         b0:4b:83:c4:61:f7:16:e4:80:b9:cd:72:f2:69:b4:35:36:40:
         fa:8d:c0:61:fc:3e:91:ca:73:36:89:d0:26:64:20:e8:a2:db:
         b6:a7:0b:7b:34:91:85:10:49:37:e7:40:71:98:66:c6:67:df:
         ce:55:3f:d7:05:c5:13:81:5b:72:f9:71:07:03:15:ee:ea:4c:
         e9:37:00:76:d5:12:6f:5e:de:c9:a1:03:a7:30:27:71:6f:7a:
         3f:ec:3f:5d:95:ea:42:39:84:4a:c2:e6:8f:08:35:16:14:e4:
         5b:68:77:a0:32:d0:47:cc:0a:9c:85:d9:c9:46:f4:8f:e0:c7:
         0c:d6:19:7f
-----BEGIN CERTIFICATE-----
MIIDeDCCAmCgAwIBAgIRAK4iSmFfm0Cirdn0RGEcnKMwDQYJKoZIhvcNAQELBQAw
FjEUMBIGA1UEAwwLdGVhbTIzNy1uZXQwHhcNMjMwODE0MTQyNzA1WhcNMjYwNzI5
MTQyNzA1WjAZMRcwFQYDVQQDDA50ZWFtMjM3LXNlcnZlcjCCASIwDQYJKoZIhvcN
AQEBBQADggEPADCCAQoCggEBAL4ap7rjGCvu0PSq6uQPNuSjGSOKi5NQNfspPsJd
7+GyeJto3Y7Do6xSJHk3a8mrE2nVayQGLC4iEjFI5BnRg8Tuozkf+uQGAHOLFAQN
YGonqSVDW5PQ1/T69xJeIoFaRXAhn9v6KIz/EoImsrpwH41vtaZciUdf2x6mX0ti
QE2lR+t6HzN5mqbQFtwtowW32y8CHPhqqRnN3rSkTTxMfrAQjXe1ap2k0jmLMV5W
6UcYM8l74Andk82tMcn6bAyIMDSg7eefZijiINR8f70AmSSbYts3jpYc/otk2mZx
ArbggjUxRybawvNrwTJluioYa8GsPoVcstLUs8ViGZfCUSkCAwEAAaOBvTCBujAJ
BgNVHRMEAjAAMB0GA1UdDgQWBBQQmi3MJpHl+iCx30yS7s//7iuysTBRBgNVHSME
SjBIgBSyhXYMo2Ci7n8fBU1L8uos6wB4xKEapBgwFjEUMBIGA1UEAwwLdGVhbTIz
Ny1uZXSCFB9/hO8PAI7k4eBiUNviU6TL8X9tMBMGA1UdJQQMMAoGCCsGAQUFBwMB
MAsGA1UdDwQEAwIFoDAZBgNVHREEEjAQgg50ZWFtMjM3LXNlcnZlcjANBgkqhkiG
9w0BAQsFAAOCAQEAvfxp9Is0k/TzB/YZ+xraqZD8xvqwHZrph0rSn6H3jHyoue4X
St0rEehlP0XcCwOww9NdRsRrehi7ZXNoLGCtVRRaRJxwV+ABzOldE5YxBd8tJHx+
ug652wHefTxwIfk5pKgL32WW/cl1r9nJZMCxcejsdLdgxAAqH0f2GR2/sEuDxGH3
FuSAuc1y8mm0NTZA+o3AYfw+kcpzNonQJmQg6KLbtqcLezSRhRBJN+dAcZhmxmff
zlU/1wXFE4FbcvlxBwMV7upM6TcAdtUSb17eyaEDpzAncW96P+w/XZXqQjmESsLm
jwg1FhTkW2h3oDLQR8wKnIXZyUb0j+DHDNYZfw==
-----END CERTIFICATE-----
