Certificate:
    Data:
        Version: 3 (0x2)
        Serial Number:
            31:44:30:ce:4c:ba:b0:b9:24:26:5d:f2:0b:92:f0:44
        Signature Algorithm: sha256WithRSAEncryption
        Issuer: CN=team114-net
        Validity
            Not Before: Aug 14 14:24:36 2023 GMT
            Not After : Jul 29 14:24:36 2026 GMT
        Subject: CN=team114-server
        Subject Public Key Info:
            Public Key Algorithm: rsaEncryption
                RSA Public-Key: (2048 bit)
                Modulus:
                    00:9c:64:81:db:32:37:00:28:e9:42:3d:62:12:03:
                    4c:cd:19:61:b9:f9:a8:41:59:5c:74:70:d8:c5:a6:
                    d4:fa:ea:5c:0d:46:6c:d6:ff:55:f2:6b:79:f6:97:
                    15:a8:4f:5f:18:03:e3:04:08:1d:e1:fe:86:e8:3e:
                    94:5d:03:01:9f:7f:2b:61:6a:70:ee:c5:f3:bf:ce:
                    f2:75:28:43:6f:c8:2c:2b:27:ca:c5:b2:40:9a:c2:
                    dc:8d:42:55:07:79:cf:9f:93:8e:ae:eb:44:0f:5a:
                    a7:23:5a:6d:20:17:8f:a5:1f:18:aa:91:a4:8f:2c:
                    df:e5:a7:ca:56:e9:b5:bb:bf:2a:3e:96:5d:21:ae:
                    8c:29:16:c3:b9:c9:45:fe:1f:fc:c5:59:19:3c:c8:
                    5d:28:ea:9f:6b:93:7e:cf:93:32:a3:41:1a:c0:2d:
                    d2:03:c2:5d:0c:a5:35:d5:e8:89:bf:c3:9f:01:52:
                    74:d9:a1:f4:f7:81:9c:8a:14:ba:f8:d1:a6:60:d8:
                    af:1c:3c:82:b5:7e:1a:43:6b:67:dc:14:64:5d:b2:
                    f7:ee:d9:fe:1d:cf:bd:ae:8f:f7:ab:a1:8e:c5:b3:
                    e9:c7:22:be:56:ff:00:19:7f:6d:4a:53:54:14:df:
                    99:e2:09:9b:4a:5a:83:94:74:ef:49:c4:64:18:e3:
                    37:75
                Exponent: 65537 (0x10001)
        X509v3 extensions:
            X509v3 Basic Constraints: 
                CA:FALSE
            X509v3 Subject Key Identifier: 
                69:08:30:58:34:71:73:3F:4E:9D:16:16:A9:D5:18:48:FE:AB:1B:0B
            X509v3 Authority Key Identifier: 
                keyid:75:B1:43:22:F7:E9:A3:CB:DD:F2:34:F1:1D:88:B8:AF:A4:9D:59:D1
                DirName:/CN=team114-net
                serial:40:12:DB:09:DE:81:33:B8:25:B4:C6:DF:1B:7E:C0:33:A1:17:F9:80

            X509v3 Extended Key Usage: 
                TLS Web Server Authentication
            X509v3 Key Usage: 
                Digital Signature, Key Encipherment
            X509v3 Subject Alternative Name: 
                DNS:team114-server
    Signature Algorithm: sha256WithRSAEncryption
         c9:5c:29:54:71:a7:b8:96:4b:46:1e:53:d2:c4:f8:d6:c6:fe:
         ba:4e:8e:94:d2:48:80:52:bd:fd:48:20:4f:5d:1b:4a:4d:e1:
         fd:2e:11:47:a4:1f:0a:9f:cb:bd:a7:b9:0b:77:ab:19:f0:3b:
         96:a3:c0:6c:9c:aa:02:cc:b0:df:78:8c:31:0f:d5:c0:ae:6f:
         3a:ae:49:0f:78:3c:c8:df:7e:bc:e8:0f:f7:9c:5a:a2:f0:10:
         7d:56:90:0f:c8:a1:d8:e9:1e:0c:9a:a3:52:c1:3a:ad:ac:e7:
         15:0b:d1:ef:3f:a1:d5:ab:a4:44:91:7e:76:73:f2:38:ef:a0:
         12:a6:a1:4d:7d:4e:bc:8e:90:7e:5b:74:8e:dd:89:9d:74:26:
         17:1b:fe:6b:c8:7e:77:43:81:38:28:78:c5:25:5e:8e:29:67:
         61:74:ea:07:8b:b9:f7:e1:e3:c7:39:b4:4f:5f:a4:2e:ac:91:
         2d:7e:81:41:0d:cc:4c:e5:a5:ce:64:ff:c0:ce:18:22:fd:82:
         f3:a3:ba:e2:ac:13:b6:ac:e2:15:38:52:7a:95:b6:16:72:b6:
         4b:9c:78:4d:e0:1c:8e:a6:6c:8d:01:ee:69:48:74:6d:47:c4:
         2d:83:fe:ce:f7:1b:a1:54:94:c8:ce:30:46:40:cb:6f:da:fc:
         1b:81:64:ea
-----BEGIN CERTIFICATE-----
MIIDdzCCAl+gAwIBAgIQMUQwzky6sLkkJl3yC5LwRDANBgkqhkiG9w0BAQsFADAW
MRQwEgYDVQQDDAt0ZWFtMTE0LW5ldDAeFw0yMzA4MTQxNDI0MzZaFw0yNjA3Mjkx
NDI0MzZaMBkxFzAVBgNVBAMMDnRlYW0xMTQtc2VydmVyMIIBIjANBgkqhkiG9w0B
AQEFAAOCAQ8AMIIBCgKCAQEAnGSB2zI3ACjpQj1iEgNMzRlhufmoQVlcdHDYxabU
+upcDUZs1v9V8mt59pcVqE9fGAPjBAgd4f6G6D6UXQMBn38rYWpw7sXzv87ydShD
b8gsKyfKxbJAmsLcjUJVB3nPn5OOrutED1qnI1ptIBePpR8YqpGkjyzf5afKVum1
u78qPpZdIa6MKRbDuclF/h/8xVkZPMhdKOqfa5N+z5Myo0EawC3SA8JdDKU11eiJ
v8OfAVJ02aH094GcihS6+NGmYNivHDyCtX4aQ2tn3BRkXbL37tn+Hc+9ro/3q6GO
xbPpxyK+Vv8AGX9tSlNUFN+Z4gmbSlqDlHTvScRkGOM3dQIDAQABo4G9MIG6MAkG
A1UdEwQCMAAwHQYDVR0OBBYEFGkIMFg0cXM/Tp0WFqnVGEj+qxsLMFEGA1UdIwRK
MEiAFHWxQyL36aPL3fI08R2IuK+knVnRoRqkGDAWMRQwEgYDVQQDDAt0ZWFtMTE0
LW5ldIIUQBLbCd6BM7gltMbfG37AM6EX+YAwEwYDVR0lBAwwCgYIKwYBBQUHAwEw
CwYDVR0PBAQDAgWgMBkGA1UdEQQSMBCCDnRlYW0xMTQtc2VydmVyMA0GCSqGSIb3
DQEBCwUAA4IBAQDJXClUcae4lktGHlPSxPjWxv66To6U0kiAUr39SCBPXRtKTeH9
LhFHpB8Kn8u9p7kLd6sZ8DuWo8BsnKoCzLDfeIwxD9XArm86rkkPeDzI33686A/3
nFqi8BB9VpAPyKHY6R4MmqNSwTqtrOcVC9HvP6HVq6REkX52c/I476ASpqFNfU68
jpB+W3SO3YmddCYXG/5ryH53Q4E4KHjFJV6OKWdhdOoHi7n34ePHObRPX6QurJEt
foFBDcxM5aXOZP/Azhgi/YLzo7rirBO2rOIVOFJ6lbYWcrZLnHhN4ByOpmyNAe5p
SHRtR8Qtg/7O9xuhVJTIzjBGQMtv2vwbgWTq
-----END CERTIFICATE-----
