Certificate:
    Data:
        Version: 3 (0x2)
        Serial Number:
            36:d8:72:41:58:12:28:0b:76:78:83:18:2a:5f:20:db
        Signature Algorithm: sha256WithRSAEncryption
        Issuer: CN=team196-net
        Validity
            Not Before: Aug 14 14:26:15 2023 GMT
            Not After : Jul 29 14:26:15 2026 GMT
        Subject: CN=team196-client
        Subject Public Key Info:
            Public Key Algorithm: rsaEncryption
                RSA Public-Key: (2048 bit)
                Modulus:
                    00:c6:6b:02:f7:3a:33:0b:a5:ca:81:0a:fb:54:35:
                    82:fa:bf:da:37:f0:37:b4:df:56:6b:9f:fc:53:6e:
                    4d:c2:74:83:49:42:9b:5a:4a:bb:e4:46:83:5d:7d:
                    31:18:12:12:e1:72:81:23:a0:66:53:8f:12:8b:14:
                    78:82:a0:e9:29:27:c4:40:9e:05:65:bc:fa:77:c9:
                    bd:c5:7c:ae:16:ba:8d:4f:87:95:8f:cc:25:69:f4:
                    c3:77:54:62:7d:66:de:c2:aa:fb:f2:97:09:5a:8b:
                    f5:4f:fa:f1:24:30:b6:cf:eb:3e:b6:41:33:15:63:
                    82:55:5b:33:65:60:a3:d8:57:23:22:e9:c5:1b:7e:
                    05:5c:23:2a:4c:2a:4d:c9:28:fc:ed:9b:98:99:e7:
                    a6:f6:22:31:8d:e6:7c:79:3c:fd:f9:25:e5:63:36:
                    e6:bb:aa:04:8f:f9:82:b0:73:ae:c1:34:5b:c0:e9:
                    08:6c:b0:1c:43:77:d5:48:2d:cd:d3:ac:e8:37:05:
                    1c:69:e4:56:b6:09:6c:19:ad:d9:6f:67:79:ff:e7:
                    5e:b6:90:d6:64:d9:a7:a4:56:da:52:cd:31:79:12:
                    64:05:6d:31:89:0c:fc:5f:90:18:41:20:bf:53:19:
                    35:87:81:54:c6:0d:35:d7:90:c9:51:43:a5:e7:e9:
                    e5:7d
                Exponent: 65537 (0x10001)
        X509v3 extensions:
            X509v3 Basic Constraints: 
                CA:FALSE
            X509v3 Subject Key Identifier: 
                F8:00:86:BC:58:B1:9D:4F:D8:C6:83:D2:5D:2B:3C:70:DB:0D:D4:23
            X509v3 Authority Key Identifier: 
                keyid:CD:EA:31:D0:76:6F:9F:5D:16:4B:10:E5:1B:2F:03:AD:66:4F:4D:13
                DirName:/CN=team196-net
                serial:35:39:E0:89:0A:FC:05:AE:68:9D:54:79:A5:C8:66:78:DA:51:BE:4D

            X509v3 Extended Key Usage: 
                TLS Web Client Authentication
            X509v3 Key Usage: 
                Digital Signature
    Signature Algorithm: sha256WithRSAEncryption
         9a:27:33:dd:12:44:18:97:12:e3:b9:ea:26:87:e2:5b:4e:22:
         30:bf:06:c5:a9:3f:41:3f:99:bd:9a:bd:24:30:95:7c:19:27:
         6f:ee:fb:fa:91:e3:ad:11:70:34:8c:8c:a0:0a:bc:ca:b2:fe:
         b2:0d:0c:d0:2f:f3:d9:d3:62:d6:e4:48:24:c4:3f:22:95:53:
         e5:fd:5c:6a:7b:63:4a:c1:01:58:8a:b8:a9:e3:74:60:02:0d:
         5b:4c:ad:dc:dc:ad:47:04:86:93:3e:2b:4f:d9:95:5f:90:6c:
         99:a1:d7:d8:88:7a:80:c6:dc:60:8a:da:c9:21:d2:b6:1c:c5:
         89:54:46:72:db:d2:b2:2d:57:b1:18:f5:83:76:1c:05:99:22:
         e9:1b:13:fc:76:d9:3b:08:91:48:35:1d:b1:7e:07:20:a4:c4:
         7b:ed:ef:15:42:aa:92:83:52:58:60:7d:64:ff:ff:f2:22:38:
         5a:c4:16:8a:9d:d9:ef:bc:c2:03:ed:d1:0d:9c:3a:53:0b:8c:
         45:61:3d:5f:61:4c:59:f3:a7:2c:e8:f6:a5:0e:1d:8b:ba:1e:
         54:61:81:c2:d5:44:49:51:6c:f1:59:f0:e1:41:eb:5b:a7:f9:
         26:20:f6:44:ca:07:a7:c4:11:b9:f3:22:2c:99:69:09:9f:dd:
         16:12:ed:99
-----BEGIN CERTIFICATE-----
MIIDXDCCAkSgAwIBAgIQNthyQVgSKAt2eIMYKl8g2zANBgkqhkiG9w0BAQsFADAW
MRQwEgYDVQQDDAt0ZWFtMTk2LW5ldDAeFw0yMzA4MTQxNDI2MTVaFw0yNjA3Mjkx
NDI2MTVaMBkxFzAVBgNVBAMMDnRlYW0xOTYtY2xpZW50MIIBIjANBgkqhkiG9w0B
AQEFAAOCAQ8AMIIBCgKCAQEAxmsC9zozC6XKgQr7VDWC+r/aN/A3tN9Wa5/8U25N
wnSDSUKbWkq75EaDXX0xGBIS4XKBI6BmU48SixR4gqDpKSfEQJ4FZbz6d8m9xXyu
FrqNT4eVj8wlafTDd1RifWbewqr78pcJWov1T/rxJDC2z+s+tkEzFWOCVVszZWCj
2FcjIunFG34FXCMqTCpNySj87ZuYmeem9iIxjeZ8eTz9+SXlYzbmu6oEj/mCsHOu
wTRbwOkIbLAcQ3fVSC3N06zoNwUcaeRWtglsGa3Zb2d5/+detpDWZNmnpFbaUs0x
eRJkBW0xiQz8X5AYQSC/Uxk1h4FUxg0115DJUUOl5+nlfQIDAQABo4GiMIGfMAkG
A1UdEwQCMAAwHQYDVR0OBBYEFPgAhrxYsZ1P2MaD0l0rPHDbDdQjMFEGA1UdIwRK
MEiAFM3qMdB2b59dFksQ5RsvA61mT00ToRqkGDAWMRQwEgYDVQQDDAt0ZWFtMTk2
LW5ldIIUNTngiQr8Ba5onVR5pchmeNpRvk0wEwYDVR0lBAwwCgYIKwYBBQUHAwIw
CwYDVR0PBAQDAgeAMA0GCSqGSIb3DQEBCwUAA4IBAQCaJzPdEkQYlxLjueomh+Jb
TiIwvwbFqT9BP5m9mr0kMJV8GSdv7vv6keOtEXA0jIygCrzKsv6yDQzQL/PZ02LW
5EgkxD8ilVPl/Vxqe2NKwQFYirip43RgAg1bTK3c3K1HBIaTPitP2ZVfkGyZodfY
iHqAxtxgitrJIdK2HMWJVEZy29KyLVexGPWDdhwFmSLpGxP8dtk7CJFINR2xfgcg
pMR77e8VQqqSg1JYYH1k///yIjhaxBaKndnvvMID7dENnDpTC4xFYT1fYUxZ86cs
6PalDh2Luh5UYYHC1URJUWzxWfDhQetbp/kmIPZEygenxBG58yIsmWkJn90WEu2Z
-----END CERTIFICATE-----
