Certificate:
    Data:
        Version: 3 (0x2)
        Serial Number:
            5d:73:6e:37:4f:70:4c:96:a0:ab:92:53:d8:70:26:0e
        Signature Algorithm: sha256WithRSAEncryption
        Issuer: CN=team129-net
        Validity
            Not Before: Aug 14 14:24:56 2023 GMT
            Not After : Jul 29 14:24:56 2026 GMT
        Subject: CN=team129-server
        Subject Public Key Info:
            Public Key Algorithm: rsaEncryption
                RSA Public-Key: (2048 bit)
                Modulus:
                    00:c9:bd:3d:8d:25:c2:b8:a4:3f:39:40:b8:ed:2d:
                    ed:08:77:d1:19:94:f8:a5:19:e9:51:cf:d0:d1:fd:
                    e5:93:b6:44:3c:c2:9a:12:34:d5:18:9e:d6:07:37:
                    fc:21:f6:d8:b3:a8:8d:48:5c:ba:af:ba:5e:5f:75:
                    0a:f3:0c:79:06:7a:08:d3:59:e4:5f:5c:c8:52:30:
                    af:96:f3:8c:7c:0e:b1:fd:96:79:d4:4c:ea:f0:2f:
                    a7:a6:2b:e3:c4:c8:47:0c:fc:78:bb:ef:a3:76:0f:
                    ae:ea:31:01:fc:94:75:59:19:73:fa:85:62:a2:e2:
                    d4:61:a9:ae:7f:f2:40:f6:3d:70:ce:e4:0f:3f:c7:
                    70:01:c6:29:de:bb:80:aa:d7:94:00:fb:ce:4d:c0:
                    ff:93:0c:ac:db:c9:4d:01:cc:f7:be:ea:b9:81:80:
                    1b:f4:29:6e:5e:e7:29:9d:b8:ea:52:76:e2:12:99:
                    2f:ae:10:f8:9f:a4:09:41:55:bc:d8:6b:b5:ca:ed:
                    b9:ac:5f:28:7f:4e:f0:1d:49:0f:ff:52:d0:49:a1:
                    f0:d8:3b:97:48:49:4a:53:98:b0:81:6c:3f:e8:d6:
                    55:91:19:d3:dd:9e:40:b2:ab:01:64:3f:60:fd:39:
                    3c:14:4b:ed:c8:e8:64:7e:bd:42:d6:da:b2:24:68:
                    65:bb
                Exponent: 65537 (0x10001)
        X509v3 extensions:
            X509v3 Basic Constraints: 
                CA:FALSE
            X509v3 Subject Key Identifier: 
                0C:3C:E6:0D:EF:C6:39:7C:AC:96:80:AD:4E:97:A6:B4:DB:1F:54:57
            X509v3 Authority Key Identifier: 
                keyid:78:62:28:53:38:1B:CE:0C:E0:E4:D4:70:B3:4E:42:7C:B4:35:DC:AE
                DirName:/CN=team129-net
                serial:48:B7:73:C6:4C:93:D9:52:E7:58:86:E6:D0:F5:9C:62:A8:B1:A3:3C

            X509v3 Extended Key Usage: 
                TLS Web Server Authentication
            X509v3 Key Usage: 
                Digital Signature, Key Encipherment
            X509v3 Subject Alternative Name: 
                DNS:team129-server
    Signature Algorithm: sha256WithRSAEncryption
         56:05:45:7b:b1:f3:f1:66:ac:6b:3c:bc:d1:49:4f:1d:02:6e:
         7b:97:3b:77:70:80:e3:62:65:ae:8b:9d:54:36:24:65:c8:75:
         0b:4c:12:60:45:fe:2a:6d:21:3b:86:83:db:f7:64:79:f5:54:
         c4:63:4e:c3:39:06:1b:22:38:32:0d:9a:4d:5b:cb:c6:96:1b:
         ec:91:6f:98:45:08:ca:5a:bd:69:ee:8c:03:2a:81:cd:05:7a:
         33:44:28:55:3a:26:f6:ff:bb:80:f9:b1:3b:6b:4e:82:c0:a2:
         65:07:9d:98:73:48:a7:73:23:10:dc:41:80:56:0b:db:31:58:
         a2:cf:4c:8b:76:08:15:2d:05:6f:6b:3f:fb:c6:46:14:ff:f8:
         8b:b4:28:7c:9c:f8:68:f7:20:f3:2a:81:17:fb:83:28:e0:41:
         5c:11:66:a7:bf:2e:b3:8a:24:09:3a:56:58:b5:60:54:37:0c:
         3b:32:68:d3:e7:83:c1:d5:2d:27:f2:2a:03:c1:d2:87:4b:7e:
         da:84:1a:27:6e:13:b2:a2:7e:3a:29:fb:8d:71:47:74:b5:30:
         0d:f8:84:a6:76:d6:97:6d:00:e8:b7:64:ce:c6:d3:82:41:59:
         3b:f7:15:04:42:cc:03:88:04:5f:dd:44:dc:1f:af:cf:47:43:
         aa:5a:a0:60
-----BEGIN CERTIFICATE-----
MIIDdzCCAl+gAwIBAgIQXXNuN09wTJagq5JT2HAmDjANBgkqhkiG9w0BAQsFADAW
MRQwEgYDVQQDDAt0ZWFtMTI5LW5ldDAeFw0yMzA4MTQxNDI0NTZaFw0yNjA3Mjkx
NDI0NTZaMBkxFzAVBgNVBAMMDnRlYW0xMjktc2VydmVyMIIBIjANBgkqhkiG9w0B
AQEFAAOCAQ8AMIIBCgKCAQEAyb09jSXCuKQ/OUC47S3tCHfRGZT4pRnpUc/Q0f3l
k7ZEPMKaEjTVGJ7WBzf8IfbYs6iNSFy6r7peX3UK8wx5BnoI01nkX1zIUjCvlvOM
fA6x/ZZ51Ezq8C+npivjxMhHDPx4u++jdg+u6jEB/JR1WRlz+oViouLUYamuf/JA
9j1wzuQPP8dwAcYp3ruAqteUAPvOTcD/kwys28lNAcz3vuq5gYAb9CluXucpnbjq
UnbiEpkvrhD4n6QJQVW82Gu1yu25rF8of07wHUkP/1LQSaHw2DuXSElKU5iwgWw/
6NZVkRnT3Z5AsqsBZD9g/Tk8FEvtyOhkfr1C1tqyJGhluwIDAQABo4G9MIG6MAkG
A1UdEwQCMAAwHQYDVR0OBBYEFAw85g3vxjl8rJaArU6XprTbH1RXMFEGA1UdIwRK
MEiAFHhiKFM4G84M4OTUcLNOQny0NdyuoRqkGDAWMRQwEgYDVQQDDAt0ZWFtMTI5
LW5ldIIUSLdzxkyT2VLnWIbm0PWcYqixozwwEwYDVR0lBAwwCgYIKwYBBQUHAwEw
CwYDVR0PBAQDAgWgMBkGA1UdEQQSMBCCDnRlYW0xMjktc2VydmVyMA0GCSqGSIb3
DQEBCwUAA4IBAQBWBUV7sfPxZqxrPLzRSU8dAm57lzt3cIDjYmWui51UNiRlyHUL
TBJgRf4qbSE7hoPb92R59VTEY07DOQYbIjgyDZpNW8vGlhvskW+YRQjKWr1p7owD
KoHNBXozRChVOib2/7uA+bE7a06CwKJlB52Yc0incyMQ3EGAVgvbMViiz0yLdggV
LQVvaz/7xkYU//iLtCh8nPho9yDzKoEX+4Mo4EFcEWanvy6ziiQJOlZYtWBUNww7
MmjT54PB1S0n8ioDwdKHS37ahBonbhOyon46KfuNcUd0tTAN+ISmdtaXbQDot2TO
xtOCQVk79xUEQswDiARf3UTcH6/PR0OqWqBg
-----END CERTIFICATE-----
