Certificate:
    Data:
        Version: 3 (0x2)
        Serial Number:
            f9:52:09:f7:f0:7b:d4:5e:95:ec:27:ee:c5:f3:df:7e
        Signature Algorithm: sha256WithRSAEncryption
        Issuer: CN=team24-net
        Validity
            Not Before: Aug 14 14:22:32 2023 GMT
            Not After : Jul 29 14:22:32 2026 GMT
        Subject: CN=team24-server
        Subject Public Key Info:
            Public Key Algorithm: rsaEncryption
                RSA Public-Key: (2048 bit)
                Modulus:
                    00:c0:f8:a2:df:c0:ad:76:a3:31:6b:30:2d:ef:9f:
                    da:26:0c:2d:0c:fa:e5:18:d6:4b:7f:cd:3b:63:23:
                    21:26:cd:83:c0:98:e3:9d:74:8e:ad:f3:7f:f4:9e:
                    e1:b5:b7:dd:a5:40:5d:c2:2a:48:79:11:bb:b5:44:
                    ca:76:f0:2a:4d:cb:6d:fd:37:47:2b:df:d9:da:ab:
                    57:79:80:2c:ac:47:e8:dc:cc:bc:72:75:ff:4b:e8:
                    47:d3:bb:1b:ef:5b:31:5c:10:bc:48:72:ed:0a:4a:
                    be:b4:8c:02:bb:da:e7:7c:90:80:9b:b8:6a:66:58:
                    65:df:10:34:b4:d1:03:61:e8:1a:e5:8e:a4:d2:d7:
                    24:0e:5c:91:55:94:6a:fe:ef:d3:a7:88:83:e8:2c:
                    9c:0d:f6:be:bf:58:8f:21:a6:34:5e:f7:11:b4:6a:
                    96:24:60:4c:fc:58:af:cd:5f:0c:e9:e0:d6:25:ff:
                    72:fb:9e:71:2e:59:3d:fd:14:bd:a8:eb:ea:ab:be:
                    b3:72:2a:84:df:bc:be:58:22:a9:4b:31:3d:d8:8b:
                    4e:d0:81:3e:1b:46:ee:56:1f:40:7b:f1:a5:ef:50:
                    4b:78:db:e6:7c:22:a4:93:b6:95:4e:92:ee:61:d0:
                    b4:de:94:61:5b:8c:06:1c:aa:df:2e:26:53:f8:5a:
                    d6:f1
                Exponent: 65537 (0x10001)
        X509v3 extensions:
            X509v3 Basic Constraints: 
                CA:FALSE
            X509v3 Subject Key Identifier: 
                EA:E3:B9:8C:B2:CB:49:C0:E9:E0:79:36:E6:5F:88:67:1A:8F:38:60
            X509v3 Authority Key Identifier: 
                keyid:EF:B8:B8:18:F1:29:EF:76:69:54:0E:6B:1A:3A:29:B7:C4:74:89:D1
                DirName:/CN=team24-net
                serial:27:0D:6B:D4:9E:F4:B6:16:48:16:D7:7A:E6:70:E8:BC:78:2D:FE:AB

            X509v3 Extended Key Usage: 
                TLS Web Server Authentication
            X509v3 Key Usage: 
                Digital Signature, Key Encipherment
            X509v3 Subject Alternative Name: 
                DNS:team24-server
    Signature Algorithm: sha256WithRSAEncryption
         38:d4:f1:65:f2:44:9c:66:0e:29:46:8f:df:71:83:57:80:54:
         18:a9:c7:9e:81:af:a6:bb:c5:8c:b8:fe:61:ce:5b:d8:48:d8:
         b0:c9:4a:ea:70:1b:b6:af:13:04:9e:9b:20:90:ee:37:04:dd:
         95:b1:03:7e:cf:e4:6b:70:f8:e2:0d:1d:1e:c6:4c:57:3a:47:
         14:d9:76:b9:3f:7d:86:a2:3b:44:33:5b:60:d7:b8:81:5a:22:
         3d:c4:5e:08:f2:23:1d:62:8f:26:f5:fc:0f:db:ad:fd:a6:e4:
         ae:4a:65:bd:b4:fc:ad:e0:66:80:bc:0c:6e:74:bf:60:8e:53:
         15:ae:f1:37:0f:af:c3:f6:0e:1d:a1:a5:e2:9f:1f:2d:d4:f6:
         27:25:fb:de:c0:31:68:6e:bf:05:a7:82:ad:50:de:c9:0b:fa:
         19:cf:00:d2:56:74:69:ca:c4:eb:ab:a4:e5:80:a7:24:da:4b:
         cf:ad:b3:69:e3:47:38:bc:43:39:fd:4c:b8:d0:88:37:19:2d:
         49:a6:6f:06:e7:27:f9:25:61:f4:a9:ce:4a:04:d3:da:9f:52:
         e9:f8:6d:dc:da:23:23:81:49:bf:6f:4a:46:30:ee:73:d6:1a:
         71:49:52:f7:15:86:65:34:db:8b:b0:ca:ef:f9:67:15:43:ff:
         60:ef:b6:24
-----BEGIN CERTIFICATE-----
MIIDdDCCAlygAwIBAgIRAPlSCffwe9Relewn7sXz334wDQYJKoZIhvcNAQELBQAw
FTETMBEGA1UEAwwKdGVhbTI0LW5ldDAeFw0yMzA4MTQxNDIyMzJaFw0yNjA3Mjkx
NDIyMzJaMBgxFjAUBgNVBAMMDXRlYW0yNC1zZXJ2ZXIwggEiMA0GCSqGSIb3DQEB
AQUAA4IBDwAwggEKAoIBAQDA+KLfwK12ozFrMC3vn9omDC0M+uUY1kt/zTtjIyEm
zYPAmOOddI6t83/0nuG1t92lQF3CKkh5Ebu1RMp28CpNy239N0cr39naq1d5gCys
R+jczLxydf9L6EfTuxvvWzFcELxIcu0KSr60jAK72ud8kICbuGpmWGXfEDS00QNh
6BrljqTS1yQOXJFVlGr+79OniIPoLJwN9r6/WI8hpjRe9xG0apYkYEz8WK/NXwzp
4NYl/3L7nnEuWT39FL2o6+qrvrNyKoTfvL5YIqlLMT3Yi07QgT4bRu5WH0B78aXv
UEt42+Z8IqSTtpVOku5h0LTelGFbjAYcqt8uJlP4WtbxAgMBAAGjgbswgbgwCQYD
VR0TBAIwADAdBgNVHQ4EFgQU6uO5jLLLScDp4Hk25l+IZxqPOGAwUAYDVR0jBEkw
R4AU77i4GPEp73ZpVA5rGjopt8R0idGhGaQXMBUxEzARBgNVBAMMCnRlYW0yNC1u
ZXSCFCcNa9Se9LYWSBbXeuZw6Lx4Lf6rMBMGA1UdJQQMMAoGCCsGAQUFBwMBMAsG
A1UdDwQEAwIFoDAYBgNVHREEETAPgg10ZWFtMjQtc2VydmVyMA0GCSqGSIb3DQEB
CwUAA4IBAQA41PFl8kScZg4pRo/fcYNXgFQYqceega+mu8WMuP5hzlvYSNiwyUrq
cBu2rxMEnpsgkO43BN2VsQN+z+RrcPjiDR0exkxXOkcU2Xa5P32GojtEM1tg17iB
WiI9xF4I8iMdYo8m9fwP2639puSuSmW9tPyt4GaAvAxudL9gjlMVrvE3D6/D9g4d
oaXinx8t1PYnJfvewDFobr8Fp4KtUN7JC/oZzwDSVnRpysTrq6TlgKck2kvPrbNp
40c4vEM5/Uy40Ig3GS1Jpm8G5yf5JWH0qc5KBNPan1Lp+G3c2iMjgUm/b0pGMO5z
1hpxSVL3FYZlNNuLsMrv+WcVQ/9g77Yk
-----END CERTIFICATE-----
