Certificate:
    Data:
        Version: 3 (0x2)
        Serial Number:
            1e:c9:ac:99:38:50:7b:9b:f3:81:38:10:54:be:66:10
        Signature Algorithm: sha256WithRSAEncryption
        Issuer: CN=team69-net
        Validity
            Not Before: Aug 14 14:23:36 2023 GMT
            Not After : Jul 29 14:23:36 2026 GMT
        Subject: CN=team69-client
        Subject Public Key Info:
            Public Key Algorithm: rsaEncryption
                RSA Public-Key: (2048 bit)
                Modulus:
                    00:ad:3f:18:3d:8c:e4:e7:1b:84:67:7d:c6:fd:73:
                    72:e5:22:3f:73:f1:40:ab:f7:d9:13:0d:5a:b0:c3:
                    ec:4c:de:88:ed:bc:d6:40:60:6d:c2:dd:0a:6b:87:
                    d0:08:3f:21:ea:2f:e3:fa:48:f3:f9:ce:cd:04:b3:
                    ca:0f:38:64:ff:79:f5:25:02:53:a6:ad:22:72:f1:
                    1c:03:e6:e1:59:0c:ca:46:45:2e:2c:16:d7:cb:02:
                    23:1c:bb:04:05:c6:01:1a:62:2d:52:18:53:be:d9:
                    cc:9e:0b:89:ba:fd:4f:50:d4:70:63:5b:3d:17:04:
                    6f:98:a0:5a:6f:af:4d:80:da:4a:02:59:f6:3b:6b:
                    6e:c3:3e:a1:aa:a7:5d:71:62:5b:e3:20:37:7a:2e:
                    d9:ce:d8:b1:70:42:6a:d2:1f:41:53:53:39:80:04:
                    15:d1:2e:8d:4c:ee:47:18:50:9a:b0:5a:0c:74:5f:
                    43:6c:bf:e0:6f:68:90:a2:04:e0:76:8f:e4:bd:79:
                    de:90:0e:5a:8f:c8:9e:93:2f:25:e8:27:d1:82:64:
                    36:4c:cb:b4:b1:5e:e8:e5:e5:8a:97:2a:56:22:61:
                    21:d3:cc:2f:5d:13:d8:ad:62:c5:10:bf:ba:c5:2e:
                    3a:3a:11:9b:62:31:46:f4:16:f3:e4:a0:3f:86:50:
                    90:a7
                Exponent: 65537 (0x10001)
        X509v3 extensions:
            X509v3 Basic Constraints: 
                CA:FALSE
            X509v3 Subject Key Identifier: 
                84:5F:D3:5C:4D:63:74:99:01:01:EB:19:D3:74:15:0B:11:E0:F4:D5
            X509v3 Authority Key Identifier: 
                keyid:1D:BA:D6:C6:65:E2:9D:32:0D:11:09:55:5C:53:34:E2:A7:64:45:7E
                DirName:/CN=team69-net
                serial:44:E9:A6:89:D8:90:D1:18:AE:EA:52:95:C6:99:4A:A9:A8:03:D0:51

            X509v3 Extended Key Usage: 
                TLS Web Client Authentication
            X509v3 Key Usage: 
                Digital Signature
    Signature Algorithm: sha256WithRSAEncryption
         27:43:82:c7:84:7d:e6:dc:1a:91:ed:29:29:a8:82:71:87:02:
         78:4b:23:79:1e:83:ba:fd:71:c0:39:4f:64:59:cf:e5:11:f5:
         8f:8f:1f:c1:71:4c:8b:bf:d5:8f:6a:ea:87:88:1a:48:d5:3c:
         43:51:2f:8f:3f:53:b7:b3:30:d7:18:78:c4:7f:90:06:0e:b6:
         1f:79:0d:e0:47:bc:b2:95:d8:a7:13:a0:d8:33:c7:a4:1d:6b:
         a6:bc:df:5e:7c:d7:90:b8:68:07:d1:13:92:ed:dc:ab:80:e2:
         a5:f6:fe:b4:0c:e5:08:0a:ac:f8:37:e0:71:04:83:42:63:aa:
         2a:f5:7d:da:88:76:7c:84:24:26:ba:dd:e9:06:85:7f:58:6e:
         05:5a:26:24:26:83:c5:a3:73:bf:03:e5:ad:74:51:10:47:06:
         b9:d3:d5:ae:1d:9d:09:db:e2:b3:4f:95:2c:0b:35:54:b8:75:
         28:e5:46:c0:12:c6:67:38:03:aa:4e:55:6d:07:06:c6:21:58:
         28:0a:1a:13:46:5b:3b:8f:9d:70:0c:15:ed:4b:b9:1a:3f:9e:
         c2:54:24:ad:3d:3c:ff:fc:4e:c5:7a:0e:b6:b2:37:1e:26:57:
         1a:11:53:f0:ba:b2:94:4d:82:73:3a:32:e9:65:45:5a:d9:09:
         eb:d2:ae:12
-----BEGIN CERTIFICATE-----
MIIDWTCCAkGgAwIBAgIQHsmsmThQe5vzgTgQVL5mEDANBgkqhkiG9w0BAQsFADAV
MRMwEQYDVQQDDAp0ZWFtNjktbmV0MB4XDTIzMDgxNDE0MjMzNloXDTI2MDcyOTE0
MjMzNlowGDEWMBQGA1UEAwwNdGVhbTY5LWNsaWVudDCCASIwDQYJKoZIhvcNAQEB
BQADggEPADCCAQoCggEBAK0/GD2M5OcbhGd9xv1zcuUiP3PxQKv32RMNWrDD7Eze
iO281kBgbcLdCmuH0Ag/Ieov4/pI8/nOzQSzyg84ZP959SUCU6atInLxHAPm4VkM
ykZFLiwW18sCIxy7BAXGARpiLVIYU77ZzJ4Libr9T1DUcGNbPRcEb5igWm+vTYDa
SgJZ9jtrbsM+oaqnXXFiW+MgN3ou2c7YsXBCatIfQVNTOYAEFdEujUzuRxhQmrBa
DHRfQ2y/4G9okKIE4HaP5L153pAOWo/InpMvJegn0YJkNkzLtLFe6OXlipcqViJh
IdPML10T2K1ixRC/usUuOjoRm2IxRvQW8+SgP4ZQkKcCAwEAAaOBoTCBnjAJBgNV
HRMEAjAAMB0GA1UdDgQWBBSEX9NcTWN0mQEB6xnTdBULEeD01TBQBgNVHSMESTBH
gBQdutbGZeKdMg0RCVVcUzTip2RFfqEZpBcwFTETMBEGA1UEAwwKdGVhbTY5LW5l
dIIUROmmidiQ0Riu6lKVxplKqagD0FEwEwYDVR0lBAwwCgYIKwYBBQUHAwIwCwYD
VR0PBAQDAgeAMA0GCSqGSIb3DQEBCwUAA4IBAQAnQ4LHhH3m3BqR7SkpqIJxhwJ4
SyN5HoO6/XHAOU9kWc/lEfWPjx/BcUyLv9WPauqHiBpI1TxDUS+PP1O3szDXGHjE
f5AGDrYfeQ3gR7yyldinE6DYM8ekHWumvN9efNeQuGgH0ROS7dyrgOKl9v60DOUI
Cqz4N+BxBINCY6oq9X3aiHZ8hCQmut3pBoV/WG4FWiYkJoPFo3O/A+WtdFEQRwa5
09WuHZ0J2+KzT5UsCzVUuHUo5UbAEsZnOAOqTlVtBwbGIVgoChoTRls7j51wDBXt
S7kaP57CVCStPTz//E7Feg62sjceJlcaEVPwurKUTYJzOjLpZUVa2Qnr0q4S
-----END CERTIFICATE-----
