Certificate:
    Data:
        Version: 3 (0x2)
        Serial Number:
            37:ad:28:03:67:8d:c3:01:f2:07:b7:a2:cc:0b:9d:25
        Signature Algorithm: sha256WithRSAEncryption
        Issuer: CN=team82-net
        Validity
            Not Before: Aug 14 14:23:53 2023 GMT
            Not After : Jul 29 14:23:53 2026 GMT
        Subject: CN=team82-client
        Subject Public Key Info:
            Public Key Algorithm: rsaEncryption
                RSA Public-Key: (2048 bit)
                Modulus:
                    00:cd:44:b5:9c:42:77:bf:0e:42:a2:db:ee:9b:28:
                    ce:ef:27:3a:db:d5:60:61:0c:43:4c:1e:7f:16:0a:
                    4c:b6:84:45:19:b5:f1:2d:f8:e5:2f:7f:6e:66:cf:
                    14:c5:d4:81:8c:9c:39:54:63:f3:ef:6a:90:e1:a7:
                    b7:4c:c5:c1:04:78:92:77:6d:ec:12:36:d5:9a:ac:
                    25:52:d5:2f:69:5b:fc:a8:4e:48:cb:39:d4:1d:8f:
                    79:50:90:43:59:3b:cf:12:fa:03:62:d9:ff:54:35:
                    bd:17:da:c5:37:d3:0f:c0:2d:86:f0:29:c0:ca:46:
                    c0:ae:30:bd:37:0f:79:23:29:f3:71:97:b5:ad:42:
                    3d:d7:b1:81:b8:c4:95:80:3e:e6:c3:ba:27:1d:06:
                    49:9c:6d:9f:e6:8a:9e:a8:e2:b5:42:da:c4:3a:07:
                    6e:dc:ac:44:42:f1:c8:ff:b4:72:43:29:68:3c:41:
                    5d:c1:e4:d6:df:87:67:b4:50:b6:99:ec:1c:ec:9a:
                    00:af:33:c9:91:28:12:64:0a:e5:6b:73:cf:e8:cb:
                    bc:1f:ac:48:96:55:3e:f5:11:5a:7d:89:0c:4f:41:
                    3f:ed:e7:9a:f0:89:f8:4e:52:a6:11:3f:e0:51:c8:
                    36:f9:e7:c1:d5:41:6f:ac:1d:81:03:75:db:43:6e:
                    45:61
                Exponent: 65537 (0x10001)
        X509v3 extensions:
            X509v3 Basic Constraints: 
                CA:FALSE
            X509v3 Subject Key Identifier: 
                71:DD:85:88:CA:66:7D:3B:AE:44:04:EB:99:67:4A:7A:F9:20:D0:AB
            X509v3 Authority Key Identifier: 
                keyid:ED:31:43:59:6F:41:4D:E5:17:16:1E:BC:0E:FD:77:E1:98:07:A8:25
                DirName:/CN=team82-net
                serial:3F:0B:33:9F:48:E8:EC:D2:4D:25:61:DA:E6:C2:1C:BC:4F:37:69:C5

            X509v3 Extended Key Usage: 
                TLS Web Client Authentication
            X509v3 Key Usage: 
                Digital Signature
    Signature Algorithm: sha256WithRSAEncryption
         71:df:6c:ae:17:0a:fa:f0:40:ab:91:ce:eb:50:96:4a:e7:e5:
         33:43:bf:4e:53:18:46:b5:70:42:aa:2a:a2:6b:55:da:e7:16:
         ef:32:7a:09:70:90:d2:10:47:f6:22:8e:22:9b:34:e8:74:c6:
         74:43:d2:3f:6c:95:99:aa:4f:43:55:88:0b:e3:77:bc:11:28:
         47:19:8f:49:11:49:76:9d:89:b6:7f:b2:ff:90:14:b2:2f:8b:
         17:8b:6c:3b:67:12:56:f1:75:e4:b6:4b:26:3d:b1:ce:8a:d5:
         62:1b:b6:26:f8:a3:2f:29:11:68:46:9c:b9:10:b0:ca:d0:36:
         2f:68:79:b9:dd:1d:cf:48:46:c1:f3:b0:1d:3e:9e:91:30:28:
         38:12:4d:dc:e6:30:72:09:8f:88:dc:3d:8f:af:5e:c3:dc:87:
         99:39:12:3b:e6:60:78:37:50:9c:7d:33:12:55:a9:fc:4c:0f:
         18:9e:2f:3a:d8:41:fe:7a:ce:a7:4f:f8:9f:33:06:cf:2e:fa:
         3c:c0:e3:65:0a:25:cb:37:60:75:b1:04:b4:e4:5a:7e:c6:79:
         0a:20:01:13:ff:5c:b5:ad:56:4d:20:da:95:fa:cd:ce:ae:dc:
         cf:0a:b2:a5:0f:3a:f9:e7:bb:4e:79:c6:51:7b:0e:db:3f:bd:
         e7:fc:07:ce
-----BEGIN CERTIFICATE-----
MIIDWTCCAkGgAwIBAgIQN60oA2eNwwHyB7eizAudJTANBgkqhkiG9w0BAQsFADAV
MRMwEQYDVQQDDAp0ZWFtODItbmV0MB4XDTIzMDgxNDE0MjM1M1oXDTI2MDcyOTE0
MjM1M1owGDEWMBQGA1UEAwwNdGVhbTgyLWNsaWVudDCCASIwDQYJKoZIhvcNAQEB
BQADggEPADCCAQoCggEBAM1EtZxCd78OQqLb7psozu8nOtvVYGEMQ0wefxYKTLaE
RRm18S345S9/bmbPFMXUgYycOVRj8+9qkOGnt0zFwQR4kndt7BI21ZqsJVLVL2lb
/KhOSMs51B2PeVCQQ1k7zxL6A2LZ/1Q1vRfaxTfTD8AthvApwMpGwK4wvTcPeSMp
83GXta1CPdexgbjElYA+5sO6Jx0GSZxtn+aKnqjitULaxDoHbtysRELxyP+0ckMp
aDxBXcHk1t+HZ7RQtpnsHOyaAK8zyZEoEmQK5Wtzz+jLvB+sSJZVPvURWn2JDE9B
P+3nmvCJ+E5SphE/4FHINvnnwdVBb6wdgQN120NuRWECAwEAAaOBoTCBnjAJBgNV
HRMEAjAAMB0GA1UdDgQWBBRx3YWIymZ9O65EBOuZZ0p6+SDQqzBQBgNVHSMESTBH
gBTtMUNZb0FN5RcWHrwO/XfhmAeoJaEZpBcwFTETMBEGA1UEAwwKdGVhbTgyLW5l
dIIUPwszn0jo7NJNJWHa5sIcvE83acUwEwYDVR0lBAwwCgYIKwYBBQUHAwIwCwYD
VR0PBAQDAgeAMA0GCSqGSIb3DQEBCwUAA4IBAQBx32yuFwr68ECrkc7rUJZK5+Uz
Q79OUxhGtXBCqiqia1Xa5xbvMnoJcJDSEEf2Io4imzTodMZ0Q9I/bJWZqk9DVYgL
43e8EShHGY9JEUl2nYm2f7L/kBSyL4sXi2w7ZxJW8XXktksmPbHOitViG7Ym+KMv
KRFoRpy5ELDK0DYvaHm53R3PSEbB87AdPp6RMCg4Ek3c5jByCY+I3D2Pr17D3IeZ
ORI75mB4N1CcfTMSVan8TA8Yni862EH+es6nT/ifMwbPLvo8wONlCiXLN2B1sQS0
5Fp+xnkKIAET/1y1rVZNINqV+s3OrtzPCrKlDzr557tOecZRew7bP73n/AfO
-----END CERTIFICATE-----
