Certificate:
    Data:
        Version: 3 (0x2)
        Serial Number:
            3c:c3:b4:3e:01:4a:35:28:81:e4:e2:a7:cc:5f:09:90
        Signature Algorithm: sha256WithRSAEncryption
        Issuer: CN=team209-net
        Validity
            Not Before: Aug 14 14:26:30 2023 GMT
            Not After : Jul 29 14:26:30 2026 GMT
        Subject: CN=team209-server
        Subject Public Key Info:
            Public Key Algorithm: rsaEncryption
                RSA Public-Key: (2048 bit)
                Modulus:
                    00:f3:19:9f:18:58:18:80:57:61:6c:06:66:57:24:
                    4e:ad:e4:5e:b5:79:76:ea:9f:85:5c:7c:bf:85:d4:
                    5a:4b:5a:5b:bd:ae:29:f5:b0:ba:7c:45:21:5b:f0:
                    01:e5:66:61:e8:66:f2:1c:fd:f8:ba:94:79:a9:91:
                    3d:6b:ba:a4:f0:be:e5:47:aa:9e:34:0c:17:71:81:
                    63:7b:80:26:56:98:fa:61:72:ea:a3:04:4e:10:5c:
                    9a:b1:42:aa:67:cc:dd:e0:96:f8:52:9d:b7:87:bc:
                    55:cc:01:ff:41:ad:bf:4c:ac:e3:40:a8:79:79:34:
                    34:1f:06:0a:ac:2c:0d:3d:3d:ef:f6:c4:71:49:78:
                    ef:e9:97:c1:4c:d8:68:4a:45:03:80:27:8e:ff:0a:
                    af:22:10:ba:bf:96:39:6e:df:88:54:01:15:86:f8:
                    85:f0:59:8d:30:77:9c:d2:b5:ac:60:bb:a2:24:c0:
                    56:c3:53:f9:03:98:be:18:1d:32:e4:e9:9e:8b:55:
                    47:eb:d7:17:0a:45:ea:be:d7:08:31:9b:b0:8f:59:
                    03:ed:6e:9f:6e:72:62:6a:66:21:cc:c8:e0:06:3d:
                    9b:8b:8a:43:5f:0e:03:62:63:6f:c0:ad:17:fc:64:
                    03:5d:95:f0:29:49:dc:2b:76:d1:83:67:67:e1:51:
                    27:27
                Exponent: 65537 (0x10001)
        X509v3 extensions:
            X509v3 Basic Constraints: 
                CA:FALSE
            X509v3 Subject Key Identifier: 
                A3:93:B5:84:D3:53:87:95:92:5E:A4:26:15:32:5D:E3:2B:5F:56:1F
            X509v3 Authority Key Identifier: 
                keyid:83:EA:A4:BE:01:4E:9D:8C:AC:FE:28:87:29:E8:CB:DC:2E:35:E1:48
                DirName:/CN=team209-net
                serial:5B:64:91:C2:0B:94:D1:08:CC:F9:8E:29:FF:E4:FD:07:2B:AC:64:66

            X509v3 Extended Key Usage: 
                TLS Web Server Authentication
            X509v3 Key Usage: 
                Digital Signature, Key Encipherment
            X509v3 Subject Alternative Name: 
                DNS:team209-server
    Signature Algorithm: sha256WithRSAEncryption
         79:8e:aa:73:42:e7:55:bf:81:c2:ea:19:70:0d:d9:f4:25:d7:
         c1:dc:91:f8:2f:40:ae:32:7d:03:3a:98:a8:99:48:09:7a:82:
         81:f1:62:8e:b2:55:f9:e8:63:ce:bf:f7:a8:83:60:d5:43:1a:
         48:32:a4:95:27:d1:57:d2:09:3c:6c:b4:1d:bf:b3:f9:44:34:
         ff:fe:36:e3:06:ef:e0:f4:1e:1d:f4:62:7b:cb:53:88:be:18:
         c4:df:13:c0:f9:63:53:76:2e:57:28:1e:6f:f8:9a:d7:ae:17:
         02:34:4a:2a:87:31:c3:20:4c:05:c7:03:0c:f5:2b:fd:a4:70:
         cd:12:37:ae:9d:7e:2e:d1:90:ef:e8:f0:b4:0b:5e:d8:69:0f:
         1f:98:ff:e5:79:98:4a:3c:2e:0e:23:91:be:a7:d8:9d:a9:d0:
         51:50:ff:a0:e1:7a:9b:6d:7f:be:2c:e7:4a:bb:1d:ee:05:47:
         34:e2:41:3c:ca:82:ac:2a:3c:a7:74:cb:78:99:f4:1f:68:af:
         37:d6:1e:20:04:d9:04:4a:ab:4d:02:3e:30:3a:69:c6:2a:c5:
         5b:66:b4:30:d8:55:a8:00:e8:b3:b7:fd:86:c3:d2:60:2e:65:
         99:f8:65:ed:f8:a7:cb:51:af:f2:0c:26:c5:ac:73:bb:d2:4d:
         84:dd:25:a5
-----BEGIN CERTIFICATE-----
MIIDdzCCAl+gAwIBAgIQPMO0PgFKNSiB5OKnzF8JkDANBgkqhkiG9w0BAQsFADAW
MRQwEgYDVQQDDAt0ZWFtMjA5LW5ldDAeFw0yMzA4MTQxNDI2MzBaFw0yNjA3Mjkx
NDI2MzBaMBkxFzAVBgNVBAMMDnRlYW0yMDktc2VydmVyMIIBIjANBgkqhkiG9w0B
AQEFAAOCAQ8AMIIBCgKCAQEA8xmfGFgYgFdhbAZmVyROreRetXl26p+FXHy/hdRa
S1pbva4p9bC6fEUhW/AB5WZh6GbyHP34upR5qZE9a7qk8L7lR6qeNAwXcYFje4Am
Vpj6YXLqowROEFyasUKqZ8zd4Jb4Up23h7xVzAH/Qa2/TKzjQKh5eTQ0HwYKrCwN
PT3v9sRxSXjv6ZfBTNhoSkUDgCeO/wqvIhC6v5Y5bt+IVAEVhviF8FmNMHec0rWs
YLuiJMBWw1P5A5i+GB0y5Omei1VH69cXCkXqvtcIMZuwj1kD7W6fbnJiamYhzMjg
Bj2bi4pDXw4DYmNvwK0X/GQDXZXwKUncK3bRg2dn4VEnJwIDAQABo4G9MIG6MAkG
A1UdEwQCMAAwHQYDVR0OBBYEFKOTtYTTU4eVkl6kJhUyXeMrX1YfMFEGA1UdIwRK
MEiAFIPqpL4BTp2MrP4ohynoy9wuNeFIoRqkGDAWMRQwEgYDVQQDDAt0ZWFtMjA5
LW5ldIIUW2SRwguU0QjM+Y4p/+T9ByusZGYwEwYDVR0lBAwwCgYIKwYBBQUHAwEw
CwYDVR0PBAQDAgWgMBkGA1UdEQQSMBCCDnRlYW0yMDktc2VydmVyMA0GCSqGSIb3
DQEBCwUAA4IBAQB5jqpzQudVv4HC6hlwDdn0JdfB3JH4L0CuMn0DOpiomUgJeoKB
8WKOslX56GPOv/eog2DVQxpIMqSVJ9FX0gk8bLQdv7P5RDT//jbjBu/g9B4d9GJ7
y1OIvhjE3xPA+WNTdi5XKB5v+JrXrhcCNEoqhzHDIEwFxwMM9Sv9pHDNEjeunX4u
0ZDv6PC0C17YaQ8fmP/leZhKPC4OI5G+p9idqdBRUP+g4XqbbX++LOdKux3uBUc0
4kE8yoKsKjyndMt4mfQfaK831h4gBNkESqtNAj4wOmnGKsVbZrQw2FWoAOizt/2G
w9JgLmWZ+GXt+KfLUa/yDCbFrHO70k2E3SWl
-----END CERTIFICATE-----
