Certificate:
    Data:
        Version: 3 (0x2)
        Serial Number:
            bb:fa:4e:22:c7:2b:13:87:8f:08:de:d7:90:f5:9c:69
        Signature Algorithm: sha256WithRSAEncryption
        Issuer: CN=team252-net
        Validity
            Not Before: Aug 14 14:27:22 2023 GMT
            Not After : Jul 29 14:27:22 2026 GMT
        Subject: CN=team252-server
        Subject Public Key Info:
            Public Key Algorithm: rsaEncryption
                RSA Public-Key: (2048 bit)
                Modulus:
                    00:e6:08:d7:00:fd:fe:ba:b7:cf:65:4f:74:e6:2e:
                    13:b1:fc:bb:7c:5b:aa:81:f2:4e:43:7f:31:d5:bc:
                    c5:db:b0:77:1b:82:00:70:a5:56:af:f1:fd:c9:cd:
                    78:61:d9:38:06:1d:55:0c:aa:32:ad:7d:ac:d8:d8:
                    24:bf:a2:81:90:e9:66:f2:30:f4:ba:fd:36:75:25:
                    2a:e2:01:7a:1d:84:da:a4:f2:93:a2:61:59:a1:bf:
                    92:4b:77:6d:b4:ea:c1:a1:56:a6:20:6c:ee:59:65:
                    85:1e:7c:77:9c:0f:02:50:dc:fc:7c:f3:0f:10:2b:
                    c5:2b:38:e8:5c:00:12:4f:ef:c3:15:53:20:a2:27:
                    49:91:cb:e3:be:fc:c3:8f:06:83:06:48:b7:be:76:
                    b5:b1:48:03:1d:40:8e:37:ff:26:60:40:77:22:2f:
                    05:d1:95:ba:5c:3e:23:db:ed:83:0b:45:09:22:da:
                    2e:06:31:db:22:ff:74:5c:f8:32:69:8f:d9:25:d6:
                    5c:5a:9f:54:81:fb:2b:e3:cd:de:6c:a5:f3:11:ae:
                    2b:b3:d4:db:6e:e3:95:f0:17:61:47:1d:de:ba:a5:
                    52:47:5c:05:e1:5c:76:04:5e:71:c8:8a:8e:58:86:
                    0f:49:47:65:ac:f2:3c:43:4a:89:7c:9c:a2:bb:91:
                    37:ed
                Exponent: 65537 (0x10001)
        X509v3 extensions:
            X509v3 Basic Constraints: 
                CA:FALSE
            X509v3 Subject Key Identifier: 
                A3:BC:7C:D8:81:C2:8D:0F:9F:61:73:0D:72:67:FA:67:75:D7:CA:27
            X509v3 Authority Key Identifier: 
                keyid:34:E9:5F:00:DF:94:D9:7C:BF:10:92:1E:55:78:95:BA:82:49:6B:2B
                DirName:/CN=team252-net
                serial:54:A2:27:85:C8:2F:64:28:89:17:ED:33:35:B6:1B:99:18:F3:15:4B

            X509v3 Extended Key Usage: 
                TLS Web Server Authentication
            X509v3 Key Usage: 
                Digital Signature, Key Encipherment
            X509v3 Subject Alternative Name: 
                DNS:team252-server
    Signature Algorithm: sha256WithRSAEncryption
         c1:11:ba:4e:2e:aa:56:72:62:e9:84:44:83:dd:b2:8e:ac:67:
         05:01:7f:53:61:e1:bc:02:cb:3c:5f:2b:80:8f:c6:43:eb:80:
         94:9d:80:8e:ba:3e:21:28:38:8d:cc:9e:d4:b7:32:00:13:f4:
         71:c4:93:57:07:d5:54:79:ee:04:df:e2:95:7b:6d:9c:77:99:
         2e:b2:5d:1c:6a:70:95:54:85:ca:58:0c:7e:94:ec:59:fc:56:
         bb:89:35:c3:9c:4b:38:67:5f:39:a3:da:a3:74:61:3c:b6:94:
         41:ee:e3:9a:31:5f:77:97:fc:f8:19:e0:de:2c:ad:e4:c3:2c:
         a3:b4:0b:ff:40:9b:bd:18:f8:62:f9:49:e1:3d:3c:50:46:02:
         52:44:13:8d:c2:d2:98:67:94:c0:76:35:ca:63:32:70:bc:96:
         1a:d3:46:7e:d8:44:9b:54:85:6c:7a:4d:4d:1a:32:3b:4d:8e:
         e2:b3:bd:80:17:05:71:d2:1e:f7:2a:7f:01:2a:5e:41:57:01:
         ee:05:20:2d:96:c2:00:e9:16:89:93:51:f2:76:6b:42:57:f6:
         ef:40:bc:10:7a:b5:7b:f6:5c:24:d1:31:0e:7c:79:53:d8:cb:
         91:11:fe:63:e1:80:9f:87:c2:53:63:8a:63:ea:4a:82:b8:74:
         1d:24:75:90
-----BEGIN CERTIFICATE-----
MIIDeDCCAmCgAwIBAgIRALv6TiLHKxOHjwje15D1nGkwDQYJKoZIhvcNAQELBQAw
FjEUMBIGA1UEAwwLdGVhbTI1Mi1uZXQwHhcNMjMwODE0MTQyNzIyWhcNMjYwNzI5
MTQyNzIyWjAZMRcwFQYDVQQDDA50ZWFtMjUyLXNlcnZlcjCCASIwDQYJKoZIhvcN
AQEBBQADggEPADCCAQoCggEBAOYI1wD9/rq3z2VPdOYuE7H8u3xbqoHyTkN/MdW8
xduwdxuCAHClVq/x/cnNeGHZOAYdVQyqMq19rNjYJL+igZDpZvIw9Lr9NnUlKuIB
eh2E2qTyk6JhWaG/kkt3bbTqwaFWpiBs7lllhR58d5wPAlDc/HzzDxArxSs46FwA
Ek/vwxVTIKInSZHL4778w48GgwZIt752tbFIAx1Ajjf/JmBAdyIvBdGVulw+I9vt
gwtFCSLaLgYx2yL/dFz4MmmP2SXWXFqfVIH7K+PN3myl8xGuK7PU227jlfAXYUcd
3rqlUkdcBeFcdgRecciKjliGD0lHZazyPENKiXycoruRN+0CAwEAAaOBvTCBujAJ
BgNVHRMEAjAAMB0GA1UdDgQWBBSjvHzYgcKND59hcw1yZ/pnddfKJzBRBgNVHSME
SjBIgBQ06V8A35TZfL8Qkh5VeJW6gklrK6EapBgwFjEUMBIGA1UEAwwLdGVhbTI1
Mi1uZXSCFFSiJ4XIL2QoiRftMzW2G5kY8xVLMBMGA1UdJQQMMAoGCCsGAQUFBwMB
MAsGA1UdDwQEAwIFoDAZBgNVHREEEjAQgg50ZWFtMjUyLXNlcnZlcjANBgkqhkiG
9w0BAQsFAAOCAQEAwRG6Ti6qVnJi6YREg92yjqxnBQF/U2HhvALLPF8rgI/GQ+uA
lJ2Ajro+ISg4jcye1LcyABP0ccSTVwfVVHnuBN/ilXttnHeZLrJdHGpwlVSFylgM
fpTsWfxWu4k1w5xLOGdfOaPao3RhPLaUQe7jmjFfd5f8+Bng3iyt5MMso7QL/0Cb
vRj4YvlJ4T08UEYCUkQTjcLSmGeUwHY1ymMycLyWGtNGfthEm1SFbHpNTRoyO02O
4rO9gBcFcdIe9yp/ASpeQVcB7gUgLZbCAOkWiZNR8nZrQlf270C8EHq1e/ZcJNEx
Dnx5U9jLkRH+Y+GAn4fCU2OKY+pKgrh0HSR1kA==
-----END CERTIFICATE-----
