Certificate:
    Data:
        Version: 3 (0x2)
        Serial Number:
            eb:13:0f:00:d5:4b:d3:7e:cc:b7:6d:6d:8d:f8:62:c1
        Signature Algorithm: sha256WithRSAEncryption
        Issuer: CN=team252-net
        Validity
            Not Before: Aug 14 14:27:22 2023 GMT
            Not After : Jul 29 14:27:22 2026 GMT
        Subject: CN=team252-client
        Subject Public Key Info:
            Public Key Algorithm: rsaEncryption
                RSA Public-Key: (2048 bit)
                Modulus:
                    00:a6:29:5b:a0:40:9f:fa:f1:ef:1f:0f:7d:a5:85:
                    74:b0:50:10:5c:18:24:37:6b:46:2f:c2:ea:e6:89:
                    b5:72:66:ba:98:a8:37:20:a5:4b:9e:cc:45:0c:c0:
                    8e:c6:a0:92:ff:61:30:3a:88:44:57:f2:78:22:f2:
                    5c:de:02:e5:40:7b:13:5a:97:94:d3:c6:80:37:c5:
                    bc:e9:d4:3e:8f:30:72:27:b3:9d:d0:3f:42:7e:d3:
                    98:88:ce:3a:3d:6f:1e:d3:42:11:ef:5f:07:e6:fe:
                    98:2b:9d:42:61:44:4d:66:6d:92:71:6e:6d:38:c5:
                    36:ae:b5:89:55:17:a1:42:de:81:a2:a4:e8:46:ab:
                    d1:16:67:bd:2b:81:66:81:82:2e:80:7b:7c:98:18:
                    9a:81:24:01:ee:29:18:17:7b:c1:2d:d3:46:27:2a:
                    03:df:99:82:f5:f2:08:9c:35:e8:6e:c7:d5:f0:8f:
                    ab:b0:15:76:86:8f:6f:6d:e1:7e:18:b6:ba:4b:29:
                    f1:7b:a9:d2:7b:4a:bb:cd:a1:56:20:0c:63:e9:e3:
                    7c:84:86:00:30:65:c5:bb:9d:87:c1:a2:00:ff:c3:
                    e9:c5:a4:cf:f7:38:64:01:b5:3e:b7:7c:71:ff:ba:
                    3d:8a:db:f6:50:63:49:c4:ad:ff:e9:84:c6:be:c6:
                    04:d7
                Exponent: 65537 (0x10001)
        X509v3 extensions:
            X509v3 Basic Constraints: 
                CA:FALSE
            X509v3 Subject Key Identifier: 
                40:6A:8E:0F:21:BC:F1:44:4A:6E:E4:AF:2E:4E:7D:A2:D8:EC:15:13
            X509v3 Authority Key Identifier: 
                keyid:34:E9:5F:00:DF:94:D9:7C:BF:10:92:1E:55:78:95:BA:82:49:6B:2B
                DirName:/CN=team252-net
                serial:54:A2:27:85:C8:2F:64:28:89:17:ED:33:35:B6:1B:99:18:F3:15:4B

            X509v3 Extended Key Usage: 
                TLS Web Client Authentication
            X509v3 Key Usage: 
                Digital Signature
    Signature Algorithm: sha256WithRSAEncryption
         81:f9:7c:5a:2a:26:be:df:23:87:ef:57:90:23:b5:c2:02:42:
         20:f7:65:93:b8:86:33:1e:71:09:55:c0:29:f9:2b:56:9e:30:
         55:e9:f2:9d:5b:69:fb:40:f3:98:38:22:bb:4c:a3:c4:38:ca:
         06:23:6a:c8:bf:50:f1:0a:89:10:de:d8:4d:cc:20:df:c4:1e:
         80:c8:74:a0:15:cf:49:69:e1:83:a2:3d:9f:c6:b2:27:91:60:
         99:1a:3a:4f:f4:a5:91:f3:00:cd:05:c4:eb:7b:59:1c:b5:9a:
         f4:ca:a1:bd:48:dd:62:9a:de:38:9b:5f:3a:43:7e:66:19:4b:
         3c:73:e8:98:d1:60:06:a8:4c:07:02:53:5a:0a:92:5b:db:55:
         85:5a:ef:4c:da:a3:38:9f:c0:cc:f6:bc:da:35:38:52:39:4a:
         6d:bd:35:c2:83:b9:16:40:ea:d5:42:56:44:c7:ff:9e:9a:59:
         cd:7e:3b:b5:ee:05:2c:0e:3b:0d:5a:60:ac:bb:62:b0:54:b3:
         96:05:62:e2:3d:61:ac:29:50:84:48:a2:cc:34:12:f3:66:f5:
         78:e4:52:12:a9:68:42:59:fd:3d:f1:6f:c5:91:01:39:6c:41:
         4a:65:f9:4b:51:17:f6:97:d8:1e:7d:f1:a9:90:20:fa:26:28:
         92:39:e7:01
-----BEGIN CERTIFICATE-----
MIIDXTCCAkWgAwIBAgIRAOsTDwDVS9N+zLdtbY34YsEwDQYJKoZIhvcNAQELBQAw
FjEUMBIGA1UEAwwLdGVhbTI1Mi1uZXQwHhcNMjMwODE0MTQyNzIyWhcNMjYwNzI5
MTQyNzIyWjAZMRcwFQYDVQQDDA50ZWFtMjUyLWNsaWVudDCCASIwDQYJKoZIhvcN
AQEBBQADggEPADCCAQoCggEBAKYpW6BAn/rx7x8PfaWFdLBQEFwYJDdrRi/C6uaJ
tXJmupioNyClS57MRQzAjsagkv9hMDqIRFfyeCLyXN4C5UB7E1qXlNPGgDfFvOnU
Po8wciezndA/Qn7TmIjOOj1vHtNCEe9fB+b+mCudQmFETWZtknFubTjFNq61iVUX
oULegaKk6Ear0RZnvSuBZoGCLoB7fJgYmoEkAe4pGBd7wS3TRicqA9+ZgvXyCJw1
6G7H1fCPq7AVdoaPb23hfhi2uksp8Xup0ntKu82hViAMY+njfISGADBlxbudh8Gi
AP/D6cWkz/c4ZAG1Prd8cf+6PYrb9lBjScSt/+mExr7GBNcCAwEAAaOBojCBnzAJ
BgNVHRMEAjAAMB0GA1UdDgQWBBRAao4PIbzxREpu5K8uTn2i2OwVEzBRBgNVHSME
SjBIgBQ06V8A35TZfL8Qkh5VeJW6gklrK6EapBgwFjEUMBIGA1UEAwwLdGVhbTI1
Mi1uZXSCFFSiJ4XIL2QoiRftMzW2G5kY8xVLMBMGA1UdJQQMMAoGCCsGAQUFBwMC
MAsGA1UdDwQEAwIHgDANBgkqhkiG9w0BAQsFAAOCAQEAgfl8Wiomvt8jh+9XkCO1
wgJCIPdlk7iGMx5xCVXAKfkrVp4wVenynVtp+0DzmDgiu0yjxDjKBiNqyL9Q8QqJ
EN7YTcwg38QegMh0oBXPSWnhg6I9n8ayJ5FgmRo6T/SlkfMAzQXE63tZHLWa9Mqh
vUjdYpreOJtfOkN+ZhlLPHPomNFgBqhMBwJTWgqSW9tVhVrvTNqjOJ/AzPa82jU4
UjlKbb01woO5FkDq1UJWRMf/nppZzX47te4FLA47DVpgrLtisFSzlgVi4j1hrClQ
hEiizDQS82b1eORSEqloQln9PfFvxZEBOWxBSmX5S1EX9pfYHn3xqZAg+iYokjnn
AQ==
-----END CERTIFICATE-----
