Certificate:
    Data:
        Version: 3 (0x2)
        Serial Number:
            66:d6:38:09:db:05:c0:b8:e6:e8:a7:09:52:08:73:84
        Signature Algorithm: sha256WithRSAEncryption
        Issuer: CN=team116-net
        Validity
            Not Before: Aug 14 14:24:39 2023 GMT
            Not After : Jul 29 14:24:39 2026 GMT
        Subject: CN=team116-server
        Subject Public Key Info:
            Public Key Algorithm: rsaEncryption
                RSA Public-Key: (2048 bit)
                Modulus:
                    00:a9:79:4f:61:91:a1:21:8f:fa:77:0d:6c:62:e2:
                    70:d0:a5:8c:c2:a7:59:b7:1c:4b:c7:74:6a:29:04:
                    43:a9:6d:12:02:ad:9c:0d:3d:61:88:fb:15:30:7c:
                    6b:e8:fc:73:05:24:8c:a1:79:a6:f7:6a:38:91:c4:
                    08:70:10:55:c3:d4:e5:3a:30:d3:cb:0e:b4:49:09:
                    df:65:d5:ae:32:1a:8e:4b:32:89:71:ad:9d:d5:cb:
                    42:81:6a:09:67:a2:29:6f:9d:bf:bd:6f:35:de:c3:
                    00:f0:b1:ed:97:d1:d3:88:8a:65:d5:c9:dc:56:62:
                    6f:05:3b:2b:c3:6e:19:d9:f5:46:11:81:e1:e9:e1:
                    87:8c:a1:0d:79:fc:4b:88:aa:23:14:12:d3:8e:53:
                    fa:f3:d4:ff:bb:83:2a:65:e6:5a:61:86:02:be:0c:
                    65:cb:87:79:47:de:8b:ee:f1:ac:7e:8c:28:a8:17:
                    a7:9e:fa:85:e0:90:97:56:12:ea:1a:fc:2c:7f:6d:
                    e4:d4:e0:70:e6:da:c0:40:8b:a5:3b:ce:b9:6b:b0:
                    17:89:fe:f7:82:28:f8:19:2a:f6:35:f9:cd:ed:7e:
                    09:01:ac:62:c3:d4:35:27:14:58:21:b2:4b:3c:57:
                    72:d0:c2:fd:6d:20:ec:fc:e4:f4:5a:c9:6f:67:08:
                    d5:dd
                Exponent: 65537 (0x10001)
        X509v3 extensions:
            X509v3 Basic Constraints: 
                CA:FALSE
            X509v3 Subject Key Identifier: 
                2D:D9:D8:D3:77:B1:2A:3A:F4:77:EF:82:29:53:3E:F5:F3:1C:1A:B0
            X509v3 Authority Key Identifier: 
                keyid:87:08:12:C1:37:6B:F0:D5:B2:93:57:B9:79:5A:FA:F4:F9:CB:C9:89
                DirName:/CN=team116-net
                serial:20:9F:A9:18:22:4A:33:77:68:B3:BD:3A:36:44:1F:00:82:44:1A:68

            X509v3 Extended Key Usage: 
                TLS Web Server Authentication
            X509v3 Key Usage: 
                Digital Signature, Key Encipherment
            X509v3 Subject Alternative Name: 
                DNS:team116-server
    Signature Algorithm: sha256WithRSAEncryption
         d4:1f:ff:22:7b:f1:ec:4b:aa:69:f7:0f:29:49:cc:5f:e7:95:
         20:36:c5:91:d4:a2:cf:40:04:f5:90:0a:16:57:a1:9d:05:95:
         e7:08:8c:32:13:60:68:13:90:23:0e:f3:f1:5c:3c:bc:f8:4e:
         74:30:dd:a2:8a:bc:c6:f4:4d:5a:fe:02:5c:a3:59:b8:21:43:
         a2:67:a5:13:95:a2:38:ca:a8:1f:e4:db:73:bf:85:a3:fd:da:
         09:4c:04:b8:af:c8:8d:bc:ce:72:6b:c1:9b:a9:74:68:74:78:
         eb:46:85:8a:fc:57:4d:80:c0:d3:31:9a:f8:d9:ca:6b:21:19:
         2b:09:65:7a:ad:6a:98:f1:bc:6f:39:4f:d7:71:0c:3d:27:51:
         71:03:4a:65:e7:a7:f9:0e:6e:34:23:82:6d:ba:b4:5e:6c:dd:
         ec:7e:77:61:52:b3:2d:c7:2c:df:89:3b:b3:c1:6a:14:47:81:
         0c:24:ef:f6:40:c1:b6:14:6f:0d:67:39:33:c5:d8:c9:30:36:
         a0:03:06:61:02:e0:ac:fd:53:0e:0d:cd:f2:49:42:70:ef:67:
         50:79:2a:14:b6:ec:a4:e4:68:5d:ff:38:b4:89:5e:88:30:c2:
         af:c6:55:41:f8:9b:6e:0c:c2:02:00:a4:c6:22:eb:44:4f:ba:
         7b:bb:62:b4
-----BEGIN CERTIFICATE-----
MIIDdzCCAl+gAwIBAgIQZtY4CdsFwLjm6KcJUghzhDANBgkqhkiG9w0BAQsFADAW
MRQwEgYDVQQDDAt0ZWFtMTE2LW5ldDAeFw0yMzA4MTQxNDI0MzlaFw0yNjA3Mjkx
NDI0MzlaMBkxFzAVBgNVBAMMDnRlYW0xMTYtc2VydmVyMIIBIjANBgkqhkiG9w0B
AQEFAAOCAQ8AMIIBCgKCAQEAqXlPYZGhIY/6dw1sYuJw0KWMwqdZtxxLx3RqKQRD
qW0SAq2cDT1hiPsVMHxr6PxzBSSMoXmm92o4kcQIcBBVw9TlOjDTyw60SQnfZdWu
MhqOSzKJca2d1ctCgWoJZ6Ipb52/vW813sMA8LHtl9HTiIpl1cncVmJvBTsrw24Z
2fVGEYHh6eGHjKENefxLiKojFBLTjlP689T/u4MqZeZaYYYCvgxly4d5R96L7vGs
fowoqBennvqF4JCXVhLqGvwsf23k1OBw5trAQIulO865a7AXif73gij4GSr2NfnN
7X4JAaxiw9Q1JxRYIbJLPFdy0ML9bSDs/OT0WslvZwjV3QIDAQABo4G9MIG6MAkG
A1UdEwQCMAAwHQYDVR0OBBYEFC3Z2NN3sSo69HfvgilTPvXzHBqwMFEGA1UdIwRK
MEiAFIcIEsE3a/DVspNXuXla+vT5y8mJoRqkGDAWMRQwEgYDVQQDDAt0ZWFtMTE2
LW5ldIIUIJ+pGCJKM3dos706NkQfAIJEGmgwEwYDVR0lBAwwCgYIKwYBBQUHAwEw
CwYDVR0PBAQDAgWgMBkGA1UdEQQSMBCCDnRlYW0xMTYtc2VydmVyMA0GCSqGSIb3
DQEBCwUAA4IBAQDUH/8ie/HsS6pp9w8pScxf55UgNsWR1KLPQAT1kAoWV6GdBZXn
CIwyE2BoE5AjDvPxXDy8+E50MN2iirzG9E1a/gJco1m4IUOiZ6UTlaI4yqgf5Ntz
v4Wj/doJTAS4r8iNvM5ya8GbqXRodHjrRoWK/FdNgMDTMZr42cprIRkrCWV6rWqY
8bxvOU/XcQw9J1FxA0pl56f5Dm40I4JturRebN3sfndhUrMtxyzfiTuzwWoUR4EM
JO/2QMG2FG8NZzkzxdjJMDagAwZhAuCs/VMODc3ySUJw72dQeSoUtuyk5Ghd/zi0
iV6IMMKvxlVB+JtuDMICAKTGIutET7p7u2K0
-----END CERTIFICATE-----
