Certificate:
    Data:
        Version: 3 (0x2)
        Serial Number:
            15:d2:e8:54:9d:21:51:92:15:b2:64:8a:ab:b0:96:02
        Signature Algorithm: sha256WithRSAEncryption
        Issuer: CN=team1-net
        Validity
            Not Before: Aug 14 14:22:03 2023 GMT
            Not After : Jul 29 14:22:03 2026 GMT
        Subject: CN=team1-server
        Subject Public Key Info:
            Public Key Algorithm: rsaEncryption
                RSA Public-Key: (2048 bit)
                Modulus:
                    00:c0:bd:62:26:0c:8b:eb:3b:5f:39:7d:46:49:88:
                    8f:29:89:e6:74:d2:19:ff:f8:be:84:fd:2b:c3:b2:
                    76:17:ff:a5:34:51:96:a3:89:d7:0b:6f:69:5e:42:
                    12:96:5e:88:2a:68:3e:38:e3:91:c8:9a:44:ac:10:
                    a6:d6:ba:9a:b6:d5:02:ef:4a:a9:e7:46:b6:8c:7c:
                    07:a9:c3:15:8d:80:cd:6c:1a:7b:f4:a4:64:18:46:
                    66:ca:53:18:02:e9:5d:53:d0:fd:5f:f9:a0:4d:ae:
                    30:59:6b:b7:b0:04:84:8c:3d:d4:a9:8a:93:75:80:
                    2c:1e:13:3a:28:15:a3:15:dd:a4:c8:02:18:04:e3:
                    e6:16:d6:40:e0:65:7d:a0:68:87:e4:45:30:7a:1b:
                    45:65:07:26:0d:59:7b:c1:c9:6d:05:ab:35:4c:31:
                    66:cd:bb:c5:27:f3:d2:90:ee:7a:02:88:81:35:74:
                    ad:6c:a2:8f:6c:56:cf:fc:e9:41:84:bc:71:2c:a7:
                    58:72:49:1d:89:e9:e9:a6:93:13:e7:4b:db:c8:f1:
                    b5:89:37:3e:81:12:8e:d3:1b:98:54:2b:5a:46:10:
                    77:28:7c:f3:60:e1:bf:8a:db:ed:78:bb:01:b0:19:
                    81:0c:62:78:c4:de:67:96:11:93:0c:57:1b:e6:89:
                    9e:61
                Exponent: 65537 (0x10001)
        X509v3 extensions:
            X509v3 Basic Constraints: 
                CA:FALSE
            X509v3 Subject Key Identifier: 
                6D:4A:E4:43:D5:D9:8A:DF:06:FE:B2:42:29:A6:71:47:8E:6B:7C:96
            X509v3 Authority Key Identifier: 
                keyid:AC:A1:96:7F:20:BD:F8:4B:85:1C:88:9A:4B:12:60:BF:59:64:D8:22
                DirName:/CN=team1-net
                serial:0F:D2:45:B2:A0:44:A5:45:37:4A:21:00:65:4B:14:16:FB:5D:FA:22

            X509v3 Extended Key Usage: 
                TLS Web Server Authentication
            X509v3 Key Usage: 
                Digital Signature, Key Encipherment
            X509v3 Subject Alternative Name: 
                DNS:team1-server
    Signature Algorithm: sha256WithRSAEncryption
         76:63:40:be:42:c7:0a:0c:f9:96:f6:e2:2c:1e:16:9d:96:37:
         e6:5d:39:7e:51:4b:3e:0f:27:4c:da:a3:d0:81:8a:f8:7e:61:
         93:d0:8c:ca:9e:69:4d:10:8f:43:86:59:52:d8:e1:05:50:11:
         04:57:71:3a:20:ef:c7:8f:72:92:b8:45:eb:31:1b:35:89:97:
         13:0e:4f:26:51:a0:78:68:20:df:51:5e:bf:cf:16:d3:be:ad:
         bd:ff:1b:6a:ba:9c:4c:62:32:a4:31:36:3a:64:9c:d3:ba:7c:
         25:56:cb:7b:f2:39:01:d1:b9:6d:b4:a1:76:41:dc:d2:c0:1d:
         f6:0d:af:53:28:a7:49:d2:84:e2:86:73:b9:e2:88:eb:c0:54:
         e9:6e:5b:03:59:1d:b7:76:8e:70:fc:ac:92:b5:05:66:5e:9d:
         ca:4d:f8:d2:77:f1:f1:33:36:94:46:20:8d:ce:74:c3:89:8a:
         46:07:72:ec:56:6a:52:42:2a:64:6f:30:7f:e7:fd:ce:53:43:
         ac:33:16:fe:00:05:ae:d0:db:9f:7b:19:09:c2:89:ff:24:95:
         78:6d:c0:52:09:2a:87:d0:fb:33:08:0a:77:ff:1c:62:88:86:
         0d:07:21:23:d1:02:d4:49:52:5e:26:6c:5d:00:cd:4c:34:bb:
         07:0f:ca:aa
-----BEGIN CERTIFICATE-----
MIIDbzCCAlegAwIBAgIQFdLoVJ0hUZIVsmSKq7CWAjANBgkqhkiG9w0BAQsFADAU
MRIwEAYDVQQDDAl0ZWFtMS1uZXQwHhcNMjMwODE0MTQyMjAzWhcNMjYwNzI5MTQy
MjAzWjAXMRUwEwYDVQQDDAx0ZWFtMS1zZXJ2ZXIwggEiMA0GCSqGSIb3DQEBAQUA
A4IBDwAwggEKAoIBAQDAvWImDIvrO185fUZJiI8pieZ00hn/+L6E/SvDsnYX/6U0
UZajidcLb2leQhKWXogqaD4445HImkSsEKbWupq21QLvSqnnRraMfAepwxWNgM1s
Gnv0pGQYRmbKUxgC6V1T0P1f+aBNrjBZa7ewBISMPdSpipN1gCweEzooFaMV3aTI
AhgE4+YW1kDgZX2gaIfkRTB6G0VlByYNWXvByW0FqzVMMWbNu8Un89KQ7noCiIE1
dK1soo9sVs/86UGEvHEsp1hySR2J6emmkxPnS9vI8bWJNz6BEo7TG5hUK1pGEHco
fPNg4b+K2+14uwGwGYEMYnjE3meWEZMMVxvmiZ5hAgMBAAGjgbkwgbYwCQYDVR0T
BAIwADAdBgNVHQ4EFgQUbUrkQ9XZit8G/rJCKaZxR45rfJYwTwYDVR0jBEgwRoAU
rKGWfyC9+EuFHIiaSxJgv1lk2CKhGKQWMBQxEjAQBgNVBAMMCXRlYW0xLW5ldIIU
D9JFsqBEpUU3SiEAZUsUFvtd+iIwEwYDVR0lBAwwCgYIKwYBBQUHAwEwCwYDVR0P
BAQDAgWgMBcGA1UdEQQQMA6CDHRlYW0xLXNlcnZlcjANBgkqhkiG9w0BAQsFAAOC
AQEAdmNAvkLHCgz5lvbiLB4WnZY35l05flFLPg8nTNqj0IGK+H5hk9CMyp5pTRCP
Q4ZZUtjhBVARBFdxOiDvx49ykrhF6zEbNYmXEw5PJlGgeGgg31Fev88W076tvf8b
arqcTGIypDE2OmSc07p8JVbLe/I5AdG5bbShdkHc0sAd9g2vUyinSdKE4oZzueKI
68BU6W5bA1kdt3aOcPyskrUFZl6dyk340nfx8TM2lEYgjc50w4mKRgdy7FZqUkIq
ZG8wf+f9zlNDrDMW/gAFrtDbn3sZCcKJ/ySVeG3AUgkqh9D7MwgKd/8cYoiGDQch
I9EC1ElSXiZsXQDNTDS7Bw/Kqg==
-----END CERTIFICATE-----
