Certificate:
    Data:
        Version: 3 (0x2)
        Serial Number:
            6e:08:87:c7:6a:a3:64:23:74:af:fc:cc:ff:d3:10:1d
        Signature Algorithm: sha256WithRSAEncryption
        Issuer: CN=team1-net
        Validity
            Not Before: Aug 14 14:22:03 2023 GMT
            Not After : Jul 29 14:22:03 2026 GMT
        Subject: CN=team1-client
        Subject Public Key Info:
            Public Key Algorithm: rsaEncryption
                RSA Public-Key: (2048 bit)
                Modulus:
                    00:b3:5c:fd:09:a5:4a:d0:a2:67:8c:c6:9f:2d:0b:
                    dc:6d:4a:7f:9e:9a:b4:50:1a:02:bf:03:80:6c:e4:
                    83:da:80:65:7a:81:de:43:b6:92:1a:e2:9d:6f:aa:
                    6c:da:fd:07:81:9f:f6:c0:20:10:a8:93:03:78:93:
                    4f:8d:04:9b:59:dc:1c:c3:ef:33:99:b8:f0:69:3e:
                    af:9e:45:1b:80:d1:90:5e:5b:49:79:2b:a8:50:84:
                    a5:2c:62:4d:64:2d:43:7c:11:dd:a6:ca:34:9a:d7:
                    78:95:2d:52:96:08:df:0c:80:a4:55:29:ca:20:70:
                    4a:88:18:c9:d7:9c:55:f2:13:fb:03:cd:a9:1e:81:
                    0b:a4:66:18:ec:9f:ab:70:f5:bb:49:2b:84:34:ae:
                    9d:b6:8c:82:e7:a6:1f:a5:d2:d7:6f:cd:33:31:f3:
                    9c:6b:07:7d:76:07:01:fe:84:20:e8:4c:0b:b1:43:
                    b5:d7:05:be:2f:23:d5:3f:18:7c:4e:b6:a2:39:db:
                    dd:73:48:c0:12:59:66:d5:78:a3:f9:fc:b1:c6:bc:
                    f6:e1:32:5d:be:42:c7:25:15:a8:f0:06:62:ff:97:
                    d5:be:2c:a5:43:9b:38:be:f1:78:6e:76:0b:26:be:
                    f6:7c:fb:69:ec:1b:44:42:92:ec:34:3d:7a:24:50:
                    6f:c7
                Exponent: 65537 (0x10001)
        X509v3 extensions:
            X509v3 Basic Constraints: 
                CA:FALSE
            X509v3 Subject Key Identifier: 
                77:73:C9:BA:5A:C5:8D:24:24:03:14:92:0A:D3:98:C7:FC:7B:81:CF
            X509v3 Authority Key Identifier: 
                keyid:AC:A1:96:7F:20:BD:F8:4B:85:1C:88:9A:4B:12:60:BF:59:64:D8:22
                DirName:/CN=team1-net
                serial:0F:D2:45:B2:A0:44:A5:45:37:4A:21:00:65:4B:14:16:FB:5D:FA:22

            X509v3 Extended Key Usage: 
                TLS Web Client Authentication
            X509v3 Key Usage: 
                Digital Signature
    Signature Algorithm: sha256WithRSAEncryption
         a5:3c:fb:90:31:d8:f2:47:e3:d4:37:2a:9c:86:97:a0:4c:e8:
         a5:39:31:4c:57:50:e2:28:fa:eb:0f:ba:5e:d0:2d:ff:ab:92:
         bb:07:2b:5a:ee:d7:de:f7:bb:32:a7:46:2c:05:d6:fb:25:99:
         34:67:70:42:8e:55:6c:f2:a6:45:17:34:0f:c0:01:f2:b4:2c:
         12:f8:ca:8c:24:aa:9f:08:4e:0d:ba:07:2f:06:f7:78:66:42:
         69:54:4d:d4:9b:d0:c3:dc:3b:f5:7d:42:63:45:0e:53:1b:24:
         f2:6c:c3:d3:18:a1:3b:8c:c8:6c:f4:11:05:5c:13:c5:42:8a:
         dc:36:6b:f3:36:b7:cf:6f:94:ad:fe:39:68:7b:10:a1:65:c1:
         4d:3e:05:d7:57:11:ce:ec:ca:85:8b:af:ed:ae:b8:d2:38:8c:
         31:17:e9:c3:75:eb:0c:be:13:85:74:d5:78:c3:86:b8:06:59:
         66:05:32:e2:03:2c:f4:4d:2e:55:c0:18:ca:9c:ae:c0:4d:81:
         74:2f:c0:1c:5a:1e:c5:61:0e:01:7b:3f:6e:d7:8b:74:e3:40:
         74:bd:ff:ea:c5:b3:73:36:20:c1:97:94:23:f7:8e:29:56:2a:
         d2:f6:4d:9c:df:30:d6:fb:cf:c8:53:9e:56:54:51:46:36:88:
         de:ab:97:df
-----BEGIN CERTIFICATE-----
MIIDVjCCAj6gAwIBAgIQbgiHx2qjZCN0r/zM/9MQHTANBgkqhkiG9w0BAQsFADAU
MRIwEAYDVQQDDAl0ZWFtMS1uZXQwHhcNMjMwODE0MTQyMjAzWhcNMjYwNzI5MTQy
MjAzWjAXMRUwEwYDVQQDDAx0ZWFtMS1jbGllbnQwggEiMA0GCSqGSIb3DQEBAQUA
A4IBDwAwggEKAoIBAQCzXP0JpUrQomeMxp8tC9xtSn+emrRQGgK/A4Bs5IPagGV6
gd5DtpIa4p1vqmza/QeBn/bAIBCokwN4k0+NBJtZ3BzD7zOZuPBpPq+eRRuA0ZBe
W0l5K6hQhKUsYk1kLUN8Ed2myjSa13iVLVKWCN8MgKRVKcogcEqIGMnXnFXyE/sD
zakegQukZhjsn6tw9btJK4Q0rp22jILnph+l0tdvzTMx85xrB312BwH+hCDoTAux
Q7XXBb4vI9U/GHxOtqI5291zSMASWWbVeKP5/LHGvPbhMl2+QsclFajwBmL/l9W+
LKVDmzi+8XhudgsmvvZ8+2nsG0RCkuw0PXokUG/HAgMBAAGjgaAwgZ0wCQYDVR0T
BAIwADAdBgNVHQ4EFgQUd3PJulrFjSQkAxSSCtOYx/x7gc8wTwYDVR0jBEgwRoAU
rKGWfyC9+EuFHIiaSxJgv1lk2CKhGKQWMBQxEjAQBgNVBAMMCXRlYW0xLW5ldIIU
D9JFsqBEpUU3SiEAZUsUFvtd+iIwEwYDVR0lBAwwCgYIKwYBBQUHAwIwCwYDVR0P
BAQDAgeAMA0GCSqGSIb3DQEBCwUAA4IBAQClPPuQMdjyR+PUNyqchpegTOilOTFM
V1DiKPrrD7pe0C3/q5K7Byta7tfe97syp0YsBdb7JZk0Z3BCjlVs8qZFFzQPwAHy
tCwS+MqMJKqfCE4NugcvBvd4ZkJpVE3Um9DD3Dv1fUJjRQ5TGyTybMPTGKE7jMhs
9BEFXBPFQorcNmvzNrfPb5St/jloexChZcFNPgXXVxHO7MqFi6/trrjSOIwxF+nD
desMvhOFdNV4w4a4BllmBTLiAyz0TS5VwBjKnK7ATYF0L8AcWh7FYQ4Bez9u14t0
40B0vf/qxbNzNiDBl5Qj944pVirS9k2c3zDW+8/IU55WVFFGNojeq5ff
-----END CERTIFICATE-----
