Certificate:
    Data:
        Version: 3 (0x2)
        Serial Number:
            22:fb:c9:75:69:96:c4:43:4f:31:77:7d:bb:6d:7a:39
        Signature Algorithm: sha256WithRSAEncryption
        Issuer: CN=team207-net
        Validity
            Not Before: Aug 14 14:26:28 2023 GMT
            Not After : Jul 29 14:26:28 2026 GMT
        Subject: CN=team207-server
        Subject Public Key Info:
            Public Key Algorithm: rsaEncryption
                RSA Public-Key: (2048 bit)
                Modulus:
                    00:a8:5a:eb:38:c1:18:67:b1:20:cb:11:60:4f:66:
                    4d:7d:fd:1f:e0:7a:ac:49:c6:55:2a:3e:d3:37:49:
                    60:e0:72:3a:f4:b9:66:96:37:55:7a:77:56:16:bd:
                    8d:b3:2f:cf:72:23:52:22:1e:67:d9:85:e5:64:5a:
                    ae:dc:28:2f:a0:cd:fb:95:34:b4:61:ef:6d:8a:23:
                    69:8b:02:3e:e7:a3:bb:f1:90:15:f7:93:67:9e:91:
                    91:d4:f9:08:6e:c0:aa:fa:51:3c:09:c6:f0:bd:15:
                    b6:35:d6:ca:ee:4e:3d:46:0c:09:17:5d:2a:0e:85:
                    f1:cb:ce:32:75:22:a2:8a:12:47:03:08:69:ab:f5:
                    8d:1a:9e:08:89:dd:28:3e:4d:17:ff:d6:2c:11:e6:
                    46:17:f8:35:ee:02:95:ce:fa:2f:dd:5c:61:78:1a:
                    82:f6:89:92:31:68:c5:5f:4c:fe:53:4d:5b:8f:4e:
                    9c:a1:a8:98:b6:29:85:be:e3:ff:f0:07:f6:4b:d2:
                    d9:ff:a1:fc:90:8a:9e:1d:92:27:87:ee:12:52:d2:
                    df:38:e5:20:1c:ce:89:73:06:9e:2f:a8:2c:0f:bd:
                    f6:6b:a9:5a:05:13:6e:17:cb:61:ae:13:14:7d:be:
                    89:f4:0c:cf:3c:b3:eb:03:92:bf:4a:5b:25:fa:b8:
                    e0:51
                Exponent: 65537 (0x10001)
        X509v3 extensions:
            X509v3 Basic Constraints: 
                CA:FALSE
            X509v3 Subject Key Identifier: 
                52:CE:6E:13:84:6A:1D:85:2B:FF:08:18:4C:0E:41:6A:1E:CA:C8:B7
            X509v3 Authority Key Identifier: 
                keyid:52:7E:B6:55:87:9F:24:6C:19:C2:F3:CC:E5:6A:62:7F:CC:EA:62:AF
                DirName:/CN=team207-net
                serial:28:C4:B7:0F:95:7E:03:EA:74:1A:88:A8:CC:9D:11:5B:1E:DD:E4:4F

            X509v3 Extended Key Usage: 
                TLS Web Server Authentication
            X509v3 Key Usage: 
                Digital Signature, Key Encipherment
            X509v3 Subject Alternative Name: 
                DNS:team207-server
    Signature Algorithm: sha256WithRSAEncryption
         06:33:29:b9:63:8a:9d:4c:b6:56:09:f3:73:ab:82:45:8d:8a:
         0c:e0:f1:c9:e7:63:06:89:14:11:4a:ea:f2:f0:4c:bb:24:3b:
         c9:88:09:3f:d5:30:13:98:82:ca:8b:72:45:2a:ec:cd:ba:b6:
         9d:0c:ee:15:d9:e1:01:95:65:1a:fc:52:bf:a9:f0:b2:4b:d1:
         ed:c3:79:b2:2c:2d:29:d4:24:9d:ba:89:2d:92:c4:68:d0:99:
         ab:24:27:4e:08:61:b6:91:34:38:92:11:66:d1:f4:c9:7f:b1:
         94:8c:34:46:08:8c:3e:01:66:82:e6:1b:c0:62:e0:ed:dd:65:
         c4:20:58:d7:46:10:41:4b:43:5f:6f:27:5a:40:09:dd:a6:32:
         f1:5b:9b:b8:88:9e:55:12:b4:15:91:98:bc:90:98:56:c2:57:
         1f:05:d6:d1:e4:59:82:fd:86:da:a1:42:e6:80:3c:dd:fc:76:
         4e:4c:33:90:a0:4c:b3:3e:11:0d:89:80:fb:b2:91:cc:ff:74:
         f1:aa:83:b4:c1:b4:3d:d1:c8:10:7e:30:aa:ca:9a:e9:19:af:
         a6:0e:2f:3f:50:84:38:b6:30:d7:6b:38:56:1c:6f:20:bb:c8:
         b7:57:11:f1:e7:ec:8a:27:11:e4:62:3a:5e:45:11:49:83:7d:
         25:b7:d0:ac
-----BEGIN CERTIFICATE-----
MIIDdzCCAl+gAwIBAgIQIvvJdWmWxENPMXd9u216OTANBgkqhkiG9w0BAQsFADAW
MRQwEgYDVQQDDAt0ZWFtMjA3LW5ldDAeFw0yMzA4MTQxNDI2MjhaFw0yNjA3Mjkx
NDI2MjhaMBkxFzAVBgNVBAMMDnRlYW0yMDctc2VydmVyMIIBIjANBgkqhkiG9w0B
AQEFAAOCAQ8AMIIBCgKCAQEAqFrrOMEYZ7EgyxFgT2ZNff0f4HqsScZVKj7TN0lg
4HI69LlmljdVendWFr2Nsy/PciNSIh5n2YXlZFqu3CgvoM37lTS0Ye9tiiNpiwI+
56O78ZAV95NnnpGR1PkIbsCq+lE8CcbwvRW2NdbK7k49RgwJF10qDoXxy84ydSKi
ihJHAwhpq/WNGp4Iid0oPk0X/9YsEeZGF/g17gKVzvov3VxheBqC9omSMWjFX0z+
U01bj06coaiYtimFvuP/8Af2S9LZ/6H8kIqeHZInh+4SUtLfOOUgHM6JcwaeL6gs
D732a6laBRNuF8thrhMUfb6J9AzPPLPrA5K/Slsl+rjgUQIDAQABo4G9MIG6MAkG
A1UdEwQCMAAwHQYDVR0OBBYEFFLObhOEah2FK/8IGEwOQWoeysi3MFEGA1UdIwRK
MEiAFFJ+tlWHnyRsGcLzzOVqYn/M6mKvoRqkGDAWMRQwEgYDVQQDDAt0ZWFtMjA3
LW5ldIIUKMS3D5V+A+p0GoiozJ0RWx7d5E8wEwYDVR0lBAwwCgYIKwYBBQUHAwEw
CwYDVR0PBAQDAgWgMBkGA1UdEQQSMBCCDnRlYW0yMDctc2VydmVyMA0GCSqGSIb3
DQEBCwUAA4IBAQAGMym5Y4qdTLZWCfNzq4JFjYoM4PHJ52MGiRQRSury8Ey7JDvJ
iAk/1TATmILKi3JFKuzNuradDO4V2eEBlWUa/FK/qfCyS9Htw3myLC0p1CSduokt
ksRo0JmrJCdOCGG2kTQ4khFm0fTJf7GUjDRGCIw+AWaC5hvAYuDt3WXEIFjXRhBB
S0NfbydaQAndpjLxW5u4iJ5VErQVkZi8kJhWwlcfBdbR5FmC/YbaoULmgDzd/HZO
TDOQoEyzPhENiYD7spHM/3TxqoO0wbQ90cgQfjCqyprpGa+mDi8/UIQ4tjDXazhW
HG8gu8i3VxHx5+yKJxHkYjpeRRFJg30lt9Cs
-----END CERTIFICATE-----
