Certificate:
    Data:
        Version: 3 (0x2)
        Serial Number:
            73:44:21:57:b1:2f:0d:4b:aa:b2:15:1f:30:d9:fd:60
        Signature Algorithm: sha256WithRSAEncryption
        Issuer: CN=team80-net
        Validity
            Not Before: Aug 14 14:23:51 2023 GMT
            Not After : Jul 29 14:23:51 2026 GMT
        Subject: CN=team80-server
        Subject Public Key Info:
            Public Key Algorithm: rsaEncryption
                RSA Public-Key: (2048 bit)
                Modulus:
                    00:c4:ec:05:81:64:8b:72:60:bd:a3:c4:22:42:e9:
                    07:87:3d:6b:02:cd:3b:9d:d7:00:65:63:de:6d:36:
                    9e:f4:b0:1a:d4:ed:84:15:ee:b0:db:30:5c:97:bd:
                    8a:ff:2d:d7:46:62:f2:10:b5:e8:a5:e4:d2:7a:fa:
                    6c:fa:c9:a5:d9:1b:9c:23:72:d7:08:6d:73:02:92:
                    e7:f4:e4:1e:09:30:33:5c:cb:2a:20:9f:f7:00:65:
                    13:c2:12:d9:e1:06:dc:8c:64:bd:20:9a:5f:ef:94:
                    25:41:40:04:f8:ac:28:b3:40:46:9c:37:8e:e4:2e:
                    f4:ac:c4:0f:1b:bb:e2:3b:03:3b:6b:26:0b:ba:cd:
                    2d:b1:44:4e:9b:b1:74:6f:f8:db:80:d1:01:9a:f0:
                    a5:87:97:80:2d:ac:57:11:f6:6f:5f:79:57:d5:b8:
                    ca:14:c9:99:94:97:0d:6a:27:f2:15:7c:7b:56:77:
                    09:ef:09:a1:f8:5c:b4:98:aa:79:ec:0b:a2:4f:79:
                    e4:1b:f8:dd:f1:35:4b:ed:bb:57:0e:ec:6f:31:84:
                    e8:4e:0f:bc:4e:6d:ba:30:7a:b2:49:d3:ca:eb:41:
                    ca:2a:0e:7f:66:14:ca:a4:1f:e4:4e:be:d2:1b:1f:
                    93:78:76:b7:ba:08:51:ff:6a:f9:8b:c1:97:3f:df:
                    14:67
                Exponent: 65537 (0x10001)
        X509v3 extensions:
            X509v3 Basic Constraints: 
                CA:FALSE
            X509v3 Subject Key Identifier: 
                BC:D4:A0:B3:B9:C6:8B:13:E8:A7:29:4E:FF:7A:41:DD:0B:A3:9E:24
            X509v3 Authority Key Identifier: 
                keyid:3E:7F:33:D9:EA:F9:43:7D:A9:15:24:1D:C7:44:48:FD:27:D6:DB:29
                DirName:/CN=team80-net
                serial:2D:3E:3B:5E:45:7D:DD:74:2B:33:28:E6:62:97:F2:22:2B:D0:35:49

            X509v3 Extended Key Usage: 
                TLS Web Server Authentication
            X509v3 Key Usage: 
                Digital Signature, Key Encipherment
            X509v3 Subject Alternative Name: 
                DNS:team80-server
    Signature Algorithm: sha256WithRSAEncryption
         74:d3:4c:6d:19:77:ec:1a:0a:2b:39:90:f5:50:3f:fa:5e:90:
         26:de:b0:b7:e8:41:33:cd:88:2d:f5:86:9f:0a:b1:d8:0b:7d:
         5c:48:4d:20:ad:54:83:86:1e:13:aa:a8:4f:16:e1:d5:8e:67:
         c7:0b:3f:7a:9d:c2:a6:c6:9f:68:bf:22:55:ba:08:90:a2:9d:
         86:88:87:80:9d:59:b5:ed:ea:db:44:1d:19:1e:25:bc:e3:54:
         e9:cc:3b:18:2b:f0:dd:ce:37:31:e5:33:e9:50:23:db:2c:4e:
         0d:72:2e:ed:37:19:d4:eb:20:4c:7e:3e:0a:11:7c:78:55:c1:
         c6:64:1c:84:46:6d:34:2f:9d:94:4b:23:2b:56:ea:da:3a:72:
         fb:3b:e1:ee:5b:b1:a0:5b:32:57:11:b2:7b:51:ea:49:0c:99:
         00:06:2c:56:fa:0c:31:e8:62:35:7e:05:1e:69:2a:e8:89:48:
         a6:3d:8b:8a:a4:66:6f:1d:b6:8d:a8:1b:86:c5:da:35:98:b0:
         d4:57:e5:2e:fb:69:97:96:cf:0a:d3:b1:1a:09:e2:13:47:e6:
         81:75:c1:85:7f:6f:ec:5c:08:f5:83:33:2e:e9:9a:9f:4d:ad:
         89:a5:25:51:02:22:00:df:b5:03:86:64:f2:1a:1a:32:78:e4:
         cd:a7:e3:7b
-----BEGIN CERTIFICATE-----
MIIDczCCAlugAwIBAgIQc0QhV7EvDUuqshUfMNn9YDANBgkqhkiG9w0BAQsFADAV
MRMwEQYDVQQDDAp0ZWFtODAtbmV0MB4XDTIzMDgxNDE0MjM1MVoXDTI2MDcyOTE0
MjM1MVowGDEWMBQGA1UEAwwNdGVhbTgwLXNlcnZlcjCCASIwDQYJKoZIhvcNAQEB
BQADggEPADCCAQoCggEBAMTsBYFki3JgvaPEIkLpB4c9awLNO53XAGVj3m02nvSw
GtTthBXusNswXJe9iv8t10Zi8hC16KXk0nr6bPrJpdkbnCNy1whtcwKS5/TkHgkw
M1zLKiCf9wBlE8IS2eEG3IxkvSCaX++UJUFABPisKLNARpw3juQu9KzEDxu74jsD
O2smC7rNLbFETpuxdG/424DRAZrwpYeXgC2sVxH2b195V9W4yhTJmZSXDWon8hV8
e1Z3Ce8JofhctJiqeewLok955Bv43fE1S+27Vw7sbzGE6E4PvE5tujB6sknTyutB
yioOf2YUyqQf5E6+0hsfk3h2t7oIUf9q+YvBlz/fFGcCAwEAAaOBuzCBuDAJBgNV
HRMEAjAAMB0GA1UdDgQWBBS81KCzucaLE+inKU7/ekHdC6OeJDBQBgNVHSMESTBH
gBQ+fzPZ6vlDfakVJB3HREj9J9bbKaEZpBcwFTETMBEGA1UEAwwKdGVhbTgwLW5l
dIIULT47XkV93XQrMyjmYpfyIivQNUkwEwYDVR0lBAwwCgYIKwYBBQUHAwEwCwYD
VR0PBAQDAgWgMBgGA1UdEQQRMA+CDXRlYW04MC1zZXJ2ZXIwDQYJKoZIhvcNAQEL
BQADggEBAHTTTG0Zd+waCis5kPVQP/pekCbesLfoQTPNiC31hp8KsdgLfVxITSCt
VIOGHhOqqE8W4dWOZ8cLP3qdwqbGn2i/IlW6CJCinYaIh4CdWbXt6ttEHRkeJbzj
VOnMOxgr8N3ONzHlM+lQI9ssTg1yLu03GdTrIEx+PgoRfHhVwcZkHIRGbTQvnZRL
IytW6to6cvs74e5bsaBbMlcRsntR6kkMmQAGLFb6DDHoYjV+BR5pKuiJSKY9i4qk
Zm8dto2oG4bF2jWYsNRX5S77aZeWzwrTsRoJ4hNH5oF1wYV/b+xcCPWDMy7pmp9N
rYmlJVECIgDftQOGZPIaGjJ45M2n43s=
-----END CERTIFICATE-----
