Certificate:
    Data:
        Version: 3 (0x2)
        Serial Number:
            f3:37:55:a0:4a:a7:96:48:6e:97:b9:7d:04:96:b1:b8
        Signature Algorithm: sha256WithRSAEncryption
        Issuer: CN=team80-net
        Validity
            Not Before: Aug 14 14:23:51 2023 GMT
            Not After : Jul 29 14:23:51 2026 GMT
        Subject: CN=team80-client
        Subject Public Key Info:
            Public Key Algorithm: rsaEncryption
                RSA Public-Key: (2048 bit)
                Modulus:
                    00:e7:74:df:4c:d0:7b:58:0a:41:55:4a:5e:73:08:
                    e6:3f:e4:f2:b7:d8:9b:0f:c8:46:b9:43:2d:04:b5:
                    43:eb:1a:df:d9:f5:6f:fc:95:af:62:d0:37:d0:19:
                    e5:b5:97:c9:89:d0:32:34:ae:e9:bc:8f:77:f4:49:
                    3e:ed:46:5a:be:06:86:c1:97:44:54:73:7e:87:40:
                    15:f8:7c:fd:ac:da:22:c2:10:eb:bc:84:eb:dc:83:
                    45:5e:02:a7:0f:b8:bb:80:b9:bc:be:93:ef:42:0a:
                    fe:d8:f2:85:0e:0d:19:b9:74:b5:67:8b:e5:f6:44:
                    73:72:3e:43:48:f7:5d:09:55:43:39:15:e8:96:94:
                    12:81:30:04:ba:1e:88:95:e1:87:73:24:9a:62:57:
                    65:b2:42:d9:b3:44:67:55:ba:c6:3d:11:f1:78:c2:
                    70:c1:36:3f:7e:b2:7d:48:4d:da:66:73:bf:70:8a:
                    a8:a8:8f:65:13:54:5c:0d:63:98:bc:fc:e3:09:18:
                    7b:f6:60:a9:88:43:cd:77:b8:1b:48:3f:c1:80:c8:
                    8c:7b:11:9b:d3:9b:ce:0b:cb:c5:bb:12:aa:c1:09:
                    47:74:81:b9:a2:1f:aa:76:22:28:95:3e:9e:03:be:
                    f4:58:86:27:d5:2a:99:11:98:15:55:ec:03:82:90:
                    1f:f3
                Exponent: 65537 (0x10001)
        X509v3 extensions:
            X509v3 Basic Constraints: 
                CA:FALSE
            X509v3 Subject Key Identifier: 
                A1:BD:4D:28:0E:FE:52:B2:5E:19:0F:45:3B:57:64:84:AB:FF:87:71
            X509v3 Authority Key Identifier: 
                keyid:3E:7F:33:D9:EA:F9:43:7D:A9:15:24:1D:C7:44:48:FD:27:D6:DB:29
                DirName:/CN=team80-net
                serial:2D:3E:3B:5E:45:7D:DD:74:2B:33:28:E6:62:97:F2:22:2B:D0:35:49

            X509v3 Extended Key Usage: 
                TLS Web Client Authentication
            X509v3 Key Usage: 
                Digital Signature
    Signature Algorithm: sha256WithRSAEncryption
         17:bd:4c:50:fa:9b:bb:08:4a:1d:f4:a7:85:1b:ec:27:50:79:
         8f:5c:7b:db:70:a6:59:06:f8:10:42:dc:71:01:5a:55:00:a0:
         a0:0e:4b:0f:b8:70:2b:95:8a:59:c2:78:62:51:4f:09:d8:95:
         e2:07:c4:74:17:aa:ac:2d:9c:c0:f3:e7:10:7f:5f:58:9d:ba:
         d9:ca:71:cf:5e:7f:c8:6a:16:5e:e7:95:18:a4:5b:b9:18:24:
         d2:f5:1c:73:3c:47:76:9f:cc:9b:6f:50:81:1b:a8:b6:7d:db:
         bd:91:a2:72:36:94:68:ad:bd:af:3e:1a:98:d4:88:f1:38:95:
         09:06:29:3c:9f:e3:27:81:41:6e:3c:6f:99:1f:58:49:a6:50:
         e7:59:0d:9b:62:87:38:aa:1f:3f:56:30:12:ad:90:1f:7c:b3:
         50:33:7b:3b:73:bc:53:68:dd:fc:1f:54:cd:56:2e:95:14:78:
         7e:c7:0f:af:77:ca:f2:24:81:52:20:c4:dd:d1:81:9d:11:6d:
         53:04:c6:4e:8f:dc:a1:14:6c:c5:7b:b2:d4:bc:e1:b6:51:49:
         fc:73:cc:3c:ef:18:35:ed:90:3a:4e:31:7b:6d:b1:23:b9:42:
         fa:b1:09:28:bf:5b:a1:50:35:29:f1:fd:22:a3:c5:33:bf:ce:
         a9:1b:a0:9b
-----BEGIN CERTIFICATE-----
MIIDWjCCAkKgAwIBAgIRAPM3VaBKp5ZIbpe5fQSWsbgwDQYJKoZIhvcNAQELBQAw
FTETMBEGA1UEAwwKdGVhbTgwLW5ldDAeFw0yMzA4MTQxNDIzNTFaFw0yNjA3Mjkx
NDIzNTFaMBgxFjAUBgNVBAMMDXRlYW04MC1jbGllbnQwggEiMA0GCSqGSIb3DQEB
AQUAA4IBDwAwggEKAoIBAQDndN9M0HtYCkFVSl5zCOY/5PK32JsPyEa5Qy0EtUPr
Gt/Z9W/8la9i0DfQGeW1l8mJ0DI0rum8j3f0ST7tRlq+BobBl0RUc36HQBX4fP2s
2iLCEOu8hOvcg0VeAqcPuLuAuby+k+9CCv7Y8oUODRm5dLVni+X2RHNyPkNI910J
VUM5FeiWlBKBMAS6HoiV4YdzJJpiV2WyQtmzRGdVusY9EfF4wnDBNj9+sn1ITdpm
c79wiqioj2UTVFwNY5i8/OMJGHv2YKmIQ813uBtIP8GAyIx7EZvTm84Ly8W7EqrB
CUd0gbmiH6p2IiiVPp4DvvRYhifVKpkRmBVV7AOCkB/zAgMBAAGjgaEwgZ4wCQYD
VR0TBAIwADAdBgNVHQ4EFgQUob1NKA7+UrJeGQ9FO1dkhKv/h3EwUAYDVR0jBEkw
R4AUPn8z2er5Q32pFSQdx0RI/SfW2ymhGaQXMBUxEzARBgNVBAMMCnRlYW04MC1u
ZXSCFC0+O15Ffd10KzMo5mKX8iIr0DVJMBMGA1UdJQQMMAoGCCsGAQUFBwMCMAsG
A1UdDwQEAwIHgDANBgkqhkiG9w0BAQsFAAOCAQEAF71MUPqbuwhKHfSnhRvsJ1B5
j1x723CmWQb4EELccQFaVQCgoA5LD7hwK5WKWcJ4YlFPCdiV4gfEdBeqrC2cwPPn
EH9fWJ262cpxz15/yGoWXueVGKRbuRgk0vUcczxHdp/Mm29QgRuotn3bvZGicjaU
aK29rz4amNSI8TiVCQYpPJ/jJ4FBbjxvmR9YSaZQ51kNm2KHOKofP1YwEq2QH3yz
UDN7O3O8U2jd/B9UzVYulRR4fscPr3fK8iSBUiDE3dGBnRFtUwTGTo/coRRsxXuy
1LzhtlFJ/HPMPO8YNe2QOk4xe22xI7lC+rEJKL9boVA1KfH9IqPFM7/OqRugmw==
-----END CERTIFICATE-----
