Certificate:
    Data:
        Version: 3 (0x2)
        Serial Number:
            ae:3f:96:5d:fc:86:22:8a:08:cf:69:b2:05:72:d6:6d
        Signature Algorithm: sha256WithRSAEncryption
        Issuer: CN=team15-net
        Validity
            Not Before: Aug 14 14:22:20 2023 GMT
            Not After : Jul 29 14:22:20 2026 GMT
        Subject: CN=team15-client
        Subject Public Key Info:
            Public Key Algorithm: rsaEncryption
                RSA Public-Key: (2048 bit)
                Modulus:
                    00:aa:07:2c:f2:b5:21:72:36:18:a9:8e:cb:6b:9b:
                    98:04:be:1b:e1:de:25:d0:1f:c6:ae:6b:0a:6d:ae:
                    20:04:57:f7:98:d5:7b:6c:8b:41:c7:ff:8f:2b:c3:
                    ab:49:eb:07:0b:7b:2a:75:9b:6a:e5:83:d1:04:20:
                    a3:55:63:e1:33:d8:1d:89:ef:2c:29:b1:ea:44:62:
                    06:4c:e5:94:90:11:8a:36:76:8a:e0:cf:56:59:7f:
                    ba:f9:60:a0:91:4d:ce:15:29:5a:f9:5b:c0:61:5f:
                    23:19:f6:3e:92:92:0f:51:42:c1:d0:82:bc:c8:fd:
                    1c:40:47:1c:9e:3b:f9:a8:f1:77:0f:f5:0f:71:b8:
                    a2:ea:22:23:54:73:66:f7:53:e8:89:20:45:89:51:
                    9e:06:71:3a:7a:df:f5:b3:9a:3e:a9:b0:2a:4e:79:
                    9d:2a:84:51:14:3f:a3:af:6f:e1:f7:d1:be:3b:f1:
                    bd:1d:d4:50:f9:38:1f:86:8c:bb:d0:79:b2:93:57:
                    33:27:52:d6:e8:b9:c7:cf:0c:dc:9e:58:fc:8d:8a:
                    9c:fb:70:57:17:5b:7a:f6:5f:e1:a0:71:9b:3f:aa:
                    90:21:fe:7d:98:69:00:20:a1:4b:3a:49:a6:32:f9:
                    18:50:b9:3e:ba:6b:9f:7e:1d:4a:8a:36:d5:a0:e7:
                    25:73
                Exponent: 65537 (0x10001)
        X509v3 extensions:
            X509v3 Basic Constraints: 
                CA:FALSE
            X509v3 Subject Key Identifier: 
                DC:05:F3:34:52:D1:42:4D:D3:E3:2B:E1:56:FE:08:41:CE:AA:39:0B
            X509v3 Authority Key Identifier: 
                keyid:DF:D1:3F:A6:0D:1A:08:53:8E:1D:B7:6D:EB:8A:82:8C:F4:96:63:17
                DirName:/CN=team15-net
                serial:0C:D4:E2:EE:35:45:EF:0B:3C:DD:02:D9:25:E9:4A:A4:D5:D4:A0:8D

            X509v3 Extended Key Usage: 
                TLS Web Client Authentication
            X509v3 Key Usage: 
                Digital Signature
    Signature Algorithm: sha256WithRSAEncryption
         a7:b9:3b:6a:07:fc:4f:d4:a5:d0:ed:e9:79:df:fd:e6:08:8c:
         b0:19:fe:53:ca:e1:4f:1a:ea:b4:aa:e0:ad:56:ec:8d:ce:87:
         d8:2a:39:14:9a:32:08:eb:20:e6:4e:65:dd:ee:7e:1a:e5:50:
         b0:12:89:84:ec:6e:c0:0a:37:b8:5e:16:54:ab:31:37:30:5c:
         84:b0:25:03:39:31:a9:44:d2:2c:af:0a:e7:ac:a4:e2:31:ed:
         86:d3:24:ad:9a:8a:83:48:aa:a9:98:4a:06:48:70:eb:35:aa:
         80:a5:03:9c:98:59:3e:2f:41:be:f7:da:9b:7e:67:17:3d:95:
         b7:f7:6b:3c:30:ff:43:ec:0f:9e:d7:46:be:5f:0c:23:81:50:
         5d:85:65:ef:66:a8:05:01:78:01:90:1f:d7:9e:7b:1f:0a:9e:
         c6:91:7d:60:36:b3:12:dd:fb:e3:3d:10:af:d5:38:0f:ce:0d:
         f0:ed:5e:1f:e9:4f:4d:d0:c0:5c:d5:21:7d:6f:91:a0:b5:de:
         a9:7c:e7:a3:e4:83:fd:95:72:31:49:69:a8:7e:6b:32:be:5b:
         a8:52:74:99:61:1f:46:47:34:58:e7:cc:7d:89:b8:8e:65:47:
         ff:b1:ba:e9:42:03:6a:4d:d2:05:c9:8e:38:4d:ea:12:75:26:
         0e:1b:2d:52
-----BEGIN CERTIFICATE-----
MIIDWjCCAkKgAwIBAgIRAK4/ll38hiKKCM9psgVy1m0wDQYJKoZIhvcNAQELBQAw
FTETMBEGA1UEAwwKdGVhbTE1LW5ldDAeFw0yMzA4MTQxNDIyMjBaFw0yNjA3Mjkx
NDIyMjBaMBgxFjAUBgNVBAMMDXRlYW0xNS1jbGllbnQwggEiMA0GCSqGSIb3DQEB
AQUAA4IBDwAwggEKAoIBAQCqByzytSFyNhipjstrm5gEvhvh3iXQH8auawptriAE
V/eY1Xtsi0HH/48rw6tJ6wcLeyp1m2rlg9EEIKNVY+Ez2B2J7ywpsepEYgZM5ZSQ
EYo2dorgz1ZZf7r5YKCRTc4VKVr5W8BhXyMZ9j6Skg9RQsHQgrzI/RxARxyeO/mo
8XcP9Q9xuKLqIiNUc2b3U+iJIEWJUZ4GcTp63/Wzmj6psCpOeZ0qhFEUP6Ovb+H3
0b478b0d1FD5OB+GjLvQebKTVzMnUtboucfPDNyeWPyNipz7cFcXW3r2X+GgcZs/
qpAh/n2YaQAgoUs6SaYy+RhQuT66a59+HUqKNtWg5yVzAgMBAAGjgaEwgZ4wCQYD
VR0TBAIwADAdBgNVHQ4EFgQU3AXzNFLRQk3T4yvhVv4IQc6qOQswUAYDVR0jBEkw
R4AU39E/pg0aCFOOHbdt64qCjPSWYxehGaQXMBUxEzARBgNVBAMMCnRlYW0xNS1u
ZXSCFAzU4u41Re8LPN0C2SXpSqTV1KCNMBMGA1UdJQQMMAoGCCsGAQUFBwMCMAsG
A1UdDwQEAwIHgDANBgkqhkiG9w0BAQsFAAOCAQEAp7k7agf8T9Sl0O3ped/95giM
sBn+U8rhTxrqtKrgrVbsjc6H2Co5FJoyCOsg5k5l3e5+GuVQsBKJhOxuwAo3uF4W
VKsxNzBchLAlAzkxqUTSLK8K56yk4jHthtMkrZqKg0iqqZhKBkhw6zWqgKUDnJhZ
Pi9Bvvfam35nFz2Vt/drPDD/Q+wPntdGvl8MI4FQXYVl72aoBQF4AZAf1557Hwqe
xpF9YDazEt374z0Qr9U4D84N8O1eH+lPTdDAXNUhfW+RoLXeqXzno+SD/ZVyMUlp
qH5rMr5bqFJ0mWEfRkc0WOfMfYm4jmVH/7G66UIDak3SBcmOOE3qEnUmDhstUg==
-----END CERTIFICATE-----
