Certificate:
    Data:
        Version: 3 (0x2)
        Serial Number:
            65:d9:ae:a9:f7:7b:96:9a:5f:e1:99:b6:64:eb:b9:d4
        Signature Algorithm: sha256WithRSAEncryption
        Issuer: CN=team112-net
        Validity
            Not Before: Aug 14 14:24:33 2023 GMT
            Not After : Jul 29 14:24:33 2026 GMT
        Subject: CN=team112-client
        Subject Public Key Info:
            Public Key Algorithm: rsaEncryption
                RSA Public-Key: (2048 bit)
                Modulus:
                    00:c6:dc:e6:22:96:b4:6d:92:53:1e:43:ac:50:a8:
                    cf:1a:37:b6:40:2f:13:b4:79:5e:85:ab:42:93:e1:
                    7b:01:25:04:a3:d5:97:3e:75:0a:19:6d:3d:41:ed:
                    90:ff:f8:0f:0b:d0:75:84:68:79:0e:1b:2e:9f:63:
                    84:fc:e3:7d:be:56:bc:01:96:7e:b3:bb:7a:c8:6b:
                    84:b6:3c:25:9d:e4:49:59:96:01:2b:0f:2f:54:0b:
                    56:84:7c:9f:db:c1:59:96:04:4e:e5:57:bb:28:f3:
                    0d:34:d5:5e:06:05:8f:98:da:91:5d:8c:cd:40:fd:
                    9c:b7:d2:54:13:96:1e:6a:ee:99:2e:fc:2e:e6:76:
                    99:95:84:fa:9c:2f:4d:6b:66:49:00:11:e3:74:74:
                    22:56:d1:01:93:f3:f3:e7:df:9c:2a:76:0f:51:da:
                    c7:a3:44:44:2b:55:78:79:c9:64:ea:0a:73:e7:fc:
                    b3:f3:96:2f:31:92:d6:5f:0e:7f:f3:80:b9:81:a4:
                    d7:dd:1b:03:b7:13:cb:c2:91:bd:5e:f1:35:65:d0:
                    87:8b:29:cb:f3:c8:45:0a:c9:f6:dd:44:26:62:f4:
                    f0:5d:84:c0:29:66:91:9e:8a:11:2f:6d:fc:bd:9f:
                    6a:75:43:9a:f2:0b:18:7c:e1:4e:6b:b4:f2:e8:6c:
                    00:39
                Exponent: 65537 (0x10001)
        X509v3 extensions:
            X509v3 Basic Constraints: 
                CA:FALSE
            X509v3 Subject Key Identifier: 
                1E:2E:8D:D5:93:8E:40:30:65:65:FE:17:53:37:B3:71:5A:B2:8F:2E
            X509v3 Authority Key Identifier: 
                keyid:4B:23:B7:F4:2D:67:34:B8:55:B7:8A:0B:10:12:53:6B:86:AA:F8:72
                DirName:/CN=team112-net
                serial:37:77:B1:B1:07:02:95:70:6E:CE:16:75:81:A6:81:7F:27:BC:64:08

            X509v3 Extended Key Usage: 
                TLS Web Client Authentication
            X509v3 Key Usage: 
                Digital Signature
    Signature Algorithm: sha256WithRSAEncryption
         72:fb:f9:23:27:37:15:8c:89:69:a1:13:b3:12:b8:e3:0a:02:
         72:1c:84:d2:89:f3:74:90:81:ba:ce:bf:bd:be:fd:24:2d:45:
         1c:be:33:60:b0:1d:12:42:e5:a9:fe:e4:5f:98:f3:f7:0d:b5:
         2c:6b:57:fc:c2:1b:62:a9:74:b8:94:3d:44:f6:37:a7:ec:f2:
         e8:5a:60:f8:44:fe:32:3f:28:00:04:ea:b4:bc:18:fe:eb:1d:
         1b:de:72:9a:83:60:18:14:27:d6:ba:8b:ba:b1:6e:59:5d:01:
         74:16:af:b0:2b:5a:71:14:88:04:07:6b:51:d9:f6:71:12:ce:
         04:f5:bd:1c:3f:44:f6:a9:99:68:04:8c:87:19:d9:ca:ee:96:
         fc:dc:52:24:d2:62:c3:e8:39:37:50:39:a2:a4:81:cd:eb:2f:
         7d:7b:62:e1:6d:1d:23:38:8a:dd:20:3b:55:b4:1d:8f:ca:ef:
         7a:6a:ee:7a:07:c9:64:83:f0:b0:77:31:49:3d:d4:90:28:61:
         ed:3c:fa:83:9e:53:2d:44:54:4c:91:3c:e4:9b:76:da:7d:7a:
         ab:1e:c4:c1:1f:f0:df:66:68:b3:18:8a:2f:e7:ac:1d:7b:3a:
         94:d5:9a:29:49:c7:28:b9:cc:06:5d:e0:e7:87:0f:d6:86:95:
         e1:38:e2:fd
-----BEGIN CERTIFICATE-----
MIIDXDCCAkSgAwIBAgIQZdmuqfd7lppf4Zm2ZOu51DANBgkqhkiG9w0BAQsFADAW
MRQwEgYDVQQDDAt0ZWFtMTEyLW5ldDAeFw0yMzA4MTQxNDI0MzNaFw0yNjA3Mjkx
NDI0MzNaMBkxFzAVBgNVBAMMDnRlYW0xMTItY2xpZW50MIIBIjANBgkqhkiG9w0B
AQEFAAOCAQ8AMIIBCgKCAQEAxtzmIpa0bZJTHkOsUKjPGje2QC8TtHlehatCk+F7
ASUEo9WXPnUKGW09Qe2Q//gPC9B1hGh5Dhsun2OE/ON9vla8AZZ+s7t6yGuEtjwl
neRJWZYBKw8vVAtWhHyf28FZlgRO5Ve7KPMNNNVeBgWPmNqRXYzNQP2ct9JUE5Ye
au6ZLvwu5naZlYT6nC9Na2ZJABHjdHQiVtEBk/Pz59+cKnYPUdrHo0REK1V4eclk
6gpz5/yz85YvMZLWXw5/84C5gaTX3RsDtxPLwpG9XvE1ZdCHiynL88hFCsn23UQm
YvTwXYTAKWaRnooRL238vZ9qdUOa8gsYfOFOa7Ty6GwAOQIDAQABo4GiMIGfMAkG
A1UdEwQCMAAwHQYDVR0OBBYEFB4ujdWTjkAwZWX+F1M3s3Faso8uMFEGA1UdIwRK
MEiAFEsjt/QtZzS4VbeKCxASU2uGqvhyoRqkGDAWMRQwEgYDVQQDDAt0ZWFtMTEy
LW5ldIIUN3exsQcClXBuzhZ1gaaBfye8ZAgwEwYDVR0lBAwwCgYIKwYBBQUHAwIw
CwYDVR0PBAQDAgeAMA0GCSqGSIb3DQEBCwUAA4IBAQBy+/kjJzcVjIlpoROzErjj
CgJyHITSifN0kIG6zr+9vv0kLUUcvjNgsB0SQuWp/uRfmPP3DbUsa1f8whtiqXS4
lD1E9jen7PLoWmD4RP4yPygABOq0vBj+6x0b3nKag2AYFCfWuou6sW5ZXQF0Fq+w
K1pxFIgEB2tR2fZxEs4E9b0cP0T2qZloBIyHGdnK7pb83FIk0mLD6Dk3UDmipIHN
6y99e2LhbR0jOIrdIDtVtB2Pyu96au56B8lkg/CwdzFJPdSQKGHtPPqDnlMtRFRM
kTzkm3bafXqrHsTBH/DfZmizGIov56wdezqU1ZopSccoucwGXeDnhw/WhpXhOOL9
-----END CERTIFICATE-----
