Certificate:
    Data:
        Version: 3 (0x2)
        Serial Number:
            7d:e5:7f:9a:f0:60:6d:0f:ec:81:63:a1:ae:5d:46:97
        Signature Algorithm: sha256WithRSAEncryption
        Issuer: CN=team112-net
        Validity
            Not Before: Aug 14 14:24:33 2023 GMT
            Not After : Jul 29 14:24:33 2026 GMT
        Subject: CN=team112-server
        Subject Public Key Info:
            Public Key Algorithm: rsaEncryption
                RSA Public-Key: (2048 bit)
                Modulus:
                    00:be:8f:9a:83:fd:a5:03:00:f9:6d:1a:ca:bc:a6:
                    fb:f1:ab:99:26:6d:c0:f3:5a:b8:4d:ca:f1:50:65:
                    82:19:18:e7:11:61:c1:70:b2:7b:20:e3:77:e1:9b:
                    ea:3f:d7:af:cc:2b:f3:cb:ee:5f:64:6c:e5:4d:93:
                    ec:13:b3:1d:93:74:81:2e:66:f8:93:e5:7b:2b:17:
                    12:7b:7e:a0:ae:f1:0f:36:a8:10:cc:42:09:ba:d1:
                    4b:24:5a:d3:0b:7c:dc:ea:84:2e:9a:b7:8c:7e:1f:
                    4e:25:7f:58:c9:8f:82:70:32:7b:04:0b:a8:63:f1:
                    77:46:82:c0:94:50:ff:4e:93:d8:0c:56:f3:95:71:
                    64:51:63:77:b3:47:bd:b5:3e:b2:59:24:f3:55:b5:
                    66:62:c6:7b:ba:f6:ff:a3:4d:9e:ca:ac:18:97:f2:
                    44:81:47:e1:aa:07:de:43:11:fa:2b:b4:25:6d:44:
                    28:ea:bb:ce:1f:3b:d9:92:1e:c3:37:e0:a3:46:b5:
                    2a:d3:32:bc:c7:e6:b4:b6:05:7e:f7:cc:b4:54:55:
                    f1:c4:85:53:83:81:ad:4d:b4:64:f0:78:b9:36:e3:
                    e3:31:4c:ca:8d:19:88:45:8d:9e:0e:d1:89:fa:bc:
                    12:f9:1d:fb:01:9d:b9:81:3e:ff:bf:d8:58:fe:d4:
                    a7:69
                Exponent: 65537 (0x10001)
        X509v3 extensions:
            X509v3 Basic Constraints: 
                CA:FALSE
            X509v3 Subject Key Identifier: 
                75:89:D1:7F:DE:3C:C0:78:4B:30:21:5F:12:BA:C1:4E:C0:D8:DC:C3
            X509v3 Authority Key Identifier: 
                keyid:4B:23:B7:F4:2D:67:34:B8:55:B7:8A:0B:10:12:53:6B:86:AA:F8:72
                DirName:/CN=team112-net
                serial:37:77:B1:B1:07:02:95:70:6E:CE:16:75:81:A6:81:7F:27:BC:64:08

            X509v3 Extended Key Usage: 
                TLS Web Server Authentication
            X509v3 Key Usage: 
                Digital Signature, Key Encipherment
            X509v3 Subject Alternative Name: 
                DNS:team112-server
    Signature Algorithm: sha256WithRSAEncryption
         24:3e:a9:ba:c3:42:e3:d7:43:fe:92:4e:17:a5:83:22:d3:46:
         65:21:ca:e9:da:e3:75:b1:d3:d2:71:6b:62:d3:90:91:3f:30:
         d2:2a:8a:a5:5e:c6:3b:46:12:5b:f5:87:1b:76:7a:37:f9:51:
         f6:62:6c:99:f1:5e:4c:32:be:c9:4b:ed:2d:40:5a:14:93:49:
         c2:95:c9:c9:07:77:3e:7c:1e:c2:3a:c7:f6:b0:d7:89:32:b5:
         f7:be:b0:80:32:38:9e:f4:7a:06:fd:a6:1c:2c:9f:3c:3f:c6:
         41:da:d4:05:b7:5d:ca:ad:76:7b:07:81:f3:98:d8:19:3b:c6:
         a6:c2:e4:12:ad:a5:dd:23:da:0e:e7:52:8e:52:e9:de:b6:88:
         22:f4:57:65:ca:9a:a1:28:51:1f:ec:34:7b:33:7b:96:47:e6:
         42:74:1b:06:26:86:39:67:be:9a:73:a6:cf:13:2f:9b:23:ad:
         07:db:3d:cf:b7:3a:7b:5f:d7:0e:95:4a:71:a8:30:4a:ec:07:
         86:d1:eb:6f:0e:e0:d9:4f:14:d9:55:ca:2e:3d:68:1c:cb:62:
         6a:61:39:16:81:b3:db:e3:b4:e5:1f:f3:19:06:3c:ee:a6:88:
         10:28:1c:8f:c6:92:02:bb:6c:03:c8:92:ff:6f:ee:3b:31:5d:
         a7:82:7b:b8
-----BEGIN CERTIFICATE-----
MIIDdzCCAl+gAwIBAgIQfeV/mvBgbQ/sgWOhrl1GlzANBgkqhkiG9w0BAQsFADAW
MRQwEgYDVQQDDAt0ZWFtMTEyLW5ldDAeFw0yMzA4MTQxNDI0MzNaFw0yNjA3Mjkx
NDI0MzNaMBkxFzAVBgNVBAMMDnRlYW0xMTItc2VydmVyMIIBIjANBgkqhkiG9w0B
AQEFAAOCAQ8AMIIBCgKCAQEAvo+ag/2lAwD5bRrKvKb78auZJm3A81q4TcrxUGWC
GRjnEWHBcLJ7ION34ZvqP9evzCvzy+5fZGzlTZPsE7Mdk3SBLmb4k+V7KxcSe36g
rvEPNqgQzEIJutFLJFrTC3zc6oQumreMfh9OJX9YyY+CcDJ7BAuoY/F3RoLAlFD/
TpPYDFbzlXFkUWN3s0e9tT6yWSTzVbVmYsZ7uvb/o02eyqwYl/JEgUfhqgfeQxH6
K7QlbUQo6rvOHzvZkh7DN+CjRrUq0zK8x+a0tgV+98y0VFXxxIVTg4GtTbRk8Hi5
NuPjMUzKjRmIRY2eDtGJ+rwS+R37AZ25gT7/v9hY/tSnaQIDAQABo4G9MIG6MAkG
A1UdEwQCMAAwHQYDVR0OBBYEFHWJ0X/ePMB4SzAhXxK6wU7A2NzDMFEGA1UdIwRK
MEiAFEsjt/QtZzS4VbeKCxASU2uGqvhyoRqkGDAWMRQwEgYDVQQDDAt0ZWFtMTEy
LW5ldIIUN3exsQcClXBuzhZ1gaaBfye8ZAgwEwYDVR0lBAwwCgYIKwYBBQUHAwEw
CwYDVR0PBAQDAgWgMBkGA1UdEQQSMBCCDnRlYW0xMTItc2VydmVyMA0GCSqGSIb3
DQEBCwUAA4IBAQAkPqm6w0Lj10P+kk4XpYMi00ZlIcrp2uN1sdPScWti05CRPzDS
KoqlXsY7RhJb9Ycbdno3+VH2YmyZ8V5MMr7JS+0tQFoUk0nClcnJB3c+fB7COsf2
sNeJMrX3vrCAMjie9HoG/aYcLJ88P8ZB2tQFt13KrXZ7B4HzmNgZO8amwuQSraXd
I9oO51KOUunetogi9FdlypqhKFEf7DR7M3uWR+ZCdBsGJoY5Z76ac6bPEy+bI60H
2z3Ptzp7X9cOlUpxqDBK7AeG0etvDuDZTxTZVcouPWgcy2JqYTkWgbPb47TlH/MZ
BjzupogQKByPxpICu2wDyJL/b+47MV2ngnu4
-----END CERTIFICATE-----
