Certificate:
    Data:
        Version: 3 (0x2)
        Serial Number:
            76:b1:0a:48:eb:44:88:63:78:d8:d2:1b:8b:8a:64:23
        Signature Algorithm: sha256WithRSAEncryption
        Issuer: CN=team21-net
        Validity
            Not Before: Aug 14 14:22:28 2023 GMT
            Not After : Jul 29 14:22:28 2026 GMT
        Subject: CN=team21-server
        Subject Public Key Info:
            Public Key Algorithm: rsaEncryption
                RSA Public-Key: (2048 bit)
                Modulus:
                    00:be:13:c9:7d:22:f6:aa:00:1f:8a:5c:13:2a:a4:
                    d4:0f:ec:1f:86:1f:78:85:41:68:87:fa:64:6c:90:
                    d9:1c:a8:1e:fc:6b:e1:44:3d:a7:5d:d6:99:7c:14:
                    a0:89:21:cc:85:00:d4:b7:7e:a6:67:41:d0:b3:f9:
                    5a:e3:92:dc:f7:8d:b8:c3:64:92:d4:43:f0:49:43:
                    5c:f0:cf:bd:dc:e4:66:8e:36:56:e0:db:eb:94:c3:
                    23:2e:90:ca:2d:b3:89:72:b4:7e:26:ea:4d:44:59:
                    f2:09:a8:3b:d6:d9:aa:6a:03:c8:52:a8:81:1a:b5:
                    04:e4:51:3d:a7:f0:58:0a:fc:1a:3c:49:af:80:44:
                    23:00:e4:9e:d3:4d:e1:a7:86:09:5e:6c:05:45:43:
                    89:6c:10:62:6e:40:b6:e7:56:11:9a:73:25:cb:ba:
                    e2:97:81:ba:66:54:ce:1d:ea:8c:f4:2e:7b:75:5b:
                    ee:82:8e:91:7e:9b:37:b2:a2:88:f2:41:29:35:2e:
                    5a:cc:e4:2b:a1:c5:02:7d:92:bd:bc:6d:49:54:d6:
                    64:7f:6b:e6:11:02:63:4c:5d:1f:2f:01:f0:b5:e1:
                    e7:28:d1:ca:20:12:dc:98:79:42:85:51:b4:92:a7:
                    cc:d1:f1:f4:a2:3a:5c:16:e6:6e:98:56:e9:fd:3e:
                    f9:bb
                Exponent: 65537 (0x10001)
        X509v3 extensions:
            X509v3 Basic Constraints: 
                CA:FALSE
            X509v3 Subject Key Identifier: 
                59:D8:3E:31:FE:39:FB:B1:39:8E:3E:36:D4:32:FA:7B:D5:1F:53:10
            X509v3 Authority Key Identifier: 
                keyid:16:EF:E4:3B:69:50:D4:14:3E:95:AC:81:97:17:F4:43:2E:B5:3C:D6
                DirName:/CN=team21-net
                serial:19:3C:20:19:8F:64:53:AF:E8:75:78:92:62:00:3F:F3:76:02:CD:F6

            X509v3 Extended Key Usage: 
                TLS Web Server Authentication
            X509v3 Key Usage: 
                Digital Signature, Key Encipherment
            X509v3 Subject Alternative Name: 
                DNS:team21-server
    Signature Algorithm: sha256WithRSAEncryption
         38:8c:fb:05:92:88:65:fd:d2:cc:68:c1:2d:43:4a:6f:83:5d:
         68:c1:24:c6:68:68:76:ec:1d:bd:ea:a1:cc:85:65:0f:ba:9c:
         24:51:5d:f7:2e:e5:e6:ce:5c:2a:cf:fd:85:c1:3d:95:f2:2e:
         76:9c:97:7b:b5:e3:d8:0f:5a:02:15:52:04:67:ab:32:79:87:
         0b:5a:e6:3c:e7:a1:00:b5:5b:61:08:9b:db:73:62:07:59:18:
         af:22:36:b6:d4:ed:bc:e8:f0:a2:b7:4f:50:80:92:c9:94:2b:
         8e:85:50:52:1c:72:65:0f:63:15:ea:75:3e:d7:de:c2:1f:cf:
         1b:fd:11:c3:a5:3e:b7:54:ae:d1:1b:8e:47:d1:cf:67:c1:74:
         95:0b:81:fe:6a:21:34:b3:2c:30:cf:79:cf:ef:8b:90:64:cf:
         ba:4b:48:5f:de:d0:40:e7:63:b5:18:88:18:10:08:4c:fe:11:
         ad:bc:32:ae:34:1c:12:e3:9b:ae:66:c9:8d:8a:00:37:15:a6:
         86:7d:af:a0:bf:8e:dc:d2:4d:0c:bf:bb:20:90:73:12:29:53:
         2e:3b:51:39:01:2b:b6:68:00:31:f8:84:6a:b1:87:70:bd:08:
         0a:9a:64:47:8d:cb:0e:b1:a6:6a:92:15:01:2a:2e:d8:05:ef:
         5b:33:82:d3
-----BEGIN CERTIFICATE-----
MIIDczCCAlugAwIBAgIQdrEKSOtEiGN42NIbi4pkIzANBgkqhkiG9w0BAQsFADAV
MRMwEQYDVQQDDAp0ZWFtMjEtbmV0MB4XDTIzMDgxNDE0MjIyOFoXDTI2MDcyOTE0
MjIyOFowGDEWMBQGA1UEAwwNdGVhbTIxLXNlcnZlcjCCASIwDQYJKoZIhvcNAQEB
BQADggEPADCCAQoCggEBAL4TyX0i9qoAH4pcEyqk1A/sH4YfeIVBaIf6ZGyQ2Ryo
Hvxr4UQ9p13WmXwUoIkhzIUA1Ld+pmdB0LP5WuOS3PeNuMNkktRD8ElDXPDPvdzk
Zo42VuDb65TDIy6Qyi2ziXK0fibqTURZ8gmoO9bZqmoDyFKogRq1BORRPafwWAr8
GjxJr4BEIwDkntNN4aeGCV5sBUVDiWwQYm5AtudWEZpzJcu64peBumZUzh3qjPQu
e3Vb7oKOkX6bN7KiiPJBKTUuWszkK6HFAn2SvbxtSVTWZH9r5hECY0xdHy8B8LXh
5yjRyiAS3Jh5QoVRtJKnzNHx9KI6XBbmbphW6f0++bsCAwEAAaOBuzCBuDAJBgNV
HRMEAjAAMB0GA1UdDgQWBBRZ2D4x/jn7sTmOPjbUMvp71R9TEDBQBgNVHSMESTBH
gBQW7+Q7aVDUFD6VrIGXF/RDLrU81qEZpBcwFTETMBEGA1UEAwwKdGVhbTIxLW5l
dIIUGTwgGY9kU6/odXiSYgA/83YCzfYwEwYDVR0lBAwwCgYIKwYBBQUHAwEwCwYD
VR0PBAQDAgWgMBgGA1UdEQQRMA+CDXRlYW0yMS1zZXJ2ZXIwDQYJKoZIhvcNAQEL
BQADggEBADiM+wWSiGX90sxowS1DSm+DXWjBJMZoaHbsHb3qocyFZQ+6nCRRXfcu
5ebOXCrP/YXBPZXyLnacl3u149gPWgIVUgRnqzJ5hwta5jznoQC1W2EIm9tzYgdZ
GK8iNrbU7bzo8KK3T1CAksmUK46FUFIccmUPYxXqdT7X3sIfzxv9EcOlPrdUrtEb
jkfRz2fBdJULgf5qITSzLDDPec/vi5Bkz7pLSF/e0EDnY7UYiBgQCEz+Ea28Mq40
HBLjm65myY2KADcVpoZ9r6C/jtzSTQy/uyCQcxIpUy47UTkBK7ZoADH4hGqxh3C9
CAqaZEeNyw6xpmqSFQEqLtgF71szgtM=
-----END CERTIFICATE-----
