Certificate:
    Data:
        Version: 3 (0x2)
        Serial Number:
            6e:60:3b:37:a9:e5:fc:95:88:26:d1:2a:c1:b9:2c:68
        Signature Algorithm: sha256WithRSAEncryption
        Issuer: CN=team152-net
        Validity
            Not Before: Aug 14 14:25:27 2023 GMT
            Not After : Jul 29 14:25:27 2026 GMT
        Subject: CN=team152-server
        Subject Public Key Info:
            Public Key Algorithm: rsaEncryption
                RSA Public-Key: (2048 bit)
                Modulus:
                    00:9b:0d:8d:30:80:2a:11:56:94:6e:ba:4a:a2:bc:
                    4e:63:5c:a6:ed:f0:1c:26:a8:46:24:4d:00:75:66:
                    e0:bc:42:95:2d:74:9c:39:a6:d0:44:4f:ab:7c:a3:
                    4a:ee:ad:b4:d3:61:f3:16:a6:62:67:d6:7a:b5:da:
                    ad:d4:18:7a:8b:94:1d:ae:17:3d:c6:2d:6e:34:4f:
                    6a:ad:e2:48:e1:4b:51:fe:80:b2:09:0f:ff:56:aa:
                    f9:d3:70:df:0c:a4:31:4c:5d:4c:27:7a:d7:3b:d4:
                    ef:00:69:16:f1:86:ea:4c:68:5f:31:2f:4e:cf:24:
                    b8:40:33:2c:00:3d:02:a0:e4:df:e1:7f:9f:4b:a9:
                    ef:e6:66:8e:ba:3b:4e:04:fd:66:7d:8c:08:13:d6:
                    d7:8c:1c:a7:b8:e3:1e:7f:ad:49:52:5c:f8:71:7d:
                    e5:d4:66:0e:bb:8c:55:9d:bb:df:0d:39:53:d7:5c:
                    f7:4f:31:00:94:e4:21:53:98:e9:be:76:c2:29:20:
                    a2:a1:4a:06:cf:b1:10:74:08:3d:f8:9e:39:7c:bd:
                    76:ed:61:99:b0:c5:9c:76:80:af:9e:3b:fc:3a:f6:
                    cf:19:18:fd:ad:5a:55:8b:e0:06:25:53:71:39:d9:
                    81:55:95:29:4f:eb:58:7f:f0:e7:8c:fa:bf:f1:3b:
                    f5:57
                Exponent: 65537 (0x10001)
        X509v3 extensions:
            X509v3 Basic Constraints: 
                CA:FALSE
            X509v3 Subject Key Identifier: 
                6B:F7:B9:A1:97:F6:8F:4C:FE:8F:66:0F:6C:7A:0D:A8:DA:D4:D6:92
            X509v3 Authority Key Identifier: 
                keyid:8F:12:24:99:F8:68:C7:4D:33:46:3E:06:DD:91:3C:97:3A:92:0E:89
                DirName:/CN=team152-net
                serial:30:1C:43:65:7B:86:90:38:60:B2:93:58:A0:1D:80:2E:F2:7A:CC:93

            X509v3 Extended Key Usage: 
                TLS Web Server Authentication
            X509v3 Key Usage: 
                Digital Signature, Key Encipherment
            X509v3 Subject Alternative Name: 
                DNS:team152-server
    Signature Algorithm: sha256WithRSAEncryption
         2f:8e:1a:4c:18:04:4e:47:5a:51:21:b2:c6:28:af:6d:63:97:
         5e:3b:13:b1:e5:91:40:c9:c2:a9:77:54:1f:5e:92:ac:8a:4f:
         24:09:af:a9:06:11:45:e6:01:39:95:87:30:e5:cf:90:b2:f3:
         73:d9:d1:7f:f2:8e:d3:f7:76:66:6d:86:48:32:5b:69:32:d0:
         65:b3:5d:96:30:d1:0d:42:a9:dd:c8:56:74:36:0c:68:0e:da:
         79:77:4a:8c:eb:10:be:68:d4:8a:29:08:6d:f5:b4:2a:ab:93:
         1b:92:11:24:8f:5d:66:03:40:c0:c1:7c:f9:44:3f:ae:5e:c7:
         04:6d:ee:92:7c:b1:dc:81:38:a0:7f:30:27:45:48:2d:08:6e:
         15:43:98:c2:3f:3d:30:38:fa:69:e8:5e:b8:b3:d9:74:d3:40:
         c9:74:43:de:83:99:ae:c1:26:5c:07:b0:98:86:95:1d:19:43:
         2a:9f:96:ac:11:81:fb:0f:e3:ff:aa:5d:44:81:09:c7:4d:3a:
         44:94:65:82:d7:b1:53:c4:01:71:00:48:dc:04:43:e8:3e:19:
         50:57:7f:ad:07:17:4d:b6:21:41:0d:9f:b1:a5:90:c9:6a:ed:
         fb:55:90:98:7d:29:cc:e0:0b:8b:32:35:c5:9b:d4:5d:59:f6:
         a3:92:0a:ca
-----BEGIN CERTIFICATE-----
MIIDdzCCAl+gAwIBAgIQbmA7N6nl/JWIJtEqwbksaDANBgkqhkiG9w0BAQsFADAW
MRQwEgYDVQQDDAt0ZWFtMTUyLW5ldDAeFw0yMzA4MTQxNDI1MjdaFw0yNjA3Mjkx
NDI1MjdaMBkxFzAVBgNVBAMMDnRlYW0xNTItc2VydmVyMIIBIjANBgkqhkiG9w0B
AQEFAAOCAQ8AMIIBCgKCAQEAmw2NMIAqEVaUbrpKorxOY1ym7fAcJqhGJE0AdWbg
vEKVLXScOabQRE+rfKNK7q2002HzFqZiZ9Z6tdqt1Bh6i5Qdrhc9xi1uNE9qreJI
4UtR/oCyCQ//Vqr503DfDKQxTF1MJ3rXO9TvAGkW8YbqTGhfMS9OzyS4QDMsAD0C
oOTf4X+fS6nv5maOujtOBP1mfYwIE9bXjBynuOMef61JUlz4cX3l1GYOu4xVnbvf
DTlT11z3TzEAlOQhU5jpvnbCKSCioUoGz7EQdAg9+J45fL127WGZsMWcdoCvnjv8
OvbPGRj9rVpVi+AGJVNxOdmBVZUpT+tYf/DnjPq/8Tv1VwIDAQABo4G9MIG6MAkG
A1UdEwQCMAAwHQYDVR0OBBYEFGv3uaGX9o9M/o9mD2x6Daja1NaSMFEGA1UdIwRK
MEiAFI8SJJn4aMdNM0Y+Bt2RPJc6kg6JoRqkGDAWMRQwEgYDVQQDDAt0ZWFtMTUy
LW5ldIIUMBxDZXuGkDhgspNYoB2ALvJ6zJMwEwYDVR0lBAwwCgYIKwYBBQUHAwEw
CwYDVR0PBAQDAgWgMBkGA1UdEQQSMBCCDnRlYW0xNTItc2VydmVyMA0GCSqGSIb3
DQEBCwUAA4IBAQAvjhpMGAROR1pRIbLGKK9tY5deOxOx5ZFAycKpd1QfXpKsik8k
Ca+pBhFF5gE5lYcw5c+QsvNz2dF/8o7T93ZmbYZIMltpMtBls12WMNENQqndyFZ0
NgxoDtp5d0qM6xC+aNSKKQht9bQqq5MbkhEkj11mA0DAwXz5RD+uXscEbe6SfLHc
gTigfzAnRUgtCG4VQ5jCPz0wOPpp6F64s9l000DJdEPeg5muwSZcB7CYhpUdGUMq
n5asEYH7D+P/ql1EgQnHTTpElGWC17FTxAFxAEjcBEPoPhlQV3+tBxdNtiFBDZ+x
pZDJau37VZCYfSnM4AuLMjXFm9RdWfajkgrK
-----END CERTIFICATE-----
