Certificate:
    Data:
        Version: 3 (0x2)
        Serial Number:
            c9:3a:fa:a5:6a:24:24:af:70:93:3c:ae:29:62:16:12
        Signature Algorithm: sha256WithRSAEncryption
        Issuer: CN=team59-net
        Validity
            Not Before: Aug 14 14:23:25 2023 GMT
            Not After : Jul 29 14:23:25 2026 GMT
        Subject: CN=team59-client
        Subject Public Key Info:
            Public Key Algorithm: rsaEncryption
                RSA Public-Key: (2048 bit)
                Modulus:
                    00:cb:4d:eb:54:77:16:e9:83:f2:7c:4d:ed:be:47:
                    13:0b:10:70:cf:df:8a:14:0f:01:62:06:bd:be:d2:
                    25:a2:4d:3c:26:5c:c8:ff:7f:7b:dc:5b:0d:99:c2:
                    77:ba:e7:bc:66:42:4b:77:41:53:ae:de:03:c8:d8:
                    b9:4e:4e:d2:ef:bb:c5:7a:f9:62:03:98:a8:36:20:
                    29:2e:9a:55:73:3f:af:22:2d:03:4d:ba:cb:e7:d6:
                    68:a5:87:ea:61:6e:01:db:b1:4f:26:89:aa:68:f0:
                    4b:69:8d:2e:4e:5e:91:e3:7b:a0:ea:1a:48:13:92:
                    bc:2e:fc:b5:ff:a9:44:bf:14:e9:95:9c:9d:4b:72:
                    a9:e6:30:54:2d:af:34:0d:13:ce:a6:b4:88:01:a3:
                    06:60:72:3d:c3:e8:a5:5d:ca:74:f7:38:0a:4a:f2:
                    c7:bc:a2:33:b9:36:68:ee:63:43:3f:f5:c0:a3:7c:
                    5b:31:f1:d3:f3:fc:db:59:ab:47:a4:f1:38:53:fe:
                    a3:63:5f:81:17:bc:e8:90:74:fc:07:91:c4:48:11:
                    86:26:c7:50:69:1e:e3:f1:cd:ff:95:1e:f1:8d:1a:
                    84:f3:5e:eb:81:6a:42:fb:ac:a7:b8:0d:82:a3:1d:
                    2c:4c:05:49:bf:1c:fa:90:97:4e:1a:1c:e6:ba:00:
                    fe:59
                Exponent: 65537 (0x10001)
        X509v3 extensions:
            X509v3 Basic Constraints: 
                CA:FALSE
            X509v3 Subject Key Identifier: 
                01:92:0E:31:73:CE:74:01:A4:32:CB:93:DA:D9:66:ED:BC:B7:0B:42
            X509v3 Authority Key Identifier: 
                keyid:5A:BE:3B:9E:F4:F3:D9:6A:F4:82:2F:47:2D:7E:27:01:32:3A:EE:51
                DirName:/CN=team59-net
                serial:34:B8:9B:C7:FF:17:D6:6A:2C:7E:9C:4D:D0:44:0C:D4:07:50:39:16

            X509v3 Extended Key Usage: 
                TLS Web Client Authentication
            X509v3 Key Usage: 
                Digital Signature
    Signature Algorithm: sha256WithRSAEncryption
         58:90:69:15:de:38:d4:93:05:dd:d8:da:e8:5e:2b:09:1a:f1:
         bd:50:74:8e:99:83:43:e8:be:5b:66:ce:28:04:5f:c2:cd:6a:
         fe:44:d9:69:d6:ff:38:54:a1:7e:e1:2f:41:c6:23:e4:a3:d3:
         b0:ed:d0:83:50:59:e6:65:3c:d8:8a:7b:ca:15:f3:4a:ff:80:
         12:63:ee:fc:03:43:2f:b0:9f:a2:c0:c9:26:fc:8e:05:49:8c:
         f1:31:cb:f1:11:70:f7:b2:bf:e7:a8:c5:bc:88:ee:3e:16:78:
         f4:ae:08:f4:6b:41:ec:a2:7a:a7:9c:c4:d8:35:2d:28:d0:4b:
         a7:ea:ab:27:29:81:e3:43:f9:c6:41:33:fe:43:42:6d:5c:44:
         30:88:0f:63:c1:1a:ad:d2:08:2f:3a:aa:70:f5:47:26:8f:93:
         bd:e3:f0:20:72:42:74:a6:8e:53:5e:6e:e3:01:7a:6f:3f:2b:
         20:31:63:29:b1:b6:5f:43:e9:6d:a2:54:db:3e:98:82:cc:b9:
         2d:97:7b:6f:f5:65:49:09:9d:e9:56:2d:c3:97:7e:13:8a:38:
         09:e2:a5:80:ba:07:ac:81:fb:01:c3:4d:bb:57:3c:e3:cb:cf:
         9e:2d:87:dc:66:90:8d:eb:ad:83:23:4a:fe:c2:cc:48:31:f9:
         ee:5c:93:94
-----BEGIN CERTIFICATE-----
MIIDWjCCAkKgAwIBAgIRAMk6+qVqJCSvcJM8riliFhIwDQYJKoZIhvcNAQELBQAw
FTETMBEGA1UEAwwKdGVhbTU5LW5ldDAeFw0yMzA4MTQxNDIzMjVaFw0yNjA3Mjkx
NDIzMjVaMBgxFjAUBgNVBAMMDXRlYW01OS1jbGllbnQwggEiMA0GCSqGSIb3DQEB
AQUAA4IBDwAwggEKAoIBAQDLTetUdxbpg/J8Te2+RxMLEHDP34oUDwFiBr2+0iWi
TTwmXMj/f3vcWw2Zwne657xmQkt3QVOu3gPI2LlOTtLvu8V6+WIDmKg2ICkumlVz
P68iLQNNusvn1milh+phbgHbsU8miapo8EtpjS5OXpHje6DqGkgTkrwu/LX/qUS/
FOmVnJ1LcqnmMFQtrzQNE86mtIgBowZgcj3D6KVdynT3OApK8se8ojO5NmjuY0M/
9cCjfFsx8dPz/NtZq0ek8ThT/qNjX4EXvOiQdPwHkcRIEYYmx1BpHuPxzf+VHvGN
GoTzXuuBakL7rKe4DYKjHSxMBUm/HPqQl04aHOa6AP5ZAgMBAAGjgaEwgZ4wCQYD
VR0TBAIwADAdBgNVHQ4EFgQUAZIOMXPOdAGkMsuT2tlm7by3C0IwUAYDVR0jBEkw
R4AUWr47nvTz2Wr0gi9HLX4nATI67lGhGaQXMBUxEzARBgNVBAMMCnRlYW01OS1u
ZXSCFDS4m8f/F9ZqLH6cTdBEDNQHUDkWMBMGA1UdJQQMMAoGCCsGAQUFBwMCMAsG
A1UdDwQEAwIHgDANBgkqhkiG9w0BAQsFAAOCAQEAWJBpFd441JMF3dja6F4rCRrx
vVB0jpmDQ+i+W2bOKARfws1q/kTZadb/OFShfuEvQcYj5KPTsO3Qg1BZ5mU82Ip7
yhXzSv+AEmPu/ANDL7CfosDJJvyOBUmM8THL8RFw97K/56jFvIjuPhZ49K4I9GtB
7KJ6p5zE2DUtKNBLp+qrJymB40P5xkEz/kNCbVxEMIgPY8EardIILzqqcPVHJo+T
vePwIHJCdKaOU15u4wF6bz8rIDFjKbG2X0PpbaJU2z6Ygsy5LZd7b/VlSQmd6VYt
w5d+E4o4CeKlgLoHrIH7AcNNu1c848vPni2H3GaQjeutgyNK/sLMSDH57lyTlA==
-----END CERTIFICATE-----
