Certificate:
    Data:
        Version: 3 (0x2)
        Serial Number:
            4a:62:77:a7:c4:7e:f4:3f:c2:1e:44:09:06:51:5e:f6
        Signature Algorithm: sha256WithRSAEncryption
        Issuer: CN=team199-net
        Validity
            Not Before: Aug 14 14:26:19 2023 GMT
            Not After : Jul 29 14:26:19 2026 GMT
        Subject: CN=team199-server
        Subject Public Key Info:
            Public Key Algorithm: rsaEncryption
                RSA Public-Key: (2048 bit)
                Modulus:
                    00:d6:f8:a6:86:ee:94:1b:d0:38:55:a1:54:48:1e:
                    80:85:ff:18:4e:72:ed:a1:f6:52:67:82:41:69:01:
                    5d:0f:b3:78:3d:0c:84:ad:d1:d9:3b:51:78:d1:6c:
                    1b:0c:97:80:6c:75:50:4f:10:54:cb:47:eb:26:c1:
                    72:53:45:db:3f:7d:bd:77:55:1d:f5:a3:ff:35:dc:
                    58:5c:f7:32:db:67:b2:27:b0:73:c7:a7:03:f2:9c:
                    23:c4:12:30:d1:8c:71:bf:af:da:02:d9:1b:db:f0:
                    42:b2:b6:c0:ec:16:08:1c:e9:c7:47:d6:91:85:fe:
                    5f:a5:e8:cd:65:01:33:9e:d3:f9:e7:f1:1a:48:7e:
                    60:aa:b2:31:7a:c6:94:47:5c:5f:9d:71:3e:84:41:
                    04:12:44:23:01:60:18:67:1c:fb:d8:18:7d:6e:c8:
                    a8:f5:af:61:cd:2b:79:3c:99:c1:3a:a7:9e:4d:ab:
                    2e:50:dd:c6:e2:01:cc:04:cd:d8:ca:5f:ef:60:07:
                    c2:7b:47:8a:d2:28:29:97:1e:4b:12:fb:da:99:cd:
                    cd:9b:39:39:1d:d3:aa:ee:a6:f7:24:ff:fe:a3:ba:
                    6f:29:1a:ac:14:e3:bc:96:bb:94:82:43:1c:2c:11:
                    32:dd:48:37:91:2a:ad:24:36:9f:12:5b:0c:d4:6c:
                    e9:25
                Exponent: 65537 (0x10001)
        X509v3 extensions:
            X509v3 Basic Constraints: 
                CA:FALSE
            X509v3 Subject Key Identifier: 
                6D:B7:45:84:ED:1D:4C:6C:37:DD:A5:62:36:8D:98:EE:4D:D9:18:03
            X509v3 Authority Key Identifier: 
                keyid:80:B3:B5:CD:0E:D6:93:F0:2F:B8:F5:07:50:8D:7B:95:B0:AC:7B:50
                DirName:/CN=team199-net
                serial:1E:52:66:0B:04:6A:97:6E:C1:4B:91:79:99:09:EE:D0:CF:98:7F:65

            X509v3 Extended Key Usage: 
                TLS Web Server Authentication
            X509v3 Key Usage: 
                Digital Signature, Key Encipherment
            X509v3 Subject Alternative Name: 
                DNS:team199-server
    Signature Algorithm: sha256WithRSAEncryption
         66:79:51:f6:c9:ed:4e:68:c9:5f:6e:7e:93:ae:6b:96:9b:0f:
         94:0a:26:a9:98:b8:10:df:1d:97:5b:c7:16:7f:47:d7:90:81:
         3e:0c:51:19:83:c3:0c:6f:0a:5f:e5:f9:70:4c:09:f1:6b:62:
         44:73:4b:e8:35:96:ca:a2:65:d5:f2:8f:33:c9:d4:8a:ef:f3:
         1d:7b:3f:1b:14:7c:bf:8d:9b:09:3d:f8:60:0a:5d:d1:41:ac:
         e2:1f:25:6e:56:08:73:c2:ef:bb:b1:88:a4:a8:ef:38:c0:52:
         df:0a:05:da:bf:6c:82:f0:03:54:2f:49:d2:6e:87:d0:17:50:
         de:62:a7:b7:93:bb:9d:49:ce:8d:ed:ec:50:53:16:5e:33:fe:
         75:cb:53:ab:1f:2a:df:2e:60:cf:a8:e6:32:10:74:01:39:f9:
         0f:73:1f:e0:7a:d5:14:34:70:99:db:fa:51:b2:94:c1:ff:cc:
         bd:02:a6:7f:77:d9:e1:7c:7e:60:fd:5b:f4:61:35:d6:e3:5c:
         d5:6e:cb:1e:1a:81:e1:58:28:13:92:07:51:63:54:53:aa:b3:
         51:74:1b:4f:64:37:ad:b4:91:03:05:47:7d:d9:a0:da:2d:ed:
         d2:1c:54:f4:c1:5c:34:2c:d4:83:d7:6c:50:56:6e:80:5e:df:
         62:d8:fd:aa
-----BEGIN CERTIFICATE-----
MIIDdzCCAl+gAwIBAgIQSmJ3p8R+9D/CHkQJBlFe9jANBgkqhkiG9w0BAQsFADAW
MRQwEgYDVQQDDAt0ZWFtMTk5LW5ldDAeFw0yMzA4MTQxNDI2MTlaFw0yNjA3Mjkx
NDI2MTlaMBkxFzAVBgNVBAMMDnRlYW0xOTktc2VydmVyMIIBIjANBgkqhkiG9w0B
AQEFAAOCAQ8AMIIBCgKCAQEA1vimhu6UG9A4VaFUSB6Ahf8YTnLtofZSZ4JBaQFd
D7N4PQyErdHZO1F40WwbDJeAbHVQTxBUy0frJsFyU0XbP329d1Ud9aP/NdxYXPcy
22eyJ7Bzx6cD8pwjxBIw0Yxxv6/aAtkb2/BCsrbA7BYIHOnHR9aRhf5fpejNZQEz
ntP55/EaSH5gqrIxesaUR1xfnXE+hEEEEkQjAWAYZxz72Bh9bsio9a9hzSt5PJnB
OqeeTasuUN3G4gHMBM3Yyl/vYAfCe0eK0igplx5LEvvamc3Nmzk5HdOq7qb3JP/+
o7pvKRqsFOO8lruUgkMcLBEy3Ug3kSqtJDafElsM1GzpJQIDAQABo4G9MIG6MAkG
A1UdEwQCMAAwHQYDVR0OBBYEFG23RYTtHUxsN92lYjaNmO5N2RgDMFEGA1UdIwRK
MEiAFICztc0O1pPwL7j1B1CNe5WwrHtQoRqkGDAWMRQwEgYDVQQDDAt0ZWFtMTk5
LW5ldIIUHlJmCwRql27BS5F5mQnu0M+Yf2UwEwYDVR0lBAwwCgYIKwYBBQUHAwEw
CwYDVR0PBAQDAgWgMBkGA1UdEQQSMBCCDnRlYW0xOTktc2VydmVyMA0GCSqGSIb3
DQEBCwUAA4IBAQBmeVH2ye1OaMlfbn6TrmuWmw+UCiapmLgQ3x2XW8cWf0fXkIE+
DFEZg8MMbwpf5flwTAnxa2JEc0voNZbKomXV8o8zydSK7/Mdez8bFHy/jZsJPfhg
Cl3RQaziHyVuVghzwu+7sYikqO84wFLfCgXav2yC8ANUL0nSbofQF1DeYqe3k7ud
Sc6N7exQUxZeM/51y1OrHyrfLmDPqOYyEHQBOfkPcx/getUUNHCZ2/pRspTB/8y9
AqZ/d9nhfH5g/Vv0YTXW41zVbsseGoHhWCgTkgdRY1RTqrNRdBtPZDettJEDBUd9
2aDaLe3SHFT0wVw0LNSD12xQVm6AXt9i2P2q
-----END CERTIFICATE-----
