Certificate:
    Data:
        Version: 3 (0x2)
        Serial Number:
            88:02:8c:5c:c0:b6:31:78:49:a6:2d:36:ab:6f:c4:50
        Signature Algorithm: sha256WithRSAEncryption
        Issuer: CN=team199-net
        Validity
            Not Before: Aug 14 14:26:19 2023 GMT
            Not After : Jul 29 14:26:19 2026 GMT
        Subject: CN=team199-client
        Subject Public Key Info:
            Public Key Algorithm: rsaEncryption
                RSA Public-Key: (2048 bit)
                Modulus:
                    00:bf:78:97:43:5e:78:38:ce:38:05:81:63:e7:7b:
                    f9:fc:bf:2a:9b:ec:3f:af:c4:5a:c1:98:fa:45:66:
                    6c:2a:57:4b:21:0a:fa:c9:e5:d9:ff:c3:5f:ec:37:
                    f2:57:34:f4:90:c2:bb:a4:11:b6:53:7c:45:30:50:
                    85:5f:de:d5:a4:7e:12:82:f3:e2:46:ad:2e:d7:97:
                    02:db:3f:aa:e5:66:0a:3f:e5:6c:20:ab:c5:8d:4b:
                    f9:dc:06:4e:0b:5a:5b:2a:89:bd:2d:a0:92:07:e7:
                    4d:14:df:fb:40:96:e8:b6:da:14:5a:3a:6a:84:07:
                    35:d8:d1:b3:0c:98:29:ff:79:cb:51:cc:ff:c6:d0:
                    86:f3:0b:aa:92:2c:7e:c6:dc:6c:5c:da:f0:cb:56:
                    eb:ff:d9:2f:09:47:cb:69:af:bd:b3:c5:ec:0d:26:
                    69:5f:52:70:c3:14:60:a5:bc:4d:8b:6d:43:4b:16:
                    fd:92:a6:9a:08:91:88:89:be:58:d0:2c:5c:bf:ab:
                    8b:0b:76:75:3e:19:0f:52:ff:82:b6:14:2c:df:7b:
                    a2:5a:64:f1:31:5b:bc:fe:94:73:9c:1a:ba:c3:8f:
                    a3:89:59:bb:0e:5d:85:04:fc:82:f1:1c:1b:8e:b0:
                    6b:21:d2:cc:ba:36:08:1b:e1:5f:80:77:54:7b:ce:
                    84:d7
                Exponent: 65537 (0x10001)
        X509v3 extensions:
            X509v3 Basic Constraints: 
                CA:FALSE
            X509v3 Subject Key Identifier: 
                73:63:18:E3:67:BA:3A:FF:46:E3:46:C6:4D:B6:2B:EE:CA:39:02:EB
            X509v3 Authority Key Identifier: 
                keyid:80:B3:B5:CD:0E:D6:93:F0:2F:B8:F5:07:50:8D:7B:95:B0:AC:7B:50
                DirName:/CN=team199-net
                serial:1E:52:66:0B:04:6A:97:6E:C1:4B:91:79:99:09:EE:D0:CF:98:7F:65

            X509v3 Extended Key Usage: 
                TLS Web Client Authentication
            X509v3 Key Usage: 
                Digital Signature
    Signature Algorithm: sha256WithRSAEncryption
         54:c5:84:c6:7c:79:4f:2b:d5:65:24:4a:9b:af:2b:49:17:6b:
         90:b0:a1:6d:41:23:25:ae:50:c1:c2:c1:bb:34:dc:e6:f5:5d:
         a4:07:a3:cc:f3:89:f1:8f:85:a7:d4:3a:79:bf:bf:1f:14:31:
         cc:fc:ec:0b:f9:85:a6:d9:8c:92:3b:62:13:c7:35:36:d5:48:
         d1:35:98:46:ca:5a:9d:d2:7d:de:b6:71:91:5b:08:6a:41:70:
         b7:00:83:65:fb:67:1e:42:ab:40:ec:27:57:d7:6f:f7:7c:f6:
         fe:24:3a:39:ae:d3:1d:1a:1f:aa:9d:35:23:6f:e3:60:dd:81:
         09:0c:c7:d6:89:cc:a9:a6:0e:b4:9a:05:9d:7c:b6:03:da:2d:
         ae:ce:6f:aa:94:40:69:9e:16:64:38:b2:01:56:ec:19:53:3d:
         31:2c:1d:f6:2a:ae:7e:37:6b:66:41:37:09:9c:3a:49:e7:84:
         5d:af:fe:8c:3b:40:b1:ed:8d:17:d4:41:63:a1:56:68:0c:bf:
         d8:e6:8c:01:a8:06:7a:46:b9:52:9b:fa:97:7a:be:48:a6:a1:
         50:80:53:0e:58:0c:ea:ce:e3:b4:13:2e:fd:30:37:53:e6:e8:
         58:e9:d9:82:29:20:46:e7:19:47:e9:67:b4:0c:96:0f:43:96:
         3b:d2:a9:41
-----BEGIN CERTIFICATE-----
MIIDXTCCAkWgAwIBAgIRAIgCjFzAtjF4SaYtNqtvxFAwDQYJKoZIhvcNAQELBQAw
FjEUMBIGA1UEAwwLdGVhbTE5OS1uZXQwHhcNMjMwODE0MTQyNjE5WhcNMjYwNzI5
MTQyNjE5WjAZMRcwFQYDVQQDDA50ZWFtMTk5LWNsaWVudDCCASIwDQYJKoZIhvcN
AQEBBQADggEPADCCAQoCggEBAL94l0NeeDjOOAWBY+d7+fy/KpvsP6/EWsGY+kVm
bCpXSyEK+snl2f/DX+w38lc09JDCu6QRtlN8RTBQhV/e1aR+EoLz4katLteXAts/
quVmCj/lbCCrxY1L+dwGTgtaWyqJvS2gkgfnTRTf+0CW6LbaFFo6aoQHNdjRswyY
Kf95y1HM/8bQhvMLqpIsfsbcbFza8MtW6//ZLwlHy2mvvbPF7A0maV9ScMMUYKW8
TYttQ0sW/ZKmmgiRiIm+WNAsXL+riwt2dT4ZD1L/grYULN97olpk8TFbvP6Uc5wa
usOPo4lZuw5dhQT8gvEcG46wayHSzLo2CBvhX4B3VHvOhNcCAwEAAaOBojCBnzAJ
BgNVHRMEAjAAMB0GA1UdDgQWBBRzYxjjZ7o6/0bjRsZNtivuyjkC6zBRBgNVHSME
SjBIgBSAs7XNDtaT8C+49QdQjXuVsKx7UKEapBgwFjEUMBIGA1UEAwwLdGVhbTE5
OS1uZXSCFB5SZgsEapduwUuReZkJ7tDPmH9lMBMGA1UdJQQMMAoGCCsGAQUFBwMC
MAsGA1UdDwQEAwIHgDANBgkqhkiG9w0BAQsFAAOCAQEAVMWExnx5TyvVZSRKm68r
SRdrkLChbUEjJa5QwcLBuzTc5vVdpAejzPOJ8Y+Fp9Q6eb+/HxQxzPzsC/mFptmM
kjtiE8c1NtVI0TWYRspandJ93rZxkVsIakFwtwCDZftnHkKrQOwnV9dv93z2/iQ6
Oa7THRofqp01I2/jYN2BCQzH1onMqaYOtJoFnXy2A9otrs5vqpRAaZ4WZDiyAVbs
GVM9MSwd9iqufjdrZkE3CZw6SeeEXa/+jDtAse2NF9RBY6FWaAy/2OaMAagGeka5
Upv6l3q+SKahUIBTDlgM6s7jtBMu/TA3U+boWOnZgikgRucZR+lntAyWD0OWO9Kp
QQ==
-----END CERTIFICATE-----
