Certificate:
    Data:
        Version: 3 (0x2)
        Serial Number:
            01:9d:ce:74:c6:3d:e6:e7:bb:99:97:7e:c6:da:c1:3e
        Signature Algorithm: sha256WithRSAEncryption
        Issuer: CN=team168-net
        Validity
            Not Before: Aug 14 14:25:44 2023 GMT
            Not After : Jul 29 14:25:44 2026 GMT
        Subject: CN=team168-client
        Subject Public Key Info:
            Public Key Algorithm: rsaEncryption
                RSA Public-Key: (2048 bit)
                Modulus:
                    00:dc:4c:53:67:19:14:7d:05:b9:2f:1f:d8:8e:5c:
                    13:d4:1a:59:b0:22:53:21:4f:ce:a4:c4:93:46:19:
                    c9:bb:36:67:2b:b5:f0:2e:4d:5d:77:3f:48:7f:9c:
                    7d:15:45:e9:96:06:57:f7:85:f7:de:17:26:f6:f9:
                    34:a4:bb:ee:f2:c4:63:3f:2d:b3:e3:12:7a:11:cd:
                    dd:5e:4d:ca:56:2f:d9:b6:f3:17:64:66:35:96:5a:
                    4c:b2:f2:e1:4b:e5:9b:84:d0:2d:e0:9c:f1:17:95:
                    7f:2c:0d:57:2c:72:b4:bf:c0:c2:e3:6a:f2:21:4c:
                    dc:68:77:f9:7d:14:3e:9f:f7:11:e0:5a:2d:b4:2e:
                    3f:cc:6f:56:20:b8:49:7f:fd:ca:6a:ab:72:b4:b9:
                    40:45:23:b9:3c:77:90:1c:89:1b:bd:bc:4c:e3:f9:
                    ad:1e:ad:37:0a:0d:ca:cd:9a:39:5e:9a:8b:37:1b:
                    ed:71:84:bc:8c:c2:24:d0:de:61:6c:fe:e5:c2:3c:
                    e8:c2:09:26:df:62:e0:e5:f8:3f:aa:3e:c6:dd:9b:
                    91:7d:16:a6:49:00:8c:ca:e6:39:98:b1:e6:5f:76:
                    48:68:22:00:2c:e6:1d:e1:e6:92:20:8d:26:aa:b3:
                    66:b8:65:10:39:2d:5b:b6:e3:53:cd:9e:bb:04:6e:
                    2c:cf
                Exponent: 65537 (0x10001)
        X509v3 extensions:
            X509v3 Basic Constraints: 
                CA:FALSE
            X509v3 Subject Key Identifier: 
                D8:05:C1:40:E1:99:58:6F:AB:80:5D:EC:69:0A:80:02:C4:BA:97:62
            X509v3 Authority Key Identifier: 
                keyid:86:96:9D:B5:BD:FF:95:FB:A5:25:6D:E0:00:D8:41:71:39:68:92:6A
                DirName:/CN=team168-net
                serial:54:7F:FE:50:D8:6E:47:1F:64:96:4A:5A:EA:B2:6E:BA:83:0C:CF:CA

            X509v3 Extended Key Usage: 
                TLS Web Client Authentication
            X509v3 Key Usage: 
                Digital Signature
    Signature Algorithm: sha256WithRSAEncryption
         5d:f2:ad:16:68:08:c6:4e:5f:7d:94:21:d9:79:cd:f9:df:74:
         3d:15:d3:4c:11:7b:ed:14:0a:e5:fa:a4:37:f9:cb:19:b8:d1:
         ca:ed:a4:86:9c:10:db:e1:a2:a2:bd:11:12:71:cf:bc:b2:77:
         01:e2:e5:11:0d:37:82:d6:38:92:73:0a:d9:50:72:24:a6:0c:
         57:24:a4:51:fc:47:e3:5c:8c:c9:1b:e5:25:8d:d2:14:4c:70:
         51:4b:e7:f9:e6:5d:3b:52:38:dc:dc:77:a4:24:cf:5c:32:d4:
         1d:40:3e:b9:95:eb:43:09:9f:61:21:45:01:bc:f2:72:e3:47:
         ec:49:f8:5c:ec:7a:cf:b4:0c:05:fd:48:90:8b:08:cc:a5:9d:
         bc:c9:4c:12:75:20:da:fd:1e:ab:89:7f:6c:5c:41:18:5c:8b:
         43:d6:3e:bc:d1:1b:5c:af:07:3b:f2:0a:68:c2:8b:ac:e7:46:
         7e:32:ef:f4:75:31:ac:7c:f3:b9:8d:04:00:27:8c:1e:b6:c0:
         c7:2f:79:5c:d7:e4:0f:12:05:b5:39:ef:9c:03:f4:95:89:ca:
         ad:a7:da:d8:e0:93:25:37:56:7f:13:8f:13:82:68:06:ca:d0:
         ed:36:96:2e:62:77:fc:f2:fd:f6:65:72:2c:f8:e7:28:3d:4c:
         4e:02:2c:ea
-----BEGIN CERTIFICATE-----
MIIDXDCCAkSgAwIBAgIQAZ3OdMY95ue7mZd+xtrBPjANBgkqhkiG9w0BAQsFADAW
MRQwEgYDVQQDDAt0ZWFtMTY4LW5ldDAeFw0yMzA4MTQxNDI1NDRaFw0yNjA3Mjkx
NDI1NDRaMBkxFzAVBgNVBAMMDnRlYW0xNjgtY2xpZW50MIIBIjANBgkqhkiG9w0B
AQEFAAOCAQ8AMIIBCgKCAQEA3ExTZxkUfQW5Lx/YjlwT1BpZsCJTIU/OpMSTRhnJ
uzZnK7XwLk1ddz9If5x9FUXplgZX94X33hcm9vk0pLvu8sRjPy2z4xJ6Ec3dXk3K
Vi/ZtvMXZGY1llpMsvLhS+WbhNAt4JzxF5V/LA1XLHK0v8DC42ryIUzcaHf5fRQ+
n/cR4FottC4/zG9WILhJf/3KaqtytLlARSO5PHeQHIkbvbxM4/mtHq03Cg3KzZo5
XpqLNxvtcYS8jMIk0N5hbP7lwjzowgkm32Lg5fg/qj7G3ZuRfRamSQCMyuY5mLHm
X3ZIaCIALOYd4eaSII0mqrNmuGUQOS1btuNTzZ67BG4szwIDAQABo4GiMIGfMAkG
A1UdEwQCMAAwHQYDVR0OBBYEFNgFwUDhmVhvq4Bd7GkKgALEupdiMFEGA1UdIwRK
MEiAFIaWnbW9/5X7pSVt4ADYQXE5aJJqoRqkGDAWMRQwEgYDVQQDDAt0ZWFtMTY4
LW5ldIIUVH/+UNhuRx9klkpa6rJuuoMMz8owEwYDVR0lBAwwCgYIKwYBBQUHAwIw
CwYDVR0PBAQDAgeAMA0GCSqGSIb3DQEBCwUAA4IBAQBd8q0WaAjGTl99lCHZec35
33Q9FdNMEXvtFArl+qQ3+csZuNHK7aSGnBDb4aKivREScc+8sncB4uURDTeC1jiS
cwrZUHIkpgxXJKRR/EfjXIzJG+UljdIUTHBRS+f55l07Ujjc3HekJM9cMtQdQD65
letDCZ9hIUUBvPJy40fsSfhc7HrPtAwF/UiQiwjMpZ28yUwSdSDa/R6riX9sXEEY
XItD1j680Rtcrwc78gpowous50Z+Mu/0dTGsfPO5jQQAJ4wetsDHL3lc1+QPEgW1
Oe+cA/SVicqtp9rY4JMlN1Z/E48TgmgGytDtNpYuYnf88v32ZXIs+OcoPUxOAizq
-----END CERTIFICATE-----
